libAtlasUI.so:Atlas_DisplayError
libAtlasUI.so:Atlas_GLSetCurrent
libAtlasUI.so:Atlas_GLSwapBuffers
libAtlasUI.so:Atlas_SetConfigDirectory
libAtlasUI.so:Atlas_SetDataDirectory
libAtlasUI.so:Atlas_SetMessagePasser
libAtlasUI.so:Atlas_StartWindow
libAtlasUI.so:ShareableFree
libAtlasUI.so:ShareableMalloc
libCollada.so:convert_dae_to_pmd
libCollada.so:convert_dae_to_psa
libCollada.so:set_logger
libCollada.so:set_skeleton_definitions
libmozjs128-debug.so:BIG5_ENCODING
libmozjs128-debug.so:EUC_JP_ENCODING
libmozjs128-debug.so:EUC_KR_ENCODING
libmozjs128-debug.so:GB18030_ENCODING
libmozjs128-debug.so:GBK_ENCODING
libmozjs128-debug.so:IBM866_ENCODING
libmozjs128-debug.so:ISO_2022_JP_ENCODING
libmozjs128-debug.so:ISO_8859_10_ENCODING
libmozjs128-debug.so:ISO_8859_13_ENCODING
libmozjs128-debug.so:ISO_8859_14_ENCODING
libmozjs128-debug.so:ISO_8859_15_ENCODING
libmozjs128-debug.so:ISO_8859_16_ENCODING
libmozjs128-debug.so:ISO_8859_2_ENCODING
libmozjs128-debug.so:ISO_8859_3_ENCODING
libmozjs128-debug.so:ISO_8859_4_ENCODING
libmozjs128-debug.so:ISO_8859_5_ENCODING
libmozjs128-debug.so:ISO_8859_6_ENCODING
libmozjs128-debug.so:ISO_8859_7_ENCODING
libmozjs128-debug.so:ISO_8859_8_ENCODING
libmozjs128-debug.so:ISO_8859_8_I_ENCODING
libmozjs128-debug.so:KOI8_R_ENCODING
libmozjs128-debug.so:KOI8_U_ENCODING
libmozjs128-debug.so:LZ4F_compressBegin
libmozjs128-debug.so:LZ4F_compressBound
libmozjs128-debug.so:LZ4F_compressEnd
libmozjs128-debug.so:LZ4F_compressFrame
libmozjs128-debug.so:LZ4F_compressFrameBound
libmozjs128-debug.so:LZ4F_compressUpdate
libmozjs128-debug.so:LZ4F_compressionLevel_max
libmozjs128-debug.so:LZ4F_createCompressionContext
libmozjs128-debug.so:LZ4F_createDecompressionContext
libmozjs128-debug.so:LZ4F_decompress
libmozjs128-debug.so:LZ4F_flush
libmozjs128-debug.so:LZ4F_freeCompressionContext
libmozjs128-debug.so:LZ4F_freeDecompressionContext
libmozjs128-debug.so:LZ4F_getErrorName
libmozjs128-debug.so:LZ4F_getFrameInfo
libmozjs128-debug.so:LZ4F_getVersion
libmozjs128-debug.so:LZ4F_headerSize
libmozjs128-debug.so:LZ4F_isError
libmozjs128-debug.so:LZ4F_resetDecompressionContext
libmozjs128-debug.so:MACINTOSH_ENCODING
libmozjs128-debug.so:MOZ_CrashPrintf
libmozjs128-debug.so:MozDescribeCodeAddress
libmozjs128-debug.so:MozFormatCodeAddress
libmozjs128-debug.so:MozFormatCodeAddressDetails
libmozjs128-debug.so:MozStackWalk
libmozjs128-debug.so:MozTagAnonymousMemory
libmozjs128-debug.so:MozTaggedAnonymousMmap
libmozjs128-debug.so:MozWalkTheStack
libmozjs128-debug.so:MozWalkTheStackWithWriter
libmozjs128-debug.so:REPLACEMENT_ENCODING
libmozjs128-debug.so:SHIFT_JIS_ENCODING
libmozjs128-debug.so:UTF_16BE_ENCODING
libmozjs128-debug.so:UTF_16LE_ENCODING
libmozjs128-debug.so:UTF_8_ENCODING
libmozjs128-debug.so:WINDOWS_1250_ENCODING
libmozjs128-debug.so:WINDOWS_1251_ENCODING
libmozjs128-debug.so:WINDOWS_1252_ENCODING
libmozjs128-debug.so:WINDOWS_1253_ENCODING
libmozjs128-debug.so:WINDOWS_1254_ENCODING
libmozjs128-debug.so:WINDOWS_1255_ENCODING
libmozjs128-debug.so:WINDOWS_1256_ENCODING
libmozjs128-debug.so:WINDOWS_1257_ENCODING
libmozjs128-debug.so:WINDOWS_1258_ENCODING
libmozjs128-debug.so:WINDOWS_874_ENCODING
libmozjs128-debug.so:X_MAC_CYRILLIC_ENCODING
libmozjs128-debug.so:X_USER_DEFINED_ENCODING
libmozjs128-debug.so:_RINvMNtCs1GuMdp1PKBr_4core3stre18trim_start_matchesReECsezTIWZHnNQ7_14rustc_demangle
libmozjs128-debug.so:_RINvMNtCs1GuMdp1PKBr_4core5sliceSh11copy_withinINtNtNtB5_3ops5range14RangeInclusivejEECs9zevlwxmzUZ_11miniz_oxide
libmozjs128-debug.so:_RINvMNtCs1GuMdp1PKBr_4core6optionINtB3_6OptionRINtNtB5_4cell4CellhEE3zipBI_ECs9zevlwxmzUZ_11miniz_oxide
libmozjs128-debug.so:_RINvMNtCs1GuMdp1PKBr_4core6optionINtB3_6OptionTRINtNtB5_4cell4CellhEBJ_EE3zipBJ_ECs9zevlwxmzUZ_11miniz_oxide
libmozjs128-debug.so:_RINvMNtNtNtCse7kRp5EpEcX_5alloc11collections5btree4nodeINtB3_8LeafNodeyNtNtNtCsl4XjPnlmSxw_5gimli4read6abbrev12AbbreviationE3newNtNtB9_5alloc6GlobalEB1d_
libmozjs128-debug.so:_RINvMs0_NtNtNtCse7kRp5EpEcX_5alloc11collections5btree6searchINtNtB8_4node7NodeRefNtNtBZ_6marker3MutyNtNtNtCsl4XjPnlmSxw_5gimli4read6abbrev12AbbreviationNtB1j_14LeafOrInternalE14find_key_indexyEB1G_
libmozjs128-debug.so:_RINvMs0_NtNtNtCse7kRp5EpEcX_5alloc11collections5btree6searchINtNtB8_4node7NodeRefNtNtBZ_6marker5ImmutyNtNtNtCsl4XjPnlmSxw_5gimli4read6abbrev12AbbreviationNtB1j_14LeafOrInternalE14find_key_indexyEB1I_
libmozjs128-debug.so:_RINvMs5_NtNtCs1GuMdp1PKBr_4core3fmt8buildersNtB6_9DebugList7entriesRNtNtNtCsl4XjPnlmSxw_5gimli4read6abbrev22AttributeSpecificationINtNtNtBa_5slice4iter4IterB14_EEB1a_
libmozjs128-debug.so:_RINvMs5_NtNtCs1GuMdp1PKBr_4core3fmt8buildersNtB6_9DebugList7entriesRhINtNtNtBa_5slice4iter4IterhEECsezTIWZHnNQ7_14rustc_demangle
libmozjs128-debug.so:_RINvMs5_NtNtCsh60fBBS5e0U_3std2io5errorNtB6_5Error3newNtNtNtCs1GuMdp1PKBr_4core3num5error15TryFromIntErrorEBa_
libmozjs128-debug.so:_RINvMs5_NtNtCsh60fBBS5e0U_3std2io5errorNtB6_5Error3newReEBa_
libmozjs128-debug.so:_RINvMs8_NtNtNtCse7kRp5EpEcX_5alloc11collections5btree4nodeINtB6_7NodeRefNtNtB6_6marker5OwnedyNtNtNtCsl4XjPnlmSxw_5gimli4read6abbrev12AbbreviationNtB1a_4LeafE13from_new_leafNtNtBc_5alloc6GlobalEB1z_
libmozjs128-debug.so:_RINvMs9_NtNtNtCse7kRp5EpEcX_5alloc11collections5btree4nodeINtB6_7NodeRefNtNtB6_6marker5OwnedyNtNtNtCsl4XjPnlmSxw_5gimli4read6abbrev12AbbreviationNtB1a_8InternalE12new_internalNtNtBc_5alloc6GlobalEB1z_
libmozjs128-debug.so:_RINvMs9_NtNtNtCse7kRp5EpEcX_5alloc11collections5btree4nodeINtB6_7NodeRefNtNtB6_6marker5OwnedyNtNtNtCsl4XjPnlmSxw_5gimli4read6abbrev12AbbreviationNtB1a_8InternalE17from_new_internalNtNtBc_5alloc6GlobalEB1z_
libmozjs128-debug.so:_RINvMsK_NtNtNtCse7kRp5EpEcX_5alloc11collections5btree4nodeINtB6_6HandleINtB6_7NodeRefNtNtB6_6marker3MutyNtNtNtCsl4XjPnlmSxw_5gimli4read6abbrev12AbbreviationNtB1n_4LeafENtB1n_4EdgeE6insertNtNtBc_5alloc6GlobalEB1K_
libmozjs128-debug.so:_RINvMsM_NtNtNtCse7kRp5EpEcX_5alloc11collections5btree4nodeINtB6_6HandleINtB6_7NodeRefNtNtB6_6marker3MutyNtNtNtCsl4XjPnlmSxw_5gimli4read6abbrev12AbbreviationNtB1n_8InternalENtB1n_4EdgeE6insertNtNtBc_5alloc6GlobalEB1K_
libmozjs128-debug.so:_RINvMsN_NtNtNtCse7kRp5EpEcX_5alloc11collections5btree4nodeINtB6_6HandleINtB6_7NodeRefNtNtB6_6marker3MutyNtNtNtCsl4XjPnlmSxw_5gimli4read6abbrev12AbbreviationNtB1n_4LeafENtB1n_4EdgeE16insert_recursingNtNtBc_5alloc6GlobalNCNvMs6_NtNtB8_3map5entryINtB3C_11VacantEntryyB1E_E12insert_entry0EB1K_
libmozjs128-debug.so:_RINvMsV_NtNtNtCse7kRp5EpEcX_5alloc11collections5btree4nodeINtB6_6HandleINtB6_7NodeRefNtNtB6_6marker3MutyNtNtNtCsl4XjPnlmSxw_5gimli4read6abbrev12AbbreviationNtB1n_4LeafENtB1n_2KVE5splitNtNtBc_5alloc6GlobalEB1K_
libmozjs128-debug.so:_RINvMsW_NtNtNtCse7kRp5EpEcX_5alloc11collections5btree4nodeINtB6_6HandleINtB6_7NodeRefNtNtB6_6marker3MutyNtNtNtCsl4XjPnlmSxw_5gimli4read6abbrev12AbbreviationNtB1n_8InternalENtB1n_2KVE5splitNtNtBc_5alloc6GlobalEB1K_
libmozjs128-debug.so:_RINvMs_NtNtNtCse7kRp5EpEcX_5alloc11collections5btree4nodeINtB5_12InternalNodeyNtNtNtCsl4XjPnlmSxw_5gimli4read6abbrev12AbbreviationE3newNtNtBb_5alloc6GlobalEB1k_
libmozjs128-debug.so:_RINvMs_NtNtNtCse7kRp5EpEcX_5alloc11collections5btree6searchINtNtB7_4node7NodeRefNtNtBY_6marker3MutyNtNtNtCsl4XjPnlmSxw_5gimli4read6abbrev12AbbreviationNtB1i_14LeafOrInternalE11search_treeyEB1F_
libmozjs128-debug.so:_RINvMs_NtNtNtCse7kRp5EpEcX_5alloc11collections5btree6searchINtNtB7_4node7NodeRefNtNtBY_6marker5ImmutyNtNtNtCsl4XjPnlmSxw_5gimli4read6abbrev12AbbreviationNtB1i_14LeafOrInternalE11search_treeyEB1H_
libmozjs128-debug.so:_RINvMsi_NtNtNtCse7kRp5EpEcX_5alloc11collections5btree3mapINtB6_8BTreeMapyNtNtNtCsl4XjPnlmSxw_5gimli4read6abbrev12AbbreviationE3getyEB1f_
libmozjs128-debug.so:_RINvMsp_NtNtNtCse7kRp5EpEcX_5alloc11collections5btree4nodeINtB6_7NodeRefNtNtB6_6marker3MutyNtNtNtCsl4XjPnlmSxw_5gimli4read6abbrev12AbbreviationNtB1a_8InternalE30correct_childrens_parent_linksINtNtNtCs1GuMdp1PKBr_4core3ops5range14RangeInclusivejEEB1x_
libmozjs128-debug.so:_RINvMsp_NtNtNtCse7kRp5EpEcX_5alloc11collections5btree4nodeINtB6_7NodeRefNtNtB6_6marker3MutyNtNtNtCsl4XjPnlmSxw_5gimli4read6abbrev12AbbreviationNtB1a_8InternalE30correct_childrens_parent_linksINtNtNtCs1GuMdp1PKBr_4core3ops5range5RangejEEB1x_
libmozjs128-debug.so:_RINvNtCs1GuMdp1PKBr_4core6escape14escape_unicodeKja_ECsezTIWZHnNQ7_14rustc_demangle
libmozjs128-debug.so:_RINvNtCs1GuMdp1PKBr_4core9panicking13assert_failedAhj4_RShECsh60fBBS5e0U_3std
libmozjs128-debug.so:_RINvNtCs1GuMdp1PKBr_4core9panicking13assert_failedINtNtB4_6option6OptionjEBM_EB4_
libmozjs128-debug.so:_RINvNtCs1GuMdp1PKBr_4core9panicking13assert_failedjjEB4_
libmozjs128-debug.so:_RINvNtCs1GuMdp1PKBr_4core9panicking13assert_failedllECsh60fBBS5e0U_3std
libmozjs128-debug.so:_RINvNtCs1GuMdp1PKBr_4core9panicking13assert_failedssECsh60fBBS5e0U_3std
libmozjs128-debug.so:_RINvNtCs1GuMdp1PKBr_4core9panicking13assert_failedyyEB4_
libmozjs128-debug.so:_RINvNtCsh60fBBS5e0U_3std9panicking11begin_panicReEB4_
libmozjs128-debug.so:_RINvNtNtCs1GuMdp1PKBr_4core5slice5index5rangeINtNtNtB6_3ops5range14RangeInclusivejEECs9zevlwxmzUZ_11miniz_oxide
libmozjs128-debug.so:_RINvNtNtCsh60fBBS5e0U_3std3sys9backtrace26___rust_end_short_backtraceNCINvNtB6_9panicking11begin_panicReE0zEB6_
libmozjs128-debug.so:_RINvNtNtCsh60fBBS5e0U_3std3sys9backtrace26___rust_end_short_backtraceNCNvNtB6_9panicking13panic_handler0zEB6_
libmozjs128-debug.so:_RINvNtNtNtCs1GuMdp1PKBr_4core5slice4sort6stable14driftsort_mainNtNtCsec783pc85az_9addr2line4line12LineSequenceNCINvMNtCse7kRp5EpEcX_5alloc5sliceSBZ_11sort_by_keyyNCINvMs_B11_NtB11_5Lines5parseINtNtNtCsl4XjPnlmSxw_5gimli4read12endian_slice11EndianSliceNtNtB3b_9endianity12LittleEndianEEs_0E0INtNtB1S_3vec3VecBZ_EECsh60fBBS5e0U_3std
libmozjs128-debug.so:_RINvNtNtNtCs1GuMdp1PKBr_4core5slice4sort6stable14driftsort_mainNtNtCsec783pc85az_9addr2line4unit9UnitRangeNCINvMNtCse7kRp5EpEcX_5alloc5sliceSBZ_11sort_by_keyyNCNvMs_B11_INtB11_8ResUnitsINtNtNtCsl4XjPnlmSxw_5gimli4read12endian_slice11EndianSliceNtNtB34_9endianity12LittleEndianEE5parses2_0E0INtNtB1O_3vec3VecBZ_EECsh60fBBS5e0U_3std
libmozjs128-debug.so:_RINvNtNtNtCs1GuMdp1PKBr_4core5slice4sort6stable14driftsort_mainNtNtCsec783pc85az_9addr2line8function15FunctionAddressNCINvMNtCse7kRp5EpEcX_5alloc5sliceSBZ_11sort_by_keyyNCNvMs0_B11_INtB11_9FunctionsINtNtNtCsl4XjPnlmSxw_5gimli4read12endian_slice11EndianSliceNtNtB3h_9endianity12LittleEndianEE5parses_0E0INtNtB1Z_3vec3VecBZ_EECsh60fBBS5e0U_3std
libmozjs128-debug.so:_RINvNtNtNtCs1GuMdp1PKBr_4core5slice4sort6stable14driftsort_mainNtNtCsec783pc85az_9addr2line8function22InlinedFunctionAddressNCINvMNtCse7kRp5EpEcX_5alloc5sliceSBZ_7sort_byNCNvMs1_B11_INtB11_8FunctionINtNtNtCsl4XjPnlmSxw_5gimli4read12endian_slice11EndianSliceNtNtB3h_9endianity12LittleEndianEE5parse0E0INtNtB26_3vec3VecBZ_EECsh60fBBS5e0U_3std
libmozjs128-debug.so:_RINvNtNtNtCs1GuMdp1PKBr_4core5slice4sort6stable14driftsort_mainTNtNtCsl4XjPnlmSxw_5gimli6common15DebugInfoOffsetNtB12_18DebugArangesOffsetENCINvMNtCse7kRp5EpEcX_5alloc5sliceSBZ_11sort_by_keyB10_NCNvMs_NtCsec783pc85az_9addr2line4unitINtB3d_8ResUnitsINtNtNtB14_4read12endian_slice11EndianSliceNtNtB14_9endianity12LittleEndianEE5parse0E0INtNtB2l_3vec3VecBZ_EECsh60fBBS5e0U_3std
libmozjs128-debug.so:_RINvNtNtNtCs1GuMdp1PKBr_4core5slice4sort8unstable7ipnsortNtNtNtNtNtCsh60fBBS5e0U_3std12backtrace_rs9symbolize5gimli3elf9ParsedSymNCINvMB6_SBT_20sort_unstable_by_keyyNCNvMs_BV_NtBV_6Object5parses1_0E0EB13_
libmozjs128-debug.so:_RINvNtNtNtCse7kRp5EpEcX_5alloc11collections5btree4node12slice_insertINtNtNtCs1GuMdp1PKBr_4core3ptr8non_null7NonNullINtB2_8LeafNodeyNtNtNtCsl4XjPnlmSxw_5gimli4read6abbrev12AbbreviationEEEB2b_
libmozjs128-debug.so:_RINvNtNtNtCse7kRp5EpEcX_5alloc11collections5btree4node12slice_insertNtNtNtCsl4XjPnlmSxw_5gimli4read6abbrev12AbbreviationEB1a_
libmozjs128-debug.so:_RINvNtNtNtCse7kRp5EpEcX_5alloc11collections5btree4node12slice_insertyECsl4XjPnlmSxw_5gimli
libmozjs128-debug.so:_RINvNtNtNtCse7kRp5EpEcX_5alloc11collections5btree4node13move_to_sliceINtNtNtCs1GuMdp1PKBr_4core3ptr8non_null7NonNullINtB2_8LeafNodeyNtNtNtCsl4XjPnlmSxw_5gimli4read6abbrev12AbbreviationEEEB2c_
libmozjs128-debug.so:_RINvNtNtNtCse7kRp5EpEcX_5alloc11collections5btree4node13move_to_sliceNtNtNtCsl4XjPnlmSxw_5gimli4read6abbrev12AbbreviationEB1b_
libmozjs128-debug.so:_RINvNtNtNtCse7kRp5EpEcX_5alloc11collections5btree4node13move_to_sliceyECsl4XjPnlmSxw_5gimli
libmozjs128-debug.so:_RINvNtNtNtNtCs1GuMdp1PKBr_4core5slice4sort6stable9quicksort9quicksortNtNtCsec783pc85az_9addr2line4line12LineSequenceNCINvMNtCse7kRp5EpEcX_5alloc5sliceSB15_11sort_by_keyyNCINvMs_B17_NtB17_5Lines5parseINtNtNtCsl4XjPnlmSxw_5gimli4read12endian_slice11EndianSliceNtNtB3i_9endianity12LittleEndianEEs_0E0ECsh60fBBS5e0U_3std
libmozjs128-debug.so:_RINvNtNtNtNtCs1GuMdp1PKBr_4core5slice4sort6stable9quicksort9quicksortNtNtCsec783pc85az_9addr2line4unit9UnitRangeNCINvMNtCse7kRp5EpEcX_5alloc5sliceSB15_11sort_by_keyyNCNvMs_B17_INtB17_8ResUnitsINtNtNtCsl4XjPnlmSxw_5gimli4read12endian_slice11EndianSliceNtNtB3b_9endianity12LittleEndianEE5parses2_0E0ECsh60fBBS5e0U_3std
libmozjs128-debug.so:_RINvNtNtNtNtCs1GuMdp1PKBr_4core5slice4sort6stable9quicksort9quicksortNtNtCsec783pc85az_9addr2line8function15FunctionAddressNCINvMNtCse7kRp5EpEcX_5alloc5sliceSB15_11sort_by_keyyNCNvMs0_B17_INtB17_9FunctionsINtNtNtCsl4XjPnlmSxw_5gimli4read12endian_slice11EndianSliceNtNtB3o_9endianity12LittleEndianEE5parses_0E0ECsh60fBBS5e0U_3std
libmozjs128-debug.so:_RINvNtNtNtNtCs1GuMdp1PKBr_4core5slice4sort6stable9quicksort9quicksortNtNtCsec783pc85az_9addr2line8function22InlinedFunctionAddressNCINvMNtCse7kRp5EpEcX_5alloc5sliceSB15_7sort_byNCNvMs1_B17_INtB17_8FunctionINtNtNtCsl4XjPnlmSxw_5gimli4read12endian_slice11EndianSliceNtNtB3o_9endianity12LittleEndianEE5parse0E0ECsh60fBBS5e0U_3std
libmozjs128-debug.so:_RINvNtNtNtNtCs1GuMdp1PKBr_4core5slice4sort6stable9quicksort9quicksortTNtNtCsl4XjPnlmSxw_5gimli6common15DebugInfoOffsetNtB18_18DebugArangesOffsetENCINvMNtCse7kRp5EpEcX_5alloc5sliceSB15_11sort_by_keyB16_NCNvMs_NtCsec783pc85az_9addr2line4unitINtB3k_8ResUnitsINtNtNtB1a_4read12endian_slice11EndianSliceNtNtB1a_9endianity12LittleEndianEE5parse0E0ECsh60fBBS5e0U_3std
libmozjs128-debug.so:_RINvNtNtNtNtCs1GuMdp1PKBr_4core5slice4sort8unstable8heapsort8heapsortNtNtNtNtNtCsh60fBBS5e0U_3std12backtrace_rs9symbolize5gimli3elf9ParsedSymNCINvMB8_SB15_20sort_unstable_by_keyyNCNvMs_B17_NtB17_6Object5parses1_0E0EB1f_
libmozjs128-debug.so:_RINvNvMs2_NtCse7kRp5EpEcX_5alloc7raw_vecINtB8_11RawVecInnerpE7reserve21do_reserve_and_handleNtNtBa_5alloc6GlobalECsec783pc85az_9addr2line
libmozjs128-debug.so:_RINvXs0_NtNtNtCs1GuMdp1PKBr_4core4iter8adapters6copiedINtB6_6CopiedINtNtNtBc_5slice4iter4IterhEENtNtNtBa_6traits12double_ended19DoubleEndedIterator9try_rfoldjNCINvNvNtNtB1A_8iterator8Iterator9rposition5checkhNCNvMs2_NtCsezTIWZHnNQ7_14rustc_demangle2v0NtB3s_6Parser5ident0E0INtNtNtBc_3ops12control_flow11ControlFlowjjEEB3u_
libmozjs128-debug.so:_RNvCs5Gf63yDCMzw_7___rustc10rust_panic
libmozjs128-debug.so:_RNvCs5Gf63yDCMzw_7___rustc11___rdl_alloc
libmozjs128-debug.so:_RNvCs5Gf63yDCMzw_7___rustc12___rust_abort
libmozjs128-debug.so:_RNvCs5Gf63yDCMzw_7___rustc12___rust_alloc
libmozjs128-debug.so:_RNvCs5Gf63yDCMzw_7___rustc13___rdl_dealloc
libmozjs128-debug.so:_RNvCs5Gf63yDCMzw_7___rustc13___rdl_realloc
libmozjs128-debug.so:_RNvCs5Gf63yDCMzw_7___rustc14___rust_dealloc
libmozjs128-debug.so:_RNvCs5Gf63yDCMzw_7___rustc14___rust_realloc
libmozjs128-debug.so:_RNvCs5Gf63yDCMzw_7___rustc17___rust_drop_panic
libmozjs128-debug.so:_RNvCs5Gf63yDCMzw_7___rustc17rust_begin_unwind
libmozjs128-debug.so:_RNvCs5Gf63yDCMzw_7___rustc18___rdl_alloc_zeroed
libmozjs128-debug.so:_RNvCs5Gf63yDCMzw_7___rustc18___rust_start_panic
libmozjs128-debug.so:_RNvCs5Gf63yDCMzw_7___rustc19___rust_alloc_zeroed
libmozjs128-debug.so:_RNvCs5Gf63yDCMzw_7___rustc20___rust_panic_cleanup
libmozjs128-debug.so:_RNvCs5Gf63yDCMzw_7___rustc24___rust_foreign_exception
libmozjs128-debug.so:_RNvCs5Gf63yDCMzw_7___rustc25___rdl_alloc_error_handler
libmozjs128-debug.so:_RNvCs5Gf63yDCMzw_7___rustc26___rust_alloc_error_handler
libmozjs128-debug.so:_RNvCs5Gf63yDCMzw_7___rustc35___rust_no_alloc_shim_is_unstable_v2
libmozjs128-debug.so:_RNvCs5Gf63yDCMzw_7___rustc42___rust_alloc_error_handler_should_panic_v2
libmozjs128-debug.so:_RNvCsezTIWZHnNQ7_14rustc_demangle12try_demangle
libmozjs128-debug.so:_RNvCsezTIWZHnNQ7_14rustc_demangle8demangle
libmozjs128-debug.so:_RNvCskA5z82iKagx_6adler213adler32_slice
libmozjs128-debug.so:_RNvMCskA5z82iKagx_6adler2NtB2_7Adler3211write_slice
libmozjs128-debug.so:_RNvMNtCs1GuMdp1PKBr_4core3stre12escape_debug
libmozjs128-debug.so:_RNvMNtCs1GuMdp1PKBr_4core3stre12substr_range
libmozjs128-debug.so:_RNvMNtCs1GuMdp1PKBr_4core3stre13from_utf8_mut
libmozjs128-debug.so:_RNvMNtCs1GuMdp1PKBr_4core3stre22split_at_mut_unchecked
libmozjs128-debug.so:_RNvMNtCs1GuMdp1PKBr_4core3stre9from_utf8
libmozjs128-debug.so:_RNvMNtCs1GuMdp1PKBr_4core5sliceSh11starts_withCsec783pc85az_9addr2line
libmozjs128-debug.so:_RNvMNtCs1GuMdp1PKBr_4core5sliceSh11starts_withCsezTIWZHnNQ7_14rustc_demangle
libmozjs128-debug.so:_RNvMNtCs1GuMdp1PKBr_4core5sliceSh9ends_withCsec783pc85az_9addr2line
libmozjs128-debug.so:_RNvMNtCs1GuMdp1PKBr_4core6escapeINtB2_15EscapeIterInnerKja_NtB2_12MaybeEscapedE9backslashCsezTIWZHnNQ7_14rustc_demangle
libmozjs128-debug.so:_RNvMNtCse7kRp5EpEcX_5alloc6stringNtB2_6String10from_utf16
libmozjs128-debug.so:_RNvMNtCse7kRp5EpEcX_5alloc6stringNtB2_6String11try_reserve
libmozjs128-debug.so:_RNvMNtCse7kRp5EpEcX_5alloc6stringNtB2_6String12from_utf16be
libmozjs128-debug.so:_RNvMNtCse7kRp5EpEcX_5alloc6stringNtB2_6String12from_utf16le
libmozjs128-debug.so:_RNvMNtCse7kRp5EpEcX_5alloc6stringNtB2_6String15from_utf8_lossy
libmozjs128-debug.so:_RNvMNtCse7kRp5EpEcX_5alloc6stringNtB2_6String17try_reserve_exact
libmozjs128-debug.so:_RNvMNtCse7kRp5EpEcX_5alloc6stringNtB2_6String18from_utf16be_lossy
libmozjs128-debug.so:_RNvMNtCse7kRp5EpEcX_5alloc6stringNtB2_6String18from_utf16le_lossy
libmozjs128-debug.so:_RNvMNtCse7kRp5EpEcX_5alloc6stringNtB2_6String21from_utf8_lossy_owned
libmozjs128-debug.so:_RNvMNtCsh60fBBS5e0U_3std4timeNtB2_7Instant11checked_add
libmozjs128-debug.so:_RNvMNtCsh60fBBS5e0U_3std4timeNtB2_7Instant11checked_sub
libmozjs128-debug.so:_RNvMNtCsh60fBBS5e0U_3std4timeNtB2_7Instant14duration_since
libmozjs128-debug.so:_RNvMNtCsh60fBBS5e0U_3std4timeNtB2_7Instant22checked_duration_since
libmozjs128-debug.so:_RNvMNtCsh60fBBS5e0U_3std4timeNtB2_7Instant25saturating_duration_since
libmozjs128-debug.so:_RNvMNtCsh60fBBS5e0U_3std4timeNtB2_7Instant3now
libmozjs128-debug.so:_RNvMNtCsh60fBBS5e0U_3std4timeNtB2_7Instant7elapsed
libmozjs128-debug.so:_RNvMNtCsh60fBBS5e0U_3std6threadNtB2_7Builder4name
libmozjs128-debug.so:_RNvMNtNtCs1GuMdp1PKBr_4core3num3fmtNtB2_4Part5write
libmozjs128-debug.so:_RNvMNtNtCs1GuMdp1PKBr_4core3num9diy_floatNtB2_2Fp12normalize_to
libmozjs128-debug.so:_RNvMNtNtCs1GuMdp1PKBr_4core5alloc6layoutNtB2_6Layout19is_size_align_valid
libmozjs128-debug.so:_RNvMNtNtCse7kRp5EpEcX_5alloc3ffi5c_strNtB2_19FromVecWithNulError8as_bytes
libmozjs128-debug.so:_RNvMNtNtCsh60fBBS5e0U_3std3net3tcpNtB2_9TcpStream10local_addr
libmozjs128-debug.so:_RNvMNtNtCsh60fBBS5e0U_3std3net3tcpNtB2_9TcpStream10set_linger
libmozjs128-debug.so:_RNvMNtNtCsh60fBBS5e0U_3std3net3tcpNtB2_9TcpStream10take_error
libmozjs128-debug.so:_RNvMNtNtCsh60fBBS5e0U_3std3net3tcpNtB2_9TcpStream11set_nodelay
libmozjs128-debug.so:_RNvMNtNtCsh60fBBS5e0U_3std3net3tcpNtB2_9TcpStream12read_timeout
libmozjs128-debug.so:_RNvMNtNtCsh60fBBS5e0U_3std3net3tcpNtB2_9TcpStream13write_timeout
libmozjs128-debug.so:_RNvMNtNtCsh60fBBS5e0U_3std3net3tcpNtB2_9TcpStream15connect_timeout
libmozjs128-debug.so:_RNvMNtNtCsh60fBBS5e0U_3std3net3tcpNtB2_9TcpStream15set_nonblocking
libmozjs128-debug.so:_RNvMNtNtCsh60fBBS5e0U_3std3net3tcpNtB2_9TcpStream16set_read_timeout
libmozjs128-debug.so:_RNvMNtNtCsh60fBBS5e0U_3std3net3tcpNtB2_9TcpStream17set_write_timeout
libmozjs128-debug.so:_RNvMNtNtCsh60fBBS5e0U_3std3net3tcpNtB2_9TcpStream3ttl
libmozjs128-debug.so:_RNvMNtNtCsh60fBBS5e0U_3std3net3tcpNtB2_9TcpStream4peek
libmozjs128-debug.so:_RNvMNtNtCsh60fBBS5e0U_3std3net3tcpNtB2_9TcpStream6linger
libmozjs128-debug.so:_RNvMNtNtCsh60fBBS5e0U_3std3net3tcpNtB2_9TcpStream7nodelay
libmozjs128-debug.so:_RNvMNtNtCsh60fBBS5e0U_3std3net3tcpNtB2_9TcpStream7set_ttl
libmozjs128-debug.so:_RNvMNtNtCsh60fBBS5e0U_3std3net3tcpNtB2_9TcpStream8shutdown
libmozjs128-debug.so:_RNvMNtNtCsh60fBBS5e0U_3std3net3tcpNtB2_9TcpStream9peer_addr
libmozjs128-debug.so:_RNvMNtNtCsh60fBBS5e0U_3std3net3tcpNtB2_9TcpStream9try_clone
libmozjs128-debug.so:_RNvMNtNtCsh60fBBS5e0U_3std3net3udpNtB2_9UdpSocket10local_addr
libmozjs128-debug.so:_RNvMNtNtCsh60fBBS5e0U_3std3net3udpNtB2_9UdpSocket10take_error
libmozjs128-debug.so:_RNvMNtNtCsh60fBBS5e0U_3std3net3udpNtB2_9UdpSocket12read_timeout
libmozjs128-debug.so:_RNvMNtNtCsh60fBBS5e0U_3std3net3udpNtB2_9UdpSocket13set_broadcast
libmozjs128-debug.so:_RNvMNtNtCsh60fBBS5e0U_3std3net3udpNtB2_9UdpSocket13write_timeout
libmozjs128-debug.so:_RNvMNtNtCsh60fBBS5e0U_3std3net3udpNtB2_9UdpSocket15set_nonblocking
libmozjs128-debug.so:_RNvMNtNtCsh60fBBS5e0U_3std3net3udpNtB2_9UdpSocket16multicast_ttl_v4
libmozjs128-debug.so:_RNvMNtNtCsh60fBBS5e0U_3std3net3udpNtB2_9UdpSocket16set_read_timeout
libmozjs128-debug.so:_RNvMNtNtCsh60fBBS5e0U_3std3net3udpNtB2_9UdpSocket17join_multicast_v4
libmozjs128-debug.so:_RNvMNtNtCsh60fBBS5e0U_3std3net3udpNtB2_9UdpSocket17join_multicast_v6
libmozjs128-debug.so:_RNvMNtNtCsh60fBBS5e0U_3std3net3udpNtB2_9UdpSocket17multicast_loop_v4
libmozjs128-debug.so:_RNvMNtNtCsh60fBBS5e0U_3std3net3udpNtB2_9UdpSocket17multicast_loop_v6
libmozjs128-debug.so:_RNvMNtNtCsh60fBBS5e0U_3std3net3udpNtB2_9UdpSocket17set_write_timeout
libmozjs128-debug.so:_RNvMNtNtCsh60fBBS5e0U_3std3net3udpNtB2_9UdpSocket18leave_multicast_v4
libmozjs128-debug.so:_RNvMNtNtCsh60fBBS5e0U_3std3net3udpNtB2_9UdpSocket18leave_multicast_v6
libmozjs128-debug.so:_RNvMNtNtCsh60fBBS5e0U_3std3net3udpNtB2_9UdpSocket20set_multicast_ttl_v4
libmozjs128-debug.so:_RNvMNtNtCsh60fBBS5e0U_3std3net3udpNtB2_9UdpSocket21set_multicast_loop_v4
libmozjs128-debug.so:_RNvMNtNtCsh60fBBS5e0U_3std3net3udpNtB2_9UdpSocket21set_multicast_loop_v6
libmozjs128-debug.so:_RNvMNtNtCsh60fBBS5e0U_3std3net3udpNtB2_9UdpSocket3ttl
libmozjs128-debug.so:_RNvMNtNtCsh60fBBS5e0U_3std3net3udpNtB2_9UdpSocket4peek
libmozjs128-debug.so:_RNvMNtNtCsh60fBBS5e0U_3std3net3udpNtB2_9UdpSocket4recv
libmozjs128-debug.so:_RNvMNtNtCsh60fBBS5e0U_3std3net3udpNtB2_9UdpSocket4send
libmozjs128-debug.so:_RNvMNtNtCsh60fBBS5e0U_3std3net3udpNtB2_9UdpSocket7set_ttl
libmozjs128-debug.so:_RNvMNtNtCsh60fBBS5e0U_3std3net3udpNtB2_9UdpSocket9broadcast
libmozjs128-debug.so:_RNvMNtNtCsh60fBBS5e0U_3std3net3udpNtB2_9UdpSocket9peek_from
libmozjs128-debug.so:_RNvMNtNtCsh60fBBS5e0U_3std3net3udpNtB2_9UdpSocket9peer_addr
libmozjs128-debug.so:_RNvMNtNtCsh60fBBS5e0U_3std3net3udpNtB2_9UdpSocket9recv_from
libmozjs128-debug.so:_RNvMNtNtCsh60fBBS5e0U_3std3net3udpNtB2_9UdpSocket9try_clone
libmozjs128-debug.so:_RNvMNtNtCsh60fBBS5e0U_3std6thread6scopedNtB2_9ScopeData29decrement_num_running_threads
libmozjs128-debug.so:_RNvMNtNtCsh60fBBS5e0U_3std6thread6scopedNtB2_9ScopeData29increment_num_running_threads
libmozjs128-debug.so:_RNvMNtNtNtCs1GuMdp1PKBr_4core3num6bignum5testsNtB2_6Big8x310bit_length
libmozjs128-debug.so:_RNvMNtNtNtCs1GuMdp1PKBr_4core3num6bignum5testsNtB2_6Big8x310mul_digits
libmozjs128-debug.so:_RNvMNtNtNtCs1GuMdp1PKBr_4core3num6bignum5testsNtB2_6Big8x313div_rem_small
libmozjs128-debug.so:_RNvMNtNtNtCs1GuMdp1PKBr_4core3num6bignum5testsNtB2_6Big8x33add
libmozjs128-debug.so:_RNvMNtNtNtCs1GuMdp1PKBr_4core3num6bignum5testsNtB2_6Big8x33sub
libmozjs128-debug.so:_RNvMNtNtNtCs1GuMdp1PKBr_4core3num6bignum5testsNtB2_6Big8x36digits
libmozjs128-debug.so:_RNvMNtNtNtCs1GuMdp1PKBr_4core3num6bignum5testsNtB2_6Big8x37get_bit
libmozjs128-debug.so:_RNvMNtNtNtCs1GuMdp1PKBr_4core3num6bignum5testsNtB2_6Big8x37is_zero
libmozjs128-debug.so:_RNvMNtNtNtCs1GuMdp1PKBr_4core3num6bignum5testsNtB2_6Big8x38from_u64
libmozjs128-debug.so:_RNvMNtNtNtCs1GuMdp1PKBr_4core3num6bignum5testsNtB2_6Big8x38mul_pow2
libmozjs128-debug.so:_RNvMNtNtNtCs1GuMdp1PKBr_4core3num6bignum5testsNtB2_6Big8x38mul_pow5
libmozjs128-debug.so:_RNvMNtNtNtCs1GuMdp1PKBr_4core3num6bignum5testsNtB2_6Big8x39add_small
libmozjs128-debug.so:_RNvMNtNtNtCs1GuMdp1PKBr_4core3num6bignum5testsNtB2_6Big8x39mul_small
libmozjs128-debug.so:_RNvMNtNtNtCs1GuMdp1PKBr_4core4iter8adapters3zipINtB2_3ZipINtNtNtB8_5slice4iter4ItertEINtBW_7IterMutmEE9super_nthCs9zevlwxmzUZ_11miniz_oxide
libmozjs128-debug.so:_RNvMNtNtNtCsh60fBBS5e0U_3std2os5linux7processNtB2_5PidFd4kill
libmozjs128-debug.so:_RNvMNtNtNtCsh60fBBS5e0U_3std2os5linux7processNtB2_5PidFd4wait
libmozjs128-debug.so:_RNvMNtNtNtCsh60fBBS5e0U_3std2os5linux7processNtB2_5PidFd8try_wait
libmozjs128-debug.so:_RNvMNtNtNtCsh60fBBS5e0U_3std3sys2fd4unixNtB2_8FileDesc11read_buf_at
libmozjs128-debug.so:_RNvMNtNtNtCsh60fBBS5e0U_3std3sys2fd4unixNtB2_8FileDesc11read_to_end
libmozjs128-debug.so:_RNvMNtNtNtCsh60fBBS5e0U_3std3sys2fd4unixNtB2_8FileDesc11set_cloexec
libmozjs128-debug.so:_RNvMNtNtNtCsh60fBBS5e0U_3std3sys2fd4unixNtB2_8FileDesc13read_vectored
libmozjs128-debug.so:_RNvMNtNtNtCsh60fBBS5e0U_3std3sys2fd4unixNtB2_8FileDesc14write_vectored
libmozjs128-debug.so:_RNvMNtNtNtCsh60fBBS5e0U_3std3sys2fd4unixNtB2_8FileDesc15set_nonblocking
libmozjs128-debug.so:_RNvMNtNtNtCsh60fBBS5e0U_3std3sys2fd4unixNtB2_8FileDesc16read_vectored_at
libmozjs128-debug.so:_RNvMNtNtNtCsh60fBBS5e0U_3std3sys2fd4unixNtB2_8FileDesc17write_vectored_at
libmozjs128-debug.so:_RNvMNtNtNtCsh60fBBS5e0U_3std3sys2fd4unixNtB2_8FileDesc4read
libmozjs128-debug.so:_RNvMNtNtNtCsh60fBBS5e0U_3std3sys2fd4unixNtB2_8FileDesc5write
libmozjs128-debug.so:_RNvMNtNtNtCsh60fBBS5e0U_3std3sys2fd4unixNtB2_8FileDesc7read_at
libmozjs128-debug.so:_RNvMNtNtNtCsh60fBBS5e0U_3std3sys2fd4unixNtB2_8FileDesc8read_buf
libmozjs128-debug.so:_RNvMNtNtNtCsh60fBBS5e0U_3std3sys2fd4unixNtB2_8FileDesc8write_at
libmozjs128-debug.so:_RNvMNtNtNtCsh60fBBS5e0U_3std4sync4mpmc7contextNtB2_7Context3new
libmozjs128-debug.so:_RNvMNtNtNtCsh60fBBS5e0U_3std4sync6poison7condvarNtB2_7Condvar10notify_all
libmozjs128-debug.so:_RNvMNtNtNtCsh60fBBS5e0U_3std4sync6poison7condvarNtB2_7Condvar10notify_one
libmozjs128-debug.so:_RNvMNtNtNtCsh60fBBS5e0U_3std4sync9nonpoison7condvarNtB2_7Condvar10notify_all
libmozjs128-debug.so:_RNvMNtNtNtCsh60fBBS5e0U_3std4sync9nonpoison7condvarNtB2_7Condvar10notify_one
libmozjs128-debug.so:_RNvMNtNtNtNtCsh60fBBS5e0U_3std2io8buffered9bufreader6bufferNtB2_6Buffer9backshift
libmozjs128-debug.so:_RNvMNtNtNtNtCsh60fBBS5e0U_3std2os4unix3net4addrNtB2_10SocketAddr10from_parts
libmozjs128-debug.so:_RNvMNtNtNtNtCsh60fBBS5e0U_3std2os4unix3net4addrNtB2_10SocketAddr10is_unnamed
libmozjs128-debug.so:_RNvMNtNtNtNtCsh60fBBS5e0U_3std2os4unix3net4addrNtB2_10SocketAddr11as_pathname
libmozjs128-debug.so:_RNvMNtNtNtNtCsh60fBBS5e0U_3std3sys4sync5mutex5futexNtB2_5Mutex14lock_contended
libmozjs128-debug.so:_RNvMNtNtNtNtCsh60fBBS5e0U_3std3sys4sync5mutex5futexNtB2_5Mutex4wake
libmozjs128-debug.so:_RNvMNtNtNtNtCsh60fBBS5e0U_3std3sys4sync6rwlock5futexNtB2_6RwLock14read_contended
libmozjs128-debug.so:_RNvMNtNtNtNtCsh60fBBS5e0U_3std3sys4sync6rwlock5futexNtB2_6RwLock15write_contended
libmozjs128-debug.so:_RNvMNtNtNtNtCsh60fBBS5e0U_3std3sys4sync6rwlock5futexNtB2_6RwLock22wake_writer_or_readers
libmozjs128-debug.so:_RNvMNtNtNtNtCsh60fBBS5e0U_3std3sys4sync7condvar5futexNtB2_7Condvar12wait_timeout
libmozjs128-debug.so:_RNvMNtNtNtNtCsh60fBBS5e0U_3std3sys4sync7condvar5futexNtB2_7Condvar4wait
libmozjs128-debug.so:_RNvMNtNtNtNtNtCsh60fBBS5e0U_3std3sys3net10connection6socket4unixNtB2_6Socket3new
libmozjs128-debug.so:_RNvMNvMs_NtNtNtCsh60fBBS5e0U_3std2io8buffered9bufwriterINtB7_9BufWriterpE9flush_bufNtB2_8BufGuard9remaining
libmozjs128-debug.so:_RNvMs0_NtCs1GuMdp1PKBr_4core6escapeINtB5_15EscapeIterInnerKja_NtB5_12MaybeEscapedE4nextCsezTIWZHnNQ7_14rustc_demangle
libmozjs128-debug.so:_RNvMs0_NtCse7kRp5EpEcX_5alloc7raw_vecINtB5_6RawVecINtNtB7_3vec3VechEE8grow_oneCsh60fBBS5e0U_3std
libmozjs128-debug.so:_RNvMs0_NtCse7kRp5EpEcX_5alloc7raw_vecINtB5_6RawVecINtNtB7_5boxed3BoxDINtNtNtCs1GuMdp1PKBr_4core3ops8function5FnMutuEp6OutputINtNtB1c_6result6ResultuNtNtNtCsh60fBBS5e0U_3std2io5error5ErrorENtNtB1c_6marker4SendNtB32_4SyncEL_EE8grow_oneB2s_
libmozjs128-debug.so:_RNvMs0_NtCse7kRp5EpEcX_5alloc7raw_vecINtB5_6RawVecINtNtCsec783pc85az_9addr2line4unit7ResUnitINtNtNtCsl4XjPnlmSxw_5gimli4read12endian_slice11EndianSliceNtNtB1z_9endianity12LittleEndianEEE8grow_oneCsh60fBBS5e0U_3std
libmozjs128-debug.so:_RNvMs0_NtCse7kRp5EpEcX_5alloc7raw_vecINtB5_6RawVecINtNtCsec783pc85az_9addr2line4unit7SupUnitINtNtNtCsl4XjPnlmSxw_5gimli4read12endian_slice11EndianSliceNtNtB1z_9endianity12LittleEndianEEE8grow_oneCsh60fBBS5e0U_3std
libmozjs128-debug.so:_RNvMs0_NtCse7kRp5EpEcX_5alloc7raw_vecINtB5_6RawVecINtNtCsec783pc85az_9addr2line8function12LazyFunctionINtNtNtCsl4XjPnlmSxw_5gimli4read12endian_slice11EndianSliceNtNtB1J_9endianity12LittleEndianEEE8grow_oneCsh60fBBS5e0U_3std
libmozjs128-debug.so:_RNvMs0_NtCse7kRp5EpEcX_5alloc7raw_vecINtB5_6RawVecINtNtCsec783pc85az_9addr2line8function15InlinedFunctionINtNtNtCsl4XjPnlmSxw_5gimli4read12endian_slice11EndianSliceNtNtB1M_9endianity12LittleEndianEEE8grow_oneCsh60fBBS5e0U_3std
libmozjs128-debug.so:_RNvMs0_NtCse7kRp5EpEcX_5alloc7raw_vecINtB5_6RawVecINtNtNtCsl4XjPnlmSxw_5gimli4read4line9FileEntryINtNtBR_12endian_slice11EndianSliceNtNtBT_9endianity12LittleEndianEjEE8grow_oneCsh60fBBS5e0U_3std
libmozjs128-debug.so:_RNvMs0_NtCse7kRp5EpEcX_5alloc7raw_vecINtB5_6RawVecINtNtNtCsl4XjPnlmSxw_5gimli4read4unit14AttributeValueINtNtBR_12endian_slice11EndianSliceNtNtBT_9endianity12LittleEndianEjEE8grow_oneCsh60fBBS5e0U_3std
libmozjs128-debug.so:_RNvMs0_NtCse7kRp5EpEcX_5alloc7raw_vecINtB5_6RawVecNtNtB7_6string6StringE8grow_oneCsh60fBBS5e0U_3std
libmozjs128-debug.so:_RNvMs0_NtCse7kRp5EpEcX_5alloc7raw_vecINtB5_6RawVecNtNtCsec783pc85az_9addr2line4line12LineSequenceE8grow_oneCsh60fBBS5e0U_3std
libmozjs128-debug.so:_RNvMs0_NtCse7kRp5EpEcX_5alloc7raw_vecINtB5_6RawVecNtNtCsec783pc85az_9addr2line4line7LineRowE8grow_oneCsh60fBBS5e0U_3std
libmozjs128-debug.so:_RNvMs0_NtCse7kRp5EpEcX_5alloc7raw_vecINtB5_6RawVecNtNtCsec783pc85az_9addr2line4unit9UnitRangeE8grow_oneCsh60fBBS5e0U_3std
libmozjs128-debug.so:_RNvMs0_NtCse7kRp5EpEcX_5alloc7raw_vecINtB5_6RawVecNtNtCsec783pc85az_9addr2line8function15FunctionAddressE8grow_oneCsh60fBBS5e0U_3std
libmozjs128-debug.so:_RNvMs0_NtCse7kRp5EpEcX_5alloc7raw_vecINtB5_6RawVecNtNtCsec783pc85az_9addr2line8function22InlinedFunctionAddressE8grow_oneCsh60fBBS5e0U_3std
libmozjs128-debug.so:_RNvMs0_NtCse7kRp5EpEcX_5alloc7raw_vecINtB5_6RawVecNtNtCsh60fBBS5e0U_3std4path9ComponentE8grow_oneBQ_
libmozjs128-debug.so:_RNvMs0_NtCse7kRp5EpEcX_5alloc7raw_vecINtB5_6RawVecNtNtCsh60fBBS5e0U_3std9backtrace14BacktraceFrameE8grow_oneBQ_
libmozjs128-debug.so:_RNvMs0_NtCse7kRp5EpEcX_5alloc7raw_vecINtB5_6RawVecNtNtCsh60fBBS5e0U_3std9backtrace15BacktraceSymbolE8grow_oneBQ_
libmozjs128-debug.so:_RNvMs0_NtCse7kRp5EpEcX_5alloc7raw_vecINtB5_6RawVecNtNtNtCsh60fBBS5e0U_3std3ffi6os_str8OsStringE8grow_oneBS_
libmozjs128-debug.so:_RNvMs0_NtCse7kRp5EpEcX_5alloc7raw_vecINtB5_6RawVecNtNtNtCsl4XjPnlmSxw_5gimli4read4line15FileEntryFormatE8grow_oneCsh60fBBS5e0U_3std
libmozjs128-debug.so:_RNvMs0_NtCse7kRp5EpEcX_5alloc7raw_vecINtB5_6RawVecNtNtNtCsl4XjPnlmSxw_5gimli4read6abbrev12AbbreviationE8grow_oneBS_
libmozjs128-debug.so:_RNvMs0_NtCse7kRp5EpEcX_5alloc7raw_vecINtB5_6RawVecNtNtNtCsl4XjPnlmSxw_5gimli4read6abbrev22AttributeSpecificationE8grow_oneBS_
libmozjs128-debug.so:_RNvMs0_NtCse7kRp5EpEcX_5alloc7raw_vecINtB5_6RawVecNtNtNtNtCsh60fBBS5e0U_3std12backtrace_rs9symbolize5gimli7LibraryE8grow_oneBU_
libmozjs128-debug.so:_RNvMs0_NtCse7kRp5EpEcX_5alloc7raw_vecINtB5_6RawVecNtNtNtNtNtCsh60fBBS5e0U_3std12backtrace_rs9symbolize5gimli19parse_running_mmaps9MapsEntryE8grow_oneBW_
libmozjs128-debug.so:_RNvMs0_NtCse7kRp5EpEcX_5alloc7raw_vecINtB5_6RawVecNtNtNtNtNtCsh60fBBS5e0U_3std12backtrace_rs9symbolize5gimli4mmap4MmapE8grow_oneBW_
libmozjs128-debug.so:_RNvMs0_NtCse7kRp5EpEcX_5alloc7raw_vecINtB5_6RawVecPaE8grow_oneCsh60fBBS5e0U_3std
libmozjs128-debug.so:_RNvMs0_NtCse7kRp5EpEcX_5alloc7raw_vecINtB5_6RawVecRINtNtCsec783pc85az_9addr2line8function15InlinedFunctionINtNtNtCsl4XjPnlmSxw_5gimli4read12endian_slice11EndianSliceNtNtB1N_9endianity12LittleEndianEEE8grow_oneCsh60fBBS5e0U_3std
libmozjs128-debug.so:_RNvMs0_NtCse7kRp5EpEcX_5alloc7raw_vecINtB5_6RawVecTNtNtCsl4XjPnlmSxw_5gimli6common15DebugInfoOffsetNtBP_18DebugArangesOffsetEE8grow_oneCsh60fBBS5e0U_3std
libmozjs128-debug.so:_RNvMs0_NtCse7kRp5EpEcX_5alloc7raw_vecINtB5_6RawVecTNtNtNtCsh60fBBS5e0U_3std3ffi6os_str8OsStringBN_EE8grow_oneBT_
libmozjs128-debug.so:_RNvMs0_NtCse7kRp5EpEcX_5alloc7raw_vecINtB5_6RawVecTOhFUKCBN_EuEE8grow_oneCsh60fBBS5e0U_3std
libmozjs128-debug.so:_RNvMs0_NtCse7kRp5EpEcX_5alloc7raw_vecINtB5_6RawVechE8grow_oneB7_
libmozjs128-debug.so:_RNvMs0_NtCsh60fBBS5e0U_3std6threadNtB5_8ThreadId3new
libmozjs128-debug.so:_RNvMs0_NtNtCs1GuMdp1PKBr_4core3fmt3numo11format_into
libmozjs128-debug.so:_RNvMs0_NtNtCs1GuMdp1PKBr_4core3fmt3numo4__fmt
libmozjs128-debug.so:_RNvMs0_NtNtCsh60fBBS5e0U_3std3ffi6os_strNtB5_8OsString17into_boxed_os_str
libmozjs128-debug.so:_RNvMs0_NtNtCsh60fBBS5e0U_3std4sync4onceNtB5_4Once10wait_force
libmozjs128-debug.so:_RNvMs0_NtNtCsh60fBBS5e0U_3std4sync4onceNtB5_4Once4wait
libmozjs128-debug.so:_RNvMs0_NtNtCsh60fBBS5e0U_3std4sync7barrierNtB5_7Barrier4wait
libmozjs128-debug.so:_RNvMs0_NtNtNtCs1GuMdp1PKBr_4core3fmt3num3imph4__fmt
libmozjs128-debug.so:_RNvMs0_NtNtNtCsh60fBBS5e0U_3std2io5error14repr_bitpackedNtB5_4Repr3new
libmozjs128-debug.so:_RNvMs0_NtNtNtCsh60fBBS5e0U_3std2os2fd5ownedNtB5_10BorrowedFd18try_clone_to_owned
libmozjs128-debug.so:_RNvMs0_NtNtNtCsh60fBBS5e0U_3std3sys6thread4unixNtB5_6Thread3new
libmozjs128-debug.so:_RNvMs0_NtNtNtCsh60fBBS5e0U_3std3sys6thread4unixNtB5_6Thread4join
libmozjs128-debug.so:_RNvMs0_NtNtNtNtCsh60fBBS5e0U_3std2os4unix3net6streamNtB5_10UnixStream10local_addr
libmozjs128-debug.so:_RNvMs0_NtNtNtNtCsh60fBBS5e0U_3std2os4unix3net6streamNtB5_10UnixStream10take_error
libmozjs128-debug.so:_RNvMs0_NtNtNtNtCsh60fBBS5e0U_3std2os4unix3net6streamNtB5_10UnixStream12connect_addr
libmozjs128-debug.so:_RNvMs0_NtNtNtNtCsh60fBBS5e0U_3std2os4unix3net6streamNtB5_10UnixStream12read_timeout
libmozjs128-debug.so:_RNvMs0_NtNtNtNtCsh60fBBS5e0U_3std2os4unix3net6streamNtB5_10UnixStream13write_timeout
libmozjs128-debug.so:_RNvMs0_NtNtNtNtCsh60fBBS5e0U_3std2os4unix3net6streamNtB5_10UnixStream15set_nonblocking
libmozjs128-debug.so:_RNvMs0_NtNtNtNtCsh60fBBS5e0U_3std2os4unix3net6streamNtB5_10UnixStream16set_read_timeout
libmozjs128-debug.so:_RNvMs0_NtNtNtNtCsh60fBBS5e0U_3std2os4unix3net6streamNtB5_10UnixStream17set_write_timeout
libmozjs128-debug.so:_RNvMs0_NtNtNtNtCsh60fBBS5e0U_3std2os4unix3net6streamNtB5_10UnixStream28recv_vectored_with_ancillary
libmozjs128-debug.so:_RNvMs0_NtNtNtNtCsh60fBBS5e0U_3std2os4unix3net6streamNtB5_10UnixStream28send_vectored_with_ancillary
libmozjs128-debug.so:_RNvMs0_NtNtNtNtCsh60fBBS5e0U_3std2os4unix3net6streamNtB5_10UnixStream4pair
libmozjs128-debug.so:_RNvMs0_NtNtNtNtCsh60fBBS5e0U_3std2os4unix3net6streamNtB5_10UnixStream4peek
libmozjs128-debug.so:_RNvMs0_NtNtNtNtCsh60fBBS5e0U_3std2os4unix3net6streamNtB5_10UnixStream8set_mark
libmozjs128-debug.so:_RNvMs0_NtNtNtNtCsh60fBBS5e0U_3std2os4unix3net6streamNtB5_10UnixStream8shutdown
libmozjs128-debug.so:_RNvMs0_NtNtNtNtCsh60fBBS5e0U_3std2os4unix3net6streamNtB5_10UnixStream9peer_addr
libmozjs128-debug.so:_RNvMs0_NtNtNtNtCsh60fBBS5e0U_3std2os4unix3net6streamNtB5_10UnixStream9peer_cred
libmozjs128-debug.so:_RNvMs0_NtNtNtNtCsh60fBBS5e0U_3std2os4unix3net6streamNtB5_10UnixStream9try_clone
libmozjs128-debug.so:_RNvMs0_NtNtNtNtCsh60fBBS5e0U_3std2os4unix3net8datagramNtB5_12UnixDatagram10local_addr
libmozjs128-debug.so:_RNvMs0_NtNtNtNtCsh60fBBS5e0U_3std2os4unix3net8datagramNtB5_12UnixDatagram10take_error
libmozjs128-debug.so:_RNvMs0_NtNtNtNtCsh60fBBS5e0U_3std2os4unix3net8datagramNtB5_12UnixDatagram12connect_addr
libmozjs128-debug.so:_RNvMs0_NtNtNtNtCsh60fBBS5e0U_3std2os4unix3net8datagramNtB5_12UnixDatagram12read_timeout
libmozjs128-debug.so:_RNvMs0_NtNtNtNtCsh60fBBS5e0U_3std2os4unix3net8datagramNtB5_12UnixDatagram12send_to_addr
libmozjs128-debug.so:_RNvMs0_NtNtNtNtCsh60fBBS5e0U_3std2os4unix3net8datagramNtB5_12UnixDatagram13write_timeout
libmozjs128-debug.so:_RNvMs0_NtNtNtNtCsh60fBBS5e0U_3std2os4unix3net8datagramNtB5_12UnixDatagram15set_nonblocking
libmozjs128-debug.so:_RNvMs0_NtNtNtNtCsh60fBBS5e0U_3std2os4unix3net8datagramNtB5_12UnixDatagram16set_read_timeout
libmozjs128-debug.so:_RNvMs0_NtNtNtNtCsh60fBBS5e0U_3std2os4unix3net8datagramNtB5_12UnixDatagram17set_write_timeout
libmozjs128-debug.so:_RNvMs0_NtNtNtNtCsh60fBBS5e0U_3std2os4unix3net8datagramNtB5_12UnixDatagram28recv_vectored_with_ancillary
libmozjs128-debug.so:_RNvMs0_NtNtNtNtCsh60fBBS5e0U_3std2os4unix3net8datagramNtB5_12UnixDatagram28send_vectored_with_ancillary
libmozjs128-debug.so:_RNvMs0_NtNtNtNtCsh60fBBS5e0U_3std2os4unix3net8datagramNtB5_12UnixDatagram33recv_vectored_with_ancillary_from
libmozjs128-debug.so:_RNvMs0_NtNtNtNtCsh60fBBS5e0U_3std2os4unix3net8datagramNtB5_12UnixDatagram4pair
libmozjs128-debug.so:_RNvMs0_NtNtNtNtCsh60fBBS5e0U_3std2os4unix3net8datagramNtB5_12UnixDatagram4peek
libmozjs128-debug.so:_RNvMs0_NtNtNtNtCsh60fBBS5e0U_3std2os4unix3net8datagramNtB5_12UnixDatagram4recv
libmozjs128-debug.so:_RNvMs0_NtNtNtNtCsh60fBBS5e0U_3std2os4unix3net8datagramNtB5_12UnixDatagram4send
libmozjs128-debug.so:_RNvMs0_NtNtNtNtCsh60fBBS5e0U_3std2os4unix3net8datagramNtB5_12UnixDatagram7unbound
libmozjs128-debug.so:_RNvMs0_NtNtNtNtCsh60fBBS5e0U_3std2os4unix3net8datagramNtB5_12UnixDatagram8set_mark
libmozjs128-debug.so:_RNvMs0_NtNtNtNtCsh60fBBS5e0U_3std2os4unix3net8datagramNtB5_12UnixDatagram8shutdown
libmozjs128-debug.so:_RNvMs0_NtNtNtNtCsh60fBBS5e0U_3std2os4unix3net8datagramNtB5_12UnixDatagram9bind_addr
libmozjs128-debug.so:_RNvMs0_NtNtNtNtCsh60fBBS5e0U_3std2os4unix3net8datagramNtB5_12UnixDatagram9peek_from
libmozjs128-debug.so:_RNvMs0_NtNtNtNtCsh60fBBS5e0U_3std2os4unix3net8datagramNtB5_12UnixDatagram9peer_addr
libmozjs128-debug.so:_RNvMs0_NtNtNtNtCsh60fBBS5e0U_3std2os4unix3net8datagramNtB5_12UnixDatagram9recv_from
libmozjs128-debug.so:_RNvMs0_NtNtNtNtCsh60fBBS5e0U_3std2os4unix3net8datagramNtB5_12UnixDatagram9try_clone
libmozjs128-debug.so:_RNvMs0_NtNtNtNtCsh60fBBS5e0U_3std3sys4sync4once5futexNtB5_4Once4call
libmozjs128-debug.so:_RNvMs16_NtCse7kRp5EpEcX_5alloc6stringNtB6_5Drain6as_str
libmozjs128-debug.so:_RNvMs16_NtCsh60fBBS5e0U_3std4pathNtB6_4Path10__ends_with
libmozjs128-debug.so:_RNvMs16_NtCsh60fBBS5e0U_3std4pathNtB6_4Path10components
libmozjs128-debug.so:_RNvMs16_NtCsh60fBBS5e0U_3std4pathNtB6_4Path10is_symlink
libmozjs128-debug.so:_RNvMs16_NtCsh60fBBS5e0U_3std4pathNtB6_4Path11file_prefix
libmozjs128-debug.so:_RNvMs16_NtCsh60fBBS5e0U_3std4pathNtB6_4Path11is_absolute
libmozjs128-debug.so:_RNvMs16_NtCsh60fBBS5e0U_3std4pathNtB6_4Path11to_path_buf
libmozjs128-debug.so:_RNvMs16_NtCsh60fBBS5e0U_3std4pathNtB6_4Path12__starts_with
libmozjs128-debug.so:_RNvMs16_NtCsh60fBBS5e0U_3std4pathNtB6_4Path13__strip_prefix
libmozjs128-debug.so:_RNvMs16_NtCsh60fBBS5e0U_3std4pathNtB6_4Path13into_path_buf
libmozjs128-debug.so:_RNvMs16_NtCsh60fBBS5e0U_3std4pathNtB6_4Path15__with_extension
libmozjs128-debug.so:_RNvMs16_NtCsh60fBBS5e0U_3std4pathNtB6_4Path15__with_file_name
libmozjs128-debug.so:_RNvMs16_NtCsh60fBBS5e0U_3std4pathNtB6_4Path19normalize_lexically
libmozjs128-debug.so:_RNvMs16_NtCsh60fBBS5e0U_3std4pathNtB6_4Path5__join
libmozjs128-debug.so:_RNvMs16_NtCsh60fBBS5e0U_3std4pathNtB6_4Path6is_dir
libmozjs128-debug.so:_RNvMs16_NtCsh60fBBS5e0U_3std4pathNtB6_4Path6parent
libmozjs128-debug.so:_RNvMs16_NtCsh60fBBS5e0U_3std4pathNtB6_4Path7is_file
libmozjs128-debug.so:_RNvMs16_NtCsh60fBBS5e0U_3std4pathNtB6_4Path9extension
libmozjs128-debug.so:_RNvMs16_NtCsh60fBBS5e0U_3std4pathNtB6_4Path9file_name
libmozjs128-debug.so:_RNvMs16_NtCsh60fBBS5e0U_3std4pathNtB6_4Path9file_stem
libmozjs128-debug.so:_RNvMs1_NtNtCs1GuMdp1PKBr_4core3fmt3numn11format_into
libmozjs128-debug.so:_RNvMs1_NtNtCs1GuMdp1PKBr_4core3fmt8buildersNtB5_11DebugStruct21finish_non_exhaustive
libmozjs128-debug.so:_RNvMs1_NtNtCs1GuMdp1PKBr_4core3fmt8buildersNtB5_11DebugStruct5field
libmozjs128-debug.so:_RNvMs1_NtNtCs1GuMdp1PKBr_4core3fmt8buildersNtB5_11DebugStruct6finish
libmozjs128-debug.so:_RNvMs1_NtNtCs1GuMdp1PKBr_4core3net6parserNtNtB7_7ip_addr8Ipv4Addr11parse_ascii
libmozjs128-debug.so:_RNvMs1_NtNtCsh60fBBS5e0U_3std2io5stdioNtB5_5Stdin4lock
libmozjs128-debug.so:_RNvMs1_NtNtCsh60fBBS5e0U_3std2io5stdioNtB5_5Stdin5lines
libmozjs128-debug.so:_RNvMs1_NtNtCsh60fBBS5e0U_3std2io5stdioNtB5_5Stdin9read_line
libmozjs128-debug.so:_RNvMs1_NtNtNtCs1GuMdp1PKBr_4core3fmt3num3impa11format_into
libmozjs128-debug.so:_RNvMs2_NtCse7kRp5EpEcX_5alloc4wtf8NtB5_7Wtf8Buf11into_string
libmozjs128-debug.so:_RNvMs2_NtCse7kRp5EpEcX_5alloc4wtf8NtB5_7Wtf8Buf17into_string_lossy
libmozjs128-debug.so:_RNvMs2_NtCse7kRp5EpEcX_5alloc4wtf8NtB5_7Wtf8Buf25push_code_point_unchecked
libmozjs128-debug.so:_RNvMs2_NtCse7kRp5EpEcX_5alloc4wtf8NtB5_7Wtf8Buf5clear
libmozjs128-debug.so:_RNvMs2_NtCse7kRp5EpEcX_5alloc4wtf8NtB5_7Wtf8Buf8from_box
libmozjs128-debug.so:_RNvMs2_NtCse7kRp5EpEcX_5alloc4wtf8NtB5_7Wtf8Buf9from_wide
libmozjs128-debug.so:_RNvMs2_NtCse7kRp5EpEcX_5alloc7raw_vecNtB5_11RawVecInner10deallocateCsl4XjPnlmSxw_5gimli
libmozjs128-debug.so:_RNvMs2_NtCse7kRp5EpEcX_5alloc7raw_vecNtB5_11RawVecInner11finish_growCsl4XjPnlmSxw_5gimli
libmozjs128-debug.so:_RNvMs2_NtCse7kRp5EpEcX_5alloc7raw_vecNtB5_11RawVecInner14grow_amortizedCsl4XjPnlmSxw_5gimli
libmozjs128-debug.so:_RNvMs2_NtCse7kRp5EpEcX_5alloc7raw_vecNtB5_11RawVecInner15try_allocate_inCsl4XjPnlmSxw_5gimli
libmozjs128-debug.so:_RNvMs2_NtCsh60fBBS5e0U_3std2fsNtB5_4File11lock_shared
libmozjs128-debug.so:_RNvMs2_NtCsh60fBBS5e0U_3std2fsNtB5_4File15set_permissions
libmozjs128-debug.so:_RNvMs2_NtCsh60fBBS5e0U_3std2fsNtB5_4File15try_lock_shared
libmozjs128-debug.so:_RNvMs2_NtCsh60fBBS5e0U_3std2fsNtB5_4File4lock
libmozjs128-debug.so:_RNvMs2_NtCsh60fBBS5e0U_3std2fsNtB5_4File6unlock
libmozjs128-debug.so:_RNvMs2_NtCsh60fBBS5e0U_3std2fsNtB5_4File7set_len
libmozjs128-debug.so:_RNvMs2_NtCsh60fBBS5e0U_3std2fsNtB5_4File8metadata
libmozjs128-debug.so:_RNvMs2_NtCsh60fBBS5e0U_3std2fsNtB5_4File8sync_all
libmozjs128-debug.so:_RNvMs2_NtCsh60fBBS5e0U_3std2fsNtB5_4File8try_lock
libmozjs128-debug.so:_RNvMs2_NtCsh60fBBS5e0U_3std2fsNtB5_4File9set_times
libmozjs128-debug.so:_RNvMs2_NtCsh60fBBS5e0U_3std2fsNtB5_4File9sync_data
libmozjs128-debug.so:_RNvMs2_NtCsh60fBBS5e0U_3std2fsNtB5_4File9try_clone
libmozjs128-debug.so:_RNvMs2_NtCsh60fBBS5e0U_3std2ioNtB5_10IoSliceMut10into_slice
libmozjs128-debug.so:_RNvMs2_NtCsh60fBBS5e0U_3std6threadNtB5_6Thread12park_timeout
libmozjs128-debug.so:_RNvMs2_NtCsh60fBBS5e0U_3std6threadNtB5_6Thread3new
libmozjs128-debug.so:_RNvMs2_NtCsh60fBBS5e0U_3std6threadNtB5_6Thread4name
libmozjs128-debug.so:_RNvMs2_NtCsh60fBBS5e0U_3std6threadNtB5_6Thread4park
libmozjs128-debug.so:_RNvMs2_NtCsh60fBBS5e0U_3std6threadNtB5_6Thread5cname
libmozjs128-debug.so:_RNvMs2_NtCsh60fBBS5e0U_3std6threadNtB5_6Thread8from_raw
libmozjs128-debug.so:_RNvMs2_NtCsh60fBBS5e0U_3std9backtraceNtB5_9Backtrace13force_capture
libmozjs128-debug.so:_RNvMs2_NtCsh60fBBS5e0U_3std9backtraceNtB5_9Backtrace7capture
libmozjs128-debug.so:_RNvMs2_NtNtCs1GuMdp1PKBr_4core3fmt8buildersNtB5_10DebugTuple21finish_non_exhaustive
libmozjs128-debug.so:_RNvMs2_NtNtCs1GuMdp1PKBr_4core3fmt8buildersNtB5_10DebugTuple5field
libmozjs128-debug.so:_RNvMs2_NtNtCs1GuMdp1PKBr_4core3fmt8buildersNtB5_10DebugTuple6finish
libmozjs128-debug.so:_RNvMs2_NtNtCs1GuMdp1PKBr_4core3num6bignumNtB5_8Big32x4010bit_length
libmozjs128-debug.so:_RNvMs2_NtNtCs1GuMdp1PKBr_4core3num6bignumNtB5_8Big32x4010mul_digits
libmozjs128-debug.so:_RNvMs2_NtNtCs1GuMdp1PKBr_4core3num6bignumNtB5_8Big32x4013div_rem_small
libmozjs128-debug.so:_RNvMs2_NtNtCs1GuMdp1PKBr_4core3num6bignumNtB5_8Big32x403add
libmozjs128-debug.so:_RNvMs2_NtNtCs1GuMdp1PKBr_4core3num6bignumNtB5_8Big32x403sub
libmozjs128-debug.so:_RNvMs2_NtNtCs1GuMdp1PKBr_4core3num6bignumNtB5_8Big32x406digits
libmozjs128-debug.so:_RNvMs2_NtNtCs1GuMdp1PKBr_4core3num6bignumNtB5_8Big32x407get_bit
libmozjs128-debug.so:_RNvMs2_NtNtCs1GuMdp1PKBr_4core3num6bignumNtB5_8Big32x407is_zero
libmozjs128-debug.so:_RNvMs2_NtNtCs1GuMdp1PKBr_4core3num6bignumNtB5_8Big32x408from_u64
libmozjs128-debug.so:_RNvMs2_NtNtCs1GuMdp1PKBr_4core3num6bignumNtB5_8Big32x408mul_pow2
libmozjs128-debug.so:_RNvMs2_NtNtCs1GuMdp1PKBr_4core3num6bignumNtB5_8Big32x408mul_pow5
libmozjs128-debug.so:_RNvMs2_NtNtCs1GuMdp1PKBr_4core3num6bignumNtB5_8Big32x409add_small
libmozjs128-debug.so:_RNvMs2_NtNtCs1GuMdp1PKBr_4core3num6bignumNtB5_8Big32x409mul_small
libmozjs128-debug.so:_RNvMs2_NtNtCsh60fBBS5e0U_3std2io4pipeNtB5_10PipeReader9try_clone
libmozjs128-debug.so:_RNvMs2_NtNtNtCs1GuMdp1PKBr_4core3fmt3num3imph11format_into
libmozjs128-debug.so:_RNvMs3_NtCsh60fBBS5e0U_3std9backtraceNtB5_9Backtrace6frames
libmozjs128-debug.so:_RNvMs3_NtNtCs1GuMdp1PKBr_4core3ffi5c_strNtB5_4CStr19from_bytes_with_nul
libmozjs128-debug.so:_RNvMs3_NtNtCs1GuMdp1PKBr_4core3ffi5c_strNtB5_4CStr20from_bytes_until_nul
libmozjs128-debug.so:_RNvMs3_NtNtCs1GuMdp1PKBr_4core3ffi5c_strNtB5_4CStr6to_str
libmozjs128-debug.so:_RNvMs3_NtNtCs1GuMdp1PKBr_4core3net6parserNtNtB7_7ip_addr8Ipv6Addr11parse_ascii
libmozjs128-debug.so:_RNvMs3_NtNtCsh60fBBS5e0U_3std2io4pipeNtB5_10PipeWriter9try_clone
libmozjs128-debug.so:_RNvMs4_NtNtCs1GuMdp1PKBr_4core3fmt8buildersNtB5_8DebugSet21finish_non_exhaustive
libmozjs128-debug.so:_RNvMs4_NtNtCs1GuMdp1PKBr_4core3fmt8buildersNtB5_8DebugSet5entry
libmozjs128-debug.so:_RNvMs4_NtNtCs1GuMdp1PKBr_4core3fmt8buildersNtB5_8DebugSet6finish
libmozjs128-debug.so:_RNvMs4_NtNtCsl4XjPnlmSxw_5gimli4read6abbrevNtB5_13Abbreviations6insert
libmozjs128-debug.so:_RNvMs5_NtCse7kRp5EpEcX_5alloc4wtf8NtNtCs1GuMdp1PKBr_4core4wtf84Wtf810clone_into
libmozjs128-debug.so:_RNvMs5_NtCse7kRp5EpEcX_5alloc4wtf8NtNtCs1GuMdp1PKBr_4core4wtf84Wtf815to_string_lossy
libmozjs128-debug.so:_RNvMs5_NtCse7kRp5EpEcX_5alloc4wtf8NtNtCs1GuMdp1PKBr_4core4wtf84Wtf87into_rc
libmozjs128-debug.so:_RNvMs5_NtCse7kRp5EpEcX_5alloc4wtf8NtNtCs1GuMdp1PKBr_4core4wtf84Wtf88into_arc
libmozjs128-debug.so:_RNvMs5_NtCse7kRp5EpEcX_5alloc4wtf8NtNtCs1GuMdp1PKBr_4core4wtf84Wtf88into_box
libmozjs128-debug.so:_RNvMs5_NtCse7kRp5EpEcX_5alloc4wtf8NtNtCs1GuMdp1PKBr_4core4wtf84Wtf88to_owned
libmozjs128-debug.so:_RNvMs5_NtCsh60fBBS5e0U_3std4timeNtB5_10SystemTime11checked_add
libmozjs128-debug.so:_RNvMs5_NtCsh60fBBS5e0U_3std4timeNtB5_10SystemTime11checked_sub
libmozjs128-debug.so:_RNvMs5_NtCsh60fBBS5e0U_3std4timeNtB5_10SystemTime14duration_since
libmozjs128-debug.so:_RNvMs5_NtCsh60fBBS5e0U_3std4timeNtB5_10SystemTime3now
libmozjs128-debug.so:_RNvMs5_NtCsh60fBBS5e0U_3std4timeNtB5_10SystemTime7elapsed
libmozjs128-debug.so:_RNvMs5_NtNtCs1GuMdp1PKBr_4core3fmt8buildersNtB5_9DebugList21finish_non_exhaustive
libmozjs128-debug.so:_RNvMs5_NtNtCs1GuMdp1PKBr_4core3fmt8buildersNtB5_9DebugList5entry
libmozjs128-debug.so:_RNvMs5_NtNtCs1GuMdp1PKBr_4core3fmt8buildersNtB5_9DebugList6finish
libmozjs128-debug.so:_RNvMs5_NtNtCs1GuMdp1PKBr_4core3net6parserNtNtB7_11socket_addr12SocketAddrV411parse_ascii
libmozjs128-debug.so:_RNvMs5_NtNtCsh60fBBS5e0U_3std2io5errorNtB5_5Error4__new
libmozjs128-debug.so:_RNvMs5_NtNtCsl4XjPnlmSxw_5gimli4read6abbrevNtB5_12Abbreviation3new
libmozjs128-debug.so:_RNvMs5_NtNtNtCs1GuMdp1PKBr_4core3fmt3num3impt4__fmt
libmozjs128-debug.so:_RNvMs5_NtNtNtNtCsh60fBBS5e0U_3std2os4unix3net9ancillaryNtB5_15SocketAncillary7add_fds
libmozjs128-debug.so:_RNvMs5_NtNtNtNtCsh60fBBS5e0U_3std2os4unix3net9ancillaryNtB5_15SocketAncillary8messages
libmozjs128-debug.so:_RNvMs5_NtNtNtNtCsh60fBBS5e0U_3std2os4unix3net9ancillaryNtB5_15SocketAncillary9add_creds
libmozjs128-debug.so:_RNvMs6_NtNtCs1GuMdp1PKBr_4core3fmt8buildersNtB5_8DebugMap21finish_non_exhaustive
libmozjs128-debug.so:_RNvMs6_NtNtCs1GuMdp1PKBr_4core3fmt8buildersNtB5_8DebugMap3key
libmozjs128-debug.so:_RNvMs6_NtNtCs1GuMdp1PKBr_4core3fmt8buildersNtB5_8DebugMap5entry
libmozjs128-debug.so:_RNvMs6_NtNtCs1GuMdp1PKBr_4core3fmt8buildersNtB5_8DebugMap5value
libmozjs128-debug.so:_RNvMs6_NtNtCs1GuMdp1PKBr_4core3fmt8buildersNtB5_8DebugMap6finish
libmozjs128-debug.so:_RNvMs6_NtNtCsl4XjPnlmSxw_5gimli4read6abbrevNtB5_10Attributes4push
libmozjs128-debug.so:_RNvMs6_NtNtNtCs1GuMdp1PKBr_4core3fmt3num3imps11format_into
libmozjs128-debug.so:_RNvMs6_NtNtNtNtCse7kRp5EpEcX_5alloc11collections5btree3map5entryINtB5_11VacantEntryyNtNtNtCsl4XjPnlmSxw_5gimli4read6abbrev12AbbreviationE12insert_entryB1q_
libmozjs128-debug.so:_RNvMs7_NtNtCs1GuMdp1PKBr_4core3net6parserNtNtB7_11socket_addr12SocketAddrV611parse_ascii
libmozjs128-debug.so:_RNvMs7_NtNtCsh60fBBS5e0U_3std3net3tcpNtB5_11TcpListener10local_addr
libmozjs128-debug.so:_RNvMs7_NtNtCsh60fBBS5e0U_3std3net3tcpNtB5_11TcpListener10take_error
libmozjs128-debug.so:_RNvMs7_NtNtCsh60fBBS5e0U_3std3net3tcpNtB5_11TcpListener11set_only_v6
libmozjs128-debug.so:_RNvMs7_NtNtCsh60fBBS5e0U_3std3net3tcpNtB5_11TcpListener15set_nonblocking
libmozjs128-debug.so:_RNvMs7_NtNtCsh60fBBS5e0U_3std3net3tcpNtB5_11TcpListener3ttl
libmozjs128-debug.so:_RNvMs7_NtNtCsh60fBBS5e0U_3std3net3tcpNtB5_11TcpListener6accept
libmozjs128-debug.so:_RNvMs7_NtNtCsh60fBBS5e0U_3std3net3tcpNtB5_11TcpListener7only_v6
libmozjs128-debug.so:_RNvMs7_NtNtCsh60fBBS5e0U_3std3net3tcpNtB5_11TcpListener7set_ttl
libmozjs128-debug.so:_RNvMs7_NtNtCsh60fBBS5e0U_3std3net3tcpNtB5_11TcpListener9try_clone
libmozjs128-debug.so:_RNvMs7_NtNtNtCs1GuMdp1PKBr_4core3fmt3num3impt11format_into
libmozjs128-debug.so:_RNvMs7_NtNtNtNtCse7kRp5EpEcX_5alloc11collections5btree3map5entryINtB5_13OccupiedEntryyNtNtNtCsl4XjPnlmSxw_5gimli4read6abbrev12AbbreviationE8into_mutB1s_
libmozjs128-debug.so:_RNvMs8_NtCsh60fBBS5e0U_3std2ioNtB5_7IoSlice8as_slice
libmozjs128-debug.so:_RNvMs8_NtCsh60fBBS5e0U_3std4pathNtB5_10Components7as_path
libmozjs128-debug.so:_RNvMs9_NtCs1GuMdp1PKBr_4core3fmtNtB5_9Formatter10debug_list
libmozjs128-debug.so:_RNvMs9_NtCs1GuMdp1PKBr_4core3fmtNtB5_9Formatter11debug_tuple
libmozjs128-debug.so:_RNvMs9_NtCs1GuMdp1PKBr_4core3fmtNtB5_9Formatter12debug_struct
libmozjs128-debug.so:_RNvMs9_NtCs1GuMdp1PKBr_4core3fmtNtB5_9Formatter12pad_integral
libmozjs128-debug.so:_RNvMs9_NtCs1GuMdp1PKBr_4core3fmtNtB5_9Formatter25debug_tuple_field1_finish
libmozjs128-debug.so:_RNvMs9_NtCs1GuMdp1PKBr_4core3fmtNtB5_9Formatter25debug_tuple_field2_finish
libmozjs128-debug.so:_RNvMs9_NtCs1GuMdp1PKBr_4core3fmtNtB5_9Formatter25debug_tuple_field3_finish
libmozjs128-debug.so:_RNvMs9_NtCs1GuMdp1PKBr_4core3fmtNtB5_9Formatter25debug_tuple_field4_finish
libmozjs128-debug.so:_RNvMs9_NtCs1GuMdp1PKBr_4core3fmtNtB5_9Formatter25debug_tuple_field5_finish
libmozjs128-debug.so:_RNvMs9_NtCs1GuMdp1PKBr_4core3fmtNtB5_9Formatter25debug_tuple_fields_finish
libmozjs128-debug.so:_RNvMs9_NtCs1GuMdp1PKBr_4core3fmtNtB5_9Formatter26debug_struct_field1_finish
libmozjs128-debug.so:_RNvMs9_NtCs1GuMdp1PKBr_4core3fmtNtB5_9Formatter26debug_struct_field2_finish
libmozjs128-debug.so:_RNvMs9_NtCs1GuMdp1PKBr_4core3fmtNtB5_9Formatter26debug_struct_field3_finish
libmozjs128-debug.so:_RNvMs9_NtCs1GuMdp1PKBr_4core3fmtNtB5_9Formatter26debug_struct_field4_finish
libmozjs128-debug.so:_RNvMs9_NtCs1GuMdp1PKBr_4core3fmtNtB5_9Formatter26debug_struct_field5_finish
libmozjs128-debug.so:_RNvMs9_NtCs1GuMdp1PKBr_4core3fmtNtB5_9Formatter26debug_struct_fields_finish
libmozjs128-debug.so:_RNvMs9_NtCs1GuMdp1PKBr_4core3fmtNtB5_9Formatter3pad
libmozjs128-debug.so:_RNvMs9_NtCs1GuMdp1PKBr_4core3fmtNtB5_9Formatter4fill
libmozjs128-debug.so:_RNvMs9_NtCs1GuMdp1PKBr_4core3fmtNtB5_9Formatter9debug_map
libmozjs128-debug.so:_RNvMs9_NtCs1GuMdp1PKBr_4core3fmtNtB5_9Formatter9debug_set
libmozjs128-debug.so:_RNvMs9_NtCs1GuMdp1PKBr_4core3fmtNtB5_9Formatter9write_str
libmozjs128-debug.so:_RNvMs9_NtNtCs1GuMdp1PKBr_4core3net6parserNtNtB7_11socket_addr10SocketAddr11parse_ascii
libmozjs128-debug.so:_RNvMsA_NtCsh60fBBS5e0U_3std2fsNtB5_10DirBuilder7__create
libmozjs128-debug.so:_RNvMsD_NtNtCse7kRp5EpEcX_5alloc3ffi5c_strNtNtNtCs1GuMdp1PKBr_4core3ffi5c_str4CStr13into_c_string
libmozjs128-debug.so:_RNvMsD_NtNtCse7kRp5EpEcX_5alloc3ffi5c_strNtNtNtCs1GuMdp1PKBr_4core3ffi5c_str4CStr15to_string_lossy
libmozjs128-debug.so:_RNvMsJ_NtNtNtCse7kRp5EpEcX_5alloc11collections5btree4nodeINtB5_6HandleINtB5_7NodeRefNtNtB5_6marker3MutyNtNtNtCsl4XjPnlmSxw_5gimli4read6abbrev12AbbreviationNtB1m_4LeafENtB1m_4EdgeE10insert_fitB1J_
libmozjs128-debug.so:_RNvMsL_NtNtNtCse7kRp5EpEcX_5alloc11collections5btree4nodeINtB5_6HandleINtB5_7NodeRefNtNtB5_6marker3MutyNtNtNtCsl4XjPnlmSxw_5gimli4read6abbrev12AbbreviationNtB1m_8InternalENtB1m_4EdgeE19correct_parent_linkB1J_
libmozjs128-debug.so:_RNvMsM_NtNtNtCse7kRp5EpEcX_5alloc11collections5btree4nodeINtB5_6HandleINtB5_7NodeRefNtNtB5_6marker3MutyNtNtNtCsl4XjPnlmSxw_5gimli4read6abbrev12AbbreviationNtB1m_8InternalENtB1m_4EdgeE10insert_fitB1J_
libmozjs128-debug.so:_RNvMsN_NtCsh60fBBS5e0U_3std7processNtB5_15ExitStatusError12code_nonzero
libmozjs128-debug.so:_RNvMsN_NtCsh60fBBS5e0U_3std7processNtB5_15ExitStatusError4code
libmozjs128-debug.so:_RNvMsO_NtNtNtCse7kRp5EpEcX_5alloc11collections5btree4nodeINtB5_6HandleINtB5_7NodeRefNtNtB5_6marker3MutyNtNtNtCsl4XjPnlmSxw_5gimli4read6abbrev12AbbreviationNtB1m_8InternalENtB1m_4EdgeE7descendB1J_
libmozjs128-debug.so:_RNvMsO_NtNtNtCse7kRp5EpEcX_5alloc11collections5btree4nodeINtB5_6HandleINtB5_7NodeRefNtNtB5_6marker5ImmutyNtNtNtCsl4XjPnlmSxw_5gimli4read6abbrev12AbbreviationNtB1m_8InternalENtB1m_4EdgeE7descendB1L_
libmozjs128-debug.so:_RNvMsP_NtNtNtCse7kRp5EpEcX_5alloc11collections5btree4nodeINtB5_6HandleINtB5_7NodeRefNtNtB5_6marker5ImmutyNtNtNtCsl4XjPnlmSxw_5gimli4read6abbrev12AbbreviationNtB1m_14LeafOrInternalENtB1m_2KVE7into_kvB1L_
libmozjs128-debug.so:_RNvMsQ_NtNtNtCse7kRp5EpEcX_5alloc11collections5btree4nodeINtB5_6HandleINtB5_7NodeRefNtNtB5_6marker3MutyNtNtNtCsl4XjPnlmSxw_5gimli4read6abbrev12AbbreviationNtB1m_14LeafOrInternalENtB1m_2KVE12into_val_mutB1J_
libmozjs128-debug.so:_RNvMsS_NtCsh60fBBS5e0U_3std7processNtB5_8ExitCode12exit_process
libmozjs128-debug.so:_RNvMsU_NtNtNtCse7kRp5EpEcX_5alloc11collections5btree4nodeINtB5_6HandleINtB5_7NodeRefNtNtB5_6marker3MutyNtNtNtCsl4XjPnlmSxw_5gimli4read6abbrev12AbbreviationNtB1m_4LeafENtB1m_2KVE15split_leaf_dataB1J_
libmozjs128-debug.so:_RNvMsU_NtNtNtCse7kRp5EpEcX_5alloc11collections5btree4nodeINtB5_6HandleINtB5_7NodeRefNtNtB5_6marker3MutyNtNtNtCsl4XjPnlmSxw_5gimli4read6abbrev12AbbreviationNtB1m_8InternalENtB1m_2KVE15split_leaf_dataB1J_
libmozjs128-debug.so:_RNvMsY_NtCsh60fBBS5e0U_3std7processNtB5_5Child16wait_with_output
libmozjs128-debug.so:_RNvMsY_NtCsh60fBBS5e0U_3std7processNtB5_5Child4kill
libmozjs128-debug.so:_RNvMsY_NtCsh60fBBS5e0U_3std7processNtB5_5Child4wait
libmozjs128-debug.so:_RNvMsY_NtCsh60fBBS5e0U_3std7processNtB5_5Child8try_wait
libmozjs128-debug.so:_RNvMs_NtCs1GuMdp1PKBr_4core3fmtNtB4_17FormattingOptions8get_fill
libmozjs128-debug.so:_RNvMs_NtCse7kRp5EpEcX_5alloc3vecINtB4_3VechE7reserveCsec783pc85az_9addr2line
libmozjs128-debug.so:_RNvMs_NtCse7kRp5EpEcX_5alloc5boxedINtB4_3BoxINtNtNtNtB6_11collections5btree4node12InternalNodeyNtNtNtCsl4XjPnlmSxw_5gimli4read6abbrev12AbbreviationEE13new_uninit_inB1B_
libmozjs128-debug.so:_RNvMs_NtCse7kRp5EpEcX_5alloc5boxedINtB4_3BoxINtNtNtNtB6_11collections5btree4node12InternalNodeyNtNtNtCsl4XjPnlmSxw_5gimli4read6abbrev12AbbreviationEE17try_new_uninit_inB1B_
libmozjs128-debug.so:_RNvMs_NtCse7kRp5EpEcX_5alloc5boxedINtB4_3BoxINtNtNtNtB6_11collections5btree4node8LeafNodeyNtNtNtCsl4XjPnlmSxw_5gimli4read6abbrev12AbbreviationEE13new_uninit_inB1w_
libmozjs128-debug.so:_RNvMs_NtCse7kRp5EpEcX_5alloc5boxedINtB4_3BoxINtNtNtNtB6_11collections5btree4node8LeafNodeyNtNtNtCsl4XjPnlmSxw_5gimli4read6abbrev12AbbreviationEE17try_new_uninit_inB1w_
libmozjs128-debug.so:_RNvMs_NtCse7kRp5EpEcX_5alloc6stringNtB4_13FromUtf8Error15into_utf8_lossy
libmozjs128-debug.so:_RNvMs_NtCse7kRp5EpEcX_5alloc6stringNtB4_13FromUtf8Error8as_bytes
libmozjs128-debug.so:_RNvMs_NtCsec783pc85az_9addr2line4lineNtB4_5Lines13find_location
libmozjs128-debug.so:_RNvMs_NtCsec783pc85az_9addr2line4lineNtB4_5Lines19find_location_range
libmozjs128-debug.so:_RNvMs_NtCsl4XjPnlmSxw_5gimli4readNtB4_5Error11description
libmozjs128-debug.so:_RNvMs_NtNtCs1GuMdp1PKBr_4core3fmt8buildersNtB4_10PadAdapter4wrap
libmozjs128-debug.so:_RNvMs_NtNtCs1GuMdp1PKBr_4core3net6parserNtNtB6_7ip_addr6IpAddr11parse_ascii
libmozjs128-debug.so:_RNvMs_NtNtCs1GuMdp1PKBr_4core3num3fmtNtB4_9Formatted3len
libmozjs128-debug.so:_RNvMs_NtNtCs1GuMdp1PKBr_4core3num3fmtNtB4_9Formatted5write
libmozjs128-debug.so:_RNvMs_NtNtCse7kRp5EpEcX_5alloc3ffi5c_strNtB4_7CString10into_bytes
libmozjs128-debug.so:_RNvMs_NtNtCse7kRp5EpEcX_5alloc3ffi5c_strNtB4_7CString11into_string
libmozjs128-debug.so:_RNvMs_NtNtCse7kRp5EpEcX_5alloc3ffi5c_strNtB4_7CString16into_boxed_c_str
libmozjs128-debug.so:_RNvMs_NtNtCse7kRp5EpEcX_5alloc3ffi5c_strNtB4_7CString17from_vec_with_nul
libmozjs128-debug.so:_RNvMs_NtNtCse7kRp5EpEcX_5alloc3ffi5c_strNtB4_7CString18from_vec_unchecked
libmozjs128-debug.so:_RNvMs_NtNtCse7kRp5EpEcX_5alloc3ffi5c_strNtB4_7CString19__from_vec_unchecked
libmozjs128-debug.so:_RNvMs_NtNtCse7kRp5EpEcX_5alloc3ffi5c_strNtB4_7CString19into_bytes_with_nul
libmozjs128-debug.so:_RNvMs_NtNtCse7kRp5EpEcX_5alloc3ffi5c_strNtB4_7CString27from_vec_with_nul_unchecked
libmozjs128-debug.so:_RNvMs_NtNtCse7kRp5EpEcX_5alloc3ffi5c_strNtB4_7CString8from_raw
libmozjs128-debug.so:_RNvMs_NtNtCsh60fBBS5e0U_3std12backtrace_rs9symbolizeNtB4_6Symbol12filename_raw
libmozjs128-debug.so:_RNvMs_NtNtCsh60fBBS5e0U_3std12backtrace_rs9symbolizeNtB4_6Symbol4name
libmozjs128-debug.so:_RNvMs_NtNtCsh60fBBS5e0U_3std6thread9spawnhookNtB4_15ChildSpawnHooks3run
libmozjs128-debug.so:_RNvMs_NtNtNtCs1GuMdp1PKBr_4core3num7dec2flt11decimal_seqNtB4_10DecimalSeq10left_shift
libmozjs128-debug.so:_RNvMs_NtNtNtCs1GuMdp1PKBr_4core3num7dec2flt11decimal_seqNtB4_10DecimalSeq11right_shift
libmozjs128-debug.so:_RNvMs_NtNtNtCs1GuMdp1PKBr_4core3num7dec2flt11decimal_seqNtB4_10DecimalSeq4trim
libmozjs128-debug.so:_RNvMs_NtNtNtCs1GuMdp1PKBr_4core3num7dec2flt11decimal_seqNtB4_10DecimalSeq5round
libmozjs128-debug.so:_RNvMs_NtNtNtCsh60fBBS5e0U_3std2io8buffered9bufwriterINtB4_9BufWriterNtNtB8_5stdio9StdoutRawE10write_coldBa_
libmozjs128-debug.so:_RNvMs_NtNtNtCsh60fBBS5e0U_3std2io8buffered9bufwriterINtB4_9BufWriterNtNtB8_5stdio9StdoutRawE14write_all_coldBa_
libmozjs128-debug.so:_RNvMs_NtNtNtCsh60fBBS5e0U_3std2os2fd5ownedNtB4_7OwnedFd9try_clone
libmozjs128-debug.so:_RNvMs_NtNtNtCsh60fBBS5e0U_3std3sys7process3envNtB4_10CommandEnv3set
libmozjs128-debug.so:_RNvMs_NtNtNtCsh60fBBS5e0U_3std3sys7process3envNtB4_10CommandEnv6remove
libmozjs128-debug.so:_RNvMs_NtNtNtNtCsh60fBBS5e0U_3std2os4unix3net8listenerNtB4_12UnixListener10local_addr
libmozjs128-debug.so:_RNvMs_NtNtNtNtCsh60fBBS5e0U_3std2os4unix3net8listenerNtB4_12UnixListener10take_error
libmozjs128-debug.so:_RNvMs_NtNtNtNtCsh60fBBS5e0U_3std2os4unix3net8listenerNtB4_12UnixListener15set_nonblocking
libmozjs128-debug.so:_RNvMs_NtNtNtNtCsh60fBBS5e0U_3std2os4unix3net8listenerNtB4_12UnixListener6accept
libmozjs128-debug.so:_RNvMs_NtNtNtNtCsh60fBBS5e0U_3std2os4unix3net8listenerNtB4_12UnixListener9bind_addr
libmozjs128-debug.so:_RNvMs_NtNtNtNtCsh60fBBS5e0U_3std2os4unix3net8listenerNtB4_12UnixListener9try_clone
libmozjs128-debug.so:_RNvMs_NtNtNtNtCsh60fBBS5e0U_3std3sys7process4unix6commonNtB4_7Command3arg
libmozjs128-debug.so:_RNvMs_NtNtNtNtCsh60fBBS5e0U_3std3sys7process4unix6commonNtB4_7Command3cwd
libmozjs128-debug.so:_RNvMs_NtNtNtNtCsh60fBBS5e0U_3std3sys7process4unix6commonNtB4_7Command3new
libmozjs128-debug.so:_RNvMs_NtNtNtNtCsh60fBBS5e0U_3std3sys7process4unix6commonNtB4_7Command5stdin
libmozjs128-debug.so:_RNvMs_NtNtNtNtCsh60fBBS5e0U_3std3sys7process4unix6commonNtB4_7Command6chroot
libmozjs128-debug.so:_RNvMs_NtNtNtNtCsh60fBBS5e0U_3std3sys7process4unix6commonNtB4_7Command6stderr
libmozjs128-debug.so:_RNvMs_NtNtNtNtCsh60fBBS5e0U_3std3sys7process4unix6commonNtB4_7Command6stdout
libmozjs128-debug.so:_RNvMs_NtNtNtNtCsh60fBBS5e0U_3std3sys7process4unix6commonNtB4_7Command8pre_exec
libmozjs128-debug.so:_RNvMs_NtNtNtNtCsh60fBBS5e0U_3std3sys7process4unix6commonNtB4_7Command9set_arg_0
libmozjs128-debug.so:_RNvMsa_NtNtCsh60fBBS5e0U_3std2io5stdioNtB5_6Stdout4lock
libmozjs128-debug.so:_RNvMsa_NtNtNtCs1GuMdp1PKBr_4core3fmt3num3impm4__fmt
libmozjs128-debug.so:_RNvMsa_NtNtNtNtCsh60fBBS5e0U_3std3sys3net10connection6socketNtB5_9UdpSocket7send_to
libmozjs128-debug.so:_RNvMsb_NtNtNtCs1GuMdp1PKBr_4core3fmt3num3impl11format_into
libmozjs128-debug.so:_RNvMsc_NtNtNtCs1GuMdp1PKBr_4core3fmt3num3impm11format_into
libmozjs128-debug.so:_RNvMsf_NtNtNtCs1GuMdp1PKBr_4core3fmt3num3impy4__fmt
libmozjs128-debug.so:_RNvMsg_NtCsh60fBBS5e0U_3std2fsNtB5_11OpenOptions5__open
libmozjs128-debug.so:_RNvMsg_NtNtNtCs1GuMdp1PKBr_4core3fmt3num3impx11format_into
libmozjs128-debug.so:_RNvMsg_NtNtNtCse7kRp5EpEcX_5alloc11collections5btree4nodeINtB5_7NodeRefNtNtB5_6marker5ImmutyNtNtNtCsl4XjPnlmSxw_5gimli4read6abbrev12AbbreviationNtB19_14LeafOrInternalE4keysB1y_
libmozjs128-debug.so:_RNvMsh_NtNtNtCs1GuMdp1PKBr_4core3fmt3num3impy11format_into
libmozjs128-debug.so:_RNvMsi_NtNtNtCse7kRp5EpEcX_5alloc11collections5btree3mapINtB5_8BTreeMapyNtNtNtCsl4XjPnlmSxw_5gimli4read6abbrev12AbbreviationE5entryB1e_
libmozjs128-debug.so:_RNvMsi_NtNtNtCsh60fBBS5e0U_3std3sys2fs4unixNtB5_4File13read_vectored
libmozjs128-debug.so:_RNvMsi_NtNtNtCsh60fBBS5e0U_3std3sys2fs4unixNtB5_4File4read
libmozjs128-debug.so:_RNvMsi_NtNtNtCsh60fBBS5e0U_3std3sys2fs4unixNtB5_4File8read_buf
libmozjs128-debug.so:_RNvMsj_NtCsh60fBBS5e0U_3std2fsNtB5_8Metadata7created
libmozjs128-debug.so:_RNvMsj_NtCsh60fBBS5e0U_3std2fsNtB5_8Metadata8accessed
libmozjs128-debug.so:_RNvMsj_NtCsh60fBBS5e0U_3std2fsNtB5_8Metadata8modified
libmozjs128-debug.so:_RNvMsk_NtCsh60fBBS5e0U_3std7processNtB5_7Command11get_program
libmozjs128-debug.so:_RNvMsk_NtCsh60fBBS5e0U_3std7processNtB5_7Command15get_current_dir
libmozjs128-debug.so:_RNvMsk_NtCsh60fBBS5e0U_3std7processNtB5_7Command5spawn
libmozjs128-debug.so:_RNvMsk_NtCsh60fBBS5e0U_3std7processNtB5_7Command6output
libmozjs128-debug.so:_RNvMsk_NtCsh60fBBS5e0U_3std7processNtB5_7Command6status
libmozjs128-debug.so:_RNvMsk_NtCsh60fBBS5e0U_3std7processNtB5_7Command8get_args
libmozjs128-debug.so:_RNvMsk_NtCsh60fBBS5e0U_3std7processNtB5_7Command9env_clear
libmozjs128-debug.so:_RNvMsk_NtNtCsh60fBBS5e0U_3std2io5stdioNtB5_6Stderr4lock
libmozjs128-debug.so:_RNvMsk_NtNtNtCs1GuMdp1PKBr_4core3fmt3num3impj4__fmt
libmozjs128-debug.so:_RNvMsl_NtCse7kRp5EpEcX_5alloc4syncINtB5_3ArcINtNtNtCsl4XjPnlmSxw_5gimli4read5dwarf5DwarfINtNtBL_12endian_slice11EndianSliceNtNtBN_9endianity12LittleEndianEEE9drop_slowCsh60fBBS5e0U_3std
libmozjs128-debug.so:_RNvMsl_NtCse7kRp5EpEcX_5alloc4syncINtB5_3ArcINtNtNtNtCsh60fBBS5e0U_3std4sync6poison5mutex5MutexINtNtB7_3vec3VechEEE9drop_slowBP_
libmozjs128-debug.so:_RNvMsl_NtCse7kRp5EpEcX_5alloc4syncINtB5_3ArcNtNtCsh60fBBS5e0U_3std6thread5InnerE9drop_slowBK_
libmozjs128-debug.so:_RNvMsl_NtCse7kRp5EpEcX_5alloc4syncINtB5_3ArcNtNtNtCsh60fBBS5e0U_3std6thread9spawnhook9SpawnHookE9drop_slowBM_
libmozjs128-debug.so:_RNvMsl_NtCse7kRp5EpEcX_5alloc4syncINtB5_3ArcNtNtNtCsl4XjPnlmSxw_5gimli4read6abbrev13AbbreviationsE9drop_slowCsh60fBBS5e0U_3std
libmozjs128-debug.so:_RNvMsl_NtCse7kRp5EpEcX_5alloc4syncINtB5_3ArcNtNtNtNtCsh60fBBS5e0U_3std3sys2fs4unix12InnerReadDirE9drop_slowBO_
libmozjs128-debug.so:_RNvMsl_NtNtCsh60fBBS5e0U_3std3ffi6os_strNtB5_5OsStr14into_os_string
libmozjs128-debug.so:_RNvMsl_NtNtCsh60fBBS5e0U_3std3ffi6os_strNtB5_5OsStr18to_ascii_lowercase
libmozjs128-debug.so:_RNvMsl_NtNtCsh60fBBS5e0U_3std3ffi6os_strNtB5_5OsStr18to_ascii_uppercase
libmozjs128-debug.so:_RNvMsl_NtNtNtCs1GuMdp1PKBr_4core3fmt3num3impi11format_into
libmozjs128-debug.so:_RNvMsm_NtNtNtCs1GuMdp1PKBr_4core3fmt3num3impj11format_into
libmozjs128-debug.so:_RNvMsr_NtCsh60fBBS5e0U_3std4pathNtB5_7PathBuf14__add_extension
libmozjs128-debug.so:_RNvMsr_NtCsh60fBBS5e0U_3std4pathNtB5_7PathBuf14__set_extension
libmozjs128-debug.so:_RNvMsr_NtCsh60fBBS5e0U_3std4pathNtB5_7PathBuf14__set_file_name
libmozjs128-debug.so:_RNvMsr_NtCsh60fBBS5e0U_3std4pathNtB5_7PathBuf16pop_trailing_sep
libmozjs128-debug.so:_RNvMsr_NtCsh60fBBS5e0U_3std4pathNtB5_7PathBuf16set_trailing_sep
libmozjs128-debug.so:_RNvMsr_NtCsh60fBBS5e0U_3std4pathNtB5_7PathBuf17push_trailing_sep
libmozjs128-debug.so:_RNvMsr_NtCsh60fBBS5e0U_3std4pathNtB5_7PathBuf3pop
libmozjs128-debug.so:_RNvMsr_NtCsh60fBBS5e0U_3std4pathNtB5_7PathBuf5__push
libmozjs128-debug.so:_RNvMst_NtCsh60fBBS5e0U_3std7processNtB5_6Output7exit_ok
libmozjs128-debug.so:_RNvMsu_NtNtCs1GuMdp1PKBr_4core3str7patternNtB5_11StrSearcher3new
libmozjs128-debug.so:_RNvMsu_NtNtNtCse7kRp5EpEcX_5alloc11collections5btree4nodeINtB5_7NodeRefNtNtB5_6marker3MutyNtNtNtCsl4XjPnlmSxw_5gimli4read6abbrev12AbbreviationNtB19_4LeafE16push_with_handleB1w_
libmozjs128-debug.so:_RNvMsv_NtNtNtCse7kRp5EpEcX_5alloc11collections5btree4nodeINtB5_7NodeRefNtNtB5_6marker3MutyNtNtNtCsl4XjPnlmSxw_5gimli4read6abbrev12AbbreviationNtB19_8InternalE4pushB1w_
libmozjs128-debug.so:_RNvMsx_NtCsh60fBBS5e0U_3std2fsNtB5_8DirEntry4path
libmozjs128-debug.so:_RNvMsx_NtCsh60fBBS5e0U_3std2fsNtB5_8DirEntry8metadata
libmozjs128-debug.so:_RNvMsx_NtCsh60fBBS5e0U_3std2fsNtB5_8DirEntry9file_name
libmozjs128-debug.so:_RNvMsx_NtCsh60fBBS5e0U_3std2fsNtB5_8DirEntry9file_type
libmozjs128-debug.so:_RNvNCNkNvNtNtCsh60fBBS5e0U_3std6thread9spawnhook11SPAWN_HOOKS0023___RUST_STD_INTERNAL_VAL
libmozjs128-debug.so:_RNvNCNkNvNvMNtNtCsh60fBBS5e0U_3std4hash6randomNtBa_11RandomState3new4KEYS0s_023___RUST_STD_INTERNAL_VAL
libmozjs128-debug.so:_RNvNCNkNvNvMNtNtNtCsh60fBBS5e0U_3std4sync4mpmc7contextNtBa_7Context4with7CONTEXT0023___RUST_STD_INTERNAL_VAL
libmozjs128-debug.so:_RNvNCNkNvNvNtNtNtCsh60fBBS5e0U_3std4sync4mpmc5waker17current_thread_id5DUMMY0s_023___RUST_STD_INTERNAL_VAL
libmozjs128-debug.so:_RNvNCNvMNtCsh60fBBS5e0U_3std6threadNtB6_7Builder16spawn_unchecked_03MIN
libmozjs128-debug.so:_RNvNtCs1GuMdp1PKBr_4core3fmt17pointer_fmt_inner
libmozjs128-debug.so:_RNvNtCs1GuMdp1PKBr_4core3fmt5write
libmozjs128-debug.so:_RNvNtCs1GuMdp1PKBr_4core3num22from_ascii_radix_panic
libmozjs128-debug.so:_RNvNtCs1GuMdp1PKBr_4core3str16slice_error_fail
libmozjs128-debug.so:_RNvNtCs1GuMdp1PKBr_4core3str19slice_error_fail_ct
libmozjs128-debug.so:_RNvNtCs1GuMdp1PKBr_4core3str19slice_error_fail_rt
libmozjs128-debug.so:_RNvNtCs1GuMdp1PKBr_4core4cell22panic_already_borrowed
libmozjs128-debug.so:_RNvNtCs1GuMdp1PKBr_4core4cell30panic_already_mutably_borrowed
libmozjs128-debug.so:_RNvNtCs1GuMdp1PKBr_4core4wtf816slice_error_fail
libmozjs128-debug.so:_RNvNtCs1GuMdp1PKBr_4core5ascii14escape_default
libmozjs128-debug.so:_RNvNtCs1GuMdp1PKBr_4core6option13expect_failed
libmozjs128-debug.so:_RNvNtCs1GuMdp1PKBr_4core6option13unwrap_failed
libmozjs128-debug.so:_RNvNtCs1GuMdp1PKBr_4core6result13unwrap_failed
libmozjs128-debug.so:_RNvNtCs1GuMdp1PKBr_4core9panicking14panic_nounwind
libmozjs128-debug.so:_RNvNtCs1GuMdp1PKBr_4core9panicking15const_panic_fmt
libmozjs128-debug.so:_RNvNtCs1GuMdp1PKBr_4core9panicking16panic_in_cleanup
libmozjs128-debug.so:_RNvNtCs1GuMdp1PKBr_4core9panicking18panic_bounds_check
libmozjs128-debug.so:_RNvNtCs1GuMdp1PKBr_4core9panicking18panic_nounwind_fmt
libmozjs128-debug.so:_RNvNtCs1GuMdp1PKBr_4core9panicking19assert_failed_inner
libmozjs128-debug.so:_RNvNtCs1GuMdp1PKBr_4core9panicking19panic_cannot_unwind
libmozjs128-debug.so:_RNvNtCs1GuMdp1PKBr_4core9panicking26panic_nounwind_nobacktrace
libmozjs128-debug.so:_RNvNtCs1GuMdp1PKBr_4core9panicking30panic_null_pointer_dereference
libmozjs128-debug.so:_RNvNtCs1GuMdp1PKBr_4core9panicking31panic_invalid_enum_construction
libmozjs128-debug.so:_RNvNtCs1GuMdp1PKBr_4core9panicking36panic_misaligned_pointer_dereference
libmozjs128-debug.so:_RNvNtCs1GuMdp1PKBr_4core9panicking5panic
libmozjs128-debug.so:_RNvNtCs1GuMdp1PKBr_4core9panicking9panic_fmt
libmozjs128-debug.so:_RNvNtCs9zevlwxmzUZ_11miniz_oxide6shared14update_adler32
libmozjs128-debug.so:_RNvNtCse7kRp5EpEcX_5alloc2rc32rc_inner_layout_for_value_layout
libmozjs128-debug.so:_RNvNtCse7kRp5EpEcX_5alloc4sync18STATIC_INNER_SLICE
libmozjs128-debug.so:_RNvNtCse7kRp5EpEcX_5alloc4sync32arcinner_layout_for_value_layout
libmozjs128-debug.so:_RNvNtCse7kRp5EpEcX_5alloc5alloc18handle_alloc_error
libmozjs128-debug.so:_RNvNtCse7kRp5EpEcX_5alloc7raw_vec12handle_error
libmozjs128-debug.so:_RNvNtCsec783pc85az_9addr2line4line9path_push
libmozjs128-debug.so:_RNvNtCsec783pc85az_9addr2line5frame13demangle_auto
libmozjs128-debug.so:_RNvNtCsh60fBBS5e0U_3std2rt19lang_start_internal
libmozjs128-debug.so:_RNvNtCsh60fBBS5e0U_3std3env11current_dir
libmozjs128-debug.so:_RNvNtCsh60fBBS5e0U_3std3env11current_exe
libmozjs128-debug.so:_RNvNtCsh60fBBS5e0U_3std3env4__var
libmozjs128-debug.so:_RNvNtCsh60fBBS5e0U_3std3env4args
libmozjs128-debug.so:_RNvNtCsh60fBBS5e0U_3std3env4vars
libmozjs128-debug.so:_RNvNtCsh60fBBS5e0U_3std3env7__var_os
libmozjs128-debug.so:_RNvNtCsh60fBBS5e0U_3std3env7args_os
libmozjs128-debug.so:_RNvNtCsh60fBBS5e0U_3std3env7vars_os
libmozjs128-debug.so:_RNvNtCsh60fBBS5e0U_3std3env8home_dir
libmozjs128-debug.so:_RNvNtCsh60fBBS5e0U_3std3env8temp_dir
libmozjs128-debug.so:_RNvNtCsh60fBBS5e0U_3std4path18compare_components
libmozjs128-debug.so:_RNvNtCsh60fBBS5e0U_3std5alloc20set_alloc_error_hook
libmozjs128-debug.so:_RNvNtCsh60fBBS5e0U_3std5alloc24default_alloc_error_hook
libmozjs128-debug.so:_RNvNtCsh60fBBS5e0U_3std5alloc4HOOK
libmozjs128-debug.so:_RNvNtCsh60fBBS5e0U_3std5alloc8rust_oom
libmozjs128-debug.so:_RNvNtCsh60fBBS5e0U_3std5panic13resume_unwind
libmozjs128-debug.so:_RNvNtCsh60fBBS5e0U_3std5panic19get_backtrace_style
libmozjs128-debug.so:_RNvNtCsh60fBBS5e0U_3std5panic19set_backtrace_style
libmozjs128-debug.so:_RNvNtCsh60fBBS5e0U_3std6thread11sleep_until
libmozjs128-debug.so:_RNvNtCsh60fBBS5e0U_3std6thread12park_timeout
libmozjs128-debug.so:_RNvNtCsh60fBBS5e0U_3std6thread15park_timeout_ms
libmozjs128-debug.so:_RNvNtCsh60fBBS5e0U_3std6thread21available_parallelism
libmozjs128-debug.so:_RNvNtCsh60fBBS5e0U_3std6thread4park
libmozjs128-debug.so:_RNvNtCsh60fBBS5e0U_3std6thread5sleep
libmozjs128-debug.so:_RNvNtCsh60fBBS5e0U_3std6thread8sleep_ms
libmozjs128-debug.so:_RNvNtCsh60fBBS5e0U_3std6thread9yield_now
libmozjs128-debug.so:_RNvNtCsh60fBBS5e0U_3std7process2id
libmozjs128-debug.so:_RNvNtCsh60fBBS5e0U_3std7process4exit
libmozjs128-debug.so:_RNvNtCsh60fBBS5e0U_3std7process5abort
libmozjs128-debug.so:_RNvNtCsh60fBBS5e0U_3std9panicking11EMPTY_PANIC
libmozjs128-debug.so:_RNvNtCsh60fBBS5e0U_3std9panicking12default_hook
libmozjs128-debug.so:_RNvNtCsh60fBBS5e0U_3std9panicking14payload_as_str
libmozjs128-debug.so:_RNvNtCsh60fBBS5e0U_3std9panicking15panic_with_hook
libmozjs128-debug.so:_RNvNtCsh60fBBS5e0U_3std9panicking4HOOK
libmozjs128-debug.so:_RNvNtCsh60fBBS5e0U_3std9panicking8set_hook
libmozjs128-debug.so:_RNvNtCsh60fBBS5e0U_3std9panicking9take_hook
libmozjs128-debug.so:_RNvNtNtCs1GuMdp1PKBr_4core3num14overflow_panic3add
libmozjs128-debug.so:_RNvNtNtCs1GuMdp1PKBr_4core3num14overflow_panic3div
libmozjs128-debug.so:_RNvNtNtCs1GuMdp1PKBr_4core3num14overflow_panic3mul
libmozjs128-debug.so:_RNvNtNtCs1GuMdp1PKBr_4core3num14overflow_panic3neg
libmozjs128-debug.so:_RNvNtNtCs1GuMdp1PKBr_4core3num14overflow_panic3rem
libmozjs128-debug.so:_RNvNtNtCs1GuMdp1PKBr_4core3num14overflow_panic3shl
libmozjs128-debug.so:_RNvNtNtCs1GuMdp1PKBr_4core3num14overflow_panic3shr
libmozjs128-debug.so:_RNvNtNtCs1GuMdp1PKBr_4core3num14overflow_panic3sub
libmozjs128-debug.so:_RNvNtNtCs1GuMdp1PKBr_4core3num7flt2dec17digits_to_dec_str
libmozjs128-debug.so:_RNvNtNtCs1GuMdp1PKBr_4core3num7flt2dec17digits_to_exp_str
libmozjs128-debug.so:_RNvNtNtCs1GuMdp1PKBr_4core3num7flt2dec8round_up
libmozjs128-debug.so:_RNvNtNtCs1GuMdp1PKBr_4core3num8int_sqrt27panic_for_negative_argument
libmozjs128-debug.so:_RNvNtNtCs1GuMdp1PKBr_4core3num9int_log1030panic_for_nonpositive_argument
libmozjs128-debug.so:_RNvNtNtCs1GuMdp1PKBr_4core3str5count14do_count_chars
libmozjs128-debug.so:_RNvNtNtCs1GuMdp1PKBr_4core3str5count23char_count_general_case
libmozjs128-debug.so:_RNvNtNtCs1GuMdp1PKBr_4core3str6traits23str_index_overflow_fail
libmozjs128-debug.so:_RNvNtNtCs1GuMdp1PKBr_4core3str8converts13from_utf8_mut
libmozjs128-debug.so:_RNvNtNtCs1GuMdp1PKBr_4core3str8converts9from_utf8
libmozjs128-debug.so:_RNvNtNtCs1GuMdp1PKBr_4core4cell4lazy14panic_poisoned
libmozjs128-debug.so:_RNvNtNtCs1GuMdp1PKBr_4core5slice5index16into_slice_range
libmozjs128-debug.so:_RNvNtNtCs1GuMdp1PKBr_4core5slice5index16slice_index_fail
libmozjs128-debug.so:_RNvNtNtCs1GuMdp1PKBr_4core5slice6memchr14memchr_aligned
libmozjs128-debug.so:_RNvNtNtCs1GuMdp1PKBr_4core5slice6memchr7memrchr
libmozjs128-debug.so:_RNvNtNtCs1GuMdp1PKBr_4core7unicode9printable12is_printable
libmozjs128-debug.so:_RNvNtNtCs1GuMdp1PKBr_4core9panicking11panic_const23panic_const_div_by_zero
libmozjs128-debug.so:_RNvNtNtCs1GuMdp1PKBr_4core9panicking11panic_const23panic_const_gen_fn_none
libmozjs128-debug.so:_RNvNtNtCs1GuMdp1PKBr_4core9panicking11panic_const23panic_const_rem_by_zero
libmozjs128-debug.so:_RNvNtNtCs1GuMdp1PKBr_4core9panicking11panic_const24panic_const_add_overflow
libmozjs128-debug.so:_RNvNtNtCs1GuMdp1PKBr_4core9panicking11panic_const24panic_const_div_overflow
libmozjs128-debug.so:_RNvNtNtCs1GuMdp1PKBr_4core9panicking11panic_const24panic_const_mul_overflow
libmozjs128-debug.so:_RNvNtNtCs1GuMdp1PKBr_4core9panicking11panic_const24panic_const_neg_overflow
libmozjs128-debug.so:_RNvNtNtCs1GuMdp1PKBr_4core9panicking11panic_const24panic_const_rem_overflow
libmozjs128-debug.so:_RNvNtNtCs1GuMdp1PKBr_4core9panicking11panic_const24panic_const_shl_overflow
libmozjs128-debug.so:_RNvNtNtCs1GuMdp1PKBr_4core9panicking11panic_const24panic_const_shr_overflow
libmozjs128-debug.so:_RNvNtNtCs1GuMdp1PKBr_4core9panicking11panic_const24panic_const_sub_overflow
libmozjs128-debug.so:_RNvNtNtCs1GuMdp1PKBr_4core9panicking11panic_const28panic_const_async_fn_resumed
libmozjs128-debug.so:_RNvNtNtCs1GuMdp1PKBr_4core9panicking11panic_const28panic_const_gen_fn_none_drop
libmozjs128-debug.so:_RNvNtNtCs1GuMdp1PKBr_4core9panicking11panic_const29panic_const_coroutine_resumed
libmozjs128-debug.so:_RNvNtNtCs1GuMdp1PKBr_4core9panicking11panic_const29panic_const_gen_fn_none_panic
libmozjs128-debug.so:_RNvNtNtCs1GuMdp1PKBr_4core9panicking11panic_const32panic_const_async_gen_fn_resumed
libmozjs128-debug.so:_RNvNtNtCs1GuMdp1PKBr_4core9panicking11panic_const33panic_const_async_fn_resumed_drop
libmozjs128-debug.so:_RNvNtNtCs1GuMdp1PKBr_4core9panicking11panic_const34panic_const_async_fn_resumed_panic
libmozjs128-debug.so:_RNvNtNtCs1GuMdp1PKBr_4core9panicking11panic_const34panic_const_coroutine_resumed_drop
libmozjs128-debug.so:_RNvNtNtCs1GuMdp1PKBr_4core9panicking11panic_const35panic_const_coroutine_resumed_panic
libmozjs128-debug.so:_RNvNtNtCs1GuMdp1PKBr_4core9panicking11panic_const37panic_const_async_gen_fn_resumed_drop
libmozjs128-debug.so:_RNvNtNtCs1GuMdp1PKBr_4core9panicking11panic_const38panic_const_async_gen_fn_resumed_panic
libmozjs128-debug.so:_RNvNtNtCs9zevlwxmzUZ_11miniz_oxide7inflate4core10decompress
libmozjs128-debug.so:_RNvNtNtCsh60fBBS5e0U_3std2io5stdio18set_output_capture
libmozjs128-debug.so:_RNvNtNtCsh60fBBS5e0U_3std2io5stdio22try_set_output_capture
libmozjs128-debug.so:_RNvNtNtCsh60fBBS5e0U_3std2io5stdio23attempt_print_to_stderr
libmozjs128-debug.so:_RNvNtNtCsh60fBBS5e0U_3std2io5stdio5stdin
libmozjs128-debug.so:_RNvNtNtCsh60fBBS5e0U_3std2io5stdio6__print
libmozjs128-debug.so:_RNvNtNtCsh60fBBS5e0U_3std2io5stdio6stdout
libmozjs128-debug.so:_RNvNtNtCsh60fBBS5e0U_3std2io5stdio7__eprint
libmozjs128-debug.so:_RNvNtNtCsh60fBBS5e0U_3std3net8hostname8hostname
libmozjs128-debug.so:_RNvNtNtCsh60fBBS5e0U_3std3sys2fs10remove_dir
libmozjs128-debug.so:_RNvNtNtCsh60fBBS5e0U_3std3sys2fs11remove_file
libmozjs128-debug.so:_RNvNtNtCsh60fBBS5e0U_3std3sys2fs12canonicalize
libmozjs128-debug.so:_RNvNtNtCsh60fBBS5e0U_3std3sys2fs14remove_dir_all
libmozjs128-debug.so:_RNvNtNtCsh60fBBS5e0U_3std3sys2fs15set_permissions
libmozjs128-debug.so:_RNvNtNtCsh60fBBS5e0U_3std3sys2fs16symlink_metadata
libmozjs128-debug.so:_RNvNtNtCsh60fBBS5e0U_3std3sys2fs18set_times_nofollow
libmozjs128-debug.so:_RNvNtNtCsh60fBBS5e0U_3std3sys2fs24set_permissions_nofollow
libmozjs128-debug.so:_RNvNtNtCsh60fBBS5e0U_3std3sys2fs4copy
libmozjs128-debug.so:_RNvNtNtCsh60fBBS5e0U_3std3sys2fs6exists
libmozjs128-debug.so:_RNvNtNtCsh60fBBS5e0U_3std3sys2fs6rename
libmozjs128-debug.so:_RNvNtNtCsh60fBBS5e0U_3std3sys2fs7symlink
libmozjs128-debug.so:_RNvNtNtCsh60fBBS5e0U_3std3sys2fs8metadata
libmozjs128-debug.so:_RNvNtNtCsh60fBBS5e0U_3std3sys2fs8read_dir
libmozjs128-debug.so:_RNvNtNtCsh60fBBS5e0U_3std3sys2fs9hard_link
libmozjs128-debug.so:_RNvNtNtCsh60fBBS5e0U_3std3sys2fs9read_link
libmozjs128-debug.so:_RNvNtNtCsh60fBBS5e0U_3std3sys2fs9set_times
libmozjs128-debug.so:_RNvNtNtCsh60fBBS5e0U_3std3sys5alloc16realloc_fallback
libmozjs128-debug.so:_RNvNtNtCsh60fBBS5e0U_3std3sys9backtrace4lock
libmozjs128-debug.so:_RNvNtNtCsh60fBBS5e0U_3std4sync9lazy_lock14panic_poisoned
libmozjs128-debug.so:_RNvNtNtCsh60fBBS5e0U_3std6thread5local18panic_access_error
libmozjs128-debug.so:_RNvNtNtCsh60fBBS5e0U_3std6thread7current11set_current
libmozjs128-debug.so:_RNvNtNtCsh60fBBS5e0U_3std6thread7current18current_or_unnamed
libmozjs128-debug.so:_RNvNtNtCsh60fBBS5e0U_3std6thread7current7CURRENT
libmozjs128-debug.so:_RNvNtNtCsh60fBBS5e0U_3std6thread7current7current
libmozjs128-debug.so:_RNvNtNtCsh60fBBS5e0U_3std6thread9spawnhook15run_spawn_hooks
libmozjs128-debug.so:_RNvNtNtCsh60fBBS5e0U_3std9panicking11panic_count17is_zero_slow_path
libmozjs128-debug.so:_RNvNtNtCsh60fBBS5e0U_3std9panicking11panic_count18GLOBAL_PANIC_COUNT
libmozjs128-debug.so:_RNvNtNtCsh60fBBS5e0U_3std9panicking11panic_count19finished_panic_hook
libmozjs128-debug.so:_RNvNtNtCsh60fBBS5e0U_3std9panicking11panic_count8decrease
libmozjs128-debug.so:_RNvNtNtCsh60fBBS5e0U_3std9panicking11panic_count8increase
libmozjs128-debug.so:_RNvNtNtCsh60fBBS5e0U_3std9panicking11panic_count9get_count
libmozjs128-debug.so:_RNvNtNtNtCs1GuMdp1PKBr_4core3num7dec2flt11decimal_seq17parse_decimal_seq
libmozjs128-debug.so:_RNvNtNtNtCs1GuMdp1PKBr_4core3num7dec2flt5parse12parse_number
libmozjs128-debug.so:_RNvNtNtNtCs1GuMdp1PKBr_4core3num7dec2flt6lemire22compute_product_approx
libmozjs128-debug.so:_RNvNtNtNtCs1GuMdp1PKBr_4core7unicode12unicode_data10alphabetic11lookup_slow
libmozjs128-debug.so:_RNvNtNtNtCs1GuMdp1PKBr_4core7unicode12unicode_data11conversions8to_lower
libmozjs128-debug.so:_RNvNtNtNtCs1GuMdp1PKBr_4core7unicode12unicode_data11conversions8to_upper
libmozjs128-debug.so:_RNvNtNtNtCs1GuMdp1PKBr_4core7unicode12unicode_data11white_space14WHITESPACE_MAP
libmozjs128-debug.so:_RNvNtNtNtCs1GuMdp1PKBr_4core7unicode12unicode_data14case_ignorable11lookup_slow
libmozjs128-debug.so:_RNvNtNtNtCs1GuMdp1PKBr_4core7unicode12unicode_data15grapheme_extend11lookup_slow
libmozjs128-debug.so:_RNvNtNtNtCs1GuMdp1PKBr_4core7unicode12unicode_data1n11lookup_slow
libmozjs128-debug.so:_RNvNtNtNtCs1GuMdp1PKBr_4core7unicode12unicode_data5cased11lookup_slow
libmozjs128-debug.so:_RNvNtNtNtCs1GuMdp1PKBr_4core7unicode12unicode_data9lowercase14BITSET_MAPPING
libmozjs128-debug.so:_RNvNtNtNtCs1GuMdp1PKBr_4core7unicode12unicode_data9lowercase16BITSET_CANONICAL
libmozjs128-debug.so:_RNvNtNtNtCs1GuMdp1PKBr_4core7unicode12unicode_data9lowercase17BITSET_CHUNKS_MAP
libmozjs128-debug.so:_RNvNtNtNtCs1GuMdp1PKBr_4core7unicode12unicode_data9lowercase19BITSET_INDEX_CHUNKS
libmozjs128-debug.so:_RNvNtNtNtCs1GuMdp1PKBr_4core7unicode12unicode_data9lowercase6lookup
libmozjs128-debug.so:_RNvNtNtNtCs1GuMdp1PKBr_4core7unicode12unicode_data9uppercase14BITSET_MAPPING
libmozjs128-debug.so:_RNvNtNtNtCs1GuMdp1PKBr_4core7unicode12unicode_data9uppercase16BITSET_CANONICAL
libmozjs128-debug.so:_RNvNtNtNtCs1GuMdp1PKBr_4core7unicode12unicode_data9uppercase17BITSET_CHUNKS_MAP
libmozjs128-debug.so:_RNvNtNtNtCs1GuMdp1PKBr_4core7unicode12unicode_data9uppercase19BITSET_INDEX_CHUNKS
libmozjs128-debug.so:_RNvNtNtNtCs1GuMdp1PKBr_4core7unicode12unicode_data9uppercase6lookup
libmozjs128-debug.so:_RNvNtNtNtCsh60fBBS5e0U_3std12backtrace_rs9symbolize5gimli7resolve
libmozjs128-debug.so:_RNvNtNtNtCsh60fBBS5e0U_3std2os4unix7process9parent_id
libmozjs128-debug.so:_RNvNtNtNtCsh60fBBS5e0U_3std3sys2fs4unix5chown
libmozjs128-debug.so:_RNvNtNtNtCsh60fBBS5e0U_3std3sys2fs4unix6chroot
libmozjs128-debug.so:_RNvNtNtNtCsh60fBBS5e0U_3std3sys2fs4unix6fchown
libmozjs128-debug.so:_RNvNtNtNtCsh60fBBS5e0U_3std3sys2fs4unix6lchown
libmozjs128-debug.so:_RNvNtNtNtCsh60fBBS5e0U_3std3sys2fs4unix6mkfifo
libmozjs128-debug.so:_RNvNtNtNtCsh60fBBS5e0U_3std3sys3env4unix6setenv
libmozjs128-debug.so:_RNvNtNtNtCsh60fBBS5e0U_3std3sys3env4unix8unsetenv
libmozjs128-debug.so:_RNvNtNtNtCsh60fBBS5e0U_3std3sys4path4unix8absolute
libmozjs128-debug.so:_RNvNtNtNtCsh60fBBS5e0U_3std3sys6random5linux19hashmap_random_keys
libmozjs128-debug.so:_RNvNtNtNtCsh60fBBS5e0U_3std3sys6thread4unix8set_name
libmozjs128-debug.so:_RNvNtNtNtCsh60fBBS5e0U_3std6thread7current2id2ID
libmozjs128-debug.so:_RNvNtNtNtNtCs1GuMdp1PKBr_4core3num7flt2dec8strategy5grisu12CACHED_POW10
libmozjs128-debug.so:_RNvNtNtNtNtCs1GuMdp1PKBr_4core3num7flt2dec8strategy5grisu12cached_power
libmozjs128-debug.so:_RNvNtNtNtNtCs1GuMdp1PKBr_4core3num7flt2dec8strategy5grisu12format_exact
libmozjs128-debug.so:_RNvNtNtNtNtCs1GuMdp1PKBr_4core3num7flt2dec8strategy5grisu15format_shortest
libmozjs128-debug.so:_RNvNtNtNtNtCs1GuMdp1PKBr_4core3num7flt2dec8strategy5grisu16format_exact_opt
libmozjs128-debug.so:_RNvNtNtNtNtCs1GuMdp1PKBr_4core3num7flt2dec8strategy5grisu19format_shortest_opt
libmozjs128-debug.so:_RNvNtNtNtNtCs1GuMdp1PKBr_4core3num7flt2dec8strategy6dragon12format_exact
libmozjs128-debug.so:_RNvNtNtNtNtCs1GuMdp1PKBr_4core3num7flt2dec8strategy6dragon15format_shortest
libmozjs128-debug.so:_RNvNtNtNtNtCs1GuMdp1PKBr_4core3num7flt2dec8strategy6dragon9mul_pow10
libmozjs128-debug.so:_RNvNtNtNtNtCs1GuMdp1PKBr_4core5slice4sort6shared9smallsort22panic_on_ord_violation
libmozjs128-debug.so:_RNvNtNtNtNtCs1GuMdp1PKBr_4core5slice4sort6stable5drift11sqrt_approx
libmozjs128-debug.so:_RNvNtNtNtNtCsh60fBBS5e0U_3std2os4unix3net4addr11sockaddr_un
libmozjs128-debug.so:_RNvNtNtNtNtCsh60fBBS5e0U_3std2os4unix3net9ancillary31send_vectored_with_ancillary_to
libmozjs128-debug.so:_RNvNtNtNtNtCsh60fBBS5e0U_3std3sys12thread_local11destructors10linux_like8register
libmozjs128-debug.so:_RNvNtNtNtNtCsh60fBBS5e0U_3std3sys3pal4unix11kernel_copy15sendfile_splice
libmozjs128-debug.so:_RNvNtNtNtNtCsh60fBBS5e0U_3std3sys3pal4unix11kernel_copy18copy_regular_files
libmozjs128-debug.so:_RNvNtNtNtNtCsh60fBBS5e0U_3std3sys3pal4unix2os5chdir
libmozjs128-debug.so:_RNvNtNtNtNtCsh60fBBS5e0U_3std3sys3pal4unix4pipe9anon_pipe
libmozjs128-debug.so:_RNvNtNtNtNtCsh60fBBS5e0U_3std3sys3pal4unix5futex10futex_wake
libmozjs128-debug.so:_RNvNtNtNtNtCsh60fBBS5e0U_3std3sys3pal4unix5futex14futex_wake_all
libmozjs128-debug.so:_RNvNtNtNtNtCsh60fBBS5e0U_3std3sys4args4unix3imp15ARGV_INIT_ARRAY
libmozjs128-debug.so:_RNvNvMNtCs1GuMdp1PKBr_4core5sliceSp15copy_from_slice17len_mismatch_fail
libmozjs128-debug.so:_RNvNvMNtCs1GuMdp1PKBr_4core5sliceSp16align_to_offsets3gcd
libmozjs128-debug.so:_RNvNvMs3_NtNtNtNtCsh60fBBS5e0U_3std3sys3net10connection6socketNtB7_9TcpStream7connect5inner
libmozjs128-debug.so:_RNvNvMs7_NtNtNtCsh60fBBS5e0U_3std3sys6os_str5bytesNtB7_5Slice21check_public_boundary9slow_path
libmozjs128-debug.so:_RNvNvMs7_NtNtNtNtCsh60fBBS5e0U_3std3sys3net10connection6socketNtB7_11TcpListener4bind5inner
libmozjs128-debug.so:_RNvNvMs_NtCse7kRp5EpEcX_5alloc3vecINtB6_3VecppE10insert_mut13assert_failed
libmozjs128-debug.so:_RNvNvMs_NtCse7kRp5EpEcX_5alloc3vecINtB6_3VecppE11swap_remove13assert_failed
libmozjs128-debug.so:_RNvNvMs_NtCse7kRp5EpEcX_5alloc3vecINtB6_3VecppE6remove13assert_failed
libmozjs128-debug.so:_RNvNvMs_NtCse7kRp5EpEcX_5alloc3vecINtB6_3VecppE9split_off13assert_failed
libmozjs128-debug.so:_RNvNvMsa_NtNtNtNtCsh60fBBS5e0U_3std3sys3net10connection6socketNtB7_9UdpSocket4bind5inner
libmozjs128-debug.so:_RNvNvMsa_NtNtNtNtCsh60fBBS5e0U_3std3sys3net10connection6socketNtB7_9UdpSocket7connect5inner
libmozjs128-debug.so:_RNvNvNtCse7kRp5EpEcX_5alloc3fmt6format12format_inner
libmozjs128-debug.so:_RNvNvNtCse7kRp5EpEcX_5alloc5alloc18handle_alloc_error8ct_error
libmozjs128-debug.so:_RNvNvNtCsh60fBBS5e0U_3std2fs14read_to_string5inner
libmozjs128-debug.so:_RNvNvNtCsh60fBBS5e0U_3std2fs4read5inner
libmozjs128-debug.so:_RNvNvNtCsh60fBBS5e0U_3std2fs5write5inner
libmozjs128-debug.so:_RNvNvNtCsh60fBBS5e0U_3std9panicking12catch_unwind7cleanup
libmozjs128-debug.so:_RNvNvNtNtCsh60fBBS5e0U_3std2io5stdio6stderr8INSTANCE
libmozjs128-debug.so:_RNvNvNtNtNtCsj70BrUjWbbn_6memchr4arch6x86_646memchr10memchr_raw2FN
libmozjs128-debug.so:_RNvNvNtNtNtCsj70BrUjWbbn_6memchr4arch6x86_646memchr10memchr_raw6detect
libmozjs128-debug.so:_RNvNvNtNtNtCsj70BrUjWbbn_6memchr4arch6x86_646memchr11memchr2_raw2FN
libmozjs128-debug.so:_RNvNvNtNtNtCsj70BrUjWbbn_6memchr4arch6x86_646memchr11memchr2_raw6detect
libmozjs128-debug.so:_RNvNvNtNtNtCsj70BrUjWbbn_6memchr4arch6x86_646memchr11memchr3_raw2FN
libmozjs128-debug.so:_RNvNvNtNtNtCsj70BrUjWbbn_6memchr4arch6x86_646memchr11memchr3_raw6detect
libmozjs128-debug.so:_RNvNvNtNtNtCsj70BrUjWbbn_6memchr4arch6x86_646memchr11memrchr_raw2FN
libmozjs128-debug.so:_RNvNvNtNtNtCsj70BrUjWbbn_6memchr4arch6x86_646memchr11memrchr_raw6detect
libmozjs128-debug.so:_RNvNvNtNtNtCsj70BrUjWbbn_6memchr4arch6x86_646memchr12memrchr2_raw2FN
libmozjs128-debug.so:_RNvNvNtNtNtCsj70BrUjWbbn_6memchr4arch6x86_646memchr12memrchr2_raw6detect
libmozjs128-debug.so:_RNvNvNtNtNtCsj70BrUjWbbn_6memchr4arch6x86_646memchr12memrchr3_raw2FN
libmozjs128-debug.so:_RNvNvNtNtNtCsj70BrUjWbbn_6memchr4arch6x86_646memchr12memrchr3_raw6detect
libmozjs128-debug.so:_RNvNvNtNtNtCsj70BrUjWbbn_6memchr4arch6x86_646memchr9count_raw2FN
libmozjs128-debug.so:_RNvNvNtNtNtCsj70BrUjWbbn_6memchr4arch6x86_646memchr9count_raw6detect
libmozjs128-debug.so:_RNvNvNtNtNtNtCsh60fBBS5e0U_3std3sys3pal4unix2os11split_paths12into_pathbuf
libmozjs128-debug.so:_RNvNvNtNtNtNtCsh60fBBS5e0U_3std3sys4args4unix3imp15ARGV_INIT_ARRAY12init_wrapper
libmozjs128-debug.so:_RNvNvNvMNtCs1GuMdp1PKBr_4core3f32f5clamp8do_panic7runtime
libmozjs128-debug.so:_RNvNvNvMNtCs1GuMdp1PKBr_4core3f64d5clamp8do_panic7runtime
libmozjs128-debug.so:_RNvNvNvNtCs1GuMdp1PKBr_4core3mem11conjure_zst8do_panic7runtime
libmozjs128-debug.so:_RNvNvNvNtCs1GuMdp1PKBr_4core3num22from_ascii_radix_panic8do_panic7runtime
libmozjs128-debug.so:_RNvNvNvNtCs1GuMdp1PKBr_4core4cell22panic_already_borrowed8do_panic7runtime
libmozjs128-debug.so:_RNvNvNvNtCs1GuMdp1PKBr_4core4cell30panic_already_mutably_borrowed8do_panic7runtime
libmozjs128-debug.so:_RNvNvNvNtNtCs1GuMdp1PKBr_4core4char7methods15encode_utf8_raw8do_panic7runtime
libmozjs128-debug.so:_RNvNvNvNtNtCs1GuMdp1PKBr_4core4char7methods16encode_utf16_raw8do_panic7runtime
libmozjs128-debug.so:_RNvNvNvNtNtCs1GuMdp1PKBr_4core5slice5index16slice_index_fail8do_panic7runtime
libmozjs128-debug.so:_RNvNvNvNtNtCs1GuMdp1PKBr_4core5slice5index16slice_index_fails0_8do_panic7runtime
libmozjs128-debug.so:_RNvNvNvNtNtCs1GuMdp1PKBr_4core5slice5index16slice_index_fails1_8do_panic7runtime
libmozjs128-debug.so:_RNvNvNvNtNtCs1GuMdp1PKBr_4core5slice5index16slice_index_fails_8do_panic7runtime
libmozjs128-debug.so:_RNvNvNvNvMNtCs1GuMdp1PKBr_4core5sliceSp15copy_from_slice17len_mismatch_fail8do_panic7runtime
libmozjs128-debug.so:_RNvXNtCs1GuMdp1PKBr_4core3ffiNtB2_6c_voidNtNtB4_3fmt5Debug3fmt
libmozjs128-debug.so:_RNvXNtCs1GuMdp1PKBr_4core3fmtQNtB2_9FormatterNtB2_5Write9write_strCsezTIWZHnNQ7_14rustc_demangle
libmozjs128-debug.so:_RNvXNtCs1GuMdp1PKBr_4core3patcNtB2_12RangePattern7sub_one
libmozjs128-debug.so:_RNvXNtCse7kRp5EpEcX_5alloc4wtf8NtB2_7Wtf8BufNtNtNtCs1GuMdp1PKBr_4core3ops5deref5Deref5deref
libmozjs128-debug.so:_RNvXNtCsezTIWZHnNQ7_14rustc_demangle2v0NtB2_8DemangleNtNtCs1GuMdp1PKBr_4core3fmt7Display3fmt
libmozjs128-debug.so:_RNvXNtCsezTIWZHnNQ7_14rustc_demangle6legacyNtB2_8DemangleNtNtCs1GuMdp1PKBr_4core3fmt7Display3fmt
libmozjs128-debug.so:_RNvXNtCsh60fBBS5e0U_3std2ioNtB2_5GuardNtNtNtCs1GuMdp1PKBr_4core3ops4drop4Drop4drop
libmozjs128-debug.so:_RNvXNtCsh60fBBS5e0U_3std3envNtB2_4VarsNtNtNtNtCs1GuMdp1PKBr_4core4iter6traits8iterator8Iterator4next
libmozjs128-debug.so:_RNvXNtCsh60fBBS5e0U_3std3envNtB2_4VarsNtNtNtNtCs1GuMdp1PKBr_4core4iter6traits8iterator8Iterator9size_hint
libmozjs128-debug.so:_RNvXNtCsh60fBBS5e0U_3std6randomNtB2_19DefaultRandomSourceNtNtCs1GuMdp1PKBr_4core6random12RandomSource10fill_bytes
libmozjs128-debug.so:_RNvXNtCsh60fBBS5e0U_3std9backtraceNtB2_9BacktraceNtNtCs1GuMdp1PKBr_4core3fmt5Debug3fmt
libmozjs128-debug.so:_RNvXNtNtCs1GuMdp1PKBr_4core2io12borrowed_bufNtB2_11BorrowedBufNtNtB6_3fmt5Debug3fmt
libmozjs128-debug.so:_RNvXNtNtCs1GuMdp1PKBr_4core3ffi5c_strNtB2_21FromBytesWithNulErrorNtNtB6_3fmt7Display3fmt
libmozjs128-debug.so:_RNvXNtNtCs1GuMdp1PKBr_4core3fmt3numoNtB4_7Display3fmt
libmozjs128-debug.so:_RNvXNtNtCs1GuMdp1PKBr_4core3num5errorNtB2_15TryFromIntErrorNtNtB6_3fmt7Display3fmt
libmozjs128-debug.so:_RNvXNtNtCs1GuMdp1PKBr_4core3num6bignumhNtB2_7FullOps12full_div_rem
libmozjs128-debug.so:_RNvXNtNtCs1GuMdp1PKBr_4core3ops5rangeNtB2_9RangeFullNtNtB6_3fmt5Debug3fmt
libmozjs128-debug.so:_RNvXNtNtCsgxbV8mOkbDn_6object4read8read_refRShNtB2_7ReadRef19read_bytes_at_until
libmozjs128-debug.so:_RNvXNtNtCsh60fBBS5e0U_3std2io5errorNtB2_5ErrorNtNtCs1GuMdp1PKBr_4core3fmt5Debug3fmt
libmozjs128-debug.so:_RNvXNtNtCsh60fBBS5e0U_3std2io5stdioNtB2_8StdinRawNtB4_4Read10read_exact
libmozjs128-debug.so:_RNvXNtNtCsh60fBBS5e0U_3std2io5stdioNtB2_8StdinRawNtB4_4Read11read_to_end
libmozjs128-debug.so:_RNvXNtNtCsh60fBBS5e0U_3std2io5stdioNtB2_8StdinRawNtB4_4Read13read_vectored
libmozjs128-debug.so:_RNvXNtNtCsh60fBBS5e0U_3std2io5stdioNtB2_8StdinRawNtB4_4Read14read_buf_exact
libmozjs128-debug.so:_RNvXNtNtCsh60fBBS5e0U_3std2io5stdioNtB2_8StdinRawNtB4_4Read14read_to_string
libmozjs128-debug.so:_RNvXNtNtCsh60fBBS5e0U_3std2io5stdioNtB2_8StdinRawNtB4_4Read4read
libmozjs128-debug.so:_RNvXNtNtCsh60fBBS5e0U_3std2io5stdioNtB2_8StdinRawNtB4_4Read8read_buf
libmozjs128-debug.so:_RNvXNtNtCsh60fBBS5e0U_3std4sync9nonpoisonNtB2_10WouldBlockNtNtCs1GuMdp1PKBr_4core3fmt5Debug3fmt
libmozjs128-debug.so:_RNvXNtNtCsh60fBBS5e0U_3std6thread18thread_name_stringNtB2_16ThreadNameStringINtNtCs1GuMdp1PKBr_4core7convert4FromNtNtCse7kRp5EpEcX_5alloc6string6StringE4from
libmozjs128-debug.so:_RNvXNtNtCsh60fBBS5e0U_3std6thread9spawnhookNtB2_10SpawnHooksNtNtNtCs1GuMdp1PKBr_4core3ops4drop4Drop4drop
libmozjs128-debug.so:_RNvXNtNtNtCs1GuMdp1PKBr_4core3fmt3num3imphNtB6_7Display3fmt
libmozjs128-debug.so:_RNvXNtNtNtCsh60fBBS5e0U_3std2os4unix2fsNtNtB8_2fs4FileNtB2_7FileExt11read_buf_at
libmozjs128-debug.so:_RNvXNtNtNtCsh60fBBS5e0U_3std2os4unix2fsNtNtB8_2fs4FileNtB2_7FileExt16read_vectored_at
libmozjs128-debug.so:_RNvXNtNtNtCsh60fBBS5e0U_3std2os4unix2fsNtNtB8_2fs4FileNtB2_7FileExt17write_vectored_at
libmozjs128-debug.so:_RNvXNtNtNtCsh60fBBS5e0U_3std2os4unix2fsNtNtB8_2fs4FileNtB2_7FileExt7read_at
libmozjs128-debug.so:_RNvXNtNtNtCsh60fBBS5e0U_3std2os4unix2fsNtNtB8_2fs4FileNtB2_7FileExt8write_at
libmozjs128-debug.so:_RNvXNtNtNtCsh60fBBS5e0U_3std2os4unix7processNtNtB8_7process7CommandNtB2_10CommandExt4exec
libmozjs128-debug.so:_RNvXNtNtNtCsh60fBBS5e0U_3std2os4unix7processNtNtB8_7process7CommandNtB2_10CommandExt6groups
libmozjs128-debug.so:_RNvXNtNtNtCsh60fBBS5e0U_3std3sys3env6commonNtB2_11EnvStrDebugNtNtCs1GuMdp1PKBr_4core3fmt5Debug3fmt
libmozjs128-debug.so:_RNvXNtNtNtCsh60fBBS5e0U_3std3sys7process3envNtB2_10CommandEnvNtNtCs1GuMdp1PKBr_4core3fmt5Debug3fmt
libmozjs128-debug.so:_RNvXNtNtNtNtCsh60fBBS5e0U_3std2os3net9linux_ext6socketNtNtNtNtB8_4unix3net8datagram12UnixDatagramNtB2_13UnixSocketExt12set_passcred
libmozjs128-debug.so:_RNvXNtNtNtNtCsh60fBBS5e0U_3std2os3net9linux_ext6socketNtNtNtNtB8_4unix3net8datagram12UnixDatagramNtB2_13UnixSocketExt8passcred
libmozjs128-debug.so:_RNvXNtNtNtNtCsh60fBBS5e0U_3std2os4unix3net8listenerNtB2_12UnixListenerNtNtCs1GuMdp1PKBr_4core3fmt5Debug3fmt
libmozjs128-debug.so:_RNvXNtNtNtNtCsh60fBBS5e0U_3std3sys2fs4unix3cfmNtB2_18CachedFileMetadataNtNtBa_2io4Read11read_to_end
libmozjs128-debug.so:_RNvXNtNtNtNtCsh60fBBS5e0U_3std3sys2fs4unix3cfmNtB2_18CachedFileMetadataNtNtBa_2io4Read13read_vectored
libmozjs128-debug.so:_RNvXNtNtNtNtCsh60fBBS5e0U_3std3sys2fs4unix3cfmNtB2_18CachedFileMetadataNtNtBa_2io4Read14read_to_string
libmozjs128-debug.so:_RNvXNtNtNtNtCsh60fBBS5e0U_3std3sys2fs4unix3cfmNtB2_18CachedFileMetadataNtNtBa_2io4Read4read
libmozjs128-debug.so:_RNvXNtNtNtNtCsh60fBBS5e0U_3std3sys2fs4unix3cfmNtB2_18CachedFileMetadataNtNtBa_2io4Read8read_buf
libmozjs128-debug.so:_RNvXNtNtNtNtCsh60fBBS5e0U_3std3sys3pal4unix2osNtB2_14JoinPathsErrorNtNtCs1GuMdp1PKBr_4core3fmt7Display3fmt
libmozjs128-debug.so:_RNvXNtNtNtNtNtCsh60fBBS5e0U_3std3sys3pal4unix14stack_overflow11thread_infoNtB2_12UnlockOnDropNtNtNtCs1GuMdp1PKBr_4core3ops4drop4Drop4drop
libmozjs128-debug.so:_RNvXNtNtNtNtNtCsh60fBBS5e0U_3std3sys7process4unix4unix15linux_child_extNtNtBc_7process5ChildNtNtNtNtBc_2os5linux7process8ChildExt10into_pidfd
libmozjs128-debug.so:_RNvXNtNtNtNtNtCsh60fBBS5e0U_3std3sys7process4unix4unix15linux_child_extNtNtBc_7process5ChildNtNtNtNtBc_2os5linux7process8ChildExt5pidfd
libmozjs128-debug.so:_RNvXNvMNtCse7kRp5EpEcX_5alloc6stringNtB5_6String6retainNtB2_12SetLenOnDropNtNtNtCs1GuMdp1PKBr_4core3ops4drop4Drop4drop
libmozjs128-debug.so:_RNvXNvMNtNtCsh60fBBS5e0U_3std3sys9backtraceNtB5_13BacktraceLock5printNtB2_16DisplayBacktraceNtNtCs1GuMdp1PKBr_4core3fmt7Display3fmt
libmozjs128-debug.so:_RNvXNvMNtNtNtNtCsh60fBBS5e0U_3std3sys7process4unix4unixNtNtB7_6common7Command11posix_spawnNtB2_21PosixSpawnFileActionsNtNtNtCs1GuMdp1PKBr_4core3ops4drop4Drop4drop
libmozjs128-debug.so:_RNvXNvNtCs1GuMdp1PKBr_4core4hint20select_unpredictableINtB2_11DropOnPanicjENtNtNtB6_3ops4drop4Drop4dropCsec783pc85az_9addr2line
libmozjs128-debug.so:_RNvXNvNtCs1GuMdp1PKBr_4core9panicking21assert_matches_failedNtB2_7PatternNtNtB6_3fmt5Debug3fmt
libmozjs128-debug.so:_RNvXNvNtCsh60fBBS5e0U_3std9panicking13resume_unwindNtB2_9RewrapBoxNtNtCs1GuMdp1PKBr_4core5panic12PanicPayload8take_box
libmozjs128-debug.so:_RNvXNvXs7_NtCsh60fBBS5e0U_3std4pathNtB8_10ComponentsNtNtCs1GuMdp1PKBr_4core3fmt5Debug3fmtNtB2_11DebugHelperBO_3fmt
libmozjs128-debug.so:_RNvXNvXsb_NtCsh60fBBS5e0U_3std4pathNtB8_4IterNtNtCs1GuMdp1PKBr_4core3fmt5Debug3fmtNtB2_11DebugHelperBH_3fmt
libmozjs128-debug.so:_RNvXNvXsd_NtCs1GuMdp1PKBr_4core4wtf8NtB8_10EncodeWideNtNtBa_3fmt5Debug3fmtNtB2_8CodeUnitBP_3fmt
libmozjs128-debug.so:_RNvXs0_CsezTIWZHnNQ7_14rustc_demangleINtB5_21SizeLimitedFmtAdapterQNtNtCs1GuMdp1PKBr_4core3fmt9FormatterENtB15_5Write9write_strB5_
libmozjs128-debug.so:_RNvXs0_CskA5z82iKagx_6adler2NtB5_7Adler32NtNtCs1GuMdp1PKBr_4core4hash6Hasher5write
libmozjs128-debug.so:_RNvXs0_NtCs1GuMdp1PKBr_4core3anyDNtB5_3AnyNtNtB7_6marker4SendEL_NtNtB7_3fmt5Debug3fmt
libmozjs128-debug.so:_RNvXs0_NtCse7kRp5EpEcX_5alloc6stringNtB5_13FromUtf8ErrorNtNtCs1GuMdp1PKBr_4core3fmt7Display3fmt
libmozjs128-debug.so:_RNvXs0_NtCsec783pc85az_9addr2line4lineNtB5_21LineLocationRangeIterNtNtNtNtCs1GuMdp1PKBr_4core4iter6traits8iterator8Iterator4next
libmozjs128-debug.so:_RNvXs0_NtCsezTIWZHnNQ7_14rustc_demangle2v0NtB5_5IdentNtNtCs1GuMdp1PKBr_4core3fmt7Display3fmt
libmozjs128-debug.so:_RNvXs0_NtCsh60fBBS5e0U_3std2fsNtB5_12TryLockErrorNtNtCs1GuMdp1PKBr_4core3fmt7Display3fmt
libmozjs128-debug.so:_RNvXs0_NtCsh60fBBS5e0U_3std3envNtB5_6VarsOsNtNtNtNtCs1GuMdp1PKBr_4core4iter6traits8iterator8Iterator4next
libmozjs128-debug.so:_RNvXs0_NtCsh60fBBS5e0U_3std3envNtB5_6VarsOsNtNtNtNtCs1GuMdp1PKBr_4core4iter6traits8iterator8Iterator9size_hint
libmozjs128-debug.so:_RNvXs0_NtCsh60fBBS5e0U_3std4timeNtB5_7InstantINtNtNtCs1GuMdp1PKBr_4core3ops5arith9AddAssignNtNtBO_4time8DurationE10add_assign
libmozjs128-debug.so:_RNvXs0_NtCsh60fBBS5e0U_3std9backtraceNtB5_15BacktraceSymbolNtNtCs1GuMdp1PKBr_4core3fmt5Debug3fmt
libmozjs128-debug.so:_RNvXs0_NtNtCs1GuMdp1PKBr_4core3ffi5c_strNtB5_22FromBytesUntilNulErrorNtNtB9_3fmt7Display3fmt
libmozjs128-debug.so:_RNvXs0_NtNtCs1GuMdp1PKBr_4core3fmt8buildersNtB5_10PadAdapterNtB7_5Write10write_char
libmozjs128-debug.so:_RNvXs0_NtNtCs1GuMdp1PKBr_4core3fmt8buildersNtB5_10PadAdapterNtB7_5Write9write_str
libmozjs128-debug.so:_RNvXs0_NtNtCs1GuMdp1PKBr_4core3net6parserNtNtB7_7ip_addr6IpAddrNtNtNtB9_3str6traits7FromStr8from_str
libmozjs128-debug.so:_RNvXs0_NtNtCs1GuMdp1PKBr_4core3num6bignummNtB5_7FullOps12full_div_rem
libmozjs128-debug.so:_RNvXs0_NtNtCs1GuMdp1PKBr_4core3num7dec2fltC3f16NtNtNtB9_3str6traits7FromStr8from_str
libmozjs128-debug.so:_RNvXs0_NtNtCs1GuMdp1PKBr_4core3str5lossyNtB5_5DebugNtNtB9_3fmt5Debug3fmt
libmozjs128-debug.so:_RNvXs0_NtNtCs1GuMdp1PKBr_4core5alloc6layoutNtB5_11LayoutErrorNtNtB9_3fmt7Display3fmt
libmozjs128-debug.so:_RNvXs0_NtNtCs1GuMdp1PKBr_4core5ascii10ascii_charNtB5_9AsciiCharNtNtB9_3fmt7Display3fmt
libmozjs128-debug.so:_RNvXs0_NtNtCs1GuMdp1PKBr_4core5slice5asciiNtB5_11EscapeAsciiNtNtNtNtB9_4iter6traits12double_ended19DoubleEndedIterator9next_back
libmozjs128-debug.so:_RNvXs0_NtNtCsh60fBBS5e0U_3std12backtrace_rs9symbolizeNtB5_6SymbolNtNtCs1GuMdp1PKBr_4core3fmt5Debug3fmt
libmozjs128-debug.so:_RNvXs0_NtNtCsh60fBBS5e0U_3std2io5errorNtB5_5ErrorINtNtCs1GuMdp1PKBr_4core7convert4FromNtNtNtCse7kRp5EpEcX_5alloc3ffi5c_str8NulErrorE4from
libmozjs128-debug.so:_RNvXs0_NtNtCsh60fBBS5e0U_3std2io5stdioNtB5_9StderrRawNtB7_5Write14write_vectored
libmozjs128-debug.so:_RNvXs0_NtNtCsh60fBBS5e0U_3std2io5stdioNtB5_9StderrRawNtB7_5Write18write_all_vectored
libmozjs128-debug.so:_RNvXs0_NtNtCsh60fBBS5e0U_3std2io5stdioNtB5_9StderrRawNtB7_5Write5flush
libmozjs128-debug.so:_RNvXs0_NtNtCsh60fBBS5e0U_3std2io5stdioNtB5_9StderrRawNtB7_5Write5write
libmozjs128-debug.so:_RNvXs0_NtNtCsh60fBBS5e0U_3std2io5stdioNtB5_9StderrRawNtB7_5Write9write_all
libmozjs128-debug.so:_RNvXs0_NtNtCsh60fBBS5e0U_3std2io5stdioNtB5_9StderrRawNtB7_5Write9write_fmt
libmozjs128-debug.so:_RNvXs0_NtNtCsh60fBBS5e0U_3std3net3tcpNtB5_9TcpStreamNtNtB9_2io5Write14write_vectored
libmozjs128-debug.so:_RNvXs0_NtNtCsh60fBBS5e0U_3std3net3tcpNtB5_9TcpStreamNtNtB9_2io5Write5write
libmozjs128-debug.so:_RNvXs0_NtNtCsh60fBBS5e0U_3std6thread5localNtB5_11AccessErrorNtNtCs1GuMdp1PKBr_4core3fmt7Display3fmt
libmozjs128-debug.so:_RNvXs0_NtNtNtCs1GuMdp1PKBr_4core3num7dec2flt5floatdNtB5_8RawFloat15pow10_fast_path
libmozjs128-debug.so:_RNvXs0_NtNtNtCsh60fBBS5e0U_3std2os4unix7processNtNtBb_7process15ExitStatusErrorNtB5_13ExitStatusExt8from_raw
libmozjs128-debug.so:_RNvXs0_NtNtNtCsh60fBBS5e0U_3std3sys3env6commonNtB5_3EnvNtNtCs1GuMdp1PKBr_4core3fmt5Debug3fmt
libmozjs128-debug.so:_RNvXs0_NtNtNtCsh60fBBS5e0U_3std3sys7process3envNtB5_11CommandEnvsNtNtNtNtCs1GuMdp1PKBr_4core4iter6traits8iterator8Iterator4next
libmozjs128-debug.so:_RNvXs0_NtNtNtNtCsh60fBBS5e0U_3std12backtrace_rs9symbolize5gimli4mmapNtB5_4MmapNtNtNtCs1GuMdp1PKBr_4core3ops4drop4Drop4drop
libmozjs128-debug.so:_RNvXs0_NtNtNtNtCsh60fBBS5e0U_3std2os4unix3net4addrNtB5_10SocketAddrNtNtNtNtBb_3net9linux_ext4addr13SocketAddrExt16as_abstract_name
libmozjs128-debug.so:_RNvXs0_NtNtNtNtCsh60fBBS5e0U_3std3sys7process4unix4unixNtB5_10ExitStatusNtNtCs1GuMdp1PKBr_4core3fmt5Debug3fmt
libmozjs128-debug.so:_RNvXs0_NtNtNtNtNtCsh60fBBS5e0U_3std3sys7process4unix6common13cstring_arrayNtB5_12CStringArrayNtNtCs1GuMdp1PKBr_4core3fmt5Debug3fmt
libmozjs128-debug.so:_RNvXs0_NvMs_NtNtCse7kRp5EpEcX_5alloc3ffi5c_strNtBa_7CString3newReNtB5_11SpecNewImpl13spec_new_impl
libmozjs128-debug.so:_RNvXs0_NvNtCsh60fBBS5e0U_3std9panicking13panic_handlerNtB5_19FormatStringPayloadNtNtCs1GuMdp1PKBr_4core3fmt7Display3fmt
libmozjs128-debug.so:_RNvXs0_NvXsh_NtNtCse7kRp5EpEcX_5alloc5boxed7convertINtBd_3BoxDNtNtCs1GuMdp1PKBr_4core5error5ErrorNtNtB12_6marker4SendNtB1z_4SyncEL_EINtNtB12_7convert4FromNtNtBf_6string6StringE4fromNtB5_11StringErrorNtNtB12_3fmt5Debug3fmt
libmozjs128-debug.so:_RNvXs10_NtNtCs1GuMdp1PKBr_4core3fmt3numnNtB8_8LowerExp3fmt
libmozjs128-debug.so:_RNvXs10_NtNtCs1GuMdp1PKBr_4core3net7ip_addrNtB6_8Ipv4AddrNtNtNtBa_3ops3bit12BitAndAssign13bitand_assign
libmozjs128-debug.so:_RNvXs10_NtNtCs1GuMdp1PKBr_4core3num7nonzeroINtB6_7NonZerotENtNtNtBa_3str6traits7FromStr8from_str
libmozjs128-debug.so:_RNvXs11_NtNtCs1GuMdp1PKBr_4core3fmt3numoNtB8_8LowerExp3fmt
libmozjs128-debug.so:_RNvXs11_NtNtCs1GuMdp1PKBr_4core3net7ip_addrNtB6_8Ipv4AddrINtNtNtBa_3ops3bit12BitAndAssignRBF_E13bitand_assign
libmozjs128-debug.so:_RNvXs12_NtCse7kRp5EpEcX_5alloc6stringNtB6_5DrainNtNtCs1GuMdp1PKBr_4core3fmt5Debug3fmt
libmozjs128-debug.so:_RNvXs12_NtNtCs1GuMdp1PKBr_4core3fmt3numnNtB8_8UpperExp3fmt
libmozjs128-debug.so:_RNvXs12_NtNtCs1GuMdp1PKBr_4core3num11niche_typesNtB6_15NonZeroI16InnerNtNtBa_3fmt5Debug3fmt
libmozjs128-debug.so:_RNvXs13_NtNtCs1GuMdp1PKBr_4core3fmt3numoNtB8_8UpperExp3fmt
libmozjs128-debug.so:_RNvXs13_NtNtCs1GuMdp1PKBr_4core4sync6atomicNtB6_9AtomicI32NtNtBa_3fmt5Debug3fmt
libmozjs128-debug.so:_RNvXs15_NtCse7kRp5EpEcX_5alloc6stringNtB6_5DrainNtNtNtCs1GuMdp1PKBr_4core3ops4drop4Drop4drop
libmozjs128-debug.so:_RNvXs16_NtNtCs1GuMdp1PKBr_4core3net7ip_addrNtB6_8Ipv4AddrNtNtNtBa_3ops3bit11BitOrAssign12bitor_assign
libmozjs128-debug.so:_RNvXs17_NtCse7kRp5EpEcX_5alloc6stringNtB6_5DrainINtNtCs1GuMdp1PKBr_4core7convert5AsRefeE6as_ref
libmozjs128-debug.so:_RNvXs17_NtNtCs1GuMdp1PKBr_4core3net7ip_addrNtB6_8Ipv4AddrINtNtNtBa_3ops3bit11BitOrAssignRBF_E12bitor_assign
libmozjs128-debug.so:_RNvXs17_NtNtCs1GuMdp1PKBr_4core3num7nonzeroINtB6_7NonZeromENtNtNtBa_3str6traits7FromStr8from_str
libmozjs128-debug.so:_RNvXs18_NtCse7kRp5EpEcX_5alloc6stringNtB6_5DrainINtNtCs1GuMdp1PKBr_4core7convert5AsRefShE6as_ref
libmozjs128-debug.so:_RNvXs18_NtNtCs1GuMdp1PKBr_4core4sync6atomicNtB6_9AtomicU32NtNtBa_3fmt5Debug3fmt
libmozjs128-debug.so:_RNvXs19_NtCs1GuMdp1PKBr_4core3fmtRNtNtNtB8_3num5error12IntErrorKindNtB6_5Debug3fmtCsezTIWZHnNQ7_14rustc_demangle
libmozjs128-debug.so:_RNvXs19_NtCs1GuMdp1PKBr_4core3fmtRNtNtNtCsl4XjPnlmSxw_5gimli4read6abbrev22AttributeSpecificationNtB6_5Debug3fmtBC_
libmozjs128-debug.so:_RNvXs19_NtCs1GuMdp1PKBr_4core3fmtReNtB6_5Debug3fmtCsezTIWZHnNQ7_14rustc_demangle
libmozjs128-debug.so:_RNvXs19_NtCs1GuMdp1PKBr_4core3fmtRhNtB6_5Debug3fmtCsezTIWZHnNQ7_14rustc_demangle
libmozjs128-debug.so:_RNvXs19_NtCs1GuMdp1PKBr_4core3fmtRtNtB6_5Debug3fmtCsl4XjPnlmSxw_5gimli
libmozjs128-debug.so:_RNvXs19_NtCs1GuMdp1PKBr_4core3fmtRuNtB6_5Debug3fmtCsezTIWZHnNQ7_14rustc_demangle
libmozjs128-debug.so:_RNvXs19_NtCs1GuMdp1PKBr_4core3fmtRxNtB6_5Debug3fmtCsl4XjPnlmSxw_5gimli
libmozjs128-debug.so:_RNvXs19_NtCse7kRp5EpEcX_5alloc6stringNtB6_5DrainNtNtNtNtCs1GuMdp1PKBr_4core4iter6traits8iterator8Iterator9size_hint
libmozjs128-debug.so:_RNvXs19_NtCsh60fBBS5e0U_3std4pathNtB6_4PathNtNtCs1GuMdp1PKBr_4core3fmt5Debug3fmt
libmozjs128-debug.so:_RNvXs19_NtNtCs1GuMdp1PKBr_4core3num11niche_typesNtB6_15NonZeroI32InnerNtNtBa_3fmt5Debug3fmt
libmozjs128-debug.so:_RNvXs1C_NtNtNtCse7kRp5EpEcX_5alloc11collections5btree3mapNtB6_17UnorderedKeyErrorNtNtCs1GuMdp1PKBr_4core3fmt7Display3fmt
libmozjs128-debug.so:_RNvXs1D_NtNtCs1GuMdp1PKBr_4core3num7nonzeroINtB6_7NonZerosENtNtNtBa_3str6traits7FromStr8from_str
libmozjs128-debug.so:_RNvXs1H_NtNtCs1GuMdp1PKBr_4core3num7nonzeroINtB6_7NonZerolENtNtNtBa_3str6traits7FromStr8from_str
libmozjs128-debug.so:_RNvXs1L_NtNtCs1GuMdp1PKBr_4core3num7nonzeroINtB6_7NonZeroxENtNtNtBa_3str6traits7FromStr8from_str
libmozjs128-debug.so:_RNvXs1P_NtNtCs1GuMdp1PKBr_4core3num7nonzeroINtB6_7NonZeronENtNtNtBa_3str6traits7FromStr8from_str
libmozjs128-debug.so:_RNvXs1T_NtNtCs1GuMdp1PKBr_4core3num7nonzeroINtB6_7NonZeroiENtNtNtBa_3str6traits7FromStr8from_str
libmozjs128-debug.so:_RNvXs1_CsezTIWZHnNQ7_14rustc_demangleNtB5_8DemangleNtNtCs1GuMdp1PKBr_4core3fmt7Display3fmt
libmozjs128-debug.so:_RNvXs1_NtCs1GuMdp1PKBr_4core3anyDNtB5_3AnyNtNtB7_6marker4SendNtBG_4SyncEL_NtNtB7_3fmt5Debug3fmt
libmozjs128-debug.so:_RNvXs1_NtCs1GuMdp1PKBr_4core4wtf8NtB5_4Wtf8NtNtB7_3fmt5Debug3fmt
libmozjs128-debug.so:_RNvXs1_NtCs1GuMdp1PKBr_4core5cloneNtNtNtB7_3ffi5c_str4CStrNtB5_13CloneToUninit15clone_to_uninit
libmozjs128-debug.so:_RNvXs1_NtCse7kRp5EpEcX_5alloc11collectionsNtB5_15TryReserveErrorNtNtCs1GuMdp1PKBr_4core3fmt7Display3fmt
libmozjs128-debug.so:_RNvXs1_NtCse7kRp5EpEcX_5alloc4wtf8NtB5_7Wtf8BufNtNtCs1GuMdp1PKBr_4core3fmt7Display3fmt
libmozjs128-debug.so:_RNvXs1_NtCse7kRp5EpEcX_5alloc6stringNtB5_14FromUtf16ErrorNtNtCs1GuMdp1PKBr_4core3fmt7Display3fmt
libmozjs128-debug.so:_RNvXs1_NtCse7kRp5EpEcX_5alloc7raw_vecINtB5_6RawVecNtNtNtCsl4XjPnlmSxw_5gimli4read6abbrev22AttributeSpecificationENtNtNtCs1GuMdp1PKBr_4core3ops4drop4Drop4dropBS_
libmozjs128-debug.so:_RNvXs1_NtCse7kRp5EpEcX_5alloc7raw_vecINtB5_6RawVechENtNtNtCs1GuMdp1PKBr_4core3ops4drop4Drop4dropCsl4XjPnlmSxw_5gimli
libmozjs128-debug.so:_RNvXs1_NtCsh60fBBS5e0U_3std2ioNtB5_10IoSliceMutNtNtCs1GuMdp1PKBr_4core3fmt5Debug3fmt
libmozjs128-debug.so:_RNvXs1_NtCsh60fBBS5e0U_3std3envNtB5_6VarsOsNtNtCs1GuMdp1PKBr_4core3fmt5Debug3fmt
libmozjs128-debug.so:_RNvXs1_NtCsh60fBBS5e0U_3std4timeNtB5_7InstantINtNtNtCs1GuMdp1PKBr_4core3ops5arith3SubNtNtBO_4time8DurationE3sub
libmozjs128-debug.so:_RNvXs1_NtCsh60fBBS5e0U_3std7processNtB5_5ChildINtNtB7_10sys_common9IntoInnerNtNtNtNtNtB7_3sys7process4unix4unix7ProcessE10into_inner
libmozjs128-debug.so:_RNvXs1_NtCsh60fBBS5e0U_3std9backtraceNtB5_11BytesOrWideNtNtCs1GuMdp1PKBr_4core3fmt5Debug3fmt
libmozjs128-debug.so:_RNvXs1_NtNtCs1GuMdp1PKBr_4core3ffi5c_strNtB5_4CStrNtNtB9_3fmt5Debug3fmt
libmozjs128-debug.so:_RNvXs1_NtNtCs1GuMdp1PKBr_4core3mem15transmutabilityNtB5_6AssumeNtNtNtB9_3ops5arith3Sub3sub
libmozjs128-debug.so:_RNvXs1_NtNtCs1GuMdp1PKBr_4core3num6bignumyNtB5_7FullOps12full_div_rem
libmozjs128-debug.so:_RNvXs1_NtNtCs1GuMdp1PKBr_4core3num7dec2fltfNtNtNtB9_3str6traits7FromStr8from_str
libmozjs128-debug.so:_RNvXs1_NtNtCs1GuMdp1PKBr_4core3str5errorNtB5_14ParseBoolErrorNtNtB9_3fmt7Display3fmt
libmozjs128-debug.so:_RNvXs1_NtNtCs1GuMdp1PKBr_4core4char6decodeNtB5_16DecodeUtf16ErrorNtNtB9_3fmt7Display3fmt
libmozjs128-debug.so:_RNvXs1_NtNtCs1GuMdp1PKBr_4core4task4wakeNtB5_7ContextNtNtB9_3fmt5Debug3fmt
libmozjs128-debug.so:_RNvXs1_NtNtCs1GuMdp1PKBr_4core5ascii10ascii_charNtB5_9AsciiCharNtNtB9_3fmt5Debug3fmt
libmozjs128-debug.so:_RNvXs1_NtNtCs1GuMdp1PKBr_4core5panic8locationNtB5_8LocationNtNtB9_3cmp10PartialOrd11partial_cmp
libmozjs128-debug.so:_RNvXs1_NtNtCs1GuMdp1PKBr_4core6marker8varianceNtB5_24PhantomCovariantLifetimeNtNtB9_3fmt5Debug3fmt
libmozjs128-debug.so:_RNvXs1_NtNtCsh60fBBS5e0U_3std3net3tcpRNtB5_9TcpStreamNtNtB9_2io4Read13read_vectored
libmozjs128-debug.so:_RNvXs1_NtNtCsh60fBBS5e0U_3std3net3tcpRNtB5_9TcpStreamNtNtB9_2io4Read4read
libmozjs128-debug.so:_RNvXs1_NtNtCsh60fBBS5e0U_3std3net3tcpRNtB5_9TcpStreamNtNtB9_2io4Read8read_buf
libmozjs128-debug.so:_RNvXs1_NtNtCsh60fBBS5e0U_3std4sync4onceNtB5_4OnceNtNtCs1GuMdp1PKBr_4core3fmt5Debug3fmt
libmozjs128-debug.so:_RNvXs1_NtNtCsh60fBBS5e0U_3std4sync7barrierNtB5_17BarrierWaitResultNtNtCs1GuMdp1PKBr_4core3fmt5Debug3fmt
libmozjs128-debug.so:_RNvXs1_NtNtNtCs1GuMdp1PKBr_4core3num6bignum5testsNtB5_6Big8x3NtNtBb_3cmp10PartialOrd11partial_cmp
libmozjs128-debug.so:_RNvXs1_NtNtNtCs1GuMdp1PKBr_4core4iter8adapters6copiedINtB5_6CopiedINtNtNtBb_5slice4iter4IterhEENtNtNtB9_6traits10exact_size17ExactSizeIterator3lenCsezTIWZHnNQ7_14rustc_demangle
libmozjs128-debug.so:_RNvXs1_NtNtNtCsh60fBBS5e0U_3std12backtrace_rs9backtrace9libunwindNtB5_5FrameNtNtCs1GuMdp1PKBr_4core5clone5Clone5clone
libmozjs128-debug.so:_RNvXs1_NtNtNtCsh60fBBS5e0U_3std2os4unix7processNtNtBb_7process5ChildNtB5_8ChildExt11send_signal
libmozjs128-debug.so:_RNvXs1_NtNtNtCsh60fBBS5e0U_3std3sys4args6commonNtB5_4ArgsNtNtCs1GuMdp1PKBr_4core3fmt5Debug3fmt
libmozjs128-debug.so:_RNvXs1_NtNtNtCsh60fBBS5e0U_3std3sys5stdio4unixNtB5_6StdoutNtNtBb_2io5Write14write_vectored
libmozjs128-debug.so:_RNvXs1_NtNtNtCsh60fBBS5e0U_3std3sys5stdio4unixNtB5_6StdoutNtNtBb_2io5Write5write
libmozjs128-debug.so:_RNvXs1_NtNtNtCsh60fBBS5e0U_3std3sys6os_str5bytesNtB5_3BufNtNtCs1GuMdp1PKBr_4core3fmt5Debug3fmt
libmozjs128-debug.so:_RNvXs1_NtNtNtCsh60fBBS5e0U_3std3sys6thread4unixNtB5_6ThreadNtNtNtCs1GuMdp1PKBr_4core3ops4drop4Drop4drop
libmozjs128-debug.so:_RNvXs1_NtNtNtNtCsh60fBBS5e0U_3std2os4unix3net4addrNtB5_10SocketAddrNtNtCs1GuMdp1PKBr_4core3fmt5Debug3fmt
libmozjs128-debug.so:_RNvXs1_NtNtNtNtCsh60fBBS5e0U_3std2os4unix3net6streamNtB5_10UnixStreamNtNtBd_2io4Read13read_vectored
libmozjs128-debug.so:_RNvXs1_NtNtNtNtCsh60fBBS5e0U_3std2os4unix3net6streamNtB5_10UnixStreamNtNtBd_2io4Read4read
libmozjs128-debug.so:_RNvXs1_NtNtNtNtCsh60fBBS5e0U_3std2os4unix3net6streamNtB5_10UnixStreamNtNtBd_2io4Read8read_buf
libmozjs128-debug.so:_RNvXs1_NtNtNtNtCsh60fBBS5e0U_3std2os4unix3net9ancillaryNtB5_9ScmRightsNtNtNtNtCs1GuMdp1PKBr_4core4iter6traits8iterator8Iterator4next
libmozjs128-debug.so:_RNvXs1_NtNtNtNtCsh60fBBS5e0U_3std3sys3pal4unix4pipeNtB5_8AnonPipeNtNtNtNtBd_2os2fd5owned4AsFd5as_fd
libmozjs128-debug.so:_RNvXs1_NvMs_NtNtCse7kRp5EpEcX_5alloc3ffi5c_strNtBa_7CString3newQShNtB5_11SpecNewImpl13spec_new_impl
libmozjs128-debug.so:_RNvXs1_NvNtCsh60fBBS5e0U_3std9panicking13panic_handlerNtB5_16StaticStrPayloadNtNtCs1GuMdp1PKBr_4core5panic12PanicPayload8take_box
libmozjs128-debug.so:_RNvXs1a_NtCs1GuMdp1PKBr_4core3fmtQShNtB6_5Debug3fmtCsezTIWZHnNQ7_14rustc_demangle
libmozjs128-debug.so:_RNvXs1a_NtCsh60fBBS5e0U_3std4pathNtB6_7DisplayNtNtCs1GuMdp1PKBr_4core3fmt5Debug3fmt
libmozjs128-debug.so:_RNvXs1b_NtCs1GuMdp1PKBr_4core3fmtRNtCsezTIWZHnNQ7_14rustc_demangle13DemangleStyleNtB6_7Display3fmtBy_
libmozjs128-debug.so:_RNvXs1b_NtCs1GuMdp1PKBr_4core3fmtReNtB6_7Display3fmtCsezTIWZHnNQ7_14rustc_demangle
libmozjs128-debug.so:_RNvXs1b_NtCsh60fBBS5e0U_3std4pathNtB6_7DisplayNtNtCs1GuMdp1PKBr_4core3fmt7Display3fmt
libmozjs128-debug.so:_RNvXs1c_NtNtCs1GuMdp1PKBr_4core3net7ip_addrNtB6_8Ipv6AddrNtNtNtBa_3ops3bit12BitAndAssign13bitand_assign
libmozjs128-debug.so:_RNvXs1d_NtNtCs1GuMdp1PKBr_4core3net7ip_addrNtB6_8Ipv6AddrINtNtNtBa_3ops3bit12BitAndAssignRBF_E13bitand_assign
libmozjs128-debug.so:_RNvXs1d_NtNtCs1GuMdp1PKBr_4core4sync6atomicNtB6_9AtomicI64NtNtBa_3fmt5Debug3fmt
libmozjs128-debug.so:_RNvXs1e_NtNtCs1GuMdp1PKBr_4core3num7nonzeroINtB6_7NonZeroyENtNtNtBa_3str6traits7FromStr8from_str
libmozjs128-debug.so:_RNvXs1g_NtNtCs1GuMdp1PKBr_4core3num11niche_typesNtB6_15NonZeroI64InnerNtNtBa_3fmt5Debug3fmt
libmozjs128-debug.so:_RNvXs1i_NtNtCs1GuMdp1PKBr_4core3net7ip_addrNtB6_8Ipv6AddrNtNtNtBa_3ops3bit11BitOrAssign12bitor_assign
libmozjs128-debug.so:_RNvXs1i_NtNtCs1GuMdp1PKBr_4core4sync6atomicNtB6_9AtomicU64NtNtBa_3fmt5Debug3fmt
libmozjs128-debug.so:_RNvXs1j_NtNtCs1GuMdp1PKBr_4core3net7ip_addrNtB6_8Ipv6AddrINtNtNtBa_3ops3bit11BitOrAssignRBF_E12bitor_assign
libmozjs128-debug.so:_RNvXs1l_NtNtCs1GuMdp1PKBr_4core3num7nonzeroINtB6_7NonZerooENtNtNtBa_3str6traits7FromStr8from_str
libmozjs128-debug.so:_RNvXs1n_NtNtCs1GuMdp1PKBr_4core3num11niche_typesNtB6_16NonZeroI128InnerNtNtBa_3fmt5Debug3fmt
libmozjs128-debug.so:_RNvXs1n_NtNtCs1GuMdp1PKBr_4core4sync6atomicNtB6_11AtomicIsizeNtNtBa_3fmt5Debug3fmt
libmozjs128-debug.so:_RNvXs1s_NtNtCs1GuMdp1PKBr_4core3num7nonzeroINtB6_7NonZerojENtNtNtBa_3str6traits7FromStr8from_str
libmozjs128-debug.so:_RNvXs1s_NtNtCs1GuMdp1PKBr_4core4sync6atomicNtB6_11AtomicUsizeNtNtBa_3fmt5Debug3fmt
libmozjs128-debug.so:_RNvXs1u_NtCsh60fBBS5e0U_3std4pathNtB6_16StripPrefixErrorNtNtCs1GuMdp1PKBr_4core3fmt7Display3fmt
libmozjs128-debug.so:_RNvXs1u_NtNtCs1GuMdp1PKBr_4core3num11niche_typesNtB6_16NonZeroCharInnerNtNtBa_3fmt5Debug3fmt
libmozjs128-debug.so:_RNvXs1w_NtCsh60fBBS5e0U_3std4pathNtB6_14NormalizeErrorNtNtCs1GuMdp1PKBr_4core3fmt7Display3fmt
libmozjs128-debug.so:_RNvXs1z_NtNtCs1GuMdp1PKBr_4core3num7nonzeroINtB6_7NonZeroaENtNtNtBa_3str6traits7FromStr8from_str
libmozjs128-debug.so:_RNvXs20_NtNtCs1GuMdp1PKBr_4core3str4iterNtB6_11EscapeDebugNtNtBa_3fmt7Display3fmt
libmozjs128-debug.so:_RNvXs23_NtNtCs1GuMdp1PKBr_4core3str4iterNtB6_13EscapeDefaultNtNtBa_3fmt7Display3fmt
libmozjs128-debug.so:_RNvXs26_NtNtCs1GuMdp1PKBr_4core3str4iterNtB6_13EscapeUnicodeNtNtBa_3fmt7Display3fmt
libmozjs128-debug.so:_RNvXs28_NtNtCs1GuMdp1PKBr_4core3num11niche_typesNtB6_14UsizeNoHighBitNtNtBa_3fmt5Debug3fmt
libmozjs128-debug.so:_RNvXs2C_NtNtCs1GuMdp1PKBr_4core3num11niche_typesNtB6_13U32NotAllOnesNtNtBa_3fmt5Debug3fmt
libmozjs128-debug.so:_RNvXs2J_NtNtCs1GuMdp1PKBr_4core3num11niche_typesNtB6_13I32NotAllOnesNtNtBa_3fmt5Debug3fmt
libmozjs128-debug.so:_RNvXs2Q_NtNtCs1GuMdp1PKBr_4core3num11niche_typesNtB6_13U64NotAllOnesNtNtBa_3fmt5Debug3fmt
libmozjs128-debug.so:_RNvXs2X_NtNtCs1GuMdp1PKBr_4core3num11niche_typesNtB6_13I64NotAllOnesNtNtBa_3fmt5Debug3fmt
libmozjs128-debug.so:_RNvXs2_CsezTIWZHnNQ7_14rustc_demangleNtB5_8DemangleNtNtCs1GuMdp1PKBr_4core3fmt5Debug3fmt
libmozjs128-debug.so:_RNvXs2_NtCs1GuMdp1PKBr_4core4bstrNtB5_7ByteStrNtNtB7_3fmt5Debug3fmt
libmozjs128-debug.so:_RNvXs2_NtCs1GuMdp1PKBr_4core4charNtB5_13EscapeUnicodeNtNtB7_3fmt7Display3fmt
libmozjs128-debug.so:_RNvXs2_NtCs1GuMdp1PKBr_4core4wtf8NtB5_4Wtf8NtNtB7_3fmt7Display3fmt
libmozjs128-debug.so:_RNvXs2_NtCsh60fBBS5e0U_3std3envNtB5_8VarErrorNtNtCs1GuMdp1PKBr_4core3fmt7Display3fmt
libmozjs128-debug.so:_RNvXs2_NtCsh60fBBS5e0U_3std4timeNtB5_7InstantINtNtNtCs1GuMdp1PKBr_4core3ops5arith9SubAssignNtNtBO_4time8DurationE10sub_assign
libmozjs128-debug.so:_RNvXs2_NtCsh60fBBS5e0U_3std7processNtB5_5ChildNtNtCs1GuMdp1PKBr_4core3fmt5Debug3fmt
libmozjs128-debug.so:_RNvXs2_NtNtCs1GuMdp1PKBr_4core3fmt3numjNtB7_6Binary3fmt
libmozjs128-debug.so:_RNvXs2_NtNtCs1GuMdp1PKBr_4core3fmt5floatfNtB7_5Debug3fmt
libmozjs128-debug.so:_RNvXs2_NtNtCs1GuMdp1PKBr_4core3net6parserNtNtB7_7ip_addr8Ipv4AddrNtNtNtB9_3str6traits7FromStr8from_str
libmozjs128-debug.so:_RNvXs2_NtNtCs1GuMdp1PKBr_4core3net7ip_addrNtB5_6IpAddrNtNtB9_3fmt7Display3fmt
libmozjs128-debug.so:_RNvXs2_NtNtCs1GuMdp1PKBr_4core3num7dec2fltdNtNtNtB9_3str6traits7FromStr8from_str
libmozjs128-debug.so:_RNvXs2_NtNtCs1GuMdp1PKBr_4core3str5lossyNtB5_10Utf8ChunksNtNtNtNtB9_4iter6traits8iterator8Iterator4next
libmozjs128-debug.so:_RNvXs2_NtNtCs1GuMdp1PKBr_4core5slice3cmpSNtNtNtCsl4XjPnlmSxw_5gimli4read6abbrev22AttributeSpecificationINtB5_14SlicePartialEqBD_E5equalBJ_
libmozjs128-debug.so:_RNvXs2_NtNtCs1GuMdp1PKBr_4core5slice5asciiNtB5_11EscapeAsciiNtNtB9_3fmt7Display3fmt
libmozjs128-debug.so:_RNvXs2_NtNtCse7kRp5EpEcX_5alloc3ffi5c_strNtB5_7CStringNtNtCs1GuMdp1PKBr_4core3fmt5Debug3fmt
libmozjs128-debug.so:_RNvXs2_NtNtCse7kRp5EpEcX_5alloc3vec11spec_extendINtB7_3VechEINtB5_10SpecExtendRhINtNtNtCs1GuMdp1PKBr_4core5slice4iter4IterhEE11spec_extendCsec783pc85az_9addr2line
libmozjs128-debug.so:_RNvXs2_NtNtCsh60fBBS5e0U_3std12backtrace_rs9symbolizeNtB5_10SymbolNameNtNtCs1GuMdp1PKBr_4core3fmt7Display3fmt
libmozjs128-debug.so:_RNvXs2_NtNtCsh60fBBS5e0U_3std2io5stdioNtB5_5StdinNtNtCs1GuMdp1PKBr_4core3fmt5Debug3fmt
libmozjs128-debug.so:_RNvXs2_NtNtCsh60fBBS5e0U_3std3net3tcpRNtB5_9TcpStreamNtNtB9_2io5Write14write_vectored
libmozjs128-debug.so:_RNvXs2_NtNtCsh60fBBS5e0U_3std3net3tcpRNtB5_9TcpStreamNtNtB9_2io5Write5write
libmozjs128-debug.so:_RNvXs2_NtNtCsh60fBBS5e0U_3std3net3udpNtB5_9UdpSocketNtNtCs1GuMdp1PKBr_4core3fmt5Debug3fmt
libmozjs128-debug.so:_RNvXs2_NtNtCsh60fBBS5e0U_3std6thread6scopedNtB5_5ScopeNtNtCs1GuMdp1PKBr_4core3fmt5Debug3fmt
libmozjs128-debug.so:_RNvXs2_NtNtCsl4XjPnlmSxw_5gimli4read12endian_sliceNtB5_10DebugBytesNtNtCs1GuMdp1PKBr_4core3fmt5Debug3fmt
libmozjs128-debug.so:_RNvXs2_NtNtNtCs1GuMdp1PKBr_4core3num6bignum5testsNtB5_6Big8x3NtNtBb_3cmp3Ord3cmp
libmozjs128-debug.so:_RNvXs2_NtNtNtCsh60fBBS5e0U_3std12backtrace_rs9backtrace9libunwindNtB5_4BombNtNtNtCs1GuMdp1PKBr_4core3ops4drop4Drop4drop
libmozjs128-debug.so:_RNvXs2_NtNtNtCsh60fBBS5e0U_3std2io8buffered9bufwriterNtB5_14WriterPanickedNtNtCs1GuMdp1PKBr_4core3fmt7Display3fmt
libmozjs128-debug.so:_RNvXs2_NtNtNtCsh60fBBS5e0U_3std3sys6os_str5bytesNtB5_3BufNtNtCs1GuMdp1PKBr_4core3fmt7Display3fmt
libmozjs128-debug.so:_RNvXs2_NtNtNtNtCsh60fBBS5e0U_3std2os4unix3net6streamRNtB5_10UnixStreamNtNtBd_2io4Read13read_vectored
libmozjs128-debug.so:_RNvXs2_NtNtNtNtCsh60fBBS5e0U_3std2os4unix3net6streamRNtB5_10UnixStreamNtNtBd_2io4Read4read
libmozjs128-debug.so:_RNvXs2_NtNtNtNtCsh60fBBS5e0U_3std2os4unix3net6streamRNtB5_10UnixStreamNtNtBd_2io4Read8read_buf
libmozjs128-debug.so:_RNvXs2_NtNtNtNtCsh60fBBS5e0U_3std2os4unix3net9ancillaryNtB5_14ScmCredentialsNtNtNtNtCs1GuMdp1PKBr_4core4iter6traits8iterator8Iterator4next
libmozjs128-debug.so:_RNvXs2_NtNtNtNtCsh60fBBS5e0U_3std3sys3net10connection6socketNtB5_10LookupHostNtNtNtCs1GuMdp1PKBr_4core3ops4drop4Drop4drop
libmozjs128-debug.so:_RNvXs2_NtNtNtNtCsh60fBBS5e0U_3std3sys3pal4unix4timeNtB5_7InstantNtNtCs1GuMdp1PKBr_4core3fmt5Debug3fmt
libmozjs128-debug.so:_RNvXs2_NtNtNtNtNtCsh60fBBS5e0U_3std3sys3net10connection6socket4unixNtB5_6SocketNtNtNtNtBf_2os2fd5owned4AsFd5as_fd
libmozjs128-debug.so:_RNvXs2_NtNtNtNtNtCsh60fBBS5e0U_3std3sys3pal4unix5linux5pidfdNtB5_5PidFdNtNtNtNtBf_2os2fd3raw9FromRawFd11from_raw_fd
libmozjs128-debug.so:_RNvXs2_NvNtCsh60fBBS5e0U_3std9panicking13panic_handlerNtB5_16StaticStrPayloadNtNtCs1GuMdp1PKBr_4core3fmt7Display3fmt
libmozjs128-debug.so:_RNvXs2f_NtNtCs1GuMdp1PKBr_4core3num11niche_typesNtB6_17NonZeroUsizeInnerNtNtBa_3fmt5Debug3fmt
libmozjs128-debug.so:_RNvXs2m_NtNtCs1GuMdp1PKBr_4core3num11niche_typesNtB6_17NonZeroIsizeInnerNtNtBa_3fmt5Debug3fmt
libmozjs128-debug.so:_RNvXs3_NtCs1GuMdp1PKBr_4core4bstrNtB5_7ByteStrNtNtB7_3fmt7Display3fmt
libmozjs128-debug.so:_RNvXs3_NtCs1GuMdp1PKBr_4core5asciiNtB5_13EscapeDefaultNtNtB7_3fmt7Display3fmt
libmozjs128-debug.so:_RNvXs3_NtCsh60fBBS5e0U_3std4timeNtB5_7InstantNtNtNtCs1GuMdp1PKBr_4core3ops5arith3Sub3sub
libmozjs128-debug.so:_RNvXs3_NtCsh60fBBS5e0U_3std6threadNtB5_6ThreadNtNtCs1GuMdp1PKBr_4core3fmt5Debug3fmt
libmozjs128-debug.so:_RNvXs3_NtCsh60fBBS5e0U_3std7processNtB5_10ChildStdinNtNtB7_2io5Write14write_vectored
libmozjs128-debug.so:_RNvXs3_NtCsh60fBBS5e0U_3std7processNtB5_10ChildStdinNtNtB7_2io5Write5write
libmozjs128-debug.so:_RNvXs3_NtNtCs1GuMdp1PKBr_4core3fmt3numiNtB7_6Binary3fmt
libmozjs128-debug.so:_RNvXs3_NtNtCs1GuMdp1PKBr_4core3fmt5floatfNtB7_7Display3fmt
libmozjs128-debug.so:_RNvXs3_NtNtCs1GuMdp1PKBr_4core3net7ip_addrNtB5_6IpAddrNtNtB9_3fmt5Debug3fmt
libmozjs128-debug.so:_RNvXs3_NtNtCs1GuMdp1PKBr_4core3num5errorNtB5_13ParseIntErrorNtNtB9_3fmt7Display3fmt
libmozjs128-debug.so:_RNvXs3_NtNtCs1GuMdp1PKBr_4core5panic8locationNtB5_8LocationNtNtB9_3fmt5Debug3fmt
libmozjs128-debug.so:_RNvXs3_NtNtCs1GuMdp1PKBr_4core5slice5asciiNtB5_11EscapeAsciiNtNtB9_3fmt5Debug3fmt
libmozjs128-debug.so:_RNvXs3_NtNtCsh60fBBS5e0U_3std12backtrace_rs9symbolizeNtB5_10SymbolNameNtNtCs1GuMdp1PKBr_4core3fmt5Debug3fmt
libmozjs128-debug.so:_RNvXs3_NtNtCsh60fBBS5e0U_3std2io5errorNtB5_9ErrorKindNtNtCs1GuMdp1PKBr_4core3fmt7Display3fmt
libmozjs128-debug.so:_RNvXs3_NtNtCsh60fBBS5e0U_3std2io5stdioNtB5_5StdinNtB7_4Read10read_exact
libmozjs128-debug.so:_RNvXs3_NtNtCsh60fBBS5e0U_3std2io5stdioNtB5_5StdinNtB7_4Read11read_to_end
libmozjs128-debug.so:_RNvXs3_NtNtCsh60fBBS5e0U_3std2io5stdioNtB5_5StdinNtB7_4Read13read_vectored
libmozjs128-debug.so:_RNvXs3_NtNtCsh60fBBS5e0U_3std2io5stdioNtB5_5StdinNtB7_4Read14read_buf_exact
libmozjs128-debug.so:_RNvXs3_NtNtCsh60fBBS5e0U_3std2io5stdioNtB5_5StdinNtB7_4Read14read_to_string
libmozjs128-debug.so:_RNvXs3_NtNtCsh60fBBS5e0U_3std2io5stdioNtB5_5StdinNtB7_4Read4read
libmozjs128-debug.so:_RNvXs3_NtNtCsh60fBBS5e0U_3std2io5stdioNtB5_5StdinNtB7_4Read8read_buf
libmozjs128-debug.so:_RNvXs3_NtNtCsh60fBBS5e0U_3std4sync4onceNtB5_9OnceStateNtNtCs1GuMdp1PKBr_4core3fmt5Debug3fmt
libmozjs128-debug.so:_RNvXs3_NtNtCsl4XjPnlmSxw_5gimli4read12endian_sliceNtB5_9DebugByteNtNtCs1GuMdp1PKBr_4core3fmt5Debug3fmt
libmozjs128-debug.so:_RNvXs3_NtNtNtCs1GuMdp1PKBr_4core3fmt3num3imptNtB9_7Display3fmt
libmozjs128-debug.so:_RNvXs3_NtNtNtCs1GuMdp1PKBr_4core4iter8adapters3zipINtB5_3ZipINtNtNtBb_5slice4iter4ItertEINtBZ_7IterMutmEEINtB5_7ZipImplBW_B1o_E3newCs9zevlwxmzUZ_11miniz_oxide
libmozjs128-debug.so:_RNvXs3_NtNtNtCsh60fBBS5e0U_3std2io8buffered9bufwriterNtB5_14WriterPanickedNtNtCs1GuMdp1PKBr_4core3fmt5Debug3fmt
libmozjs128-debug.so:_RNvXs3_NtNtNtCsh60fBBS5e0U_3std2os5linux7processNtB5_5PidFdNtNtNtB9_2fd3raw9FromRawFd11from_raw_fd
libmozjs128-debug.so:_RNvXs3_NtNtNtCsh60fBBS5e0U_3std3sys2fd4unixNtB5_8FileDescNtNtNtNtBb_2os2fd5owned4AsFd5as_fd
libmozjs128-debug.so:_RNvXs3_NtNtNtCsh60fBBS5e0U_3std3sys3env6commonNtB5_3EnvNtNtNtNtCs1GuMdp1PKBr_4core4iter6traits8iterator8Iterator4next
libmozjs128-debug.so:_RNvXs3_NtNtNtCsh60fBBS5e0U_3std3sys3env6commonNtB5_3EnvNtNtNtNtCs1GuMdp1PKBr_4core4iter6traits8iterator8Iterator9size_hint
libmozjs128-debug.so:_RNvXs3_NtNtNtCsh60fBBS5e0U_3std3sys5stdio4unixNtB5_6StderrNtNtBb_2io5Write14write_vectored
libmozjs128-debug.so:_RNvXs3_NtNtNtCsh60fBBS5e0U_3std3sys5stdio4unixNtB5_6StderrNtNtBb_2io5Write5write
libmozjs128-debug.so:_RNvXs3_NtNtNtCsh60fBBS5e0U_3std3sys6os_str5bytesNtB5_5SliceNtNtCs1GuMdp1PKBr_4core3fmt5Debug3fmt
libmozjs128-debug.so:_RNvXs3_NtNtNtNtCsh60fBBS5e0U_3std2os4unix3net6streamNtB5_10UnixStreamNtNtBd_2io5Write14write_vectored
libmozjs128-debug.so:_RNvXs3_NtNtNtNtCsh60fBBS5e0U_3std2os4unix3net6streamNtB5_10UnixStreamNtNtBd_2io5Write5write
libmozjs128-debug.so:_RNvXs3_NtNtNtNtCsh60fBBS5e0U_3std3sys3pal4unix11kernel_copyNtNtBd_2fs4FileNtB5_8CopyRead10properties
libmozjs128-debug.so:_RNvXs3_NtNtNtNtCsh60fBBS5e0U_3std3sys3pal4unix4pipeNtB5_8AnonPipeNtNtNtNtBd_2os2fd3raw9FromRawFd11from_raw_fd
libmozjs128-debug.so:_RNvXs3_NtNtNtNtCsh60fBBS5e0U_3std3sys7process4unix4unixNtB5_10ExitStatusNtNtCs1GuMdp1PKBr_4core3fmt7Display3fmt
libmozjs128-debug.so:_RNvXs3_NtNtNtNtNtCsh60fBBS5e0U_3std3sys7process4unix6common13cstring_arrayNtB5_12CStringArrayNtNtNtCs1GuMdp1PKBr_4core3ops4drop4Drop4drop
libmozjs128-debug.so:_RNvXs3g_NtNtCs1GuMdp1PKBr_4core3num11niche_typesNtB6_14CodePointInnerNtNtBa_3fmt5Debug3fmt
libmozjs128-debug.so:_RNvXs4_NtCs1GuMdp1PKBr_4core3pataNtB5_12RangePattern7sub_one
libmozjs128-debug.so:_RNvXs4_NtCs1GuMdp1PKBr_4core5asciiNtB5_13EscapeDefaultNtNtB7_3fmt5Debug3fmt
libmozjs128-debug.so:_RNvXs4_NtCs1GuMdp1PKBr_4core5errorNtB5_7RequestNtNtB7_3fmt5Debug3fmt
libmozjs128-debug.so:_RNvXs4_NtCse7kRp5EpEcX_5alloc6stringNtB5_6StringNtNtCs1GuMdp1PKBr_4core5clone5Clone10clone_from
libmozjs128-debug.so:_RNvXs4_NtCse7kRp5EpEcX_5alloc6stringNtB5_6StringNtNtCs1GuMdp1PKBr_4core5clone5Clone5clone
libmozjs128-debug.so:_RNvXs4_NtCsh60fBBS5e0U_3std3envNtB5_10SplitPathsNtNtNtNtCs1GuMdp1PKBr_4core4iter6traits8iterator8Iterator4next
libmozjs128-debug.so:_RNvXs4_NtCsh60fBBS5e0U_3std4timeNtB5_7InstantNtNtCs1GuMdp1PKBr_4core3fmt5Debug3fmt
libmozjs128-debug.so:_RNvXs4_NtCsh60fBBS5e0U_3std7processRNtB5_10ChildStdinNtNtB7_2io5Write14write_vectored
libmozjs128-debug.so:_RNvXs4_NtCsh60fBBS5e0U_3std7processRNtB5_10ChildStdinNtNtB7_2io5Write5write
libmozjs128-debug.so:_RNvXs4_NtCsh60fBBS5e0U_3std9backtraceNtB5_9BacktraceNtNtCs1GuMdp1PKBr_4core3fmt7Display3fmt
libmozjs128-debug.so:_RNvXs4_NtNtCs1GuMdp1PKBr_4core3fmt3numjNtB7_5Octal3fmt
libmozjs128-debug.so:_RNvXs4_NtNtCs1GuMdp1PKBr_4core3fmt5floatfNtB7_8LowerExp3fmt
libmozjs128-debug.so:_RNvXs4_NtNtCs1GuMdp1PKBr_4core3net11socket_addrNtB5_10SocketAddrNtNtB9_3fmt7Display3fmt
libmozjs128-debug.so:_RNvXs4_NtNtCs1GuMdp1PKBr_4core3net6parserNtNtB7_7ip_addr8Ipv6AddrNtNtNtB9_3str6traits7FromStr8from_str
libmozjs128-debug.so:_RNvXs4_NtNtCs1GuMdp1PKBr_4core3str5lossyNtB5_10Utf8ChunksNtNtB9_3fmt5Debug3fmt
libmozjs128-debug.so:_RNvXs4_NtNtCse7kRp5EpEcX_5alloc3ffi5c_strNtB5_7CStringNtNtCs1GuMdp1PKBr_4core7default7Default7default
libmozjs128-debug.so:_RNvXs4_NtNtCsh60fBBS5e0U_3std2io4copyINtNtCse7kRp5EpEcX_5alloc3vec3VechENtB5_18BufferedWriterSpec11buffer_size
libmozjs128-debug.so:_RNvXs4_NtNtCsh60fBBS5e0U_3std2io4pipeRNtB5_10PipeReaderNtB7_4Read11read_to_end
libmozjs128-debug.so:_RNvXs4_NtNtCsh60fBBS5e0U_3std2io4pipeRNtB5_10PipeReaderNtB7_4Read13read_vectored
libmozjs128-debug.so:_RNvXs4_NtNtCsh60fBBS5e0U_3std2io4pipeRNtB5_10PipeReaderNtB7_4Read4read
libmozjs128-debug.so:_RNvXs4_NtNtCsh60fBBS5e0U_3std2io4pipeRNtB5_10PipeReaderNtB7_4Read8read_buf
libmozjs128-debug.so:_RNvXs4_NtNtCsh60fBBS5e0U_3std2io5stdioRNtB5_5StdinNtB7_4Read10read_exact
libmozjs128-debug.so:_RNvXs4_NtNtCsh60fBBS5e0U_3std2io5stdioRNtB5_5StdinNtB7_4Read11read_to_end
libmozjs128-debug.so:_RNvXs4_NtNtCsh60fBBS5e0U_3std2io5stdioRNtB5_5StdinNtB7_4Read13read_vectored
libmozjs128-debug.so:_RNvXs4_NtNtCsh60fBBS5e0U_3std2io5stdioRNtB5_5StdinNtB7_4Read14read_buf_exact
libmozjs128-debug.so:_RNvXs4_NtNtCsh60fBBS5e0U_3std2io5stdioRNtB5_5StdinNtB7_4Read14read_to_string
libmozjs128-debug.so:_RNvXs4_NtNtCsh60fBBS5e0U_3std2io5stdioRNtB5_5StdinNtB7_4Read4read
libmozjs128-debug.so:_RNvXs4_NtNtCsh60fBBS5e0U_3std2io5stdioRNtB5_5StdinNtB7_4Read8read_buf
libmozjs128-debug.so:_RNvXs4_NtNtCsh60fBBS5e0U_3std3net11socket_addrTRetENtB5_13ToSocketAddrs15to_socket_addrs
libmozjs128-debug.so:_RNvXs4_NtNtCsh60fBBS5e0U_3std4hash6randomNtB5_11RandomStateNtNtCs1GuMdp1PKBr_4core3fmt5Debug3fmt
libmozjs128-debug.so:_RNvXs4_NtNtCsl4XjPnlmSxw_5gimli4read12endian_sliceNtB5_8DebugLenNtNtCs1GuMdp1PKBr_4core3fmt5Debug3fmt
libmozjs128-debug.so:_RNvXs4_NtNtNtCs1GuMdp1PKBr_4core3fmt3num3impsNtB9_7Display3fmt
libmozjs128-debug.so:_RNvXs4_NtNtNtCsh60fBBS5e0U_3std3sys6os_str5bytesNtB5_5SliceNtNtCs1GuMdp1PKBr_4core3fmt7Display3fmt
libmozjs128-debug.so:_RNvXs4_NtNtNtNtCsh60fBBS5e0U_3std2os4unix3net6streamRNtB5_10UnixStreamNtNtBd_2io5Write14write_vectored
libmozjs128-debug.so:_RNvXs4_NtNtNtNtCsh60fBBS5e0U_3std2os4unix3net6streamRNtB5_10UnixStreamNtNtBd_2io5Write5write
libmozjs128-debug.so:_RNvXs4_NtNtNtNtCsh60fBBS5e0U_3std2os4unix3net9ancillaryNtB5_8MessagesNtNtNtNtCs1GuMdp1PKBr_4core4iter6traits8iterator8Iterator4next
libmozjs128-debug.so:_RNvXs4_NtNtNtNtCsh60fBBS5e0U_3std3sys3pal4unix11kernel_copyRNtNtBd_2fs4FileNtB5_8CopyRead10properties
libmozjs128-debug.so:_RNvXs4_NtNtNtNtNtCsh60fBBS5e0U_3std3sys7process4unix6common13cstring_arrayNtB5_11CStringIterNtNtNtNtCs1GuMdp1PKBr_4core4iter6traits8iterator8Iterator4next
libmozjs128-debug.so:_RNvXs4_NtNtNtNtNtCsh60fBBS5e0U_3std3sys7process4unix6common13cstring_arrayNtB5_11CStringIterNtNtNtNtCs1GuMdp1PKBr_4core4iter6traits8iterator8Iterator9size_hint
libmozjs128-debug.so:_RNvXs5_NtCs1GuMdp1PKBr_4core3patsNtB5_12RangePattern7sub_one
libmozjs128-debug.so:_RNvXs5_NtCsh60fBBS5e0U_3std3envNtB5_10SplitPathsNtNtCs1GuMdp1PKBr_4core3fmt5Debug3fmt
libmozjs128-debug.so:_RNvXs5_NtNtCs1GuMdp1PKBr_4core3fmt3numiNtB7_5Octal3fmt
libmozjs128-debug.so:_RNvXs5_NtNtCs1GuMdp1PKBr_4core3fmt5floatfNtB7_8UpperExp3fmt
libmozjs128-debug.so:_RNvXs5_NtNtCs1GuMdp1PKBr_4core3net11socket_addrNtB5_10SocketAddrNtNtB9_3fmt5Debug3fmt
libmozjs128-debug.so:_RNvXs5_NtNtCs1GuMdp1PKBr_4core3num6bignumNtB5_8Big32x40NtNtB9_3cmp10PartialOrd11partial_cmp
libmozjs128-debug.so:_RNvXs5_NtNtCs1GuMdp1PKBr_4core4char7convertNtB5_14ParseCharErrorNtNtB9_3fmt7Display3fmt
libmozjs128-debug.so:_RNvXs5_NtNtCs1GuMdp1PKBr_4core6marker8varianceNtB5_28PhantomContravariantLifetimeNtNtB9_3fmt5Debug3fmt
libmozjs128-debug.so:_RNvXs5_NtNtCsh60fBBS5e0U_3std2io4pipeNtB5_10PipeReaderNtB7_4Read11read_to_end
libmozjs128-debug.so:_RNvXs5_NtNtCsh60fBBS5e0U_3std2io4pipeNtB5_10PipeReaderNtB7_4Read13read_vectored
libmozjs128-debug.so:_RNvXs5_NtNtCsh60fBBS5e0U_3std2io4pipeNtB5_10PipeReaderNtB7_4Read4read
libmozjs128-debug.so:_RNvXs5_NtNtCsh60fBBS5e0U_3std2io4pipeNtB5_10PipeReaderNtB7_4Read8read_buf
libmozjs128-debug.so:_RNvXs5_NtNtCsh60fBBS5e0U_3std3net11socket_addrTNtNtCse7kRp5EpEcX_5alloc6string6StringtENtB5_13ToSocketAddrs15to_socket_addrs
libmozjs128-debug.so:_RNvXs5_NtNtNtCs1GuMdp1PKBr_4core3num6bignum5testsNtB5_6Big8x3NtNtBb_3fmt5Debug3fmt
libmozjs128-debug.so:_RNvXs5_NtNtNtCsh60fBBS5e0U_3std2os4unix2fsNtNtBb_2fs8DirEntryNtB5_12DirEntryExt213file_name_ref
libmozjs128-debug.so:_RNvXs5_NtNtNtCsh60fBBS5e0U_3std2os5linux7processNtB5_5PidFdNtNtNtB9_2fd5owned4AsFd5as_fd
libmozjs128-debug.so:_RNvXs5_NtNtNtNtCsh60fBBS5e0U_3std3sys3pal4unix11kernel_copyNtNtBd_2fs4FileNtB5_9CopyWrite10properties
libmozjs128-debug.so:_RNvXs5_NtNtNtNtCsh60fBBS5e0U_3std3sys7process4unix4unixNtB5_15ExitStatusErrorNtNtCs1GuMdp1PKBr_4core3fmt5Debug3fmt
libmozjs128-debug.so:_RNvXs5_NtNtNtNtNtCsh60fBBS5e0U_3std3sys3net10connection6socket4unixNtB5_6SocketNtNtNtNtBf_2os2fd3raw9FromRawFd11from_raw_fd
libmozjs128-debug.so:_RNvXs5_NtNtNtNtNtCsh60fBBS5e0U_3std3sys7process4unix6common13cstring_arrayNtB5_11CStringIterNtNtNtNtCs1GuMdp1PKBr_4core4iter6traits10exact_size17ExactSizeIterator3len
libmozjs128-debug.so:_RNvXs6_NtCs1GuMdp1PKBr_4core3fmtNtB5_9ArgumentsNtB5_5Debug3fmt
libmozjs128-debug.so:_RNvXs6_NtCs1GuMdp1PKBr_4core3patlNtB5_12RangePattern7sub_one
libmozjs128-debug.so:_RNvXs6_NtCsh60fBBS5e0U_3std2fsNtB5_4FileNtNtCs1GuMdp1PKBr_4core3fmt5Debug3fmt
libmozjs128-debug.so:_RNvXs6_NtCsh60fBBS5e0U_3std3envNtB5_14JoinPathsErrorNtNtCs1GuMdp1PKBr_4core3fmt7Display3fmt
libmozjs128-debug.so:_RNvXs6_NtCsh60fBBS5e0U_3std4timeNtB5_10SystemTimeINtNtNtCs1GuMdp1PKBr_4core3ops5arith3AddNtNtBS_4time8DurationE3add
libmozjs128-debug.so:_RNvXs6_NtNtCs1GuMdp1PKBr_4core3fmt3numjNtB7_8LowerHex3fmt
libmozjs128-debug.so:_RNvXs6_NtNtCs1GuMdp1PKBr_4core3fmt5floatdNtB7_5Debug3fmt
libmozjs128-debug.so:_RNvXs6_NtNtCs1GuMdp1PKBr_4core3net11socket_addrNtB5_12SocketAddrV4NtNtB9_3fmt7Display3fmt
libmozjs128-debug.so:_RNvXs6_NtNtCs1GuMdp1PKBr_4core3net6parserNtNtB7_11socket_addr12SocketAddrV4NtNtNtB9_3str6traits7FromStr8from_str
libmozjs128-debug.so:_RNvXs6_NtNtCs1GuMdp1PKBr_4core3net7ip_addrNtB5_8Ipv4AddrNtNtB9_3fmt7Display3fmt
libmozjs128-debug.so:_RNvXs6_NtNtCs1GuMdp1PKBr_4core3num6bignumNtB5_8Big32x40NtNtB9_3cmp3Ord3cmp
libmozjs128-debug.so:_RNvXs6_NtNtCsh60fBBS5e0U_3std2io4pipeRNtB5_10PipeWriterNtB7_5Write14write_vectored
libmozjs128-debug.so:_RNvXs6_NtNtCsh60fBBS5e0U_3std2io4pipeRNtB5_10PipeWriterNtB7_5Write5write
libmozjs128-debug.so:_RNvXs6_NtNtCsh60fBBS5e0U_3std2io4utilNtB5_6RepeatNtNtCs1GuMdp1PKBr_4core3fmt5Debug3fmt
libmozjs128-debug.so:_RNvXs6_NtNtCsh60fBBS5e0U_3std2io5errorNtNtB5_14repr_bitpacked4ReprNtNtCs1GuMdp1PKBr_4core3fmt5Debug3fmt
libmozjs128-debug.so:_RNvXs6_NtNtCsh60fBBS5e0U_3std2io5stdioNtB5_9StdinLockNtB7_4Read10read_exact
libmozjs128-debug.so:_RNvXs6_NtNtCsh60fBBS5e0U_3std2io5stdioNtB5_9StdinLockNtB7_4Read11read_to_end
libmozjs128-debug.so:_RNvXs6_NtNtCsh60fBBS5e0U_3std2io5stdioNtB5_9StdinLockNtB7_4Read13read_vectored
libmozjs128-debug.so:_RNvXs6_NtNtCsh60fBBS5e0U_3std2io5stdioNtB5_9StdinLockNtB7_4Read14read_buf_exact
libmozjs128-debug.so:_RNvXs6_NtNtCsh60fBBS5e0U_3std2io5stdioNtB5_9StdinLockNtB7_4Read14read_to_string
libmozjs128-debug.so:_RNvXs6_NtNtCsh60fBBS5e0U_3std2io5stdioNtB5_9StdinLockNtB7_4Read4read
libmozjs128-debug.so:_RNvXs6_NtNtCsh60fBBS5e0U_3std2io5stdioNtB5_9StdinLockNtB7_4Read8read_buf
libmozjs128-debug.so:_RNvXs6_NtNtCsh60fBBS5e0U_3std3net11socket_addreNtB5_13ToSocketAddrs15to_socket_addrs
libmozjs128-debug.so:_RNvXs6_NtNtCsh60fBBS5e0U_3std3net3tcpNtB5_9TcpStreamNtNtCs1GuMdp1PKBr_4core3fmt5Debug3fmt
libmozjs128-debug.so:_RNvXs6_NtNtNtCsh60fBBS5e0U_3std2os2fd5ownedNtB5_10BorrowedFdNtNtCs1GuMdp1PKBr_4core3fmt5Debug3fmt
libmozjs128-debug.so:_RNvXs6_NtNtNtCsh60fBBS5e0U_3std3sys2fd4unixNtB5_8FileDescNtNtNtNtBb_2os2fd3raw9FromRawFd11from_raw_fd
libmozjs128-debug.so:_RNvXs6_NtNtNtNtCsh60fBBS5e0U_3std3sys3net10connection6socketNtB5_9TcpStreamNtNtCs1GuMdp1PKBr_4core3fmt5Debug3fmt
libmozjs128-debug.so:_RNvXs6_NtNtNtNtCsh60fBBS5e0U_3std3sys3pal4unix11kernel_copyRNtNtBd_2fs4FileNtB5_9CopyWrite10properties
libmozjs128-debug.so:_RNvXs7_NtCs1GuMdp1PKBr_4core3fmtNtB5_9ArgumentsNtB5_7Display3fmt
libmozjs128-debug.so:_RNvXs7_NtCs1GuMdp1PKBr_4core3patxNtB5_12RangePattern7sub_one
libmozjs128-debug.so:_RNvXs7_NtCsh60fBBS5e0U_3std2fsRNtB5_4FileNtNtB7_2io4Read11read_to_end
libmozjs128-debug.so:_RNvXs7_NtCsh60fBBS5e0U_3std2fsRNtB5_4FileNtNtB7_2io4Read14read_to_string
libmozjs128-debug.so:_RNvXs7_NtCsh60fBBS5e0U_3std2ioNtB5_7IoSliceNtNtCs1GuMdp1PKBr_4core3fmt5Debug3fmt
libmozjs128-debug.so:_RNvXs7_NtCsh60fBBS5e0U_3std4pathNtB5_10ComponentsNtNtCs1GuMdp1PKBr_4core3fmt5Debug3fmt
libmozjs128-debug.so:_RNvXs7_NtCsh60fBBS5e0U_3std4timeNtB5_10SystemTimeINtNtNtCs1GuMdp1PKBr_4core3ops5arith9AddAssignNtNtBS_4time8DurationE10add_assign
libmozjs128-debug.so:_RNvXs7_NtNtCs1GuMdp1PKBr_4core3fmt3numiNtB7_8LowerHex3fmt
libmozjs128-debug.so:_RNvXs7_NtNtCs1GuMdp1PKBr_4core3fmt5floatdNtB7_7Display3fmt
libmozjs128-debug.so:_RNvXs7_NtNtCs1GuMdp1PKBr_4core3net11socket_addrNtB5_12SocketAddrV4NtNtB9_3fmt5Debug3fmt
libmozjs128-debug.so:_RNvXs7_NtNtCs1GuMdp1PKBr_4core3net7ip_addrNtB5_8Ipv4AddrNtNtB9_3fmt5Debug3fmt
libmozjs128-debug.so:_RNvXs7_NtNtCs1GuMdp1PKBr_4core4sync6atomicNtB5_10AtomicBoolNtNtB9_3fmt5Debug3fmt
libmozjs128-debug.so:_RNvXs7_NtNtCse7kRp5EpEcX_5alloc3ffi5c_strINtNtB9_5boxed3BoxNtNtNtCs1GuMdp1PKBr_4core3ffi5c_str4CStrEINtNtB11_7convert4FromRBV_E4from
libmozjs128-debug.so:_RNvXs7_NtNtCsh60fBBS5e0U_3std2io4pipeNtB5_10PipeWriterNtB7_5Write14write_vectored
libmozjs128-debug.so:_RNvXs7_NtNtCsh60fBBS5e0U_3std2io4pipeNtB5_10PipeWriterNtB7_5Write5write
libmozjs128-debug.so:_RNvXs7_NtNtCsh60fBBS5e0U_3std2io5errorNtB5_5ErrorNtNtCs1GuMdp1PKBr_4core3fmt7Display3fmt
libmozjs128-debug.so:_RNvXs7_NtNtCsl4XjPnlmSxw_5gimli4read6abbrevNtB5_10AttributesNtNtCs1GuMdp1PKBr_4core3fmt5Debug3fmt
libmozjs128-debug.so:_RNvXs7_NtNtNtCsh60fBBS5e0U_3std2os2fd5ownedNtB5_7OwnedFdNtNtCs1GuMdp1PKBr_4core3fmt5Debug3fmt
libmozjs128-debug.so:_RNvXs7_NtNtNtNtCsh60fBBS5e0U_3std2os4unix3net8listenerNtB5_8IncomingNtNtNtNtCs1GuMdp1PKBr_4core4iter6traits8iterator8Iterator4next
libmozjs128-debug.so:_RNvXs7_NtNtNtNtCsh60fBBS5e0U_3std3sys7process4unix6commonNtB5_7CommandNtNtCs1GuMdp1PKBr_4core3fmt5Debug3fmt
libmozjs128-debug.so:_RNvXs8_NtCs1GuMdp1PKBr_4core3patnNtB5_12RangePattern7sub_one
libmozjs128-debug.so:_RNvXs8_NtCs1GuMdp1PKBr_4core5errorNtB5_6SourceNtNtNtNtB7_4iter6traits8iterator8Iterator4next
libmozjs128-debug.so:_RNvXs8_NtCsh60fBBS5e0U_3std2fsRNtB5_4FileNtNtB7_2io5Write14write_vectored
libmozjs128-debug.so:_RNvXs8_NtCsh60fBBS5e0U_3std2fsRNtB5_4FileNtNtB7_2io5Write5write
libmozjs128-debug.so:_RNvXs8_NtCsh60fBBS5e0U_3std4timeNtB5_10SystemTimeINtNtNtCs1GuMdp1PKBr_4core3ops5arith3SubNtNtBS_4time8DurationE3sub
libmozjs128-debug.so:_RNvXs8_NtCsh60fBBS5e0U_3std7processNtB5_10ChildStdinNtNtCs1GuMdp1PKBr_4core3fmt5Debug3fmt
libmozjs128-debug.so:_RNvXs8_NtNtCs1GuMdp1PKBr_4core3fmt3numjNtB7_8UpperHex3fmt
libmozjs128-debug.so:_RNvXs8_NtNtCs1GuMdp1PKBr_4core3fmt5floatdNtB7_8LowerExp3fmt
libmozjs128-debug.so:_RNvXs8_NtNtCs1GuMdp1PKBr_4core3net11socket_addrNtB5_12SocketAddrV6NtNtB9_3fmt7Display3fmt
libmozjs128-debug.so:_RNvXs8_NtNtCs1GuMdp1PKBr_4core3net6parserNtNtB7_11socket_addr12SocketAddrV6NtNtNtB9_3str6traits7FromStr8from_str
libmozjs128-debug.so:_RNvXs8_NtNtCs1GuMdp1PKBr_4core4char7convertNtB5_16CharTryFromErrorNtNtB9_3fmt7Display3fmt
libmozjs128-debug.so:_RNvXs8_NtNtCse7kRp5EpEcX_5alloc3ffi5c_strINtNtB9_5boxed3BoxNtNtNtCs1GuMdp1PKBr_4core3ffi5c_str4CStrEINtNtB11_7convert4FromQBV_E4from
libmozjs128-debug.so:_RNvXs8_NtNtCsh60fBBS5e0U_3std2io5errorNtB5_5ErrorNtNtCs1GuMdp1PKBr_4core5error5Error5cause
libmozjs128-debug.so:_RNvXs8_NtNtCsh60fBBS5e0U_3std2io5errorNtB5_5ErrorNtNtCs1GuMdp1PKBr_4core5error5Error6source
libmozjs128-debug.so:_RNvXs8_NtNtCsh60fBBS5e0U_3std2io5stdioNtB5_9StdinLockNtB7_7BufRead10read_until
libmozjs128-debug.so:_RNvXs8_NtNtCsh60fBBS5e0U_3std2io5stdioNtB5_9StdinLockNtB7_7BufRead7consume
libmozjs128-debug.so:_RNvXs8_NtNtCsh60fBBS5e0U_3std2io5stdioNtB5_9StdinLockNtB7_7BufRead8fill_buf
libmozjs128-debug.so:_RNvXs8_NtNtCsh60fBBS5e0U_3std2io5stdioNtB5_9StdinLockNtB7_7BufRead9read_line
libmozjs128-debug.so:_RNvXs8_NtNtCsh60fBBS5e0U_3std3net3tcpNtB5_8IncomingNtNtNtNtCs1GuMdp1PKBr_4core4iter6traits8iterator8Iterator4next
libmozjs128-debug.so:_RNvXs8_NtNtCsl4XjPnlmSxw_5gimli4read6abbrevNtB5_10AttributesNtNtCs1GuMdp1PKBr_4core3cmp9PartialEq2eq
libmozjs128-debug.so:_RNvXs8_NtNtNtCs1GuMdp1PKBr_4core3fmt3num3impmNtB9_7Display3fmt
libmozjs128-debug.so:_RNvXs8_NtNtNtNtCsh60fBBS5e0U_3std3sys7process4unix6commonNtB5_8ExitCodeNtNtCs1GuMdp1PKBr_4core3fmt5Debug3fmt
libmozjs128-debug.so:_RNvXs9_NtCs1GuMdp1PKBr_4core3patiNtB5_12RangePattern7sub_one
libmozjs128-debug.so:_RNvXs9_NtCs1GuMdp1PKBr_4core5sliceNtB5_19GetDisjointMutErrorNtNtB7_3fmt7Display3fmt
libmozjs128-debug.so:_RNvXs9_NtCsh60fBBS5e0U_3std2fsRNtB5_4FileNtNtB7_2io4Seek10stream_len
libmozjs128-debug.so:_RNvXs9_NtCsh60fBBS5e0U_3std2fsRNtB5_4FileNtNtB7_2io4Seek15stream_position
libmozjs128-debug.so:_RNvXs9_NtCsh60fBBS5e0U_3std2fsRNtB5_4FileNtNtB7_2io4Seek4seek
libmozjs128-debug.so:_RNvXs9_NtCsh60fBBS5e0U_3std4timeNtB5_10SystemTimeINtNtNtCs1GuMdp1PKBr_4core3ops5arith9SubAssignNtNtBS_4time8DurationE10sub_assign
libmozjs128-debug.so:_RNvXs9_NtCsh60fBBS5e0U_3std7processNtB5_11ChildStdoutNtNtB7_2io4Read11read_to_end
libmozjs128-debug.so:_RNvXs9_NtCsh60fBBS5e0U_3std7processNtB5_11ChildStdoutNtNtB7_2io4Read13read_vectored
libmozjs128-debug.so:_RNvXs9_NtCsh60fBBS5e0U_3std7processNtB5_11ChildStdoutNtNtB7_2io4Read4read
libmozjs128-debug.so:_RNvXs9_NtCsh60fBBS5e0U_3std7processNtB5_11ChildStdoutNtNtB7_2io4Read8read_buf
libmozjs128-debug.so:_RNvXs9_NtNtCs1GuMdp1PKBr_4core3fmt3numiNtB7_8UpperHex3fmt
libmozjs128-debug.so:_RNvXs9_NtNtCs1GuMdp1PKBr_4core3fmt5floatdNtB7_8UpperExp3fmt
libmozjs128-debug.so:_RNvXs9_NtNtCs1GuMdp1PKBr_4core3net11socket_addrNtB5_12SocketAddrV6NtNtB9_3fmt5Debug3fmt
libmozjs128-debug.so:_RNvXs9_NtNtCs1GuMdp1PKBr_4core3num6bignumNtB5_8Big32x40NtNtB9_3fmt5Debug3fmt
libmozjs128-debug.so:_RNvXs9_NtNtCs1GuMdp1PKBr_4core4task4wakeNtB5_5WakerNtNtB9_3fmt5Debug3fmt
libmozjs128-debug.so:_RNvXs9_NtNtCs1GuMdp1PKBr_4core6marker8varianceNtB5_24PhantomInvariantLifetimeNtNtB9_3fmt5Debug3fmt
libmozjs128-debug.so:_RNvXs9_NtNtCsh60fBBS5e0U_3std2io5stdioNtB5_9StdinLockNtNtCs1GuMdp1PKBr_4core3fmt5Debug3fmt
libmozjs128-debug.so:_RNvXs9_NtNtCsh60fBBS5e0U_3std3ffi6os_strNtB5_8OsStringNtNtCs1GuMdp1PKBr_4core3fmt5Debug3fmt
libmozjs128-debug.so:_RNvXs9_NtNtCsh60fBBS5e0U_3std3net11socket_addrNtNtCse7kRp5EpEcX_5alloc6string6StringNtB5_13ToSocketAddrs15to_socket_addrs
libmozjs128-debug.so:_RNvXs9_NtNtNtCs1GuMdp1PKBr_4core3fmt3num3implNtB9_7Display3fmt
libmozjs128-debug.so:_RNvXs9_NtNtNtCsh60fBBS5e0U_3std3sys2fs4unixNtB5_8FileTypeNtNtCs1GuMdp1PKBr_4core3fmt5Debug3fmt
libmozjs128-debug.so:_RNvXs9_NtNtNtNtCsh60fBBS5e0U_3std3sys3net10connection6socketNtB5_11TcpListenerNtNtCs1GuMdp1PKBr_4core3fmt5Debug3fmt
libmozjs128-debug.so:_RNvXsA_NtNtCs1GuMdp1PKBr_4core3fmt3numyNtB7_5Octal3fmt
libmozjs128-debug.so:_RNvXsA_NtNtCs1GuMdp1PKBr_4core3num11niche_typesNtB5_15NonZeroU32InnerNtNtB9_3fmt5Debug3fmt
libmozjs128-debug.so:_RNvXsA_NtNtNtCs1GuMdp1PKBr_4core3fmt3num3impyNtB9_8LowerExp3fmt
libmozjs128-debug.so:_RNvXsA_NtNtNtCsh60fBBS5e0U_3std2os2fd5ownedNtNtNtBb_2io4pipe10PipeWriterNtB5_4AsFd5as_fd
libmozjs128-debug.so:_RNvXsB_NtNtCs1GuMdp1PKBr_4core3fmt3numxNtB7_5Octal3fmt
libmozjs128-debug.so:_RNvXsB_NtNtNtCs1GuMdp1PKBr_4core3fmt3num3impxNtB9_8UpperExp3fmt
libmozjs128-debug.so:_RNvXsC_NtCse7kRp5EpEcX_5alloc3vecINtB5_3VechEINtNtCs1GuMdp1PKBr_4core7convert4FromReE4from
libmozjs128-debug.so:_RNvXsC_NtNtCs1GuMdp1PKBr_4core3fmt3numyNtB7_8LowerHex3fmt
libmozjs128-debug.so:_RNvXsC_NtNtNtCs1GuMdp1PKBr_4core3fmt3num3impyNtB9_8UpperExp3fmt
libmozjs128-debug.so:_RNvXsD_NtNtCs1GuMdp1PKBr_4core3fmt3numxNtB7_8LowerHex3fmt
libmozjs128-debug.so:_RNvXsD_NtNtCsh60fBBS5e0U_3std3ffi6os_strReINtNtCs1GuMdp1PKBr_4core7convert7TryFromRNtB5_5OsStrE8try_from
libmozjs128-debug.so:_RNvXsD_NtNtNtCs1GuMdp1PKBr_4core3fmt3num3impiNtB9_8LowerExp3fmt
libmozjs128-debug.so:_RNvXsE_NtCs1GuMdp1PKBr_4core4charNtB5_11ToUppercaseNtNtNtNtB7_4iter6traits8iterator8Iterator10advance_by
libmozjs128-debug.so:_RNvXsE_NtCs1GuMdp1PKBr_4core4charNtB5_11ToUppercaseNtNtNtNtB7_4iter6traits8iterator8Iterator24___iterator_get_unchecked
libmozjs128-debug.so:_RNvXsE_NtCs1GuMdp1PKBr_4core4charNtB5_11ToUppercaseNtNtNtNtB7_4iter6traits8iterator8Iterator4last
libmozjs128-debug.so:_RNvXsE_NtCs1GuMdp1PKBr_4core4charNtB5_11ToUppercaseNtNtNtNtB7_4iter6traits8iterator8Iterator4next
libmozjs128-debug.so:_RNvXsE_NtCs1GuMdp1PKBr_4core4charNtB5_11ToUppercaseNtNtNtNtB7_4iter6traits8iterator8Iterator5count
libmozjs128-debug.so:_RNvXsE_NtNtCs1GuMdp1PKBr_4core3fmt3numyNtB7_8UpperHex3fmt
libmozjs128-debug.so:_RNvXsE_NtNtNtCs1GuMdp1PKBr_4core3fmt3num3impjNtB9_8LowerExp3fmt
libmozjs128-debug.so:_RNvXsF_NtCs1GuMdp1PKBr_4core4charNtB5_11ToUppercaseNtNtNtNtB7_4iter6traits12double_ended19DoubleEndedIterator15advance_back_by
libmozjs128-debug.so:_RNvXsF_NtCs1GuMdp1PKBr_4core4charNtB5_11ToUppercaseNtNtNtNtB7_4iter6traits12double_ended19DoubleEndedIterator9next_back
libmozjs128-debug.so:_RNvXsF_NtNtCs1GuMdp1PKBr_4core3fmt3numxNtB7_8UpperHex3fmt
libmozjs128-debug.so:_RNvXsF_NtNtNtCs1GuMdp1PKBr_4core3fmt3num3impiNtB9_8UpperExp3fmt
libmozjs128-debug.so:_RNvXsG_NtCsh60fBBS5e0U_3std4pathNtB5_7PathBufNtNtCs1GuMdp1PKBr_4core3fmt5Debug3fmt
libmozjs128-debug.so:_RNvXsG_NtNtCs1GuMdp1PKBr_4core3fmt3numoNtB7_6Binary3fmt
libmozjs128-debug.so:_RNvXsG_NtNtNtCs1GuMdp1PKBr_4core3fmt3num3impjNtB9_8UpperExp3fmt
libmozjs128-debug.so:_RNvXsH_NtNtCs1GuMdp1PKBr_4core3fmt3numnNtB7_6Binary3fmt
libmozjs128-debug.so:_RNvXsH_NtNtCs1GuMdp1PKBr_4core3num11niche_typesNtB5_15NonZeroU64InnerNtNtB9_3fmt5Debug3fmt
libmozjs128-debug.so:_RNvXsI_NtNtCs1GuMdp1PKBr_4core3fmt3numoNtB7_5Octal3fmt
libmozjs128-debug.so:_RNvXsJ_NtNtCs1GuMdp1PKBr_4core3fmt3numnNtB7_5Octal3fmt
libmozjs128-debug.so:_RNvXsJ_NtNtCs1GuMdp1PKBr_4core4sync6atomicNtB5_8AtomicI8NtNtB9_3fmt5Debug3fmt
libmozjs128-debug.so:_RNvXsK_NtCse7kRp5EpEcX_5alloc6stringNtB5_6StringINtNtCs1GuMdp1PKBr_4core7convert4FromINtNtB7_5boxed3BoxeEE4from
libmozjs128-debug.so:_RNvXsK_NtNtCs1GuMdp1PKBr_4core3fmt3numoNtB7_8LowerHex3fmt
libmozjs128-debug.so:_RNvXsL_NtCse7kRp5EpEcX_5alloc6stringINtNtB7_5boxed3BoxeEINtNtCs1GuMdp1PKBr_4core7convert4FromNtB5_6StringE4from
libmozjs128-debug.so:_RNvXsL_NtCsh60fBBS5e0U_3std7processNtB5_10ExitStatusNtNtCs1GuMdp1PKBr_4core3fmt7Display3fmt
libmozjs128-debug.so:_RNvXsL_NtNtCs1GuMdp1PKBr_4core3fmt3numnNtB7_8LowerHex3fmt
libmozjs128-debug.so:_RNvXsM_NtCse7kRp5EpEcX_5alloc6stringNtB5_6StringINtNtCs1GuMdp1PKBr_4core7convert4FromINtNtB7_6borrow3CoweEE4from
libmozjs128-debug.so:_RNvXsM_NtNtCs1GuMdp1PKBr_4core3fmt3numoNtB7_8UpperHex3fmt
libmozjs128-debug.so:_RNvXsN_NtNtCs1GuMdp1PKBr_4core3fmt3numnNtB7_8UpperHex3fmt
libmozjs128-debug.so:_RNvXsN_NtNtCs1GuMdp1PKBr_4core3str4iterNtB5_11EncodeUtf16NtNtB9_3fmt5Debug3fmt
libmozjs128-debug.so:_RNvXsO_NtNtCs1GuMdp1PKBr_4core3num11niche_typesNtB5_16NonZeroU128InnerNtNtB9_3fmt5Debug3fmt
libmozjs128-debug.so:_RNvXsO_NtNtCs1GuMdp1PKBr_4core4sync6atomicNtB5_8AtomicU8NtNtB9_3fmt5Debug3fmt
libmozjs128-debug.so:_RNvXsO_NtNtCsh60fBBS5e0U_3std3ffi6os_strNtB5_5OsStrNtNtCs1GuMdp1PKBr_4core3fmt5Debug3fmt
libmozjs128-debug.so:_RNvXsP_NtCsh60fBBS5e0U_3std7processNtB5_15ExitStatusErrorNtNtCs1GuMdp1PKBr_4core3fmt7Display3fmt
libmozjs128-debug.so:_RNvXsP_NtNtCsh60fBBS5e0U_3std3ffi6os_strNtB5_7DisplayNtNtCs1GuMdp1PKBr_4core3fmt5Debug3fmt
libmozjs128-debug.so:_RNvXsQ_NtNtCsh60fBBS5e0U_3std3ffi6os_strNtB5_7DisplayNtNtCs1GuMdp1PKBr_4core3fmt7Display3fmt
libmozjs128-debug.so:_RNvXsT_NtCs1GuMdp1PKBr_4core5arrayAhj4_NtNtB7_7default7Default7defaultCs9zevlwxmzUZ_11miniz_oxide
libmozjs128-debug.so:_RNvXsT_NtNtCs1GuMdp1PKBr_4core3num7nonzeroINtB5_7NonZerohENtNtNtB9_3str6traits7FromStr8from_str
libmozjs128-debug.so:_RNvXsT_NtNtCs1GuMdp1PKBr_4core4sync6atomicNtB5_9AtomicI16NtNtB9_3fmt5Debug3fmt
libmozjs128-debug.so:_RNvXsV_NtCs1GuMdp1PKBr_4core5arrayAhj2_NtNtB7_7default7Default7defaultCs9zevlwxmzUZ_11miniz_oxide
libmozjs128-debug.so:_RNvXsV_NtCse7kRp5EpEcX_5alloc6stringNtB5_6StringINtNtCs1GuMdp1PKBr_4core7convert7TryFromINtNtB7_3vec3VechEE8try_from
libmozjs128-debug.so:_RNvXsV_NtNtCs1GuMdp1PKBr_4core3num11niche_typesNtB5_14NonZeroI8InnerNtNtB9_3fmt5Debug3fmt
libmozjs128-debug.so:_RNvXsX_NtCse7kRp5EpEcX_5alloc6stringNtB5_9IntoCharsNtNtCs1GuMdp1PKBr_4core3fmt5Debug3fmt
libmozjs128-debug.so:_RNvXsY_NtNtCs1GuMdp1PKBr_4core4sync6atomicNtB5_9AtomicU16NtNtB9_3fmt5Debug3fmt
libmozjs128-debug.so:_RNvXs_CsezTIWZHnNQ7_14rustc_demangleNtB4_13DemangleStyleNtNtCs1GuMdp1PKBr_4core3fmt7Display3fmt
libmozjs128-debug.so:_RNvXs_NtCs1GuMdp1PKBr_4core3anyDNtB4_3AnyEL_NtNtB6_3fmt5Debug3fmt
libmozjs128-debug.so:_RNvXs_NtCs1GuMdp1PKBr_4core5allocNtB4_10AllocErrorNtNtB6_3fmt7Display3fmt
libmozjs128-debug.so:_RNvXs_NtCse7kRp5EpEcX_5alloc4wtf8NtB4_7Wtf8BufNtNtNtCs1GuMdp1PKBr_4core3ops5deref8DerefMut9deref_mut
libmozjs128-debug.so:_RNvXs_NtCsh60fBBS5e0U_3std2fsNtB4_12TryLockErrorNtNtCs1GuMdp1PKBr_4core3fmt5Debug3fmt
libmozjs128-debug.so:_RNvXs_NtCsh60fBBS5e0U_3std3envNtB4_4VarsNtNtCs1GuMdp1PKBr_4core3fmt5Debug3fmt
libmozjs128-debug.so:_RNvXs_NtCsh60fBBS5e0U_3std4timeNtB4_7InstantINtNtNtCs1GuMdp1PKBr_4core3ops5arith3AddNtNtBN_4time8DurationE3add
libmozjs128-debug.so:_RNvXs_NtCsh60fBBS5e0U_3std5panicNtB4_13PanicHookInfoNtNtCs1GuMdp1PKBr_4core3fmt7Display3fmt
libmozjs128-debug.so:_RNvXs_NtCsh60fBBS5e0U_3std6threadNtB4_10PanicGuardNtNtNtCs1GuMdp1PKBr_4core3ops4drop4Drop4drop
libmozjs128-debug.so:_RNvXs_NtCsh60fBBS5e0U_3std9backtraceNtB4_14BacktraceFrameNtNtCs1GuMdp1PKBr_4core3fmt5Debug3fmt
libmozjs128-debug.so:_RNvXs_NtNtCs1GuMdp1PKBr_4core3fmt3numnNtB6_7Display3fmt
libmozjs128-debug.so:_RNvXs_NtNtCs1GuMdp1PKBr_4core3num6bignumtNtB4_7FullOps12full_div_rem
libmozjs128-debug.so:_RNvXs_NtNtCs1GuMdp1PKBr_4core3num7dec2fltNtB4_15ParseFloatErrorNtNtB8_3fmt7Display3fmt
libmozjs128-debug.so:_RNvXs_NtNtCs1GuMdp1PKBr_4core3ptr9alignmentNtB4_9AlignmentNtNtB8_3fmt5Debug3fmt
libmozjs128-debug.so:_RNvXs_NtNtCs1GuMdp1PKBr_4core3str4iterNtB4_5CharsNtNtB8_3fmt5Debug3fmt
libmozjs128-debug.so:_RNvXs_NtNtCs1GuMdp1PKBr_4core3str5errorNtB4_9Utf8ErrorNtNtB8_3fmt7Display3fmt
libmozjs128-debug.so:_RNvXs_NtNtCs1GuMdp1PKBr_4core5panic10panic_infoNtB4_9PanicInfoNtNtB8_3fmt7Display3fmt
libmozjs128-debug.so:_RNvXs_NtNtCsh60fBBS5e0U_3std10sys_common4wstrNtB4_9WStrUnitsNtNtNtNtCs1GuMdp1PKBr_4core4iter6traits8iterator8Iterator4next
libmozjs128-debug.so:_RNvXs_NtNtCsh60fBBS5e0U_3std12backtrace_rs9backtraceNtB4_5FrameNtNtCs1GuMdp1PKBr_4core3fmt5Debug3fmt
libmozjs128-debug.so:_RNvXs_NtNtCsh60fBBS5e0U_3std2io5stdioNtB4_9StdoutRawNtB6_5Write14write_vectored
libmozjs128-debug.so:_RNvXs_NtNtCsh60fBBS5e0U_3std2io5stdioNtB4_9StdoutRawNtB6_5Write18write_all_vectored
libmozjs128-debug.so:_RNvXs_NtNtCsh60fBBS5e0U_3std2io5stdioNtB4_9StdoutRawNtB6_5Write5flush
libmozjs128-debug.so:_RNvXs_NtNtCsh60fBBS5e0U_3std2io5stdioNtB4_9StdoutRawNtB6_5Write5write
libmozjs128-debug.so:_RNvXs_NtNtCsh60fBBS5e0U_3std2io5stdioNtB4_9StdoutRawNtB6_5Write9write_all
libmozjs128-debug.so:_RNvXs_NtNtCsh60fBBS5e0U_3std2io5stdioNtB4_9StdoutRawNtB6_5Write9write_fmt
libmozjs128-debug.so:_RNvXs_NtNtCsh60fBBS5e0U_3std3net3tcpNtB4_9TcpStreamNtNtB8_2io4Read13read_vectored
libmozjs128-debug.so:_RNvXs_NtNtCsh60fBBS5e0U_3std3net3tcpNtB4_9TcpStreamNtNtB8_2io4Read4read
libmozjs128-debug.so:_RNvXs_NtNtCsh60fBBS5e0U_3std3net3tcpNtB4_9TcpStreamNtNtB8_2io4Read8read_buf
libmozjs128-debug.so:_RNvXs_NtNtCsh60fBBS5e0U_3std4sync7barrierNtB4_7BarrierNtNtCs1GuMdp1PKBr_4core3fmt5Debug3fmt
libmozjs128-debug.so:_RNvXs_NtNtCsh60fBBS5e0U_3std4sync9nonpoisonNtB4_10WouldBlockNtNtCs1GuMdp1PKBr_4core3fmt7Display3fmt
libmozjs128-debug.so:_RNvXs_NtNtCsh60fBBS5e0U_3std6thread5localNtB4_11AccessErrorNtNtCs1GuMdp1PKBr_4core3fmt5Debug3fmt
libmozjs128-debug.so:_RNvXs_NtNtNtCs1GuMdp1PKBr_4core3fmt3num3impaNtB8_7Display3fmt
libmozjs128-debug.so:_RNvXs_NtNtNtCs1GuMdp1PKBr_4core3num7dec2flt5floatfNtB4_8RawFloat15pow10_fast_path
libmozjs128-debug.so:_RNvXs_NtNtNtCs1GuMdp1PKBr_4core4iter8adapters6copiedINtB4_6CopiedINtNtB6_4take4TakeINtNtNtBa_5slice4iter4IterhEEENtNtNtB8_6traits8iterator8Iterator4nextCsl4XjPnlmSxw_5gimli
libmozjs128-debug.so:_RNvXs_NtNtNtCsh60fBBS5e0U_3std3sys2fd4unixRNtB4_8FileDescNtNtBa_2io4Read13read_vectored
libmozjs128-debug.so:_RNvXs_NtNtNtCsh60fBBS5e0U_3std3sys2fd4unixRNtB4_8FileDescNtNtBa_2io4Read4read
libmozjs128-debug.so:_RNvXs_NtNtNtCsh60fBBS5e0U_3std3sys2fd4unixRNtB4_8FileDescNtNtBa_2io4Read8read_buf
libmozjs128-debug.so:_RNvXs_NtNtNtCsh60fBBS5e0U_3std3sys5stdio4unixNtB4_5StdinNtNtBa_2io4Read13read_vectored
libmozjs128-debug.so:_RNvXs_NtNtNtCsh60fBBS5e0U_3std3sys5stdio4unixNtB4_5StdinNtNtBa_2io4Read4read
libmozjs128-debug.so:_RNvXs_NtNtNtCsh60fBBS5e0U_3std3sys5stdio4unixNtB4_5StdinNtNtBa_2io4Read8read_buf
libmozjs128-debug.so:_RNvXs_NtNtNtCsh60fBBS5e0U_3std4sync4mpmc4zeroNtB4_9ZeroTokenNtNtCs1GuMdp1PKBr_4core3fmt5Debug3fmt
libmozjs128-debug.so:_RNvXs_NtNtNtCsh60fBBS5e0U_3std4sync6poison7condvarNtB4_7CondvarNtNtCs1GuMdp1PKBr_4core3fmt5Debug3fmt
libmozjs128-debug.so:_RNvXs_NtNtNtCsh60fBBS5e0U_3std4sync9nonpoison7condvarNtB4_7CondvarNtNtCs1GuMdp1PKBr_4core3fmt5Debug3fmt
libmozjs128-debug.so:_RNvXs_NtNtNtNtCsh60fBBS5e0U_3std12backtrace_rs9symbolize5gimli19parse_running_mmapsNtB4_9MapsEntryNtNtNtCs1GuMdp1PKBr_4core3str6traits7FromStr8from_str
libmozjs128-debug.so:_RNvXs_NtNtNtNtCsh60fBBS5e0U_3std12backtrace_rs9symbolize5gimli4mmapNtB4_4MmapNtNtNtCs1GuMdp1PKBr_4core3ops5deref5Deref5deref
libmozjs128-debug.so:_RNvXs_NtNtNtNtCsh60fBBS5e0U_3std2os3net9linux_ext3tcpNtNtNtBc_3net3tcp9TcpStreamNtB4_12TcpStreamExt11deferaccept
libmozjs128-debug.so:_RNvXs_NtNtNtNtCsh60fBBS5e0U_3std2os3net9linux_ext3tcpNtNtNtBc_3net3tcp9TcpStreamNtB4_12TcpStreamExt12set_quickack
libmozjs128-debug.so:_RNvXs_NtNtNtNtCsh60fBBS5e0U_3std2os3net9linux_ext3tcpNtNtNtBc_3net3tcp9TcpStreamNtB4_12TcpStreamExt15set_deferaccept
libmozjs128-debug.so:_RNvXs_NtNtNtNtCsh60fBBS5e0U_3std2os3net9linux_ext3tcpNtNtNtBc_3net3tcp9TcpStreamNtB4_12TcpStreamExt8quickack
libmozjs128-debug.so:_RNvXs_NtNtNtNtCsh60fBBS5e0U_3std2os3net9linux_ext6socketNtNtNtNtBa_4unix3net6stream10UnixStreamNtB4_13UnixSocketExt12set_passcred
libmozjs128-debug.so:_RNvXs_NtNtNtNtCsh60fBBS5e0U_3std2os3net9linux_ext6socketNtNtNtNtBa_4unix3net6stream10UnixStreamNtB4_13UnixSocketExt8passcred
libmozjs128-debug.so:_RNvXs_NtNtNtNtCsh60fBBS5e0U_3std2os4unix3net6streamNtB4_10UnixStreamNtNtCs1GuMdp1PKBr_4core3fmt5Debug3fmt
libmozjs128-debug.so:_RNvXs_NtNtNtNtCsh60fBBS5e0U_3std2os4unix3net8datagramNtB4_12UnixDatagramNtNtCs1GuMdp1PKBr_4core3fmt5Debug3fmt
libmozjs128-debug.so:_RNvXs_NtNtNtNtCsh60fBBS5e0U_3std3sys2fs4unix3cfmNtB4_18CachedFileMetadataNtNtBc_2io5Write14write_vectored
libmozjs128-debug.so:_RNvXs_NtNtNtNtCsh60fBBS5e0U_3std3sys2fs4unix3cfmNtB4_18CachedFileMetadataNtNtBc_2io5Write5write
libmozjs128-debug.so:_RNvXs_NtNtNtNtCsh60fBBS5e0U_3std3sys3net10connection6socketNtB4_10LookupHostNtNtNtNtCs1GuMdp1PKBr_4core4iter6traits8iterator8Iterator4next
libmozjs128-debug.so:_RNvXs_NtNtNtNtCsh60fBBS5e0U_3std3sys3pal4unix14stack_overflowNtB4_7HandlerNtNtNtCs1GuMdp1PKBr_4core3ops4drop4Drop4drop
libmozjs128-debug.so:_RNvXs_NtNtNtNtCsh60fBBS5e0U_3std3sys3pal4unix4timeNtB4_10SystemTimeNtNtCs1GuMdp1PKBr_4core3fmt5Debug3fmt
libmozjs128-debug.so:_RNvXs_NtNtNtNtCsh60fBBS5e0U_3std3sys4sync4once5futexNtB4_15CompletionGuardNtNtNtCs1GuMdp1PKBr_4core3ops4drop4Drop4drop
libmozjs128-debug.so:_RNvXs_NtNtNtNtNtCsh60fBBS5e0U_3std3sys7process4unix6common13cstring_arrayNtB4_12CStringArrayINtNtNtCs1GuMdp1PKBr_4core3ops5index5IndexjE5index
libmozjs128-debug.so:_RNvXs_NvMNtNtNtNtCsh60fBBS5e0U_3std3sys7process4unix4unixNtNtB9_6common7Command11posix_spawnNtB4_14PosixSpawnattrNtNtNtCs1GuMdp1PKBr_4core3ops4drop4Drop4drop
libmozjs128-debug.so:_RNvXs_NvMs_NtNtCse7kRp5EpEcX_5alloc3ffi5c_strNtB9_7CString3newRShNtB4_11SpecNewImpl13spec_new_impl
libmozjs128-debug.so:_RNvXs_NvMs_NtNtNtCsh60fBBS5e0U_3std2io8buffered9bufwriterINtB9_9BufWriterpE9flush_bufNtB4_8BufGuardNtNtNtCs1GuMdp1PKBr_4core3ops4drop4Drop4drop
libmozjs128-debug.so:_RNvXs_NvNtCsh60fBBS5e0U_3std9panicking13panic_handlerNtB4_19FormatStringPayloadNtNtCs1GuMdp1PKBr_4core5panic12PanicPayload3get
libmozjs128-debug.so:_RNvXs_NvNtCsh60fBBS5e0U_3std9panicking13panic_handlerNtB4_19FormatStringPayloadNtNtCs1GuMdp1PKBr_4core5panic12PanicPayload8take_box
libmozjs128-debug.so:_RNvXs_NvNtCsh60fBBS5e0U_3std9panicking13resume_unwindNtB4_9RewrapBoxNtNtCs1GuMdp1PKBr_4core3fmt7Display3fmt
libmozjs128-debug.so:_RNvXs_NvXsh_NtNtCse7kRp5EpEcX_5alloc5boxed7convertINtBc_3BoxDNtNtCs1GuMdp1PKBr_4core5error5ErrorNtNtB11_6marker4SendNtB1y_4SyncEL_EINtNtB11_7convert4FromNtNtBe_6string6StringE4fromNtB4_11StringErrorNtNtB11_3fmt7Display3fmt
libmozjs128-debug.so:_RNvXsa_NtCs1GuMdp1PKBr_4core3anyNtB5_6TypeIdNtNtB7_3fmt5Debug3fmt
libmozjs128-debug.so:_RNvXsa_NtCs1GuMdp1PKBr_4core3fmtNtB5_9FormatterNtB5_5Write10write_char
libmozjs128-debug.so:_RNvXsa_NtCs1GuMdp1PKBr_4core3fmtNtB5_9FormatterNtB5_5Write9write_str
libmozjs128-debug.so:_RNvXsa_NtCs1GuMdp1PKBr_4core3pathNtB5_12RangePattern7sub_one
libmozjs128-debug.so:_RNvXsa_NtCs1GuMdp1PKBr_4core4timeNtB5_8DurationNtNtB7_3fmt5Debug3fmt
libmozjs128-debug.so:_RNvXsa_NtCs1GuMdp1PKBr_4core4wtf8NtB5_14Wtf8CodePointsNtNtB7_3fmt5Debug3fmt
libmozjs128-debug.so:_RNvXsa_NtCsh60fBBS5e0U_3std2fsNtB5_4FileNtNtB7_2io4Read11read_to_end
libmozjs128-debug.so:_RNvXsa_NtCsh60fBBS5e0U_3std2fsNtB5_4FileNtNtB7_2io4Read13read_vectored
libmozjs128-debug.so:_RNvXsa_NtCsh60fBBS5e0U_3std2fsNtB5_4FileNtNtB7_2io4Read14read_to_string
libmozjs128-debug.so:_RNvXsa_NtCsh60fBBS5e0U_3std2fsNtB5_4FileNtNtB7_2io4Read4read
libmozjs128-debug.so:_RNvXsa_NtCsh60fBBS5e0U_3std2fsNtB5_4FileNtNtB7_2io4Read8read_buf
libmozjs128-debug.so:_RNvXsa_NtCsh60fBBS5e0U_3std3envNtB5_4ArgsNtNtNtNtCs1GuMdp1PKBr_4core4iter6traits8iterator8Iterator4next
libmozjs128-debug.so:_RNvXsa_NtCsh60fBBS5e0U_3std4timeNtB5_10SystemTimeNtNtCs1GuMdp1PKBr_4core3fmt5Debug3fmt
libmozjs128-debug.so:_RNvXsa_NtNtCs1GuMdp1PKBr_4core3fmt3numhNtB7_6Binary3fmt
libmozjs128-debug.so:_RNvXsa_NtNtCs1GuMdp1PKBr_4core3fmt5floatC3f16NtB7_5Debug3fmt
libmozjs128-debug.so:_RNvXsa_NtNtCs1GuMdp1PKBr_4core3net6parserNtNtB7_11socket_addr10SocketAddrNtNtNtB9_3str6traits7FromStr8from_str
libmozjs128-debug.so:_RNvXsa_NtNtCsh60fBBS5e0U_3std3net3tcpNtB5_12IntoIncomingNtNtNtNtCs1GuMdp1PKBr_4core4iter6traits8iterator8Iterator4next
libmozjs128-debug.so:_RNvXsa_NtNtCsl4XjPnlmSxw_5gimli4read6abbrevNtB5_10AttributesNtNtNtCs1GuMdp1PKBr_4core3ops5deref5Deref5deref
libmozjs128-debug.so:_RNvXsb_NtCs1GuMdp1PKBr_4core3fmtNtB5_5ErrorNtB5_7Display3fmt
libmozjs128-debug.so:_RNvXsb_NtCs1GuMdp1PKBr_4core3pattNtB5_12RangePattern7sub_one
libmozjs128-debug.so:_RNvXsb_NtCs1GuMdp1PKBr_4core4timeNtB5_21TryFromFloatSecsErrorNtNtB7_3fmt7Display3fmt
libmozjs128-debug.so:_RNvXsb_NtCsh60fBBS5e0U_3std2fsNtB5_4FileNtNtB7_2io5Write14write_vectored
libmozjs128-debug.so:_RNvXsb_NtCsh60fBBS5e0U_3std2fsNtB5_4FileNtNtB7_2io5Write5write
libmozjs128-debug.so:_RNvXsb_NtCsh60fBBS5e0U_3std4pathNtB5_4IterNtNtCs1GuMdp1PKBr_4core3fmt5Debug3fmt
libmozjs128-debug.so:_RNvXsb_NtNtCs1GuMdp1PKBr_4core3fmt3numaNtB7_6Binary3fmt
libmozjs128-debug.so:_RNvXsb_NtNtCs1GuMdp1PKBr_4core3fmt5floatC3f16NtB7_7Display3fmt
libmozjs128-debug.so:_RNvXsb_NtNtCs1GuMdp1PKBr_4core3net6parserNtB5_14AddrParseErrorNtNtB9_3fmt7Display3fmt
libmozjs128-debug.so:_RNvXsb_NtNtNtCsh60fBBS5e0U_3std3sys2fs4unixNtB5_15FilePermissionsNtNtCs1GuMdp1PKBr_4core3fmt5Debug3fmt
libmozjs128-debug.so:_RNvXsb_NtNtNtNtCsh60fBBS5e0U_3std3sys7process4unix6commonNtB5_11CommandArgsNtNtNtNtCs1GuMdp1PKBr_4core4iter6traits8iterator8Iterator4next
libmozjs128-debug.so:_RNvXsb_NtNtNtNtCsh60fBBS5e0U_3std3sys7process4unix6commonNtB5_11CommandArgsNtNtNtNtCs1GuMdp1PKBr_4core4iter6traits8iterator8Iterator9size_hint
libmozjs128-debug.so:_RNvXsc_NtCs1GuMdp1PKBr_4core3patmNtB5_12RangePattern7sub_one
libmozjs128-debug.so:_RNvXsc_NtCsh60fBBS5e0U_3std2fsNtB5_4FileNtNtB7_2io4Seek10stream_len
libmozjs128-debug.so:_RNvXsc_NtCsh60fBBS5e0U_3std2fsNtB5_4FileNtNtB7_2io4Seek15stream_position
libmozjs128-debug.so:_RNvXsc_NtCsh60fBBS5e0U_3std2fsNtB5_4FileNtNtB7_2io4Seek4seek
libmozjs128-debug.so:_RNvXsc_NtCsh60fBBS5e0U_3std3envNtB5_4ArgsNtNtNtNtCs1GuMdp1PKBr_4core4iter6traits12double_ended19DoubleEndedIterator9next_back
libmozjs128-debug.so:_RNvXsc_NtNtCs1GuMdp1PKBr_4core3fmt3numhNtB7_5Octal3fmt
libmozjs128-debug.so:_RNvXsc_NtNtCs1GuMdp1PKBr_4core3fmt5floatC3f16NtB7_8LowerExp3fmt
libmozjs128-debug.so:_RNvXsc_NtNtCs1GuMdp1PKBr_4core3num11niche_typesNtB5_11NanosecondsNtNtB9_3fmt5Debug3fmt
libmozjs128-debug.so:_RNvXsc_NtNtNtCsh60fBBS5e0U_3std3sys2fs4unixNtB5_7ReadDirNtNtCs1GuMdp1PKBr_4core3fmt5Debug3fmt
libmozjs128-debug.so:_RNvXsc_NtNtNtNtCsh60fBBS5e0U_3std3sys3net10connection6socketNtB5_9UdpSocketNtNtCs1GuMdp1PKBr_4core3fmt5Debug3fmt
libmozjs128-debug.so:_RNvXsc_NtNtNtNtCsh60fBBS5e0U_3std3sys7process4unix6commonNtB5_11CommandArgsNtNtNtNtCs1GuMdp1PKBr_4core4iter6traits10exact_size17ExactSizeIterator3len
libmozjs128-debug.so:_RNvXsd_NtCs1GuMdp1PKBr_4core3patyNtB5_12RangePattern7sub_one
libmozjs128-debug.so:_RNvXsd_NtCs1GuMdp1PKBr_4core4wtf8NtB5_10EncodeWideNtNtB7_3fmt5Debug3fmt
libmozjs128-debug.so:_RNvXsd_NtCse7kRp5EpEcX_5alloc5boxedINtB5_3BoxeENtNtCs1GuMdp1PKBr_4core5clone5Clone5clone
libmozjs128-debug.so:_RNvXsd_NtCsh60fBBS5e0U_3std2fsINtNtCse7kRp5EpEcX_5alloc4sync3ArcNtB5_4FileENtNtB7_2io4Read11read_to_end
libmozjs128-debug.so:_RNvXsd_NtCsh60fBBS5e0U_3std2fsINtNtCse7kRp5EpEcX_5alloc4sync3ArcNtB5_4FileENtNtB7_2io4Read13read_vectored
libmozjs128-debug.so:_RNvXsd_NtCsh60fBBS5e0U_3std2fsINtNtCse7kRp5EpEcX_5alloc4sync3ArcNtB5_4FileENtNtB7_2io4Read14read_to_string
libmozjs128-debug.so:_RNvXsd_NtCsh60fBBS5e0U_3std2fsINtNtCse7kRp5EpEcX_5alloc4sync3ArcNtB5_4FileENtNtB7_2io4Read4read
libmozjs128-debug.so:_RNvXsd_NtCsh60fBBS5e0U_3std2fsINtNtCse7kRp5EpEcX_5alloc4sync3ArcNtB5_4FileENtNtB7_2io4Read8read_buf
libmozjs128-debug.so:_RNvXsd_NtCsh60fBBS5e0U_3std3envNtB5_4ArgsNtNtCs1GuMdp1PKBr_4core3fmt5Debug3fmt
libmozjs128-debug.so:_RNvXsd_NtCsh60fBBS5e0U_3std4timeNtB5_15SystemTimeErrorNtNtCs1GuMdp1PKBr_4core3fmt7Display3fmt
libmozjs128-debug.so:_RNvXsd_NtCsh60fBBS5e0U_3std7processNtB5_11ChildStdoutNtNtCs1GuMdp1PKBr_4core3fmt5Debug3fmt
libmozjs128-debug.so:_RNvXsd_NtNtCs1GuMdp1PKBr_4core3fmt3numaNtB7_5Octal3fmt
libmozjs128-debug.so:_RNvXsd_NtNtCs1GuMdp1PKBr_4core3fmt5floatC3f16NtB7_8UpperExp3fmt
libmozjs128-debug.so:_RNvXsd_NtNtCsh60fBBS5e0U_3std2io5stdioNtB5_6StdoutNtNtCs1GuMdp1PKBr_4core3fmt5Debug3fmt
libmozjs128-debug.so:_RNvXsd_NtNtNtCs1GuMdp1PKBr_4core3fmt3num3impyNtB9_7Display3fmt
libmozjs128-debug.so:_RNvXsd_NtNtNtCsh60fBBS5e0U_3std3sys2fs4unixNtB5_7ReadDirNtNtNtNtCs1GuMdp1PKBr_4core4iter6traits8iterator8Iterator4next
libmozjs128-debug.so:_RNvXsd_NtNtNtNtCsh60fBBS5e0U_3std3sys7process4unix6commonNtB5_11CommandArgsNtNtCs1GuMdp1PKBr_4core3fmt5Debug3fmt
libmozjs128-debug.so:_RNvXse_NtCs1GuMdp1PKBr_4core3patoNtB5_12RangePattern7sub_one
libmozjs128-debug.so:_RNvXse_NtCs1GuMdp1PKBr_4core4charNtB5_15CaseMappingIterNtNtNtNtB7_4iter6traits8iterator8Iterator10advance_by
libmozjs128-debug.so:_RNvXse_NtCs1GuMdp1PKBr_4core4charNtB5_15CaseMappingIterNtNtNtNtB7_4iter6traits8iterator8Iterator24___iterator_get_unchecked
libmozjs128-debug.so:_RNvXse_NtCs1GuMdp1PKBr_4core4charNtB5_15CaseMappingIterNtNtNtNtB7_4iter6traits8iterator8Iterator4last
libmozjs128-debug.so:_RNvXse_NtCs1GuMdp1PKBr_4core4charNtB5_15CaseMappingIterNtNtNtNtB7_4iter6traits8iterator8Iterator4next
libmozjs128-debug.so:_RNvXse_NtCs1GuMdp1PKBr_4core4charNtB5_15CaseMappingIterNtNtNtNtB7_4iter6traits8iterator8Iterator5count
libmozjs128-debug.so:_RNvXse_NtCsh60fBBS5e0U_3std2fsINtNtCse7kRp5EpEcX_5alloc4sync3ArcNtB5_4FileENtNtB7_2io5Write14write_vectored
libmozjs128-debug.so:_RNvXse_NtCsh60fBBS5e0U_3std2fsINtNtCse7kRp5EpEcX_5alloc4sync3ArcNtB5_4FileENtNtB7_2io5Write5write
libmozjs128-debug.so:_RNvXse_NtCsh60fBBS5e0U_3std7processNtB5_11ChildStderrNtNtB7_2io4Read11read_to_end
libmozjs128-debug.so:_RNvXse_NtCsh60fBBS5e0U_3std7processNtB5_11ChildStderrNtNtB7_2io4Read13read_vectored
libmozjs128-debug.so:_RNvXse_NtCsh60fBBS5e0U_3std7processNtB5_11ChildStderrNtNtB7_2io4Read4read
libmozjs128-debug.so:_RNvXse_NtCsh60fBBS5e0U_3std7processNtB5_11ChildStderrNtNtB7_2io4Read8read_buf
libmozjs128-debug.so:_RNvXse_NtNtCs1GuMdp1PKBr_4core3fmt3numhNtB7_8LowerHex3fmt
libmozjs128-debug.so:_RNvXse_NtNtCsh60fBBS5e0U_3std2io5stdioNtB5_6StdoutNtB7_5Write14write_vectored
libmozjs128-debug.so:_RNvXse_NtNtCsh60fBBS5e0U_3std2io5stdioNtB5_6StdoutNtB7_5Write18write_all_vectored
libmozjs128-debug.so:_RNvXse_NtNtCsh60fBBS5e0U_3std2io5stdioNtB5_6StdoutNtB7_5Write5flush
libmozjs128-debug.so:_RNvXse_NtNtCsh60fBBS5e0U_3std2io5stdioNtB5_6StdoutNtB7_5Write5write
libmozjs128-debug.so:_RNvXse_NtNtCsh60fBBS5e0U_3std2io5stdioNtB5_6StdoutNtB7_5Write9write_all
libmozjs128-debug.so:_RNvXse_NtNtCsh60fBBS5e0U_3std2io5stdioNtB5_6StdoutNtB7_5Write9write_fmt
libmozjs128-debug.so:_RNvXse_NtNtNtCs1GuMdp1PKBr_4core3fmt3num3impxNtB9_7Display3fmt
libmozjs128-debug.so:_RNvXse_NtNtNtCsh60fBBS5e0U_3std3sys2fs4unixNtB5_3DirNtNtNtCs1GuMdp1PKBr_4core3ops4drop4Drop4drop
libmozjs128-debug.so:_RNvXsf_NtCs1GuMdp1PKBr_4core3fmtbNtB5_7Display3fmt
libmozjs128-debug.so:_RNvXsf_NtCs1GuMdp1PKBr_4core3patjNtB5_12RangePattern7sub_one
libmozjs128-debug.so:_RNvXsf_NtCs1GuMdp1PKBr_4core4charNtB5_15CaseMappingIterNtNtNtNtB7_4iter6traits12double_ended19DoubleEndedIterator15advance_back_by
libmozjs128-debug.so:_RNvXsf_NtCs1GuMdp1PKBr_4core4charNtB5_15CaseMappingIterNtNtNtNtB7_4iter6traits12double_ended19DoubleEndedIterator9next_back
libmozjs128-debug.so:_RNvXsf_NtCsh60fBBS5e0U_3std2fsINtNtCse7kRp5EpEcX_5alloc4sync3ArcNtB5_4FileENtNtB7_2io4Seek10stream_len
libmozjs128-debug.so:_RNvXsf_NtCsh60fBBS5e0U_3std2fsINtNtCse7kRp5EpEcX_5alloc4sync3ArcNtB5_4FileENtNtB7_2io4Seek15stream_position
libmozjs128-debug.so:_RNvXsf_NtCsh60fBBS5e0U_3std2fsINtNtCse7kRp5EpEcX_5alloc4sync3ArcNtB5_4FileENtNtB7_2io4Seek4seek
libmozjs128-debug.so:_RNvXsf_NtNtCs1GuMdp1PKBr_4core3fmt3numaNtB7_8LowerHex3fmt
libmozjs128-debug.so:_RNvXsf_NtNtCs1GuMdp1PKBr_4core4task4wakeNtB5_10LocalWakerNtNtB9_3fmt5Debug3fmt
libmozjs128-debug.so:_RNvXsf_NtNtCsh60fBBS5e0U_3std2io5stdioRNtB5_6StdoutNtB7_5Write14write_vectored
libmozjs128-debug.so:_RNvXsf_NtNtCsh60fBBS5e0U_3std2io5stdioRNtB5_6StdoutNtB7_5Write18write_all_vectored
libmozjs128-debug.so:_RNvXsf_NtNtCsh60fBBS5e0U_3std2io5stdioRNtB5_6StdoutNtB7_5Write5flush
libmozjs128-debug.so:_RNvXsf_NtNtCsh60fBBS5e0U_3std2io5stdioRNtB5_6StdoutNtB7_5Write5write
libmozjs128-debug.so:_RNvXsf_NtNtCsh60fBBS5e0U_3std2io5stdioRNtB5_6StdoutNtB7_5Write9write_all
libmozjs128-debug.so:_RNvXsf_NtNtCsh60fBBS5e0U_3std2io5stdioRNtB5_6StdoutNtB7_5Write9write_fmt
libmozjs128-debug.so:_RNvXsf_NtNtCsh60fBBS5e0U_3std3net3tcpNtB5_11TcpListenerNtNtCs1GuMdp1PKBr_4core3fmt5Debug3fmt
libmozjs128-debug.so:_RNvXsf_NtNtNtCsh60fBBS5e0U_3std2os2fd3rawNtNtNtBb_2io4pipe10PipeReaderNtB5_9FromRawFd11from_raw_fd
libmozjs128-debug.so:_RNvXsg_NtCs1GuMdp1PKBr_4core3fmteNtB5_5Debug3fmt
libmozjs128-debug.so:_RNvXsg_NtNtCs1GuMdp1PKBr_4core3fmt3numhNtB7_8UpperHex3fmt
libmozjs128-debug.so:_RNvXsh_NtCs1GuMdp1PKBr_4core3fmteNtB5_7Display3fmt
libmozjs128-debug.so:_RNvXsh_NtCse7kRp5EpEcX_5alloc6borrowINtB5_3CoweEINtNtNtCs1GuMdp1PKBr_4core3ops5arith9AddAssignReE10add_assign
libmozjs128-debug.so:_RNvXsh_NtNtCs1GuMdp1PKBr_4core3fmt3numaNtB7_8UpperHex3fmt
libmozjs128-debug.so:_RNvXsh_NtNtNtCsh60fBBS5e0U_3std3sys2fs4unixNtB5_11OpenOptionsNtNtCs1GuMdp1PKBr_4core3fmt5Debug3fmt
libmozjs128-debug.so:_RNvXsi_NtCs1GuMdp1PKBr_4core3fmtcNtB5_5Debug3fmt
libmozjs128-debug.so:_RNvXsi_NtCse7kRp5EpEcX_5alloc6borrowINtB5_3CoweENtNtNtCs1GuMdp1PKBr_4core3ops5arith9AddAssign10add_assign
libmozjs128-debug.so:_RNvXsi_NtCsh60fBBS5e0U_3std4pathNtB5_10ComponentsNtNtNtNtCs1GuMdp1PKBr_4core4iter6traits8iterator8Iterator4next
libmozjs128-debug.so:_RNvXsi_NtCsh60fBBS5e0U_3std7processNtB5_11ChildStderrNtNtCs1GuMdp1PKBr_4core3fmt5Debug3fmt
libmozjs128-debug.so:_RNvXsi_NtNtCs1GuMdp1PKBr_4core3fmt3numtNtB7_6Binary3fmt
libmozjs128-debug.so:_RNvXsi_NtNtCse7kRp5EpEcX_5alloc5boxed7convertINtB7_3BoxDNtNtCs1GuMdp1PKBr_4core5error5ErrorEL_EINtNtBW_7convert4FromNtNtB9_6string6StringE4from
libmozjs128-debug.so:_RNvXsi_NtNtCsh60fBBS5e0U_3std2io5stdioNtB5_10StdoutLockNtB7_5Write14write_vectored
libmozjs128-debug.so:_RNvXsi_NtNtCsh60fBBS5e0U_3std2io5stdioNtB5_10StdoutLockNtB7_5Write18write_all_vectored
libmozjs128-debug.so:_RNvXsi_NtNtCsh60fBBS5e0U_3std2io5stdioNtB5_10StdoutLockNtB7_5Write5flush
libmozjs128-debug.so:_RNvXsi_NtNtCsh60fBBS5e0U_3std2io5stdioNtB5_10StdoutLockNtB7_5Write5write
libmozjs128-debug.so:_RNvXsi_NtNtCsh60fBBS5e0U_3std2io5stdioNtB5_10StdoutLockNtB7_5Write9write_all
libmozjs128-debug.so:_RNvXsi_NtNtNtCs1GuMdp1PKBr_4core3fmt3num3impjNtB9_7Display3fmt
libmozjs128-debug.so:_RNvXsi_NtNtNtCsh60fBBS5e0U_3std2os2fd3rawNtNtNtBb_2io4pipe10PipeWriterNtB5_9FromRawFd11from_raw_fd
libmozjs128-debug.so:_RNvXsj_NtCs1GuMdp1PKBr_4core3fmtcNtB5_7Display3fmt
libmozjs128-debug.so:_RNvXsj_NtCsh60fBBS5e0U_3std3envNtB5_6ArgsOsNtNtCs1GuMdp1PKBr_4core3fmt5Debug3fmt
libmozjs128-debug.so:_RNvXsj_NtCsh60fBBS5e0U_3std4pathNtB5_10ComponentsNtNtNtNtCs1GuMdp1PKBr_4core4iter6traits12double_ended19DoubleEndedIterator9next_back
libmozjs128-debug.so:_RNvXsj_NtNtCs1GuMdp1PKBr_4core3fmt3numsNtB7_6Binary3fmt
libmozjs128-debug.so:_RNvXsj_NtNtCs1GuMdp1PKBr_4core3net7ip_addrNtB5_8Ipv6AddrNtNtB9_3fmt7Display3fmt
libmozjs128-debug.so:_RNvXsj_NtNtCsh60fBBS5e0U_3std2io5stdioNtB5_10StdoutLockNtNtCs1GuMdp1PKBr_4core3fmt5Debug3fmt
libmozjs128-debug.so:_RNvXsj_NtNtNtCs1GuMdp1PKBr_4core3fmt3num3impiNtB9_7Display3fmt
libmozjs128-debug.so:_RNvXsk_NtCsh60fBBS5e0U_3std2fsNtB5_8MetadataNtNtCs1GuMdp1PKBr_4core3fmt5Debug3fmt
libmozjs128-debug.so:_RNvXsk_NtNtCs1GuMdp1PKBr_4core3fmt3numtNtB7_5Octal3fmt
libmozjs128-debug.so:_RNvXsk_NtNtCs1GuMdp1PKBr_4core3net7ip_addrNtB5_8Ipv6AddrNtNtB9_3fmt5Debug3fmt
libmozjs128-debug.so:_RNvXsk_NtNtCse7kRp5EpEcX_5alloc5boxed7convertINtB7_3BoxDNtNtCs1GuMdp1PKBr_4core5error5ErrorEL_EINtNtBW_7convert4FromReE4from
libmozjs128-debug.so:_RNvXsk_NtNtCsh60fBBS5e0U_3std3ffi6os_strNtB5_8OsStringNtNtCs1GuMdp1PKBr_4core3fmt5Write9write_str
libmozjs128-debug.so:_RNvXsk_NtNtNtCsh60fBBS5e0U_3std3sys2fs4unixNtB5_10DirBuilderNtNtCs1GuMdp1PKBr_4core3fmt5Debug3fmt
libmozjs128-debug.so:_RNvXsl_NtCse7kRp5EpEcX_5alloc6stringRNtB5_6StringNtNtNtCs1GuMdp1PKBr_4core3str7pattern7Pattern13into_searcher
libmozjs128-debug.so:_RNvXsl_NtCsh60fBBS5e0U_3std7processNtB5_7CommandNtNtCs1GuMdp1PKBr_4core3fmt5Debug3fmt
libmozjs128-debug.so:_RNvXsl_NtNtCs1GuMdp1PKBr_4core3fmt3numsNtB7_5Octal3fmt
libmozjs128-debug.so:_RNvXsl_NtNtCse7kRp5EpEcX_5alloc5boxed7convertINtB7_3BoxDNtNtCs1GuMdp1PKBr_4core5error5ErrorNtNtBW_6marker4SendNtB1t_4SyncEL_EINtNtBW_7convert4FromINtNtB9_6borrow3CoweEE4from
libmozjs128-debug.so:_RNvXsm_NtCs1GuMdp1PKBr_4core4charNtB5_16TryFromCharErrorNtNtB7_3fmt7Display3fmt
libmozjs128-debug.so:_RNvXsm_NtNtCs1GuMdp1PKBr_4core3fmt3numtNtB7_8LowerHex3fmt
libmozjs128-debug.so:_RNvXsm_NtNtCs1GuMdp1PKBr_4core3num11niche_typesNtB5_14NonZeroU8InnerNtNtB9_3fmt5Debug3fmt
libmozjs128-debug.so:_RNvXsm_NtNtCse7kRp5EpEcX_5alloc5boxed7convertINtB7_3BoxDNtNtCs1GuMdp1PKBr_4core5error5ErrorEL_EINtNtBW_7convert4FromINtNtB9_6borrow3CoweEE4from
libmozjs128-debug.so:_RNvXsm_NtNtNtNtCsh60fBBS5e0U_3std3sys3pal4unix11kernel_copyNtNtNtBd_2io5stdio9StdinLockNtB5_8CopyRead10properties
libmozjs128-debug.so:_RNvXsn_NtCs1GuMdp1PKBr_4core4cellNtB5_11BorrowErrorNtNtB7_3fmt7Display3fmt
libmozjs128-debug.so:_RNvXsn_NtCse7kRp5EpEcX_5alloc3vecINtB5_3VecNtNtNtCsl4XjPnlmSxw_5gimli4read6abbrev22AttributeSpecificationENtNtNtCs1GuMdp1PKBr_4core3ops4drop4Drop4dropBL_
libmozjs128-debug.so:_RNvXsn_NtCse7kRp5EpEcX_5alloc3vecINtB5_3VechENtNtNtCs1GuMdp1PKBr_4core3ops4drop4Drop4dropCsl4XjPnlmSxw_5gimli
libmozjs128-debug.so:_RNvXsn_NtNtCs1GuMdp1PKBr_4core3fmt3numsNtB7_8LowerHex3fmt
libmozjs128-debug.so:_RNvXsn_NtNtCsh60fBBS5e0U_3std2io5stdioNtB5_6StderrNtNtCs1GuMdp1PKBr_4core3fmt5Debug3fmt
libmozjs128-debug.so:_RNvXsn_NtNtCsh60fBBS5e0U_3std4sync4mpscNtB5_9RecvErrorNtNtCs1GuMdp1PKBr_4core3fmt7Display3fmt
libmozjs128-debug.so:_RNvXsn_NtNtNtCs1GuMdp1PKBr_4core3fmt3num3impaNtB9_8LowerExp3fmt
libmozjs128-debug.so:_RNvXsn_NtNtNtNtCsh60fBBS5e0U_3std3sys3pal4unix11kernel_copyNtNtNtBd_2io5stdio10StdoutLockNtB5_9CopyWrite10properties
libmozjs128-debug.so:_RNvXso_NtCs1GuMdp1PKBr_4core4cellNtB5_14BorrowMutErrorNtNtB7_3fmt7Display3fmt
libmozjs128-debug.so:_RNvXso_NtCsh60fBBS5e0U_3std7processNtB5_11CommandArgsNtNtNtNtCs1GuMdp1PKBr_4core4iter6traits8iterator8Iterator4next
libmozjs128-debug.so:_RNvXso_NtCsh60fBBS5e0U_3std7processNtB5_11CommandArgsNtNtNtNtCs1GuMdp1PKBr_4core4iter6traits8iterator8Iterator9size_hint
libmozjs128-debug.so:_RNvXso_NtNtCs1GuMdp1PKBr_4core3fmt3numtNtB7_8UpperHex3fmt
libmozjs128-debug.so:_RNvXso_NtNtCsh60fBBS5e0U_3std2io5stdioNtB5_6StderrNtB7_5Write14write_vectored
libmozjs128-debug.so:_RNvXso_NtNtCsh60fBBS5e0U_3std2io5stdioNtB5_6StderrNtB7_5Write18write_all_vectored
libmozjs128-debug.so:_RNvXso_NtNtCsh60fBBS5e0U_3std2io5stdioNtB5_6StderrNtB7_5Write5flush
libmozjs128-debug.so:_RNvXso_NtNtCsh60fBBS5e0U_3std2io5stdioNtB5_6StderrNtB7_5Write5write
libmozjs128-debug.so:_RNvXso_NtNtCsh60fBBS5e0U_3std2io5stdioNtB5_6StderrNtB7_5Write9write_all
libmozjs128-debug.so:_RNvXso_NtNtCsh60fBBS5e0U_3std2io5stdioNtB5_6StderrNtB7_5Write9write_fmt
libmozjs128-debug.so:_RNvXso_NtNtNtCs1GuMdp1PKBr_4core3fmt3num3imphNtB9_8LowerExp3fmt
libmozjs128-debug.so:_RNvXso_NtNtNtNtCsh60fBBS5e0U_3std3sys3pal4unix11kernel_copyNtNtNtBd_2io5stdio10StderrLockNtB5_9CopyWrite10properties
libmozjs128-debug.so:_RNvXsp_NtCsh60fBBS5e0U_3std7processNtB5_11CommandArgsNtNtNtNtCs1GuMdp1PKBr_4core4iter6traits10exact_size17ExactSizeIterator3len
libmozjs128-debug.so:_RNvXsp_NtNtCs1GuMdp1PKBr_4core3fmt3numsNtB7_8UpperHex3fmt
libmozjs128-debug.so:_RNvXsp_NtNtCsh60fBBS5e0U_3std2io5stdioRNtB5_6StderrNtB7_5Write14write_vectored
libmozjs128-debug.so:_RNvXsp_NtNtCsh60fBBS5e0U_3std2io5stdioRNtB5_6StderrNtB7_5Write18write_all_vectored
libmozjs128-debug.so:_RNvXsp_NtNtCsh60fBBS5e0U_3std2io5stdioRNtB5_6StderrNtB7_5Write5flush
libmozjs128-debug.so:_RNvXsp_NtNtCsh60fBBS5e0U_3std2io5stdioRNtB5_6StderrNtB7_5Write5write
libmozjs128-debug.so:_RNvXsp_NtNtCsh60fBBS5e0U_3std2io5stdioRNtB5_6StderrNtB7_5Write9write_all
libmozjs128-debug.so:_RNvXsp_NtNtCsh60fBBS5e0U_3std2io5stdioRNtB5_6StderrNtB7_5Write9write_fmt
libmozjs128-debug.so:_RNvXsp_NtNtCsh60fBBS5e0U_3std4sync4mpscNtB5_12TryRecvErrorNtNtCs1GuMdp1PKBr_4core3fmt7Display3fmt
libmozjs128-debug.so:_RNvXsp_NtNtNtCs1GuMdp1PKBr_4core3fmt3num3impaNtB9_8UpperExp3fmt
libmozjs128-debug.so:_RNvXsq_NtCs1GuMdp1PKBr_4core3fmtSNtNtNtCsl4XjPnlmSxw_5gimli4read6abbrev22AttributeSpecificationNtB5_5Debug3fmtBB_
libmozjs128-debug.so:_RNvXsq_NtCs1GuMdp1PKBr_4core3fmtShNtB5_5Debug3fmtCsezTIWZHnNQ7_14rustc_demangle
libmozjs128-debug.so:_RNvXsq_NtCsh60fBBS5e0U_3std7processNtB5_11CommandEnvsNtNtNtNtCs1GuMdp1PKBr_4core4iter6traits8iterator8Iterator4next
libmozjs128-debug.so:_RNvXsq_NtNtCs1GuMdp1PKBr_4core3fmt3nummNtB7_6Binary3fmt
libmozjs128-debug.so:_RNvXsq_NtNtCse7kRp5EpEcX_5alloc3ffi5c_strINtNtB9_5boxed3BoxNtNtNtCs1GuMdp1PKBr_4core3ffi5c_str4CStrENtNtB11_7default7Default7default
libmozjs128-debug.so:_RNvXsq_NtNtNtCs1GuMdp1PKBr_4core3fmt3num3imphNtB9_8UpperExp3fmt
libmozjs128-debug.so:_RNvXsr_NtNtCs1GuMdp1PKBr_4core3fmt3numlNtB7_6Binary3fmt
libmozjs128-debug.so:_RNvXsr_NtNtNtCs1GuMdp1PKBr_4core3fmt3num3impsNtB9_8LowerExp3fmt
libmozjs128-debug.so:_RNvXss_NtCsh60fBBS5e0U_3std2fsNtB5_8FileTypeNtNtCs1GuMdp1PKBr_4core3fmt5Debug3fmt
libmozjs128-debug.so:_RNvXss_NtCsh60fBBS5e0U_3std7processNtB5_11CommandEnvsNtNtCs1GuMdp1PKBr_4core3fmt5Debug3fmt
libmozjs128-debug.so:_RNvXss_NtNtCs1GuMdp1PKBr_4core3fmt3nummNtB7_5Octal3fmt
libmozjs128-debug.so:_RNvXss_NtNtCse7kRp5EpEcX_5alloc3ffi5c_strNtB5_8NulErrorNtNtCs1GuMdp1PKBr_4core3fmt7Display3fmt
libmozjs128-debug.so:_RNvXss_NtNtCsh60fBBS5e0U_3std2io5stdioNtB5_10StderrLockNtB7_5Write14write_vectored
libmozjs128-debug.so:_RNvXss_NtNtCsh60fBBS5e0U_3std2io5stdioNtB5_10StderrLockNtB7_5Write18write_all_vectored
libmozjs128-debug.so:_RNvXss_NtNtCsh60fBBS5e0U_3std2io5stdioNtB5_10StderrLockNtB7_5Write5flush
libmozjs128-debug.so:_RNvXss_NtNtCsh60fBBS5e0U_3std2io5stdioNtB5_10StderrLockNtB7_5Write5write
libmozjs128-debug.so:_RNvXss_NtNtCsh60fBBS5e0U_3std2io5stdioNtB5_10StderrLockNtB7_5Write9write_all
libmozjs128-debug.so:_RNvXss_NtNtCsh60fBBS5e0U_3std4sync4mpscNtB5_16RecvTimeoutErrorNtNtCs1GuMdp1PKBr_4core3fmt7Display3fmt
libmozjs128-debug.so:_RNvXss_NtNtNtCs1GuMdp1PKBr_4core3fmt3num3imptNtB9_8LowerExp3fmt
libmozjs128-debug.so:_RNvXss_NtNtNtCsh60fBBS5e0U_3std3sys2fs4unixNtB5_4FileNtNtNtNtBb_2os2fd3raw9FromRawFd11from_raw_fd
libmozjs128-debug.so:_RNvXst_NtCsh60fBBS5e0U_3std4pathINtNtCse7kRp5EpEcX_5alloc5boxed3BoxNtB5_4PathEINtNtCs1GuMdp1PKBr_4core7convert4FromRB13_E4from
libmozjs128-debug.so:_RNvXst_NtNtCs1GuMdp1PKBr_4core3fmt3numlNtB7_5Octal3fmt
libmozjs128-debug.so:_RNvXst_NtNtCs1GuMdp1PKBr_4core3num11niche_typesNtB5_15NonZeroU16InnerNtNtB9_3fmt5Debug3fmt
libmozjs128-debug.so:_RNvXst_NtNtCse7kRp5EpEcX_5alloc3ffi5c_strNtB5_19FromVecWithNulErrorNtNtCs1GuMdp1PKBr_4core3fmt7Display3fmt
libmozjs128-debug.so:_RNvXst_NtNtCsh60fBBS5e0U_3std2io5stdioNtB5_10StderrLockNtNtCs1GuMdp1PKBr_4core3fmt5Debug3fmt
libmozjs128-debug.so:_RNvXst_NtNtNtCs1GuMdp1PKBr_4core3fmt3num3impsNtB9_8UpperExp3fmt
libmozjs128-debug.so:_RNvXst_NtNtNtCsh60fBBS5e0U_3std3sys2fs4unixNtB5_4FileNtNtCs1GuMdp1PKBr_4core3fmt5Debug3fmt
libmozjs128-debug.so:_RNvXsu_NtCs1GuMdp1PKBr_4core4charNtB5_11ToLowercaseNtNtNtNtB7_4iter6traits8iterator8Iterator10advance_by
libmozjs128-debug.so:_RNvXsu_NtCs1GuMdp1PKBr_4core4charNtB5_11ToLowercaseNtNtNtNtB7_4iter6traits8iterator8Iterator24___iterator_get_unchecked
libmozjs128-debug.so:_RNvXsu_NtCs1GuMdp1PKBr_4core4charNtB5_11ToLowercaseNtNtNtNtB7_4iter6traits8iterator8Iterator4last
libmozjs128-debug.so:_RNvXsu_NtCs1GuMdp1PKBr_4core4charNtB5_11ToLowercaseNtNtNtNtB7_4iter6traits8iterator8Iterator4next
libmozjs128-debug.so:_RNvXsu_NtCs1GuMdp1PKBr_4core4charNtB5_11ToLowercaseNtNtNtNtB7_4iter6traits8iterator8Iterator5count
libmozjs128-debug.so:_RNvXsu_NtCsh60fBBS5e0U_3std4pathINtNtCse7kRp5EpEcX_5alloc5boxed3BoxNtB5_4PathEINtNtCs1GuMdp1PKBr_4core7convert4FromQB13_E4from
libmozjs128-debug.so:_RNvXsu_NtCsh60fBBS5e0U_3std7processNtB5_6OutputNtNtCs1GuMdp1PKBr_4core3fmt5Debug3fmt
libmozjs128-debug.so:_RNvXsu_NtNtCs1GuMdp1PKBr_4core3fmt3nummNtB7_8LowerHex3fmt
libmozjs128-debug.so:_RNvXsu_NtNtNtCs1GuMdp1PKBr_4core3fmt3num3imptNtB9_8UpperExp3fmt
libmozjs128-debug.so:_RNvXsu_NtNtNtCsh60fBBS5e0U_3std3sys2fs4unixNtB5_4ModeNtNtCs1GuMdp1PKBr_4core3fmt5Debug3fmt
libmozjs128-debug.so:_RNvXsv_NtCs1GuMdp1PKBr_4core4charNtB5_11ToLowercaseNtNtNtNtB7_4iter6traits12double_ended19DoubleEndedIterator15advance_back_by
libmozjs128-debug.so:_RNvXsv_NtCs1GuMdp1PKBr_4core4charNtB5_11ToLowercaseNtNtNtNtB7_4iter6traits12double_ended19DoubleEndedIterator9next_back
libmozjs128-debug.so:_RNvXsv_NtNtCs1GuMdp1PKBr_4core3fmt3numlNtB7_8LowerHex3fmt
libmozjs128-debug.so:_RNvXsv_NtNtCse7kRp5EpEcX_5alloc3ffi5c_strNtB5_15IntoStringErrorNtNtCs1GuMdp1PKBr_4core3fmt7Display3fmt
libmozjs128-debug.so:_RNvXsv_NtNtNtCs1GuMdp1PKBr_4core3fmt3num3implNtB9_8LowerExp3fmt
libmozjs128-debug.so:_RNvXsw_NtCsh60fBBS5e0U_3std2fsNtB5_7ReadDirNtNtNtNtCs1GuMdp1PKBr_4core4iter6traits8iterator8Iterator4next
libmozjs128-debug.so:_RNvXsw_NtNtCs1GuMdp1PKBr_4core3fmt3nummNtB7_8UpperHex3fmt
libmozjs128-debug.so:_RNvXsw_NtNtCse7kRp5EpEcX_5alloc3ffi5c_strNtNtNtCs1GuMdp1PKBr_4core3ffi5c_str4CStrNtNtB9_6borrow7ToOwned10clone_into
libmozjs128-debug.so:_RNvXsw_NtNtCse7kRp5EpEcX_5alloc3ffi5c_strNtNtNtCs1GuMdp1PKBr_4core3ffi5c_str4CStrNtNtB9_6borrow7ToOwned8to_owned
libmozjs128-debug.so:_RNvXsw_NtNtNtCs1GuMdp1PKBr_4core3fmt3num3impmNtB9_8LowerExp3fmt
libmozjs128-debug.so:_RNvXsx_NtCsh60fBBS5e0U_3std7processNtB5_5StdioNtNtCs1GuMdp1PKBr_4core3fmt5Debug3fmt
libmozjs128-debug.so:_RNvXsx_NtNtCs1GuMdp1PKBr_4core3fmt3numlNtB7_8UpperHex3fmt
libmozjs128-debug.so:_RNvXsx_NtNtCse7kRp5EpEcX_5alloc3ffi5c_strNtB5_7CStringINtNtCs1GuMdp1PKBr_4core7convert4FromRNtNtNtBV_3ffi5c_str4CStrE4from
libmozjs128-debug.so:_RNvXsx_NtNtNtCs1GuMdp1PKBr_4core3fmt3num3implNtB9_8UpperExp3fmt
libmozjs128-debug.so:_RNvXsy_NtCsh60fBBS5e0U_3std2fsNtB5_8DirEntryNtNtCs1GuMdp1PKBr_4core3fmt5Debug3fmt
libmozjs128-debug.so:_RNvXsy_NtNtCs1GuMdp1PKBr_4core3fmt3numyNtB7_6Binary3fmt
libmozjs128-debug.so:_RNvXsy_NtNtNtCs1GuMdp1PKBr_4core3fmt3num3impmNtB9_8UpperExp3fmt
libmozjs128-debug.so:_RNvXsy_NtNtNtCsh60fBBS5e0U_3std2os2fd5ownedNtNtNtBb_2io4pipe10PipeReaderNtB5_4AsFd5as_fd
libmozjs128-debug.so:_RNvXsz_NtNtCs1GuMdp1PKBr_4core3fmt3numxNtB7_6Binary3fmt
libmozjs128-debug.so:_RNvXsz_NtNtNtCs1GuMdp1PKBr_4core3fmt3num3impxNtB9_8LowerExp3fmt
libmozjs128-debug.so:_RNvYINtCsezTIWZHnNQ7_14rustc_demangle21SizeLimitedFmtAdapterQNtNtCs1GuMdp1PKBr_4core3fmt9FormatterENtBZ_5Write10write_charB5_
libmozjs128-debug.so:_RNvYINtCsezTIWZHnNQ7_14rustc_demangle21SizeLimitedFmtAdapterQNtNtCs1GuMdp1PKBr_4core3fmt9FormatterENtBZ_5Write9write_fmtB5_
libmozjs128-debug.so:_RNvYINtNtNtCs1GuMdp1PKBr_4core5slice4iter4ItertENtNtNtNtB9_4iter8adapters3zip27TrustedRandomAccessNoCoerce4sizeCs9zevlwxmzUZ_11miniz_oxide
libmozjs128-debug.so:_RNvYINtNtNtCs1GuMdp1PKBr_4core5slice4iter7IterMutmENtNtNtNtB9_4iter8adapters3zip27TrustedRandomAccessNoCoerce4sizeCs9zevlwxmzUZ_11miniz_oxide
libmozjs128-debug.so:_Z10JS_MaybeGCP9JSContext
libmozjs128-debug.so:_Z10JS_reallocP9JSContextPvmm
libmozjs128-debug.so:_Z11JS_IsNativeP8JSObject
libmozjs128-debug.so:_Z11JS_ShutDownv
libmozjs128-debug.so:_Z11JS_smprintfPKcz
libmozjs128-debug.so:_Z11js_StopPerfv
libmozjs128-debug.so:_Z12JS_CharsToIdP9JSContextN2JS12TwoByteCharsENS1_13MutableHandleINS1_11PropertyKeyEEE
libmozjs128-debug.so:_Z12JS_EnumerateP9JSContextN2JS6HandleIP8JSObjectEENS1_13MutableHandleINS1_8GCVectorINS1_11PropertyKeyELm0EN2js15TempAllocPolicyEEEEE
libmozjs128-debug.so:_Z12JS_IdToValueP9JSContextN2JS11PropertyKeyENS1_13MutableHandleINS1_5ValueEEE
libmozjs128-debug.so:_Z12JS_IndexToIdP9JSContextjN2JS13MutableHandleINS1_11PropertyKeyEEE
libmozjs128-debug.so:_Z12JS_InitClassP9JSContextN2JS6HandleIP8JSObjectEEPK7JSClassS5_PKcPFbS0_jPNS1_5ValueEEjPK14JSPropertySpecPK14JSFunctionSpecSH_SK_
libmozjs128-debug.so:_Z12JS_NewObjectP9JSContextPK7JSClass
libmozjs128-debug.so:_Z12JS_ParseJSONP9JSContextN2JS6HandleIP8JSStringEENS1_13MutableHandleINS1_5ValueEEE
libmozjs128-debug.so:_Z12JS_ParseJSONP9JSContextPKDsjN2JS13MutableHandleINS3_5ValueEEE
libmozjs128-debug.so:_Z12JS_ParseJSONP9JSContextPKhjN2JS13MutableHandleINS3_5ValueEEE
libmozjs128-debug.so:_Z12JS_ReadBytesP23JSStructuredCloneReaderPvm
libmozjs128-debug.so:_Z12JS_StringifyP9JSContextN2JS13MutableHandleINS1_5ValueEEENS1_6HandleIP8JSObjectEENS5_IS3_EEPFbPKDsjPvESC_
libmozjs128-debug.so:_Z12JS_ValueToIdP9JSContextN2JS6HandleINS1_5ValueEEENS1_13MutableHandleINS1_11PropertyKeyEEE
libmozjs128-debug.so:_Z12JS_WrapValueP9JSContextN2JS13MutableHandleINS1_5ValueEEE
libmozjs128-debug.so:_Z12JS_vsmprintfPKcP13__va_list_tag
libmozjs128-debug.so:_Z12js_StartPerfv
libmozjs128-debug.so:_Z13JS_GetElementP9JSContextN2JS6HandleIP8JSObjectEEjNS1_13MutableHandleINS1_5ValueEEE
libmozjs128-debug.so:_Z13JS_GetRuntimeP9JSContext
libmozjs128-debug.so:_Z13JS_HasElementP9JSContextN2JS6HandleIP8JSObjectEEjPb
libmozjs128-debug.so:_Z13JS_InstanceOfP9JSContextN2JS6HandleIP8JSObjectEEPK7JSClassPNS1_8CallArgsE
libmozjs128-debug.so:_Z13JS_NewContextjP9JSRuntime
libmozjs128-debug.so:_Z13JS_ReadDoubleP23JSStructuredCloneReaderPd
libmozjs128-debug.so:_Z13JS_ReadStringP23JSStructuredCloneReaderN2JS13MutableHandleIP8JSStringEE
libmozjs128-debug.so:_Z13JS_SetElementP9JSContextN2JS6HandleIP8JSObjectEEjNS2_INS1_5ValueEEE
libmozjs128-debug.so:_Z13JS_SetElementP9JSContextN2JS6HandleIP8JSObjectEEjNS2_IP8JSStringEE
libmozjs128-debug.so:_Z13JS_SetElementP9JSContextN2JS6HandleIP8JSObjectEEjS5_
libmozjs128-debug.so:_Z13JS_SetElementP9JSContextN2JS6HandleIP8JSObjectEEjd
libmozjs128-debug.so:_Z13JS_SetElementP9JSContextN2JS6HandleIP8JSObjectEEji
libmozjs128-debug.so:_Z13JS_SetElementP9JSContextN2JS6HandleIP8JSObjectEEjj
libmozjs128-debug.so:_Z13JS_StringToIdP9JSContextN2JS6HandleIP8JSStringEENS1_13MutableHandleINS1_11PropertyKeyEEE
libmozjs128-debug.so:_Z13JS_WrapObjectP9JSContextN2JS13MutableHandleIP8JSObjectEE
libmozjs128-debug.so:_Z13JS_WriteBytesP23JSStructuredCloneWriterPKvm
libmozjs128-debug.so:_Z14JS_CloneObjectP9JSContextN2JS6HandleIP8JSObjectEES5_
libmozjs128-debug.so:_Z14JS_DecodeBytesP9JSContextPKcmPDsPm
libmozjs128-debug.so:_Z14JS_DumpProfilePKcS0_
libmozjs128-debug.so:_Z14JS_GetPropertyP9JSContextN2JS6HandleIP8JSObjectEEPKcNS1_13MutableHandleINS1_5ValueEEE
libmozjs128-debug.so:_Z14JS_HasInstanceP9JSContextN2JS6HandleIP8JSObjectEENS2_INS1_5ValueEEEPb
libmozjs128-debug.so:_Z14JS_HasPropertyP9JSContextN2JS6HandleIP8JSObjectEEPKcPb
libmozjs128-debug.so:_Z14JS_NewDataViewP9JSContextN2JS6HandleIP8JSObjectEEmm
libmozjs128-debug.so:_Z14JS_NewFunctionP9JSContextPFbS0_jPN2JS5ValueEEjjPKc
libmozjs128-debug.so:_Z14JS_NewUCStringP9JSContextN7mozilla9UniquePtrIA_DsN2JS10FreePolicyEEEm
libmozjs128-debug.so:_Z14JS_SetPropertyP9JSContextN2JS6HandleIP8JSObjectEEPKcNS2_INS1_5ValueEEE
libmozjs128-debug.so:_Z14JS_TypeOfValueP9JSContextN2JS6HandleINS1_5ValueEEE
libmozjs128-debug.so:_Z14JS_WriteDoubleP23JSStructuredCloneWriterd
libmozjs128-debug.so:_Z14JS_WriteStringP23JSStructuredCloneWriterN2JS6HandleIP8JSStringEE
libmozjs128-debug.so:_Z14JS_string_freeP9JSContextPv
libmozjs128-debug.so:_Z15JS_AssignObjectP9JSContextN2JS6HandleIP8JSObjectEES5_
libmozjs128-debug.so:_Z15JS_CallFunctionP9JSContextN2JS6HandleIP8JSObjectEENS2_IP10JSFunctionEERKNS1_16HandleValueArrayENS1_13MutableHandleINS1_5ValueEEE
libmozjs128-debug.so:_Z15JS_DefineObjectP9JSContextN2JS6HandleIP8JSObjectEEPKcPK7JSClassj
libmozjs128-debug.so:_Z15JS_FreezeObjectP9JSContextN2JS6HandleIP8JSObjectEE
libmozjs128-debug.so:_Z15JS_GetErrorTypeRKN2JS5ValueE
libmozjs128-debug.so:_Z15JS_GetPrototypeP9JSContextN2JS6HandleIP8JSObjectEENS1_13MutableHandleIS4_EE
libmozjs128-debug.so:_Z15JS_IdToProtoKeyP9JSContextN2JS6HandleINS1_11PropertyKeyEEE
libmozjs128-debug.so:_Z15JS_IsExtensibleP9JSContextN2JS6HandleIP8JSObjectEEPb
libmozjs128-debug.so:_Z15JS_IsIdentifierP9JSContextN2JS6HandleIP8JSStringEEPb
libmozjs128-debug.so:_Z15JS_IsIdentifierPKDsm
libmozjs128-debug.so:_Z15JS_NewInt8ArrayP9JSContextm
libmozjs128-debug.so:_Z15JS_SetPrototypeP9JSContextN2JS6HandleIP8JSObjectEES5_
libmozjs128-debug.so:_Z16JS_AtomizeStringP9JSContextPKc
libmozjs128-debug.so:_Z16JS_ConcatStringsP9JSContextN2JS6HandleIP8JSStringEES5_
libmozjs128-debug.so:_Z16JS_DefineElementP9JSContextN2JS6HandleIP8JSObjectEEjNS2_INS1_5ValueEEEj
libmozjs128-debug.so:_Z16JS_DefineElementP9JSContextN2JS6HandleIP8JSObjectEEjNS2_IP8JSStringEEj
libmozjs128-debug.so:_Z16JS_DefineElementP9JSContextN2JS6HandleIP8JSObjectEEjS5_S5_j
libmozjs128-debug.so:_Z16JS_DefineElementP9JSContextN2JS6HandleIP8JSObjectEEjS5_j
libmozjs128-debug.so:_Z16JS_DefineElementP9JSContextN2JS6HandleIP8JSObjectEEjdj
libmozjs128-debug.so:_Z16JS_DefineElementP9JSContextN2JS6HandleIP8JSObjectEEjij
libmozjs128-debug.so:_Z16JS_DefineElementP9JSContextN2JS6HandleIP8JSObjectEEjjj
libmozjs128-debug.so:_Z16JS_DeleteElementP9JSContextN2JS6HandleIP8JSObjectEEj
libmozjs128-debug.so:_Z16JS_DeleteElementP9JSContextN2JS6HandleIP8JSObjectEEjRNS1_14ObjectOpResultE
libmozjs128-debug.so:_Z16JS_DoubleIsInt32dPi
libmozjs128-debug.so:_Z16JS_ExecuteScriptP9JSContextN2JS6HandleINS1_13StackGCVectorIP8JSObjectN2js15TempAllocPolicyEEEEENS2_IP8JSScriptEE
libmozjs128-debug.so:_Z16JS_ExecuteScriptP9JSContextN2JS6HandleINS1_13StackGCVectorIP8JSObjectN2js15TempAllocPolicyEEEEENS2_IP8JSScriptEENS1_13MutableHandleINS1_5ValueEEE
libmozjs128-debug.so:_Z16JS_ExecuteScriptP9JSContextN2JS6HandleIP8JSScriptEE
libmozjs128-debug.so:_Z16JS_ExecuteScriptP9JSContextN2JS6HandleIP8JSScriptEENS1_13MutableHandleINS1_5ValueEEE
libmozjs128-debug.so:_Z16JS_GetFunctionIdP9JSContextN2JS6HandleIP10JSFunctionEENS1_13MutableHandleIP8JSStringEE
libmozjs128-debug.so:_Z16JS_GetUCPropertyP9JSContextN2JS6HandleIP8JSObjectEEPKDsmNS1_13MutableHandleINS1_5ValueEEE
libmozjs128-debug.so:_Z16JS_HasUCPropertyP9JSContextN2JS6HandleIP8JSObjectEEPKDsmPb
libmozjs128-debug.so:_Z16JS_IsConstructorP10JSFunction
libmozjs128-debug.so:_Z16JS_IsDeadWrapperP8JSObject
libmozjs128-debug.so:_Z16JS_NewInt16ArrayP9JSContextm
libmozjs128-debug.so:_Z16JS_NewInt32ArrayP9JSContextm
libmozjs128-debug.so:_Z16JS_NewUint8ArrayP9JSContextm
libmozjs128-debug.so:_Z16JS_SetGCCallbackP9JSContextPFvS0_10JSGCStatusN2JS8GCReasonEPvES4_
libmozjs128-debug.so:_Z16JS_SetUCPropertyP9JSContextN2JS6HandleIP8JSObjectEEPKDsmNS2_INS1_5ValueEEE
libmozjs128-debug.so:_Z16JS_StopProfilingPKc
libmozjs128-debug.so:_Z16JS_ValueToObjectP9JSContextN2JS6HandleINS1_5ValueEEENS1_13MutableHandleIP8JSObjectEE
libmozjs128-debug.so:_Z16JS_ValueToSourceP9JSContextN2JS6HandleINS1_5ValueEEE
libmozjs128-debug.so:_Z16JS_string_mallocP9JSContextm
libmozjs128-debug.so:_Z17JS_AtomizeStringNP9JSContextPKcm
libmozjs128-debug.so:_Z17JS_CompareStringsP9JSContextP8JSStringS2_Pi
libmozjs128-debug.so:_Z17JS_DefineFunctionP9JSContextN2JS6HandleIP8JSObjectEEPKcPFbS0_jPNS1_5ValueEEjj
libmozjs128-debug.so:_Z17JS_DefinePropertyP9JSContextN2JS6HandleIP8JSObjectEEPKcNS2_INS1_5ValueEEEj
libmozjs128-debug.so:_Z17JS_DefinePropertyP9JSContextN2JS6HandleIP8JSObjectEEPKcNS2_IP8JSStringEEj
libmozjs128-debug.so:_Z17JS_DefinePropertyP9JSContextN2JS6HandleIP8JSObjectEEPKcPFbS0_jPNS1_5ValueEESB_j
libmozjs128-debug.so:_Z17JS_DefinePropertyP9JSContextN2JS6HandleIP8JSObjectEEPKcS5_S5_j
libmozjs128-debug.so:_Z17JS_DefinePropertyP9JSContextN2JS6HandleIP8JSObjectEEPKcS5_j
libmozjs128-debug.so:_Z17JS_DefinePropertyP9JSContextN2JS6HandleIP8JSObjectEEPKcdj
libmozjs128-debug.so:_Z17JS_DefinePropertyP9JSContextN2JS6HandleIP8JSObjectEEPKcij
libmozjs128-debug.so:_Z17JS_DefinePropertyP9JSContextN2JS6HandleIP8JSObjectEEPKcjj
libmozjs128-debug.so:_Z17JS_DeletePropertyP9JSContextN2JS6HandleIP8JSObjectEEPKc
libmozjs128-debug.so:_Z17JS_DeletePropertyP9JSContextN2JS6HandleIP8JSObjectEEPKcRNS1_14ObjectOpResultE
libmozjs128-debug.so:_Z17JS_DestroyContextP9JSContext
libmozjs128-debug.so:_Z17JS_DropPrincipalsP9JSContextP12JSPrincipals
libmozjs128-debug.so:_Z17JS_GetClassObjectP9JSContext10JSProtoKeyN2JS13MutableHandleIP8JSObjectEE
libmozjs128-debug.so:_Z17JS_GetConstructorP9JSContextN2JS6HandleIP8JSObjectEE
libmozjs128-debug.so:_Z17JS_GetEmptyStringP9JSContext
libmozjs128-debug.so:_Z17JS_GetGCParameterP9JSContext12JSGCParamKey
libmozjs128-debug.so:_Z17JS_HasOwnPropertyP9JSContextN2JS6HandleIP8JSObjectEEPKcPb
libmozjs128-debug.so:_Z17JS_HoldPrincipalsP12JSPrincipals
libmozjs128-debug.so:_Z17JS_IsGlobalObjectP8JSObject
libmozjs128-debug.so:_Z17JS_NewDeadWrapperP9JSContextP8JSObject
libmozjs128-debug.so:_Z17JS_NewPlainObjectP9JSContext
libmozjs128-debug.so:_Z17JS_NewStringCopyNP9JSContextPKcm
libmozjs128-debug.so:_Z17JS_NewStringCopyZP9JSContextPKc
libmozjs128-debug.so:_Z17JS_NewUint16ArrayP9JSContextm
libmozjs128-debug.so:_Z17JS_NewUint32ArrayP9JSContextm
libmozjs128-debug.so:_Z17JS_PCToLineNumberP8JSScriptPhPN2JS28LimitedColumnNumberOneOriginE
libmozjs128-debug.so:_Z17JS_PauseProfilersPKc
libmozjs128-debug.so:_Z17JS_ReadTypedArrayP23JSStructuredCloneReaderN2JS13MutableHandleINS1_5ValueEEE
libmozjs128-debug.so:_Z17JS_ReadUint32PairP23JSStructuredCloneReaderPjS1_
libmozjs128-debug.so:_Z17JS_SetGCParameterP9JSContext12JSGCParamKeyj
libmozjs128-debug.so:_Z17JS_StartProfilingPKci
libmozjs128-debug.so:_Z17JS_StringIsLinearP8JSString
libmozjs128-debug.so:_Z17JS_sprintf_appendON7mozilla9UniquePtrIA_cN2JS10FreePolicyEEEPKcz
libmozjs128-debug.so:_Z17JS_string_reallocP9JSContextPvmm
libmozjs128-debug.so:_Z18JS_AtomizeUCStringP9JSContextPKDs
libmozjs128-debug.so:_Z18JS_CopyStringCharsP9JSContextRKN7mozilla5RangeIDsEEP8JSString
libmozjs128-debug.so:_Z18JS_DecompileScriptP9JSContextN2JS6HandleIP8JSScriptEE
libmozjs128-debug.so:_Z18JS_DefineFunctionsP9JSContextN2JS6HandleIP8JSObjectEEPK14JSFunctionSpec
libmozjs128-debug.so:_Z18JS_GetPropertyByIdP9JSContextN2JS6HandleIP8JSObjectEENS2_INS1_11PropertyKeyEEENS1_13MutableHandleINS1_5ValueEEE
libmozjs128-debug.so:_Z18JS_GetStringCharAtP9JSContextP8JSStringmPDs
libmozjs128-debug.so:_Z18JS_GetStringLengthP8JSString
libmozjs128-debug.so:_Z18JS_GetZoneUserDataPN2JS4ZoneE
libmozjs128-debug.so:_Z18JS_HasPropertyByIdP9JSContextN2JS6HandleIP8JSObjectEENS2_INS1_11PropertyKeyEEEPb
libmozjs128-debug.so:_Z18JS_MarkCrossZoneIdP9JSContextN2JS11PropertyKeyE
libmozjs128-debug.so:_Z18JS_NewFloat16ArrayP9JSContextm
libmozjs128-debug.so:_Z18JS_NewFloat32ArrayP9JSContextm
libmozjs128-debug.so:_Z18JS_NewFloat64ArrayP9JSContextm
libmozjs128-debug.so:_Z18JS_NewGlobalObjectP9JSContextPK7JSClassP12JSPrincipalsN2JS21OnNewGlobalHookOptionERKNS6_12RealmOptionsE
libmozjs128-debug.so:_Z18JS_NewLatin1StringP9JSContextN7mozilla9UniquePtrIA_hN2JS10FreePolicyEEEm
libmozjs128-debug.so:_Z18JS_ReportErrorUTF8P9JSContextPKcz
libmozjs128-debug.so:_Z18JS_ResumeProfilersPKc
libmozjs128-debug.so:_Z18JS_SetFutexCanWaitP9JSContext
libmozjs128-debug.so:_Z18JS_SetPropertyByIdP9JSContextN2JS6HandleIP8JSObjectEENS2_INS1_11PropertyKeyEEENS2_INS1_5ValueEEE
libmozjs128-debug.so:_Z18JS_SetReservedSlotP8JSObjectjRKN2JS5ValueE
libmozjs128-debug.so:_Z18JS_SetZoneUserDataPN2JS4ZoneEPv
libmozjs128-debug.so:_Z18JS_StructuredCloneP9JSContextN2JS6HandleINS1_5ValueEEENS1_13MutableHandleIS3_EEPK26JSStructuredCloneCallbacksPv
libmozjs128-debug.so:_Z18JS_ValueToFunctionP9JSContextN2JS6HandleINS1_5ValueEEE
libmozjs128-debug.so:_Z18JS_WriteTypedArrayP23JSStructuredCloneWriterN2JS6HandleINS1_5ValueEEE
libmozjs128-debug.so:_Z18JS_WriteUint32PairP23JSStructuredCloneWriterjj
libmozjs128-debug.so:_Z18JS_vsprintf_appendON7mozilla9UniquePtrIA_cN2JS10FreePolicyEEEPKcP13__va_list_tag
libmozjs128-debug.so:_Z19JS_AtomizeUCStringNP9JSContextPKDsm
libmozjs128-debug.so:_Z19JS_CallFunctionNameP9JSContextN2JS6HandleIP8JSObjectEEPKcRKNS1_16HandleValueArrayENS1_13MutableHandleINS1_5ValueEEE
libmozjs128-debug.so:_Z19JS_CopyStringCharsZP9JSContextP8JSString
libmozjs128-debug.so:_Z19JS_DeepFreezeObjectP9JSContextN2JS6HandleIP8JSObjectEE
libmozjs128-debug.so:_Z19JS_DefinePropertiesP9JSContextN2JS6HandleIP8JSObjectEEPK14JSPropertySpec
libmozjs128-debug.so:_Z19JS_DefineUCFunctionP9JSContextN2JS6HandleIP8JSObjectEEPKDsmPFbS0_jPNS1_5ValueEEjj
libmozjs128-debug.so:_Z19JS_DefineUCPropertyP9JSContextN2JS6HandleIP8JSObjectEEPKDsmNS2_INS1_18PropertyDescriptorEEE
libmozjs128-debug.so:_Z19JS_DefineUCPropertyP9JSContextN2JS6HandleIP8JSObjectEEPKDsmNS2_INS1_18PropertyDescriptorEEERNS1_14ObjectOpResultE
libmozjs128-debug.so:_Z19JS_DefineUCPropertyP9JSContextN2JS6HandleIP8JSObjectEEPKDsmNS2_INS1_5ValueEEEj
libmozjs128-debug.so:_Z19JS_DefineUCPropertyP9JSContextN2JS6HandleIP8JSObjectEEPKDsmNS2_IP8JSStringEEj
libmozjs128-debug.so:_Z19JS_DefineUCPropertyP9JSContextN2JS6HandleIP8JSObjectEEPKDsmS5_S5_j
libmozjs128-debug.so:_Z19JS_DefineUCPropertyP9JSContextN2JS6HandleIP8JSObjectEEPKDsmS5_j
libmozjs128-debug.so:_Z19JS_DefineUCPropertyP9JSContextN2JS6HandleIP8JSObjectEEPKDsmdj
libmozjs128-debug.so:_Z19JS_DefineUCPropertyP9JSContextN2JS6HandleIP8JSObjectEEPKDsmij
libmozjs128-debug.so:_Z19JS_DefineUCPropertyP9JSContextN2JS6HandleIP8JSObjectEEPKDsmjj
libmozjs128-debug.so:_Z19JS_DeleteUCPropertyP9JSContextN2JS6HandleIP8JSObjectEEPKDsmRNS1_14ObjectOpResultE
libmozjs128-debug.so:_Z19JS_GetDefaultLocaleP9JSContext
libmozjs128-debug.so:_Z19JS_GetFunctionArityP10JSFunction
libmozjs128-debug.so:_Z19JS_GetInt8ArrayDataP8JSObjectPbRKN2JS15AutoRequireNoGCE
libmozjs128-debug.so:_Z19JS_GetParentRuntimeP9JSContext
libmozjs128-debug.so:_Z19JS_InitReflectParseP9JSContextN2JS6HandleIP8JSObjectEE
libmozjs128-debug.so:_Z19JS_InitReservedSlotP8JSObjectjPvmN2JS9MemoryUseE
libmozjs128-debug.so:_Z19JS_IsNativeFunctionP8JSObjectPFbP9JSContextjPN2JS5ValueEE
libmozjs128-debug.so:_Z19JS_NewBigInt64ArrayP9JSContextm
libmozjs128-debug.so:_Z19JS_NewUCStringCopyNP9JSContextPKDsm
libmozjs128-debug.so:_Z19JS_NewUCStringCopyZP9JSContextPKDs
libmozjs128-debug.so:_Z19JS_ObjectIsFunctionP8JSObject
libmozjs128-debug.so:_Z19JS_ObjectNotWrittenP23JSStructuredCloneWriterN2JS6HandleIP8JSObjectEE
libmozjs128-debug.so:_Z19JS_PutEscapedStringP9JSContextPcmP8JSStringc
libmozjs128-debug.so:_Z19JS_ReportErrorASCIIP9JSContextPKcz
libmozjs128-debug.so:_Z19JS_ResetGCParameterP9JSContext12JSGCParamKey
libmozjs128-debug.so:_Z19JS_SetDefaultLocaleP9JSRuntimePKc
libmozjs128-debug.so:_Z19JS_TransplantObjectP9JSContextN2JS6HandleIP8JSObjectEES5_
libmozjs128-debug.so:_Z19mozalloc_handle_oomm
libmozjs128-debug.so:_Z20JS_CallFunctionValueP9JSContextN2JS6HandleIP8JSObjectEENS2_INS1_5ValueEEERKNS1_16HandleValueArrayENS1_13MutableHandleIS6_EE
libmozjs128-debug.so:_Z20JS_CheckForInterruptP9JSContext
libmozjs128-debug.so:_Z20JS_DecompileFunctionP9JSContextN2JS6HandleIP10JSFunctionEE
libmozjs128-debug.so:_Z20JS_GetClassPrototypeP9JSContext10JSProtoKeyN2JS13MutableHandleIP8JSObjectEE
libmozjs128-debug.so:_Z20JS_GetContextPrivateP9JSContext
libmozjs128-debug.so:_Z20JS_GetFunctionLengthP9JSContextN2JS6HandleIP10JSFunctionEEPt
libmozjs128-debug.so:_Z20JS_GetFunctionObjectP10JSFunction
libmozjs128-debug.so:_Z20JS_GetFunctionScriptP9JSContextN2JS6HandleIP10JSFunctionEE
libmozjs128-debug.so:_Z20JS_GetInt16ArrayDataP8JSObjectPbRKN2JS15AutoRequireNoGCE
libmozjs128-debug.so:_Z20JS_GetInt32ArrayDataP8JSObjectPbRKN2JS15AutoRequireNoGCE
libmozjs128-debug.so:_Z20JS_GetObjectFunctionP8JSObject
libmozjs128-debug.so:_Z20JS_GetScriptFilenameP8JSScript
libmozjs128-debug.so:_Z20JS_GetUint8ArrayDataP8JSObjectPbRKN2JS15AutoRequireNoGCE
libmozjs128-debug.so:_Z20JS_NewBigUint64ArrayP9JSContextm
libmozjs128-debug.so:_Z20JS_PreventExtensionsP9JSContextN2JS6HandleIP8JSObjectEERNS1_14ObjectOpResultE
libmozjs128-debug.so:_Z20JS_ReportErrorLatin1P9JSContextPKcz
libmozjs128-debug.so:_Z20JS_ReportOutOfMemoryP9JSContext
libmozjs128-debug.so:_Z20JS_SetContextPrivateP9JSContextPv
libmozjs128-debug.so:_Z20JS_StringEqualsAsciiP9JSContextP8JSStringPKcPb
libmozjs128-debug.so:_Z20JS_StringEqualsAsciiP9JSContextP8JSStringPKcmPb
libmozjs128-debug.so:_Z21JS_AbortIfWrongThreadP9JSContext
libmozjs128-debug.so:_Z21JS_DefineFunctionByIdP9JSContextN2JS6HandleIP8JSObjectEENS2_INS1_11PropertyKeyEEEPFbS0_jPNS1_5ValueEEjj
libmozjs128-debug.so:_Z21JS_DefinePropertyByIdP9JSContextN2JS6HandleIP8JSObjectEENS2_INS1_11PropertyKeyEEENS2_INS1_18PropertyDescriptorEEE
libmozjs128-debug.so:_Z21JS_DefinePropertyByIdP9JSContextN2JS6HandleIP8JSObjectEENS2_INS1_11PropertyKeyEEENS2_INS1_18PropertyDescriptorEEERNS1_14ObjectOpResultE
libmozjs128-debug.so:_Z21JS_DefinePropertyByIdP9JSContextN2JS6HandleIP8JSObjectEENS2_INS1_11PropertyKeyEEENS2_INS1_5ValueEEEj
libmozjs128-debug.so:_Z21JS_DefinePropertyByIdP9JSContextN2JS6HandleIP8JSObjectEENS2_INS1_11PropertyKeyEEENS2_IP8JSStringEEj
libmozjs128-debug.so:_Z21JS_DefinePropertyByIdP9JSContextN2JS6HandleIP8JSObjectEENS2_INS1_11PropertyKeyEEEPFbS0_jPNS1_5ValueEESB_j
libmozjs128-debug.so:_Z21JS_DefinePropertyByIdP9JSContextN2JS6HandleIP8JSObjectEENS2_INS1_11PropertyKeyEEES5_S5_j
libmozjs128-debug.so:_Z21JS_DefinePropertyByIdP9JSContextN2JS6HandleIP8JSObjectEENS2_INS1_11PropertyKeyEEES5_j
libmozjs128-debug.so:_Z21JS_DefinePropertyByIdP9JSContextN2JS6HandleIP8JSObjectEENS2_INS1_11PropertyKeyEEEdj
libmozjs128-debug.so:_Z21JS_DefinePropertyByIdP9JSContextN2JS6HandleIP8JSObjectEENS2_INS1_11PropertyKeyEEEij
libmozjs128-debug.so:_Z21JS_DefinePropertyByIdP9JSContextN2JS6HandleIP8JSObjectEENS2_INS1_11PropertyKeyEEEjj
libmozjs128-debug.so:_Z21JS_DeletePropertyByIdP9JSContextN2JS6HandleIP8JSObjectEENS2_INS1_11PropertyKeyEEE
libmozjs128-debug.so:_Z21JS_DeletePropertyByIdP9JSContextN2JS6HandleIP8JSObjectEENS2_INS1_11PropertyKeyEEERNS1_14ObjectOpResultE
libmozjs128-debug.so:_Z21JS_EncodeStringToUTF8P9JSContextN2JS6HandleIP8JSStringEE
libmozjs128-debug.so:_Z21JS_EnsureLinearStringP9JSContextP8JSString
libmozjs128-debug.so:_Z21JS_ErrorFromExceptionP9JSContextN2JS6HandleIP8JSObjectEE
libmozjs128-debug.so:_Z21JS_GetLocaleCallbacksP9JSRuntime
libmozjs128-debug.so:_Z21JS_GetUint16ArrayDataP8JSObjectPbRKN2JS15AutoRequireNoGCE
libmozjs128-debug.so:_Z21JS_GetUint32ArrayDataP8JSObjectPbRKN2JS15AutoRequireNoGCE
libmozjs128-debug.so:_Z21JS_HasOwnPropertyByIdP9JSContextN2JS6HandleIP8JSObjectEENS2_INS1_11PropertyKeyEEEPb
libmozjs128-debug.so:_Z21JS_IsExceptionPendingP9JSContext
libmozjs128-debug.so:_Z21JS_IsTypedArrayObjectP8JSObject
libmozjs128-debug.so:_Z21JS_NewDependentStringP9JSContextN2JS6HandleIP8JSStringEEmm
libmozjs128-debug.so:_Z21JS_NewStringCopyUTF8NP9JSContextRKN2JS9UTF8CharsE
libmozjs128-debug.so:_Z21JS_NewStringCopyUTF8ZP9JSContextN2JS15ConstUTF8CharsZE
libmozjs128-debug.so:_Z21JS_ResetDefaultLocaleP9JSRuntime
libmozjs128-debug.so:_Z21JS_SetLocaleCallbacksP9JSRuntimePK17JSLocaleCallbacks
libmozjs128-debug.so:_Z21JS_ValueToConstructorP9JSContextN2JS6HandleINS1_5ValueEEE
libmozjs128-debug.so:_Z22JS_AddFinalizeCallbackP9JSContextPFvPN2JS9GCContextE16JSFinalizeStatusPvES5_
libmozjs128-debug.so:_Z22JS_AtomizeAndPinStringP9JSContextPKc
libmozjs128-debug.so:_Z22JS_EncodeStringToASCIIP9JSContextP8JSString
libmozjs128-debug.so:_Z22JS_ForwardGetElementToP9JSContextN2JS6HandleIP8JSObjectEEjS5_NS1_13MutableHandleINS1_5ValueEEE
libmozjs128-debug.so:_Z22JS_GetEmptyStringValueP9JSContext
libmozjs128-debug.so:_Z22JS_GetFloat16ArrayDataP8JSObjectPbRKN2JS15AutoRequireNoGCE
libmozjs128-debug.so:_Z22JS_GetFloat32ArrayDataP8JSObjectPbRKN2JS15AutoRequireNoGCE
libmozjs128-debug.so:_Z22JS_GetFloat64ArrayDataP8JSObjectPbRKN2JS15AutoRequireNoGCE
libmozjs128-debug.so:_Z22JS_GetGlobalFromScriptP8JSScript
libmozjs128-debug.so:_Z22JS_GetPendingExceptionP9JSContextN2JS13MutableHandleINS1_5ValueEEE
libmozjs128-debug.so:_Z22JS_GetScriptPrincipalsP8JSScript
libmozjs128-debug.so:_Z22JS_GetTypedArrayLengthP8JSObject
libmozjs128-debug.so:_Z22JS_IterateCompartmentsP9JSContextPvPFN2JS21CompartmentIterResultES0_S1_PNS2_11CompartmentEE
libmozjs128-debug.so:_Z22JS_NewExternalUCStringP9JSContextPKDsmPK25JSExternalStringCallbacks
libmozjs128-debug.so:_Z22JS_ReadStructuredCloneP9JSContextRK21JSStructuredCloneDatajN2JS20StructuredCloneScopeENS4_13MutableHandleINS4_5ValueEEERKNS4_15CloneDataPolicyEPK26JSStructuredCloneCallbacksPv
libmozjs128-debug.so:_Z22JS_ReportErrorNumberUCP9JSContextPFPK19JSErrorFormatStringPvjES4_jz
libmozjs128-debug.so:_Z22JS_SetNativeStackQuotaP9JSContextmmm
libmozjs128-debug.so:_Z22JS_SetPendingExceptionP9JSContextN2JS6HandleINS1_5ValueEEENS1_22ExceptionStackBehaviorE
libmozjs128-debug.so:_Z22JS_StringHasBeenPinnedP9JSContextP8JSString
libmozjs128-debug.so:_Z23JS_AddInterruptCallbackP9JSContextPFbS0_E
libmozjs128-debug.so:_Z23JS_AlreadyHasOwnElementP9JSContextN2JS6HandleIP8JSObjectEEjPb
libmozjs128-debug.so:_Z23JS_AtomizeAndPinStringNP9JSContextPKcm
libmozjs128-debug.so:_Z23JS_DefineDebuggerObjectP9JSContextN2JS6HandleIP8JSObjectEE
libmozjs128-debug.so:_Z23JS_EncodeStringToBufferP9JSContextP8JSStringPcm
libmozjs128-debug.so:_Z23JS_EncodeStringToLatin1P9JSContextP8JSString
libmozjs128-debug.so:_Z23JS_FindCompilationScopeP9JSContextN2JS6HandleIP8JSObjectEE
libmozjs128-debug.so:_Z23JS_ForwardGetPropertyToP9JSContextN2JS6HandleIP8JSObjectEENS2_INS1_11PropertyKeyEEENS2_INS1_5ValueEEENS1_13MutableHandleIS8_EE
libmozjs128-debug.so:_Z23JS_ForwardSetPropertyToP9JSContextN2JS6HandleIP8JSObjectEENS2_INS1_11PropertyKeyEEENS2_INS1_5ValueEEES9_RNS1_14ObjectOpResultE
libmozjs128-debug.so:_Z23JS_FrontendOnlyShutDownv
libmozjs128-debug.so:_Z23JS_GetBigInt64ArrayDataP8JSObjectPbRKN2JS15AutoRequireNoGCE
libmozjs128-debug.so:_Z23JS_GetFunctionDisplayIdP9JSContextN2JS6HandleIP10JSFunctionEENS1_13MutableHandleIP8JSStringEE
libmozjs128-debug.so:_Z23JS_GetObjectAsInt8ArrayP8JSObjectPmPbPPa
libmozjs128-debug.so:_Z23JS_GetSecurityCallbacksP9JSContext
libmozjs128-debug.so:_Z23JS_MarkCrossZoneIdValueP9JSContextRKN2JS5ValueE
libmozjs128-debug.so:_Z23JS_NewUint8ClampedArrayP9JSContextm
libmozjs128-debug.so:_Z23JS_ParseJSONWithReviverP9JSContextN2JS6HandleIP8JSStringEENS2_INS1_5ValueEEENS1_13MutableHandleIS6_EE
libmozjs128-debug.so:_Z23JS_ParseJSONWithReviverP9JSContextPKDsjN2JS6HandleINS3_5ValueEEENS3_13MutableHandleIS5_EE
libmozjs128-debug.so:_Z23JS_ResolveStandardClassP9JSContextN2JS6HandleIP8JSObjectEENS2_INS1_11PropertyKeyEEEPb
libmozjs128-debug.so:_Z23JS_ScriptHasMutedErrorsP8JSScript
libmozjs128-debug.so:_Z23JS_SetGrayGCRootsTracerP9JSContextPFbP8JSTracerRN2js11SliceBudgetEPvES6_
libmozjs128-debug.so:_Z23JS_SetSecurityCallbacksP9JSContextPK19JSSecurityCallbacks
libmozjs128-debug.so:_Z23JS_SetTrustedPrincipalsP9JSContextP12JSPrincipals
libmozjs128-debug.so:_Z23JS_WriteStructuredCloneP9JSContextN2JS6HandleINS1_5ValueEEEP21JSStructuredCloneDataNS1_20StructuredCloneScopeERKNS1_15CloneDataPolicyEPK26JSStructuredCloneCallbacksPvS4_
libmozjs128-debug.so:_Z24JS_AddExtraGCRootsTracerP9JSContextPFvP8JSTracerPvES3_
libmozjs128-debug.so:_Z24JS_AlreadyHasOwnPropertyP9JSContextN2JS6HandleIP8JSObjectEEPKcPb
libmozjs128-debug.so:_Z24JS_ClearPendingExceptionP9JSContext
libmozjs128-debug.so:_Z24JS_FireOnNewGlobalObjectP9JSContextN2JS6HandleIP8JSObjectEE
libmozjs128-debug.so:_Z24JS_GetBigUint64ArrayDataP8JSObjectPbRKN2JS15AutoRequireNoGCE
libmozjs128-debug.so:_Z24JS_GetCompartmentPrivatePN2JS11CompartmentE
libmozjs128-debug.so:_Z24JS_GetObjectAsInt16ArrayP8JSObjectPmPbPPs
libmozjs128-debug.so:_Z24JS_GetObjectAsInt32ArrayP8JSObjectPmPbPPi
libmozjs128-debug.so:_Z24JS_GetObjectAsUint8ArrayP8JSObjectPmPbPPh
libmozjs128-debug.so:_Z24JS_GetPropertyDescriptorP9JSContextN2JS6HandleIP8JSObjectEEPKcNS1_13MutableHandleIN7mozilla5MaybeINS1_18PropertyDescriptorEEEEENS8_IS4_EE
libmozjs128-debug.so:_Z24JS_GlobalObjectTraceHookP8JSTracerP8JSObject
libmozjs128-debug.so:_Z24JS_IsBuiltinEvalFunctionP10JSFunction
libmozjs128-debug.so:_Z24JS_IsThrowingOutOfMemoryP9JSContext
libmozjs128-debug.so:_Z24JS_NewInt8ArrayFromArrayP9JSContextN2JS6HandleIP8JSObjectEE
libmozjs128-debug.so:_Z24JS_ObjectIsBoundFunctionP8JSObject
libmozjs128-debug.so:_Z24JS_ReportErrorNumberUTF8P9JSContextPFPK19JSErrorFormatStringPvjES4_jz
libmozjs128-debug.so:_Z24JS_SetCompartmentPrivatePN2JS11CompartmentEPv
libmozjs128-debug.so:_Z24JS_SetICUMemoryFunctionsPFPvPKvmEPFS_S1_S_mEPFvS1_S_E
libmozjs128-debug.so:_Z24JS_SetImmutablePrototypeP9JSContextN2JS6HandleIP8JSObjectEEPb
libmozjs128-debug.so:_Z25JS_GetArrayBufferViewDataP8JSObjectPbRKN2JS15AutoRequireNoGCE
libmozjs128-debug.so:_Z25JS_GetArrayBufferViewTypeP8JSObject
libmozjs128-debug.so:_Z25JS_GetBoundFunctionTargetP8JSObject
libmozjs128-debug.so:_Z25JS_GetObjectAsUint16ArrayP8JSObjectPmPbPPt
libmozjs128-debug.so:_Z25JS_GetObjectAsUint32ArrayP8JSObjectPmPbPPj
libmozjs128-debug.so:_Z25JS_GetPrototypeIfOrdinaryP9JSContextN2JS6HandleIP8JSObjectEEPbNS1_13MutableHandleIS4_EE
libmozjs128-debug.so:_Z25JS_NewInt16ArrayFromArrayP9JSContextN2JS6HandleIP8JSObjectEE
libmozjs128-debug.so:_Z25JS_NewInt32ArrayFromArrayP9JSContextN2JS6HandleIP8JSObjectEE
libmozjs128-debug.so:_Z25JS_NewInt8ArrayWithBufferP9JSContextN2JS6HandleIP8JSObjectEEml
libmozjs128-debug.so:_Z25JS_NewUCStringDontDeflateP9JSContextN7mozilla9UniquePtrIA_DsN2JS10FreePolicyEEEm
libmozjs128-debug.so:_Z25JS_NewUint8ArrayFromArrayP9JSContextN2JS6HandleIP8JSObjectEE
libmozjs128-debug.so:_Z25JS_PutEscapedLinearStringPcmP14JSLinearStringc
libmozjs128-debug.so:_Z25JS_RemoveFinalizeCallbackP9JSContextPFvPN2JS9GCContextE16JSFinalizeStatusPvE
libmozjs128-debug.so:_Z25JS_ReportErrorNumberASCIIP9JSContextPFPK19JSErrorFormatStringPvjES4_jz
libmozjs128-debug.so:_Z25JS_ResetInterruptCallbackP9JSContextb
libmozjs128-debug.so:_Z25JS_SetDestroyZoneCallbackP9JSContextPFvPN2JS9GCContextEPNS1_4ZoneEE
libmozjs128-debug.so:_Z25JS_SetWrapObjectCallbacksP9JSContextPK21JSWrapObjectCallbacks
libmozjs128-debug.so:_Z25JS_WrapPropertyDescriptorP9JSContextN2JS13MutableHandleIN7mozilla5MaybeINS1_18PropertyDescriptorEEEEE
libmozjs128-debug.so:_Z25JS_WrapPropertyDescriptorP9JSContextN2JS13MutableHandleINS1_18PropertyDescriptorEEE
libmozjs128-debug.so:_Z26JS_AlreadyHasOwnUCPropertyP9JSContextN2JS6HandleIP8JSObjectEEPKDsmPb
libmozjs128-debug.so:_Z26JS_DefineFunctionsWithHelpP9JSContextN2JS6HandleIP8JSObjectEEPK22JSFunctionSpecWithHelp
libmozjs128-debug.so:_Z26JS_GetObjectAsFloat16ArrayP8JSObjectPmPbPPt
libmozjs128-debug.so:_Z26JS_GetObjectAsFloat32ArrayP8JSObjectPmPbPPf
libmozjs128-debug.so:_Z26JS_GetObjectAsFloat64ArrayP8JSObjectPmPbPPd
libmozjs128-debug.so:_Z26JS_GetScriptBaseLineNumberP9JSContextP8JSScript
libmozjs128-debug.so:_Z26JS_GetStringEncodingLengthP9JSContextP8JSString
libmozjs128-debug.so:_Z26JS_GetStructuredCloneScopeP23JSStructuredCloneWriter
libmozjs128-debug.so:_Z26JS_GetTypedArrayByteLengthP8JSObject
libmozjs128-debug.so:_Z26JS_GetTypedArrayByteOffsetP8JSObject
libmozjs128-debug.so:_Z26JS_GetTypedArraySharednessP8JSObject
libmozjs128-debug.so:_Z26JS_GetUCPropertyDescriptorP9JSContextN2JS6HandleIP8JSObjectEEPKDsmNS1_13MutableHandleIN7mozilla5MaybeINS1_18PropertyDescriptorEEEEENS8_IS4_EE
libmozjs128-debug.so:_Z26JS_IsArrayBufferViewObjectP8JSObject
libmozjs128-debug.so:_Z26JS_LinearStringEqualsAsciiP14JSLinearStringPKc
libmozjs128-debug.so:_Z26JS_LinearStringEqualsAsciiP14JSLinearStringPKcm
libmozjs128-debug.so:_Z26JS_MayResolveStandardClassRK11JSAtomStateN2JS11PropertyKeyEP8JSObject
libmozjs128-debug.so:_Z26JS_NewExternalStringLatin1P9JSContextPKhmPK25JSExternalStringCallbacks
libmozjs128-debug.so:_Z26JS_NewInt16ArrayWithBufferP9JSContextN2JS6HandleIP8JSObjectEEml
libmozjs128-debug.so:_Z26JS_NewInt32ArrayWithBufferP9JSContextN2JS6HandleIP8JSObjectEEml
libmozjs128-debug.so:_Z26JS_NewObjectForConstructorP9JSContextPK7JSClassRKN2JS8CallArgsE
libmozjs128-debug.so:_Z26JS_NewObjectWithGivenProtoP9JSContextPK7JSClassN2JS6HandleIP8JSObjectEE
libmozjs128-debug.so:_Z26JS_NewUint16ArrayFromArrayP9JSContextN2JS6HandleIP8JSObjectEE
libmozjs128-debug.so:_Z26JS_NewUint32ArrayFromArrayP9JSContextN2JS6HandleIP8JSObjectEE
libmozjs128-debug.so:_Z26JS_NewUint8ArrayWithBufferP9JSContextN2JS6HandleIP8JSObjectEEml
libmozjs128-debug.so:_Z26JS_ReportErrorNumberLatin1P9JSContextPFPK19JSErrorFormatStringPvjES4_jz
libmozjs128-debug.so:_Z26JS_ReportErrorNumberUTF8VAP9JSContextPFPK19JSErrorFormatStringPvjES4_jP13__va_list_tag
libmozjs128-debug.so:_Z27JS_DefineProfilingFunctionsP9JSContextN2JS6HandleIP8JSObjectEE
libmozjs128-debug.so:_Z27JS_DisableInterruptCallbackP9JSContext
libmozjs128-debug.so:_Z27JS_EnumerateStandardClassesP9JSContextN2JS6HandleIP8JSObjectEE
libmozjs128-debug.so:_Z27JS_GetArrayBufferViewBufferP9JSContextN2JS6HandleIP8JSObjectEEPb
libmozjs128-debug.so:_Z27JS_GetImplementationVersionv
libmozjs128-debug.so:_Z27JS_GetObjectAsBigInt64ArrayP8JSObjectPmPbPPl
libmozjs128-debug.so:_Z27JS_GetOwnPropertyDescriptorP9JSContextN2JS6HandleIP8JSObjectEEPKcNS1_13MutableHandleIN7mozilla5MaybeINS1_18PropertyDescriptorEEEEE
libmozjs128-debug.so:_Z27JS_GetUint8ClampedArrayDataP8JSObjectPbRKN2JS15AutoRequireNoGCE
libmozjs128-debug.so:_Z27JS_GlobalLexicalEnvironmentP8JSObject
libmozjs128-debug.so:_Z27JS_MaxMovableTypedArraySizev
libmozjs128-debug.so:_Z27JS_NewFloat16ArrayFromArrayP9JSContextN2JS6HandleIP8JSObjectEE
libmozjs128-debug.so:_Z27JS_NewFloat32ArrayFromArrayP9JSContextN2JS6HandleIP8JSObjectEE
libmozjs128-debug.so:_Z27JS_NewFloat64ArrayFromArrayP9JSContextN2JS6HandleIP8JSObjectEE
libmozjs128-debug.so:_Z27JS_NewMaybeExternalUCStringP9JSContextPKDsmPK25JSExternalStringCallbacksPb
libmozjs128-debug.so:_Z27JS_NewObjectWithoutMetadataP9JSContextPK7JSClassN2JS6HandleIP8JSObjectEE
libmozjs128-debug.so:_Z27JS_NewUint16ArrayWithBufferP9JSContextN2JS6HandleIP8JSObjectEEml
libmozjs128-debug.so:_Z27JS_NewUint32ArrayWithBufferP9JSContextN2JS6HandleIP8JSObjectEEml
libmozjs128-debug.so:_Z27JS_RemoveExtraGCRootsTracerP9JSContextPFvP8JSTracerPvES3_
libmozjs128-debug.so:_Z27JS_ReportAllocationOverflowP9JSContext
libmozjs128-debug.so:_Z27JS_ReportErrorNumberASCIIVAP9JSContextPFPK19JSErrorFormatStringPvjES4_jP13__va_list_tag
libmozjs128-debug.so:_Z27JS_ReportErrorNumberUCArrayP9JSContextPFPK19JSErrorFormatStringPvjES4_jPPKDs
libmozjs128-debug.so:_Z27JS_RequestInterruptCallbackP9JSContext
libmozjs128-debug.so:_Z27JS_SetSetUseCounterCallbackP9JSContextPFvP8JSObject12JSUseCounterE
libmozjs128-debug.so:_Z27JS_UpdateWeakPointerAfterGCP8JSTracerPN2JS4HeapIP8JSObjectEE
libmozjs128-debug.so:_Z28JS_AlreadyHasOwnPropertyByIdP9JSContextN2JS6HandleIP8JSObjectEENS2_INS1_11PropertyKeyEEEPb
libmozjs128-debug.so:_Z28JS_ExpandErrorArgumentsASCIIP9JSContextPFPK19JSErrorFormatStringPvjEjP13JSErrorReportz
libmozjs128-debug.so:_Z28JS_GetInt8ArrayLengthAndDataP8JSObjectPmPbRKN2JS15AutoRequireNoGCE
libmozjs128-debug.so:_Z28JS_GetMaybePartialFunctionIdP10JSFunction
libmozjs128-debug.so:_Z28JS_GetObjectAsBigUint64ArrayP8JSObjectPmPbPS1_
libmozjs128-debug.so:_Z28JS_GetPropertyDescriptorByIdP9JSContextN2JS6HandleIP8JSObjectEENS2_INS1_11PropertyKeyEEENS1_13MutableHandleIN7mozilla5MaybeINS1_18PropertyDescriptorEEEEENS8_IS4_EE
libmozjs128-debug.so:_Z28JS_IterateCompartmentsInZoneP9JSContextPN2JS4ZoneEPvPFNS1_21CompartmentIterResultES0_S4_PNS1_11CompartmentEE
libmozjs128-debug.so:_Z28JS_NewBigInt64ArrayFromArrayP9JSContextN2JS6HandleIP8JSObjectEE
libmozjs128-debug.so:_Z28JS_NewFloat16ArrayWithBufferP9JSContextN2JS6HandleIP8JSObjectEEml
libmozjs128-debug.so:_Z28JS_NewFloat32ArrayWithBufferP9JSContextN2JS6HandleIP8JSObjectEEml
libmozjs128-debug.so:_Z28JS_NewFloat64ArrayWithBufferP9JSContextN2JS6HandleIP8JSObjectEEml
libmozjs128-debug.so:_Z28JS_ReportErrorNumberLatin1VAP9JSContextPFPK19JSErrorFormatStringPvjES4_jP13__va_list_tag
libmozjs128-debug.so:_Z28JS_SetObjectsTenuredCallbackP9JSContextPFvPN2JS9GCContextEPvES4_
libmozjs128-debug.so:_Z28JS_SetParallelParsingEnabledP9JSContextb
libmozjs128-debug.so:_Z29JS_GetExternalStringCallbacksP8JSString
libmozjs128-debug.so:_Z29JS_GetGlobalJitCompilerOptionP9JSContext19JSJitCompilerOptionPj
libmozjs128-debug.so:_Z29JS_GetInt16ArrayLengthAndDataP8JSObjectPmPbRKN2JS15AutoRequireNoGCE
libmozjs128-debug.so:_Z29JS_GetInt32ArrayLengthAndDataP8JSObjectPmPbRKN2JS15AutoRequireNoGCE
libmozjs128-debug.so:_Z29JS_GetObjectAsArrayBufferViewP8JSObjectPmPbPPh
libmozjs128-debug.so:_Z29JS_GetOwnUCPropertyDescriptorP9JSContextN2JS6HandleIP8JSObjectEEPKDsmNS1_13MutableHandleIN7mozilla5MaybeINS1_18PropertyDescriptorEEEEE
libmozjs128-debug.so:_Z29JS_GetUint8ArrayLengthAndDataP8JSObjectPmPbRKN2JS15AutoRequireNoGCE
libmozjs128-debug.so:_Z29JS_InitReadPrincipalsCallbackP9JSContextPFbS0_P23JSStructuredCloneReaderPP12JSPrincipalsE
libmozjs128-debug.so:_Z29JS_NewBigInt64ArrayWithBufferP9JSContextN2JS6HandleIP8JSObjectEEml
libmozjs128-debug.so:_Z29JS_NewBigUint64ArrayFromArrayP9JSContextN2JS6HandleIP8JSObjectEE
libmozjs128-debug.so:_Z29JS_NewMaybeExternalStringUTF8P9JSContextRKN2JS9UTF8CharsEPK25JSExternalStringCallbacksPb
libmozjs128-debug.so:_Z29JS_ReportErrorNumberUTF8ArrayP9JSContextPFPK19JSErrorFormatStringPvjES4_jPPKc
libmozjs128-debug.so:_Z29JS_SetGlobalJitCompilerOptionP9JSContext19JSJitCompilerOptionj
libmozjs128-debug.so:_Z29JS_Utf8BufferIsCompilableUnitP9JSContextN2JS6HandleIP8JSObjectEEPKcm
libmozjs128-debug.so:_Z30JS_AddWeakPointerZonesCallbackP9JSContextPFvP8JSTracerPvES3_
libmozjs128-debug.so:_Z30JS_GetArrayBufferViewFixedDataP8JSObjectPhm
libmozjs128-debug.so:_Z30JS_GetErrorInterceptorCallbackP9JSRuntime
libmozjs128-debug.so:_Z30JS_GetUint16ArrayLengthAndDataP8JSObjectPmPbRKN2JS15AutoRequireNoGCE
libmozjs128-debug.so:_Z30JS_GetUint32ArrayLengthAndDataP8JSObjectPmPbRKN2JS15AutoRequireNoGCE
libmozjs128-debug.so:_Z30JS_LinkConstructorAndPrototypeP9JSContextN2JS6HandleIP8JSObjectEES5_
libmozjs128-debug.so:_Z30JS_NewBigUint64ArrayWithBufferP9JSContextN2JS6HandleIP8JSObjectEEml
libmozjs128-debug.so:_Z30JS_NewEnumerateStandardClassesP9JSContextN2JS6HandleIP8JSObjectEENS1_13MutableHandleINS1_13StackGCVectorINS1_11PropertyKeyEN2js15TempAllocPolicyEEEEEb
libmozjs128-debug.so:_Z30JS_SetErrorInterceptorCallbackP9JSRuntimeP18JSErrorInterceptor
libmozjs128-debug.so:_Z30JS_UnsafeGetLastProfilingErrorv
libmozjs128-debug.so:_Z31JS_ExtensibleLexicalEnvironmentP8JSObject
libmozjs128-debug.so:_Z31JS_GetArrayBufferViewByteLengthP8JSObject
libmozjs128-debug.so:_Z31JS_GetArrayBufferViewByteOffsetP8JSObject
libmozjs128-debug.so:_Z31JS_GetFloat16ArrayLengthAndDataP8JSObjectPmPbRKN2JS15AutoRequireNoGCE
libmozjs128-debug.so:_Z31JS_GetFloat32ArrayLengthAndDataP8JSObjectPmPbRKN2JS15AutoRequireNoGCE
libmozjs128-debug.so:_Z31JS_GetFloat64ArrayLengthAndDataP8JSObjectPmPbRKN2JS15AutoRequireNoGCE
libmozjs128-debug.so:_Z31JS_GetObjectAsUint8ClampedArrayP8JSObjectPmPbPPh
libmozjs128-debug.so:_Z31JS_GetOwnPropertyDescriptorByIdP9JSContextN2JS6HandleIP8JSObjectEENS2_INS1_11PropertyKeyEEENS1_13MutableHandleIN7mozilla5MaybeINS1_18PropertyDescriptorEEEEE
libmozjs128-debug.so:_Z31JS_IsBuiltinFunctionConstructorP10JSFunction
libmozjs128-debug.so:_Z31JS_NewMaybeExternalStringLatin1P9JSContextPKhmPK25JSExternalStringCallbacksPb
libmozjs128-debug.so:_Z32JS_GetBigInt64ArrayLengthAndDataP8JSObjectPmPbRKN2JS15AutoRequireNoGCE
libmozjs128-debug.so:_Z32JS_GetLatin1StringCharsAndLengthP9JSContextRKN2JS15AutoRequireNoGCEP8JSStringPm
libmozjs128-debug.so:_Z32JS_GetTwoByteExternalStringCharsP8JSString
libmozjs128-debug.so:_Z32JS_InitDestroyPrincipalsCallbackP9JSContextPFvP12JSPrincipalsE
libmozjs128-debug.so:_Z32JS_NewUint8ClampedArrayFromArrayP9JSContextN2JS6HandleIP8JSObjectEE
libmozjs128-debug.so:_Z32JS_SetDestroyCompartmentCallbackP9JSContextPFvPN2JS9GCContextEPNS1_11CompartmentEE
libmozjs128-debug.so:_Z33JS_DeprecatedStringHasLatin1CharsP8JSString
libmozjs128-debug.so:_Z33JS_GetBigUint64ArrayLengthAndDataP8JSObjectPmPbRKN2JS15AutoRequireNoGCE
libmozjs128-debug.so:_Z33JS_GetTwoByteStringCharsAndLengthP9JSContextRKN2JS15AutoRequireNoGCEP8JSStringPm
libmozjs128-debug.so:_Z33JS_NewUint8ClampedArrayWithBufferP9JSContextN2JS6HandleIP8JSObjectEEml
libmozjs128-debug.so:_Z33JS_NondeterministicGetWeakMapKeysP9JSContextN2JS6HandleIP8JSObjectEENS1_13MutableHandleIS4_EE
libmozjs128-debug.so:_Z33JS_NondeterministicGetWeakSetKeysP9JSContextN2JS6HandleIP8JSObjectEENS1_13MutableHandleIS4_EE
libmozjs128-debug.so:_Z33JS_RemoveWeakPointerZonesCallbackP9JSContextPFvP8JSTracerPvE
libmozjs128-debug.so:_Z33JS_SetAccumulateTelemetryCallbackP9JSContextPFv8JSMetricjE
libmozjs128-debug.so:_Z34JS_EncodeStringToUTF8BufferPartialP9JSContextP8JSStringN7mozilla4SpanIcLm18446744073709551615EEE
libmozjs128-debug.so:_Z34JS_HasExtensibleLexicalEnvironmentP8JSObject
libmozjs128-debug.so:_Z34JS_RefreshCrossCompartmentWrappersP9JSContextN2JS6HandleIP8JSObjectEE
libmozjs128-debug.so:_Z34JS_RequestInterruptCallbackCanWaitP9JSContext
libmozjs128-debug.so:_Z34JS_StructuredCloneHasTransferablesR21JSStructuredCloneDataPb
libmozjs128-debug.so:_Z35JS_GetMaybePartialFunctionDisplayIdP10JSFunction
libmozjs128-debug.so:_Z35JS_TraceShapeCycleCollectorChildrenPN2JS14CallbackTracerENS_9GCCellPtrE
libmozjs128-debug.so:_Z36JS_AddWeakPointerCompartmentCallbackP9JSContextPFvP8JSTracerPN2JS11CompartmentEPvES6_
libmozjs128-debug.so:_Z36JS_CopyOwnPropertiesAndPrivateFieldsP9JSContextN2JS6HandleIP8JSObjectEES5_
libmozjs128-debug.so:_Z36JS_GetUint8ClampedArrayLengthAndDataP8JSObjectPmPbRKN2JS15AutoRequireNoGCE
libmozjs128-debug.so:_Z36JS_SetAllNonReservedSlotsToUndefinedN2JS6HandleIP8JSObjectEE
libmozjs128-debug.so:_Z36JS_SetOffthreadIonCompilationEnabledP9JSContextb
libmozjs128-debug.so:_Z38JS_UpdateWeakPointerAfterGCUnbarrieredP8JSTracerPP8JSObject
libmozjs128-debug.so:_Z39JS_RemoveWeakPointerCompartmentCallbackP9JSContextPFvP8JSTracerPN2JS11CompartmentEPvE
libmozjs128-debug.so:_Z40JS_SetGCParametersBasedOnAvailableMemoryP9JSContextj
libmozjs128-debug.so:_Z44JS_SetSizeOfIncludingThisCompartmentCallbackP9JSContextPFmPFmPKvEPN2JS11CompartmentEE
libmozjs128-debug.so:_Z47JS_NewEnumerateStandardClassesIncludingResolvedP9JSContextN2JS6HandleIP8JSObjectEENS1_13MutableHandleINS1_13StackGCVectorINS1_11PropertyKeyEN2js15TempAllocPolicyEEEEEb
libmozjs128-debug.so:_Z49JS_InitializePropertiesFromCompatibleNativeObjectP9JSContextN2JS6HandleIP8JSObjectEES5_
libmozjs128-debug.so:_Z5JS_GCP9JSContextN2JS8GCReasonE
libmozjs128-debug.so:_Z6JS_Nowv
libmozjs128-debug.so:_Z7JS_freeP9JSContextPv
libmozjs128-debug.so:_Z9JS_AssertPKcS0_i
libmozjs128-debug.so:_Z9JS_mallocP9JSContextm
libmozjs128-debug.so:_ZN100_$LT$core..iter..adapters..take..Take$LT$I$GT$$u20$as$u20$core..iter..traits..iterator..Iterator$GT$4next17hda448056850d0537E
libmozjs128-debug.so:_ZN102_$LT$core..iter..adapters..zip..Zip$LT$A$C$B$GT$$u20$as$u20$core..iter..traits..iterator..Iterator$GT$4fold17h0ef7617a1edd7442E
libmozjs128-debug.so:_ZN106_$LT$core..ops..range..Range$LT$usize$GT$$u20$as$u20$core..slice..index..SliceIndex$LT$$u5b$T$u5d$$GT$$GT$9index_mut17h95b834cb5f6dff80E
libmozjs128-debug.so:_ZN106_$LT$core..ops..range..Range$LT$usize$GT$$u20$as$u20$core..slice..index..SliceIndex$LT$$u5b$T$u5d$$GT$$GT$9index_mut17h96c31a8d6e7219f2E
libmozjs128-debug.so:_ZN106_$LT$core..ops..range..Range$LT$usize$GT$$u20$as$u20$core..slice..index..SliceIndex$LT$$u5b$T$u5d$$GT$$GT$9index_mut17he961ad8d040fd6c7E
libmozjs128-debug.so:_ZN106_$LT$core..slice..iter..Iter$LT$T$GT$$u20$as$u20$core..iter..traits..double_ended..DoubleEndedIterator$GT$9next_back17h6c3e1d54aa31e992E
libmozjs128-debug.so:_ZN108_$LT$core..ops..range..RangeTo$LT$usize$GT$$u20$as$u20$core..slice..index..SliceIndex$LT$$u5b$T$u5d$$GT$$GT$9index_mut17h1746655993857284E
libmozjs128-debug.so:_ZN108_$LT$core..ops..range..RangeTo$LT$usize$GT$$u20$as$u20$core..slice..index..SliceIndex$LT$$u5b$T$u5d$$GT$$GT$9index_mut17h3d7cf30052cd63caE
libmozjs128-debug.so:_ZN10JSFunction13maybeRelazifyEP9JSRuntime
libmozjs128-debug.so:_ZN10JSFunction14getDisplayAtomEP9JSContextN2JS13MutableHandleIP6JSAtomEE
libmozjs128-debug.so:_ZN10JSFunction15getExplicitNameEP9JSContextN2JS13MutableHandleIP6JSAtomEE
libmozjs128-debug.so:_ZN10JSFunction22getAccessorNameForLazyEP9JSContext
libmozjs128-debug.so:_ZN10JSFunction22needsPrototypePropertyEv
libmozjs128-debug.so:_ZN10JSFunction28isBuiltinFunctionConstructorEv
libmozjs128-debug.so:_ZN10JSFunction30delazifySelfHostedLazyFunctionEP9JSContextN2JS6HandleIPS_EE
libmozjs128-debug.so:_ZN10JSFunction33delazifyLazilyInterpretedFunctionEP9JSContextN2JS6HandleIPS_EE
libmozjs128-debug.so:_ZN10JSFunction39hasNonConfigurablePrototypeDataPropertyEv
libmozjs128-debug.so:_ZN110_$LT$core..iter..adapters..enumerate..Enumerate$LT$I$GT$$u20$as$u20$core..iter..traits..iterator..Iterator$GT$4next17h4086e3d3b1549448E
libmozjs128-debug.so:_ZN110_$LT$core..iter..adapters..enumerate..Enumerate$LT$I$GT$$u20$as$u20$core..iter..traits..iterator..Iterator$GT$4next17h7e4b49449a5a0da3E
libmozjs128-debug.so:_ZN110_$LT$core..iter..adapters..enumerate..Enumerate$LT$I$GT$$u20$as$u20$core..iter..traits..iterator..Iterator$GT$4next17hc9bb3231e38b94afE
libmozjs128-debug.so:_ZN110_$LT$core..ops..range..RangeFrom$LT$usize$GT$$u20$as$u20$core..slice..index..SliceIndex$LT$$u5b$T$u5d$$GT$$GT$5index17h705258bf651fec84E
libmozjs128-debug.so:_ZN110_$LT$core..ops..range..RangeFrom$LT$usize$GT$$u20$as$u20$core..slice..index..SliceIndex$LT$$u5b$T$u5d$$GT$$GT$5index17hc27fe29f3154965fE
libmozjs128-debug.so:_ZN110_$LT$core..ops..range..RangeFrom$LT$usize$GT$$u20$as$u20$core..slice..index..SliceIndex$LT$$u5b$T$u5d$$GT$$GT$9index_mut17h5aff27b01fa7f83aE
libmozjs128-debug.so:_ZN110_$LT$core..ops..range..RangeFrom$LT$usize$GT$$u20$as$u20$core..slice..index..SliceIndex$LT$$u5b$T$u5d$$GT$$GT$9index_mut17hfeaa779ea8e318f9E
libmozjs128-debug.so:_ZN111_$LT$core..iter..adapters..zip..Zip$LT$A$C$B$GT$$u20$as$u20$core..iter..adapters..zip..ZipImpl$LT$A$C$B$GT$$GT$13get_unchecked17h28a2167874e8e9e4E
libmozjs128-debug.so:_ZN111_$LT$core..iter..adapters..zip..Zip$LT$A$C$B$GT$$u20$as$u20$core..iter..adapters..zip..ZipImpl$LT$A$C$B$GT$$GT$3new17hab919afb6c0c7071E
libmozjs128-debug.so:_ZN111_$LT$core..iter..adapters..zip..Zip$LT$A$C$B$GT$$u20$as$u20$core..iter..adapters..zip..ZipImpl$LT$A$C$B$GT$$GT$3new17hc60e764493cb3484E
libmozjs128-debug.so:_ZN111_$LT$core..iter..adapters..zip..Zip$LT$A$C$B$GT$$u20$as$u20$core..iter..adapters..zip..ZipImpl$LT$A$C$B$GT$$GT$4fold17h81ddd37fd7c1e917E
libmozjs128-debug.so:_ZN111_$LT$core..iter..adapters..zip..Zip$LT$A$C$B$GT$$u20$as$u20$core..iter..adapters..zip..ZipImpl$LT$A$C$B$GT$$GT$4next17h76667a92fdd83defE
libmozjs128-debug.so:_ZN111_$LT$core..iter..adapters..zip..Zip$LT$A$C$B$GT$$u20$as$u20$core..iter..adapters..zip..ZipImpl$LT$A$C$B$GT$$GT$9size_hint17h4f50db527928d39eE
libmozjs128-debug.so:_ZN11JSAutoRealmC1EP9JSContextP8JSObject
libmozjs128-debug.so:_ZN11JSAutoRealmC1EP9JSContextP8JSScript
libmozjs128-debug.so:_ZN11JSAutoRealmC2EP9JSContextP8JSObject
libmozjs128-debug.so:_ZN11JSAutoRealmC2EP9JSContextP8JSScript
libmozjs128-debug.so:_ZN11JSAutoRealmD1Ev
libmozjs128-debug.so:_ZN11JSAutoRealmD2Ev
libmozjs128-debug.so:_ZN11encoding_rs10ISO_8859_217h6f61b7741592e670E
libmozjs128-debug.so:_ZN11encoding_rs10ISO_8859_317h88464232e805118dE
libmozjs128-debug.so:_ZN11encoding_rs10ISO_8859_417hd2d9ad7d96eaf9a9E
libmozjs128-debug.so:_ZN11encoding_rs10ISO_8859_517h1431aca09aecf2faE
libmozjs128-debug.so:_ZN11encoding_rs10ISO_8859_617h4b9433bc0d6eaee6E
libmozjs128-debug.so:_ZN11encoding_rs10ISO_8859_717h64a6d223003184c9E
libmozjs128-debug.so:_ZN11encoding_rs10ISO_8859_817ha438f541bfb92b1aE
libmozjs128-debug.so:_ZN11encoding_rs10UTF_8_INIT17h3503b0c4be89392fE
libmozjs128-debug.so:_ZN11encoding_rs11EUC_JP_INIT17hc83957da99e67e79E
libmozjs128-debug.so:_ZN11encoding_rs11EUC_KR_INIT17h8d6f406088e5e896E
libmozjs128-debug.so:_ZN11encoding_rs11IBM866_INIT17h2e253c92c37ff6c7E
libmozjs128-debug.so:_ZN11encoding_rs11ISO_2022_JP17h2fe843603ab3fa1bE
libmozjs128-debug.so:_ZN11encoding_rs11ISO_8859_1017hb3fa2a5e0cced5e9E
libmozjs128-debug.so:_ZN11encoding_rs11ISO_8859_1317h6127a5ade4fd3fc5E
libmozjs128-debug.so:_ZN11encoding_rs11ISO_8859_1417h06417f044748d645E
libmozjs128-debug.so:_ZN11encoding_rs11ISO_8859_1517h5976404bbb80aaeeE
libmozjs128-debug.so:_ZN11encoding_rs11ISO_8859_1617h3043e6104c1b0d1eE
libmozjs128-debug.so:_ZN11encoding_rs11KOI8_R_INIT17ha2f7001bbc1f2e42E
libmozjs128-debug.so:_ZN11encoding_rs11KOI8_U_INIT17h1d0af7853be4ea4bE
libmozjs128-debug.so:_ZN11encoding_rs11REPLACEMENT17h4b4522fdaaf12f3dE
libmozjs128-debug.so:_ZN11encoding_rs11WINDOWS_87417ha81ae4f4439ef0d1E
libmozjs128-debug.so:_ZN11encoding_rs12GB18030_INIT17h5b2504ac2f7a6117E
libmozjs128-debug.so:_ZN11encoding_rs12ISO_8859_8_I17h6e047f1f3f29c4b0E
libmozjs128-debug.so:_ZN11encoding_rs12WINDOWS_125017h31e59e541988158cE
libmozjs128-debug.so:_ZN11encoding_rs12WINDOWS_125117hb10f25362ab60647E
libmozjs128-debug.so:_ZN11encoding_rs12WINDOWS_125217hc39c7e79fd2319dbE
libmozjs128-debug.so:_ZN11encoding_rs12WINDOWS_125317hd86677b60bb470faE
libmozjs128-debug.so:_ZN11encoding_rs12WINDOWS_125417h864f9dd08d07307cE
libmozjs128-debug.so:_ZN11encoding_rs12WINDOWS_125517ha593c04dccd42c95E
libmozjs128-debug.so:_ZN11encoding_rs12WINDOWS_125617hca7c6525dd156caaE
libmozjs128-debug.so:_ZN11encoding_rs12WINDOWS_125717hd8da466680e32b2eE
libmozjs128-debug.so:_ZN11encoding_rs12WINDOWS_125817h973adb2f0c413abeE
libmozjs128-debug.so:_ZN11encoding_rs13UTF_16BE_INIT17hcb7db3df5c092273E
libmozjs128-debug.so:_ZN11encoding_rs13UTF_16LE_INIT17had54b065523ba32cE
libmozjs128-debug.so:_ZN11encoding_rs14MACINTOSH_INIT17h9664d1b83da35e1bE
libmozjs128-debug.so:_ZN11encoding_rs14SHIFT_JIS_INIT17he1265453eccc5d65E
libmozjs128-debug.so:_ZN11encoding_rs14X_MAC_CYRILLIC17h5ac082c598aa1e98E
libmozjs128-debug.so:_ZN11encoding_rs14X_USER_DEFINED17h4a327638a4e339f0E
libmozjs128-debug.so:_ZN11encoding_rs15ISO_8859_2_INIT17h5116d8d4cf9d2b5cE
libmozjs128-debug.so:_ZN11encoding_rs15ISO_8859_3_INIT17h5d00516e757516d5E
libmozjs128-debug.so:_ZN11encoding_rs15ISO_8859_4_INIT17he6c7c06e1e0b57fcE
libmozjs128-debug.so:_ZN11encoding_rs15ISO_8859_5_INIT17h696d5bd59b146865E
libmozjs128-debug.so:_ZN11encoding_rs15ISO_8859_6_INIT17h56a0f64d4c93d0a2E
libmozjs128-debug.so:_ZN11encoding_rs15ISO_8859_7_INIT17ha0805a58b1454e79E
libmozjs128-debug.so:_ZN11encoding_rs15ISO_8859_8_INIT17h72f95978f9e65186E
libmozjs128-debug.so:_ZN11encoding_rs16ISO_2022_JP_INIT17hc871cce45547e88bE
libmozjs128-debug.so:_ZN11encoding_rs16ISO_8859_10_INIT17h917f9a3881cb8dbaE
libmozjs128-debug.so:_ZN11encoding_rs16ISO_8859_13_INIT17ha7d5fb23ecf4de1eE
libmozjs128-debug.so:_ZN11encoding_rs16ISO_8859_14_INIT17h272387f058ed6f0bE
libmozjs128-debug.so:_ZN11encoding_rs16ISO_8859_15_INIT17h1c57754a70c1738fE
libmozjs128-debug.so:_ZN11encoding_rs16ISO_8859_16_INIT17hf841b9b452279bd9E
libmozjs128-debug.so:_ZN11encoding_rs16REPLACEMENT_INIT17hac0fea3a6a124c2dE
libmozjs128-debug.so:_ZN11encoding_rs16WINDOWS_874_INIT17h844810e867746175E
libmozjs128-debug.so:_ZN11encoding_rs17ISO_8859_8_I_INIT17hce922107f2ab5416E
libmozjs128-debug.so:_ZN11encoding_rs17WINDOWS_1250_INIT17ha0c560be3d7de43eE
libmozjs128-debug.so:_ZN11encoding_rs17WINDOWS_1251_INIT17hb546c10572d57a40E
libmozjs128-debug.so:_ZN11encoding_rs17WINDOWS_1252_INIT17hbd2425f3a2bab4fbE
libmozjs128-debug.so:_ZN11encoding_rs17WINDOWS_1253_INIT17h928b3683e550d4e2E
libmozjs128-debug.so:_ZN11encoding_rs17WINDOWS_1254_INIT17hfd4ff7ac95797b45E
libmozjs128-debug.so:_ZN11encoding_rs17WINDOWS_1255_INIT17h426e4ebf40bfcdb1E
libmozjs128-debug.so:_ZN11encoding_rs17WINDOWS_1256_INIT17he539e9a0a6ccdd18E
libmozjs128-debug.so:_ZN11encoding_rs17WINDOWS_1257_INIT17h4a6bdb88d27559e3E
libmozjs128-debug.so:_ZN11encoding_rs17WINDOWS_1258_INIT17he56c3d25ef51345bE
libmozjs128-debug.so:_ZN11encoding_rs19X_MAC_CYRILLIC_INIT17heeaa3bb211ee8f28E
libmozjs128-debug.so:_ZN11encoding_rs19X_USER_DEFINED_INIT17h8464e629e5ac5ef4E
libmozjs128-debug.so:_ZN11encoding_rs3GBK17h8118223603804669E
libmozjs128-debug.so:_ZN11encoding_rs3mem13decode_latin117h2d4a03575d46ed10E
libmozjs128-debug.so:_ZN11encoding_rs3mem13is_str_latin117hf0b9f21a1b89a59fE
libmozjs128-debug.so:_ZN11encoding_rs3mem13is_utf16_bidi17hfd7ef04cbeed1eb5E
libmozjs128-debug.so:_ZN11encoding_rs3mem14is_basic_latin17hd651afe9a495209cE
libmozjs128-debug.so:_ZN11encoding_rs3mem14is_utf8_latin117hf4f83ea7ccd402dfE
libmozjs128-debug.so:_ZN11encoding_rs3mem15is_utf16_latin117h6cf87e7630a6bfaeE
libmozjs128-debug.so:_ZN11encoding_rs3mem16str_latin1_up_to17h87146a26ef0edfe2E
libmozjs128-debug.so:_ZN11encoding_rs3mem17utf16_valid_up_to17h6e22181db7192d2dE
libmozjs128-debug.so:_ZN11encoding_rs3mem17utf8_latin1_up_to17h1744419226254b33E
libmozjs128-debug.so:_ZN11encoding_rs3mem19copy_ascii_to_ascii17he6a10ab6eaa912ffE
libmozjs128-debug.so:_ZN11encoding_rs3mem19encode_latin1_lossy17hbba954507731c6b1E
libmozjs128-debug.so:_ZN11encoding_rs3mem20convert_str_to_utf1617h5682ffa08ec0e936E
libmozjs128-debug.so:_ZN11encoding_rs3mem21convert_utf8_to_utf1617hd8919a33ad6ed85bE
libmozjs128-debug.so:_ZN11encoding_rs3mem23convert_latin1_to_utf1617hefe26c3659a5845aE
libmozjs128-debug.so:_ZN11encoding_rs3mem25copy_ascii_to_basic_latin17h8ca208153adeb87eE
libmozjs128-debug.so:_ZN11encoding_rs3mem25copy_basic_latin_to_ascii17h9a3a717713536089E
libmozjs128-debug.so:_ZN11encoding_rs3mem28convert_utf16_to_str_partial17hc0c5ff1b6c3453e4E
libmozjs128-debug.so:_ZN11encoding_rs3mem28convert_utf8_to_latin1_lossy17hcad5a75f250c7ad4E
libmozjs128-debug.so:_ZN11encoding_rs3mem29check_str_for_latin1_and_bidi17hd2c6196e14634112E
libmozjs128-debug.so:_ZN11encoding_rs3mem29convert_utf16_to_latin1_lossy17h1f625a1667c1ae99E
libmozjs128-debug.so:_ZN11encoding_rs3mem30check_utf8_for_latin1_and_bidi17hf99307d94fd5c2c1E
libmozjs128-debug.so:_ZN11encoding_rs3mem30convert_latin1_to_utf8_partial17hf93368cc3af22626E
libmozjs128-debug.so:_ZN11encoding_rs3mem31check_utf16_for_latin1_and_bidi17h4cacacd5e7d5fdb6E
libmozjs128-debug.so:_ZN11encoding_rs3mem41convert_utf8_to_utf16_without_replacement17h48cba03a348f3da8E
libmozjs128-debug.so:_ZN11encoding_rs3mem8is_ascii17h7ea6cea8d8500c51E
libmozjs128-debug.so:_ZN11encoding_rs4BIG517h54beb07b295e4c0dE
libmozjs128-debug.so:_ZN11encoding_rs4data16SINGLE_BYTE_DATA17ha2eef9c5a130c59cE
libmozjs128-debug.so:_ZN11encoding_rs5UTF_817h4c1736f632b91496E
libmozjs128-debug.so:_ZN11encoding_rs5utf_834convert_utf16_to_utf8_partial_tail17hd7c6b5bab2126573E
libmozjs128-debug.so:_ZN11encoding_rs5utf_835convert_utf16_to_utf8_partial_inner17h15d00e8be54a9114E
libmozjs128-debug.so:_ZN11encoding_rs5utf_89UTF8_DATA17h85b7ebad74d0a04dE
libmozjs128-debug.so:_ZN11encoding_rs6EUC_JP17h5587859c39da5a2dE
libmozjs128-debug.so:_ZN11encoding_rs6EUC_KR17h6e0c3fab686e6539E
libmozjs128-debug.so:_ZN11encoding_rs6IBM86617hdbd2d80cfeaed5deE
libmozjs128-debug.so:_ZN11encoding_rs6KOI8_R17h7f08dd6146ab0f1aE
libmozjs128-debug.so:_ZN11encoding_rs6KOI8_U17hda6cffadcdff4333E
libmozjs128-debug.so:_ZN11encoding_rs7Decoder13decode_to_str17h1acca00a834ab541E
libmozjs128-debug.so:_ZN11encoding_rs7Decoder14decode_to_utf817h1d30c3e201769358E
libmozjs128-debug.so:_ZN11encoding_rs7Decoder15decode_to_utf1617h74f0b6ca1ceb5d58E
libmozjs128-debug.so:_ZN11encoding_rs7Decoder16decode_to_string17h1374401bccb91024E
libmozjs128-debug.so:_ZN11encoding_rs7Decoder22max_utf8_buffer_length17h94daa49e0a791d57E
libmozjs128-debug.so:_ZN11encoding_rs7Decoder23max_utf16_buffer_length17h1d5c4e50d2b593deE
libmozjs128-debug.so:_ZN11encoding_rs7Decoder28latin1_byte_compatible_up_to17h43903991c5a64cb1E
libmozjs128-debug.so:_ZN11encoding_rs7Decoder33decode_to_str_without_replacement17hd4ce5c8591503a32E
libmozjs128-debug.so:_ZN11encoding_rs7Decoder34decode_to_utf8_without_replacement17hd817827f9b0e4ca3E
libmozjs128-debug.so:_ZN11encoding_rs7Decoder35decode_to_utf16_without_replacement17h6f49f08cd7012a7aE
libmozjs128-debug.so:_ZN11encoding_rs7Decoder36decode_to_string_without_replacement17h6ce072b2cb9fff17E
libmozjs128-debug.so:_ZN11encoding_rs7Decoder3new17h68897c45d7cc8750E
libmozjs128-debug.so:_ZN11encoding_rs7Decoder42max_utf8_buffer_length_without_replacement17h9b1ec6dcb5861341E
libmozjs128-debug.so:_ZN11encoding_rs7Encoder16encode_from_utf817hd1a4305d95b74f88E
libmozjs128-debug.so:_ZN11encoding_rs7Encoder17encode_from_utf1617h4c1e66a45260aadcE
libmozjs128-debug.so:_ZN11encoding_rs7Encoder23encode_from_utf8_to_vec17h61e591516d5d35c5E
libmozjs128-debug.so:_ZN11encoding_rs7Encoder36encode_from_utf8_without_replacement17h4457e27467211f43E
libmozjs128-debug.so:_ZN11encoding_rs7Encoder37encode_from_utf16_without_replacement17h7bb7aaa5af901178E
libmozjs128-debug.so:_ZN11encoding_rs7Encoder43encode_from_utf8_to_vec_without_replacement17h73676dd1715fc6c9E
libmozjs128-debug.so:_ZN11encoding_rs7Encoder45max_buffer_length_from_utf8_if_no_unmappables17hda577fee092cc32dE
libmozjs128-debug.so:_ZN11encoding_rs7Encoder46max_buffer_length_from_utf16_if_no_unmappables17h7b075e8f9f6e9385E
libmozjs128-debug.so:_ZN11encoding_rs7Encoder47max_buffer_length_from_utf8_without_replacement17hb345d87c7f4b1b89E
libmozjs128-debug.so:_ZN11encoding_rs7Encoder48max_buffer_length_from_utf16_without_replacement17h27127ad3d1ed3c73E
libmozjs128-debug.so:_ZN11encoding_rs7GB1803017h81e47039b8a5ba09E
libmozjs128-debug.so:_ZN11encoding_rs7variant14VariantEncoder17has_pending_state17h63a58c9808ec208bE
libmozjs128-debug.so:_ZN11encoding_rs7variant15VariantEncoding11new_encoder17h3545b7880b28cff1E
libmozjs128-debug.so:_ZN11encoding_rs7variant15VariantEncoding14is_single_byte17h7656da9f7d930778E
libmozjs128-debug.so:_ZN11encoding_rs8Encoding16utf8_valid_up_to17hfcb9905ff900a87bE
libmozjs128-debug.so:_ZN11encoding_rs8Encoding17ascii_valid_up_to17hdefcbabe9655ef26E
libmozjs128-debug.so:_ZN11encoding_rs8Encoding19new_variant_decoder17h6147537cd60d0309E
libmozjs128-debug.so:_ZN11encoding_rs8Encoding27decode_without_bom_handling17hddafec5d25075fa9E
libmozjs128-debug.so:_ZN11encoding_rs8Encoding29iso_2022_jp_ascii_valid_up_to17h0e0b80b8f005c8c5E
libmozjs128-debug.so:_ZN11encoding_rs8Encoding51decode_without_bom_handling_and_without_replacement17hba827f06a371a203E
libmozjs128-debug.so:_ZN11encoding_rs8Encoding6encode17h32853f973a288fffE
libmozjs128-debug.so:_ZN11encoding_rs8Encoding9for_label17hb66ddec6d10ed59eE
libmozjs128-debug.so:_ZN11encoding_rs8GBK_INIT17h127f94b6d772db7bE
libmozjs128-debug.so:_ZN11encoding_rs8UTF_16BE17hb0cf335b469aeb6dE
libmozjs128-debug.so:_ZN11encoding_rs8UTF_16LE17hc3147bd02b9a62a0E
libmozjs128-debug.so:_ZN11encoding_rs9BIG5_INIT17hd6c6002d863fb354E
libmozjs128-debug.so:_ZN11encoding_rs9MACINTOSH17h38278d1651d344deE
libmozjs128-debug.so:_ZN11encoding_rs9SHIFT_JIS17hde779405833f9dc9E
libmozjs128-debug.so:_ZN128_$LT$$LT$serde..de..WithDecimalPoint$u20$as$u20$core..fmt..Display$GT$..fmt..LookForDecimalPoint$u20$as$u20$core..fmt..Write$GT$10write_char17hccf92c18bac60232E
libmozjs128-debug.so:_ZN128_$LT$$LT$serde..de..WithDecimalPoint$u20$as$u20$core..fmt..Display$GT$..fmt..LookForDecimalPoint$u20$as$u20$core..fmt..Write$GT$9write_str17h68287500e7480634E
libmozjs128-debug.so:_ZN12JSErrorNotes3endEv
libmozjs128-debug.so:_ZN12JSErrorNotes5beginEv
libmozjs128-debug.so:_ZN12JSErrorNotes6lengthEv
libmozjs128-debug.so:_ZN137_$LT$$LT$serde..de..impls..OsStringKind$u20$as$u20$serde..de..Deserialize$GT$..deserialize..KindVisitor$u20$as$u20$serde..de..Visitor$GT$9expecting17hb129b2697d3b7fe8E
libmozjs128-debug.so:_ZN138_$LT$$LT$serde..de..impls..range..Field$u20$as$u20$serde..de..Deserialize$GT$..deserialize..FieldVisitor$u20$as$u20$serde..de..Visitor$GT$9expecting17ha21b88a89b79bef6E
libmozjs128-debug.so:_ZN141_$LT$$LT$serde..de..impls..range_to..Field$u20$as$u20$serde..de..Deserialize$GT$..deserialize..FieldVisitor$u20$as$u20$serde..de..Visitor$GT$9expecting17h2c88fcf48453e225E
libmozjs128-debug.so:_ZN142_$LT$serde..de..impls..$LT$impl$u20$serde..de..Deserialize$u20$for$u20$i8$GT$..deserialize..PrimitiveVisitor$u20$as$u20$serde..de..Visitor$GT$9expecting17h293b9b01fff8eab7E
libmozjs128-debug.so:_ZN142_$LT$serde..de..impls..$LT$impl$u20$serde..de..Deserialize$u20$for$u20$u8$GT$..deserialize..PrimitiveVisitor$u20$as$u20$serde..de..Visitor$GT$9expecting17h3c6aebdccbbee4d9E
libmozjs128-debug.so:_ZN143_$LT$$LT$serde..de..impls..range_from..Field$u20$as$u20$serde..de..Deserialize$GT$..deserialize..FieldVisitor$u20$as$u20$serde..de..Visitor$GT$9expecting17ha9dc58ace95de391E
libmozjs128-debug.so:_ZN143_$LT$serde..de..impls..$LT$impl$u20$serde..de..Deserialize$u20$for$u20$f32$GT$..deserialize..PrimitiveVisitor$u20$as$u20$serde..de..Visitor$GT$9expecting17hd08f55d876bac2f7E
libmozjs128-debug.so:_ZN143_$LT$serde..de..impls..$LT$impl$u20$serde..de..Deserialize$u20$for$u20$f64$GT$..deserialize..PrimitiveVisitor$u20$as$u20$serde..de..Visitor$GT$9expecting17h3a5a05b913d5b49cE
libmozjs128-debug.so:_ZN143_$LT$serde..de..impls..$LT$impl$u20$serde..de..Deserialize$u20$for$u20$i16$GT$..deserialize..PrimitiveVisitor$u20$as$u20$serde..de..Visitor$GT$9expecting17h33d3bafa1febc8cfE
libmozjs128-debug.so:_ZN143_$LT$serde..de..impls..$LT$impl$u20$serde..de..Deserialize$u20$for$u20$i32$GT$..deserialize..PrimitiveVisitor$u20$as$u20$serde..de..Visitor$GT$9expecting17hd35e911a800638f0E
libmozjs128-debug.so:_ZN143_$LT$serde..de..impls..$LT$impl$u20$serde..de..Deserialize$u20$for$u20$i64$GT$..deserialize..PrimitiveVisitor$u20$as$u20$serde..de..Visitor$GT$9expecting17h67d941d0c7551c98E
libmozjs128-debug.so:_ZN143_$LT$serde..de..impls..$LT$impl$u20$serde..de..Deserialize$u20$for$u20$u16$GT$..deserialize..PrimitiveVisitor$u20$as$u20$serde..de..Visitor$GT$9expecting17h1178fac9f87a0ab9E
libmozjs128-debug.so:_ZN143_$LT$serde..de..impls..$LT$impl$u20$serde..de..Deserialize$u20$for$u20$u32$GT$..deserialize..PrimitiveVisitor$u20$as$u20$serde..de..Visitor$GT$9expecting17hc07bda9fd467da3dE
libmozjs128-debug.so:_ZN143_$LT$serde..de..impls..$LT$impl$u20$serde..de..Deserialize$u20$for$u20$u64$GT$..deserialize..PrimitiveVisitor$u20$as$u20$serde..de..Visitor$GT$9expecting17ha0e12b47ef4e1105E
libmozjs128-debug.so:_ZN144_$LT$serde..de..impls..$LT$impl$u20$serde..de..Deserialize$u20$for$u20$i128$GT$..deserialize..PrimitiveVisitor$u20$as$u20$serde..de..Visitor$GT$9expecting17ha3b62a317111c124E
libmozjs128-debug.so:_ZN144_$LT$serde..de..impls..$LT$impl$u20$serde..de..Deserialize$u20$for$u20$u128$GT$..deserialize..PrimitiveVisitor$u20$as$u20$serde..de..Visitor$GT$9expecting17h9ddde53d83d49998E
libmozjs128-debug.so:_ZN145_$LT$serde..de..impls..$LT$impl$u20$serde..de..Deserialize$u20$for$u20$isize$GT$..deserialize..PrimitiveVisitor$u20$as$u20$serde..de..Visitor$GT$9expecting17h427a0dbf2d241691E
libmozjs128-debug.so:_ZN145_$LT$serde..de..impls..$LT$impl$u20$serde..de..Deserialize$u20$for$u20$usize$GT$..deserialize..PrimitiveVisitor$u20$as$u20$serde..de..Visitor$GT$9expecting17h68badd82f74c6aafE
libmozjs128-debug.so:_ZN14ProfilingStack18ensureCapacitySlowEv
libmozjs128-debug.so:_ZN14ProfilingStackD1Ev
libmozjs128-debug.so:_ZN14ProfilingStackD2Ev
libmozjs128-debug.so:_ZN14mozglue_static18str_truncate_valid17h95b182728f89a96dE
libmozjs128-debug.so:_ZN153_$LT$core..result..Result$LT$T$C$F$GT$$u20$as$u20$core..ops..try_trait..FromResidual$LT$core..result..Result$LT$core..convert..Infallible$C$E$GT$$GT$$GT$13from_residual17hf13d7645cdcdba4aE
libmozjs128-debug.so:_ZN159_$LT$serde..de..impls..$LT$impl$u20$serde..de..Deserialize$u20$for$u20$core..time..Duration$GT$..deserialize..DurationVisitor$u20$as$u20$serde..de..Visitor$GT$9expecting17hb7f9af25a3a8d58bE
libmozjs128-debug.so:_ZN15MmapAccessScopeC1EPvjPKc
libmozjs128-debug.so:_ZN15MmapAccessScopeC2EPvjPKc
libmozjs128-debug.so:_ZN15MmapAccessScopeD1Ev
libmozjs128-debug.so:_ZN15MmapAccessScopeD2Ev
libmozjs128-debug.so:_ZN160_$LT$serde..de..impls..$LT$impl$u20$serde..de..Deserialize$u20$for$u20$std..time..SystemTime$GT$..deserialize..DurationVisitor$u20$as$u20$serde..de..Visitor$GT$9expecting17hcd60eb92e55daf09E
libmozjs128-debug.so:_ZN161_$LT$serde..de..impls..$LT$impl$u20$serde..de..Deserialize$u20$for$u20$core..net..ip_addr..IpAddr$GT$..deserialize..EnumVisitor$u20$as$u20$serde..de..Visitor$GT$9expecting17hca6f3bcee07adbc2E
libmozjs128-debug.so:_ZN169_$LT$serde..de..impls..$LT$impl$u20$serde..de..Deserialize$u20$for$u20$core..net..socket_addr..SocketAddr$GT$..deserialize..EnumVisitor$u20$as$u20$serde..de..Visitor$GT$9expecting17h0ccbf6e30cc8090dE
libmozjs128-debug.so:_ZN175_$LT$serde..de..impls..$LT$impl$u20$serde..de..Deserialize$u20$for$u20$core..num..nonzero..NonZero$LT$i8$GT$$GT$..deserialize..NonZeroVisitor$u20$as$u20$serde..de..Visitor$GT$9expecting17hff5ffc9d2cbfd558E
libmozjs128-debug.so:_ZN175_$LT$serde..de..impls..$LT$impl$u20$serde..de..Deserialize$u20$for$u20$core..num..nonzero..NonZero$LT$u8$GT$$GT$..deserialize..NonZeroVisitor$u20$as$u20$serde..de..Visitor$GT$9expecting17h1b3505bff5c9d8bfE
libmozjs128-debug.so:_ZN176_$LT$serde..de..impls..$LT$impl$u20$serde..de..Deserialize$u20$for$u20$core..num..nonzero..NonZero$LT$i16$GT$$GT$..deserialize..NonZeroVisitor$u20$as$u20$serde..de..Visitor$GT$9expecting17h5f1d383c936232e3E
libmozjs128-debug.so:_ZN176_$LT$serde..de..impls..$LT$impl$u20$serde..de..Deserialize$u20$for$u20$core..num..nonzero..NonZero$LT$i32$GT$$GT$..deserialize..NonZeroVisitor$u20$as$u20$serde..de..Visitor$GT$9expecting17hca1cbdadb28e446fE
libmozjs128-debug.so:_ZN176_$LT$serde..de..impls..$LT$impl$u20$serde..de..Deserialize$u20$for$u20$core..num..nonzero..NonZero$LT$i64$GT$$GT$..deserialize..NonZeroVisitor$u20$as$u20$serde..de..Visitor$GT$9expecting17h75ea161fbbd2cc53E
libmozjs128-debug.so:_ZN176_$LT$serde..de..impls..$LT$impl$u20$serde..de..Deserialize$u20$for$u20$core..num..nonzero..NonZero$LT$u16$GT$$GT$..deserialize..NonZeroVisitor$u20$as$u20$serde..de..Visitor$GT$9expecting17hec98ea4be82ae313E
libmozjs128-debug.so:_ZN176_$LT$serde..de..impls..$LT$impl$u20$serde..de..Deserialize$u20$for$u20$core..num..nonzero..NonZero$LT$u32$GT$$GT$..deserialize..NonZeroVisitor$u20$as$u20$serde..de..Visitor$GT$9expecting17hb4a7791b14c629a7E
libmozjs128-debug.so:_ZN176_$LT$serde..de..impls..$LT$impl$u20$serde..de..Deserialize$u20$for$u20$core..num..nonzero..NonZero$LT$u64$GT$$GT$..deserialize..NonZeroVisitor$u20$as$u20$serde..de..Visitor$GT$9expecting17heaa1c147a44f648eE
libmozjs128-debug.so:_ZN177_$LT$serde..de..impls..$LT$impl$u20$serde..de..Deserialize$u20$for$u20$core..num..nonzero..NonZero$LT$i128$GT$$GT$..deserialize..NonZeroVisitor$u20$as$u20$serde..de..Visitor$GT$9expecting17he3f85177afd06cb0E
libmozjs128-debug.so:_ZN177_$LT$serde..de..impls..$LT$impl$u20$serde..de..Deserialize$u20$for$u20$core..num..nonzero..NonZero$LT$u128$GT$$GT$..deserialize..NonZeroVisitor$u20$as$u20$serde..de..Visitor$GT$9expecting17h6fdb2ba1450b532bE
libmozjs128-debug.so:_ZN178_$LT$serde..de..impls..$LT$impl$u20$serde..de..Deserialize$u20$for$u20$core..num..nonzero..NonZero$LT$isize$GT$$GT$..deserialize..NonZeroVisitor$u20$as$u20$serde..de..Visitor$GT$9expecting17h99e6f1d075e84808E
libmozjs128-debug.so:_ZN178_$LT$serde..de..impls..$LT$impl$u20$serde..de..Deserialize$u20$for$u20$core..num..nonzero..NonZero$LT$usize$GT$$GT$..deserialize..NonZeroVisitor$u20$as$u20$serde..de..Visitor$GT$9expecting17ha82c6c302a3e5bfeE
libmozjs128-debug.so:_ZN17double_conversion23DoubleToStringConverter13DoubleToAsciiEdNS0_8DtoaModeEiPciPbPiS4_
libmozjs128-debug.so:_ZN17double_conversion23DoubleToStringConverter19EcmaScriptConverterEv
libmozjs128-debug.so:_ZN184_$LT$serde..de..impls..$LT$impl$u20$serde..de..Deserialize$u20$for$u20$core..num..saturating..Saturating$LT$i8$GT$$GT$..deserialize..SaturatingVisitor$u20$as$u20$serde..de..Visitor$GT$9expecting17h11ecdd201aae4920E
libmozjs128-debug.so:_ZN184_$LT$serde..de..impls..$LT$impl$u20$serde..de..Deserialize$u20$for$u20$core..num..saturating..Saturating$LT$u8$GT$$GT$..deserialize..SaturatingVisitor$u20$as$u20$serde..de..Visitor$GT$9expecting17heb40f514e72ae9a6E
libmozjs128-debug.so:_ZN185_$LT$core..ops..control_flow..ControlFlow$LT$B$C$C$GT$$u20$as$u20$core..ops..try_trait..FromResidual$LT$core..ops..control_flow..ControlFlow$LT$B$C$core..convert..Infallible$GT$$GT$$GT$13from_residual17h460cbd559e615b30E
libmozjs128-debug.so:_ZN185_$LT$core..ops..control_flow..ControlFlow$LT$B$C$C$GT$$u20$as$u20$core..ops..try_trait..FromResidual$LT$core..ops..control_flow..ControlFlow$LT$B$C$core..convert..Infallible$GT$$GT$$GT$13from_residual17h50b79183a2745021E
libmozjs128-debug.so:_ZN185_$LT$core..ops..control_flow..ControlFlow$LT$B$C$C$GT$$u20$as$u20$core..ops..try_trait..FromResidual$LT$core..ops..control_flow..ControlFlow$LT$B$C$core..convert..Infallible$GT$$GT$$GT$13from_residual17hefb3187004332a27E
libmozjs128-debug.so:_ZN185_$LT$serde..de..impls..$LT$impl$u20$serde..de..Deserialize$u20$for$u20$core..num..saturating..Saturating$LT$i16$GT$$GT$..deserialize..SaturatingVisitor$u20$as$u20$serde..de..Visitor$GT$9expecting17h388128866e6ada8eE
libmozjs128-debug.so:_ZN185_$LT$serde..de..impls..$LT$impl$u20$serde..de..Deserialize$u20$for$u20$core..num..saturating..Saturating$LT$i32$GT$$GT$..deserialize..SaturatingVisitor$u20$as$u20$serde..de..Visitor$GT$9expecting17h5382d77ddc4acc0aE
libmozjs128-debug.so:_ZN185_$LT$serde..de..impls..$LT$impl$u20$serde..de..Deserialize$u20$for$u20$core..num..saturating..Saturating$LT$i64$GT$$GT$..deserialize..SaturatingVisitor$u20$as$u20$serde..de..Visitor$GT$9expecting17h943dd910d309a6d0E
libmozjs128-debug.so:_ZN185_$LT$serde..de..impls..$LT$impl$u20$serde..de..Deserialize$u20$for$u20$core..num..saturating..Saturating$LT$u16$GT$$GT$..deserialize..SaturatingVisitor$u20$as$u20$serde..de..Visitor$GT$9expecting17hbf8902e335a7612dE
libmozjs128-debug.so:_ZN185_$LT$serde..de..impls..$LT$impl$u20$serde..de..Deserialize$u20$for$u20$core..num..saturating..Saturating$LT$u32$GT$$GT$..deserialize..SaturatingVisitor$u20$as$u20$serde..de..Visitor$GT$9expecting17h4d480be4c411a959E
libmozjs128-debug.so:_ZN185_$LT$serde..de..impls..$LT$impl$u20$serde..de..Deserialize$u20$for$u20$core..num..saturating..Saturating$LT$u64$GT$$GT$..deserialize..SaturatingVisitor$u20$as$u20$serde..de..Visitor$GT$9expecting17h0cc5e145224f2ae5E
libmozjs128-debug.so:_ZN186_$LT$serde..de..impls..$LT$impl$u20$serde..de..Deserialize$u20$for$u20$core..num..saturating..Saturating$LT$i128$GT$$GT$..deserialize..SaturatingVisitor$u20$as$u20$serde..de..Visitor$GT$9expecting17hafd6336e4d1b2249E
libmozjs128-debug.so:_ZN186_$LT$serde..de..impls..$LT$impl$u20$serde..de..Deserialize$u20$for$u20$core..num..saturating..Saturating$LT$u128$GT$$GT$..deserialize..SaturatingVisitor$u20$as$u20$serde..de..Visitor$GT$9expecting17h6b2900d4697e07a0E
libmozjs128-debug.so:_ZN187_$LT$serde..de..impls..$LT$impl$u20$serde..de..Deserialize$u20$for$u20$core..num..saturating..Saturating$LT$isize$GT$$GT$..deserialize..SaturatingVisitor$u20$as$u20$serde..de..Visitor$GT$9expecting17hc24ccf1f8601649bE
libmozjs128-debug.so:_ZN187_$LT$serde..de..impls..$LT$impl$u20$serde..de..Deserialize$u20$for$u20$core..num..saturating..Saturating$LT$usize$GT$$GT$..deserialize..SaturatingVisitor$u20$as$u20$serde..de..Visitor$GT$9expecting17h0dc6b7ed2f095f2cE
libmozjs128-debug.so:_ZN19JSAutoNullableRealmC1EP9JSContextP8JSObject
libmozjs128-debug.so:_ZN19JSAutoNullableRealmC2EP9JSContextP8JSObject
libmozjs128-debug.so:_ZN19JSAutoNullableRealmD1Ev
libmozjs128-debug.so:_ZN19JSAutoNullableRealmD2Ev
libmozjs128-debug.so:_ZN218_$LT$$LT$serde..de..impls..$LT$impl$u20$serde..de..Deserialize$u20$for$u20$core..time..Duration$GT$..deserialize..Field$u20$as$u20$serde..de..Deserialize$GT$..deserialize..FieldVisitor$u20$as$u20$serde..de..Visitor$GT$9expecting17ha1ab93d1d9b3d294E
libmozjs128-debug.so:_ZN219_$LT$$LT$serde..de..impls..$LT$impl$u20$serde..de..Deserialize$u20$for$u20$std..time..SystemTime$GT$..deserialize..Field$u20$as$u20$serde..de..Deserialize$GT$..deserialize..FieldVisitor$u20$as$u20$serde..de..Visitor$GT$9expecting17he8175ff958168f33E
libmozjs128-debug.so:_ZN21JSStructuredCloneData20discardTransferablesEv
libmozjs128-debug.so:_ZN21JSStructuredCloneDataD1Ev
libmozjs128-debug.so:_ZN21JSStructuredCloneDataD2Ev
libmozjs128-debug.so:_ZN228_$LT$$LT$serde..de..impls..$LT$impl$u20$serde..de..Deserialize$u20$for$u20$core..net..ip_addr..IpAddr$GT$..deserialize..IpAddrKind$u20$as$u20$serde..de..Deserialize$GT$..deserialize..KindVisitor$u20$as$u20$serde..de..Visitor$GT$9expecting17h2acf0a1118f68291E
libmozjs128-debug.so:_ZN230_$LT$$LT$serde..de..impls..$LT$impl$u20$serde..de..Deserialize$u20$for$u20$core..ops..range..Bound$LT$T$GT$$GT$..deserialize..Field$u20$as$u20$serde..de..Deserialize$GT$..deserialize..FieldVisitor$u20$as$u20$serde..de..Visitor$GT$9expecting17h4331c2df271702eaE
libmozjs128-debug.so:_ZN231_$LT$$LT$serde..de..impls..$LT$impl$u20$serde..de..Deserialize$u20$for$u20$core..result..Result$LT$T$C$E$GT$$GT$..deserialize..Field$u20$as$u20$serde..de..Deserialize$GT$..deserialize..FieldVisitor$u20$as$u20$serde..de..Visitor$GT$9expecting17he20b1e9b1516bda0E
libmozjs128-debug.so:_ZN240_$LT$$LT$serde..de..impls..$LT$impl$u20$serde..de..Deserialize$u20$for$u20$core..net..socket_addr..SocketAddr$GT$..deserialize..SocketAddrKind$u20$as$u20$serde..de..Deserialize$GT$..deserialize..KindVisitor$u20$as$u20$serde..de..Visitor$GT$9expecting17h5910640d31390ea6E
libmozjs128-debug.so:_ZN27JSAutoStructuredCloneBuffer4readEP9JSContextN2JS13MutableHandleINS2_5ValueEEERKNS2_15CloneDataPolicyEPK26JSStructuredCloneCallbacksPv
libmozjs128-debug.so:_ZN27JSAutoStructuredCloneBuffer5adoptEO21JSStructuredCloneDatajPK26JSStructuredCloneCallbacksPv
libmozjs128-debug.so:_ZN27JSAutoStructuredCloneBuffer5clearEv
libmozjs128-debug.so:_ZN27JSAutoStructuredCloneBuffer5writeEP9JSContextN2JS6HandleINS2_5ValueEEEPK26JSStructuredCloneCallbacksPv
libmozjs128-debug.so:_ZN27JSAutoStructuredCloneBuffer5writeEP9JSContextN2JS6HandleINS2_5ValueEEES5_RKNS2_15CloneDataPolicyEPK26JSStructuredCloneCallbacksPv
libmozjs128-debug.so:_ZN27JSAutoStructuredCloneBuffer6giveToEP21JSStructuredCloneData
libmozjs128-debug.so:_ZN27JSAutoStructuredCloneBufferC1EOS_
libmozjs128-debug.so:_ZN27JSAutoStructuredCloneBufferC2EOS_
libmozjs128-debug.so:_ZN27JSAutoStructuredCloneBufferaSEOS_
libmozjs128-debug.so:_ZN2JS10EnterRealmEP9JSContextP8JSObject
libmozjs128-debug.so:_ZN2JS10IsCallableEP8JSObject
libmozjs128-debug.so:_ZN2JS10LeaveRealmEP9JSContextPNS_5RealmE
libmozjs128-debug.so:_ZN2JS10MapEntriesEP9JSContextNS_6HandleIP8JSObjectEENS_13MutableHandleINS_5ValueEEE
libmozjs128-debug.so:_ZN2JS10MapForEachEP9JSContextNS_6HandleIP8JSObjectEENS2_INS_5ValueEEES7_
libmozjs128-debug.so:_ZN2JS10ModuleLinkEP9JSContextNS_6HandleIP8JSObjectEE
libmozjs128-debug.so:_ZN2JS10PrintErrorEP8_IO_FILEP13JSErrorReportb
libmozjs128-debug.so:_ZN2JS10PrintErrorEP8_IO_FILERKNS_18ErrorReportBuilderEb
libmozjs128-debug.so:_ZN2JS10ScheduleGCEP9JSContextj
libmozjs128-debug.so:_ZN2JS10SetEntriesEP9JSContextNS_6HandleIP8JSObjectEENS_13MutableHandleINS_5ValueEEE
libmozjs128-debug.so:_ZN2JS10SetForEachEP9JSContextNS_6HandleIP8JSObjectEENS2_INS_5ValueEEES7_
libmozjs128-debug.so:_ZN2JS10ToBigInt64EPKNS_6BigIntE
libmozjs128-debug.so:_ZN2JS10ToGetterIdEP9JSContextNS_6HandleINS_11PropertyKeyEEENS_13MutableHandleIS3_EE
libmozjs128-debug.so:_ZN2JS10ToSetterIdEP9JSContextNS_6HandleINS_11PropertyKeyEEENS_13MutableHandleIS3_EE
libmozjs128-debug.so:_ZN2JS10WarnLatin1EP9JSContextPKcz
libmozjs128-debug.so:_ZN2JS11ArrayBuffer19GrowableSharedClassE
libmozjs128-debug.so:_ZN2JS11ArrayBuffer22FixedLengthSharedClassE
libmozjs128-debug.so:_ZN2JS11ArrayBuffer22ResizableUnsharedClassE
libmozjs128-debug.so:_ZN2JS11ArrayBuffer24FixedLengthUnsharedClassE
libmozjs128-debug.so:_ZN2JS11ArrayBuffer6createEP9JSContextm
libmozjs128-debug.so:_ZN2JS11ArrayBuffer6unwrapEP8JSObject
libmozjs128-debug.so:_ZN2JS11ArrayBuffer7getDataEPbRKNS_15AutoRequireNoGCE
libmozjs128-debug.so:_ZN2JS11Compartment10putWrapperEP9JSContextP8JSObjectS4_
libmozjs128-debug.so:_ZN2JS11Compartment10putWrapperEP9JSContextP8JSStringS4_
libmozjs128-debug.so:_ZN2JS11Compartment11sweepRealmsEPNS_9GCContextEbb
libmozjs128-debug.so:_ZN2JS11Compartment13removeWrapperEN2js16ObjectWrapperMap3PtrE
libmozjs128-debug.so:_ZN2JS11Compartment17sweepAfterMinorGCEP8JSTracer
libmozjs128-debug.so:_ZN2JS11Compartment18fixupAfterMovingGCEP8JSTracer
libmozjs128-debug.so:_ZN2JS11Compartment18getOrCreateWrapperEP9JSContextNS_6HandleIP8JSObjectEENS_13MutableHandleIS5_EE
libmozjs128-debug.so:_ZN2JS11Compartment19findSweepGroupEdgesEv
libmozjs128-debug.so:_ZN2JS11Compartment22addSizeOfIncludingThisEPFmPKvEPmS5_S5_
libmozjs128-debug.so:_ZN2JS11Compartment24traceWeakNativeIteratorsEP8JSTracer
libmozjs128-debug.so:_ZN2JS11Compartment32checkObjectWrappersAfterMovingGCEv
libmozjs128-debug.so:_ZN2JS11Compartment35traceWrapperTargetsInCollectedZonesEP8JSTracerNS0_12EdgeSelectorE
libmozjs128-debug.so:_ZN2JS11Compartment39traceCrossCompartmentObjectWrapperEdgesEP8JSTracer
libmozjs128-debug.so:_ZN2JS11Compartment40getNonWrapperObjectForCurrentCompartmentEP9JSContextNS_6HandleIP8JSObjectEENS_13MutableHandleIS5_EE
libmozjs128-debug.so:_ZN2JS11Compartment43traceIncomingCrossCompartmentEdgesForZoneGCEP8JSTracerNS0_12EdgeSelectorE
libmozjs128-debug.so:_ZN2JS11Compartment48fixupCrossCompartmentObjectWrappersAfterMovingGCEP8JSTracer
libmozjs128-debug.so:_ZN2JS11Compartment4wrapEP9JSContextNS_13MutableHandleIN7mozilla5MaybeINS_18PropertyDescriptorEEEEE
libmozjs128-debug.so:_ZN2JS11Compartment4wrapEP9JSContextNS_13MutableHandleINS_18PropertyDescriptorEEE
libmozjs128-debug.so:_ZN2JS11Compartment4wrapEP9JSContextNS_13MutableHandleINS_8GCVectorINS_5ValueELm0EN2js15TempAllocPolicyEEEEE
libmozjs128-debug.so:_ZN2JS11Compartment4wrapEP9JSContextNS_13MutableHandleIP8JSObjectEE
libmozjs128-debug.so:_ZN2JS11Compartment4wrapEP9JSContextNS_13MutableHandleIP8JSStringEE
libmozjs128-debug.so:_ZN2JS11Compartment4wrapEP9JSContextNS_13MutableHandleIPNS_6BigIntEEE
libmozjs128-debug.so:_ZN2JS11Compartment6rewrapEP9JSContextNS_13MutableHandleIP8JSObjectEENS_6HandleIS5_EE
libmozjs128-debug.so:_ZN2JS11Compartment7destroyEPNS_9GCContextE
libmozjs128-debug.so:_ZN2JS11CompartmentC1EPNS_4ZoneEb
libmozjs128-debug.so:_ZN2JS11CompartmentC2EPNS_4ZoneEb
libmozjs128-debug.so:_ZN2JS11CreateErrorEP9JSContext9JSExnTypeNS_6HandleIP8JSObjectEENS3_IP8JSStringEEjNS_21ColumnNumberOneOriginEP13JSErrorReportS9_NS3_IN7mozilla5MaybeINS_5ValueEEEEENS_13MutableHandleISF_EE
libmozjs128-debug.so:_ZN2JS11DayFromTimeEd
libmozjs128-debug.so:_ZN2JS11DayFromYearEd
libmozjs128-debug.so:_ZN2JS11GetJSTimersEP9JSContext
libmozjs128-debug.so:_ZN2JS11IsAtomsZoneEPNS_4ZoneE
libmozjs128-debug.so:_ZN2JS11IsMapObjectEP9JSContextNS_6HandleIP8JSObjectEEPb
libmozjs128-debug.so:_ZN2JS11IsSetObjectEP9JSContextNS_6HandleIP8JSObjectEEPb
libmozjs128-debug.so:_ZN2JS11IsValidJSONEPKDsj
libmozjs128-debug.so:_ZN2JS11IsValidJSONEPKhj
libmozjs128-debug.so:_ZN2JS11PropertyKey12isNonIntAtomEP6JSAtom
libmozjs128-debug.so:_ZN2JS11PropertyKey12isNonIntAtomEP8JSString
libmozjs128-debug.so:_ZN2JS11PropertyKey16fromPinnedStringEP8JSString
libmozjs128-debug.so:_ZN2JS11SetJobQueueEP9JSContextPNS_8JobQueueE
libmozjs128-debug.so:_ZN2JS11ToBigUint64EPKNS_6BigIntE
libmozjs128-debug.so:_ZN2JS11ToPrimitiveEP9JSContextNS_6HandleIP8JSObjectEE6JSTypeNS_13MutableHandleINS_5ValueEEE
libmozjs128-debug.so:_ZN2JS11UnsetGCZealEP9JSContexth
libmozjs128-debug.so:_ZN2JS12AddSizeOfTabEP9JSContextNS_6HandleIP8JSObjectEEPFmPKvEPNS_20ObjectPrivateVisitorEPNS_8TabSizesE
libmozjs128-debug.so:_ZN2JS12AutoFilename10setUnownedEPKc
libmozjs128-debug.so:_ZN2JS12AutoFilename15setScriptSourceEPN2js12ScriptSourceE
libmozjs128-debug.so:_ZN2JS12AutoFilename5resetEv
libmozjs128-debug.so:_ZN2JS12AutoFilename8setOwnedEON7mozilla9UniquePtrIA_cNS_10FreePolicyEEE
libmozjs128-debug.so:_ZN2JS12AutoGCRooter5traceEP8JSTracer
libmozjs128-debug.so:_ZN2JS12GetPromiseIDENS_6HandleIP8JSObjectEE
libmozjs128-debug.so:_ZN2JS12GetSymbolForEP9JSContextNS_6HandleIP8JSStringEE
libmozjs128-debug.so:_ZN2JS12LooselyEqualEP9JSContextNS_6HandleINS_5ValueEEES4_Pb
libmozjs128-debug.so:_ZN2JS12NewMapObjectEP9JSContext
libmozjs128-debug.so:_ZN2JS12NewSetObjectEP9JSContext
libmozjs128-debug.so:_ZN2JS12ObjectIsDateEP9JSContextNS_6HandleIP8JSObjectEEPb
libmozjs128-debug.so:_ZN2JS12ProtoKeyToIdEP9JSContext10JSProtoKeyNS_13MutableHandleINS_11PropertyKeyEEE
libmozjs128-debug.so:_ZN2JS12YearFromTimeEd
libmozjs128-debug.so:_ZN2JS13CompileModuleEP9JSContextRKNS_22ReadOnlyCompileOptionsERNS_10SourceTextIDsEE
libmozjs128-debug.so:_ZN2JS13CompileModuleEP9JSContextRKNS_22ReadOnlyCompileOptionsERNS_10SourceTextIN7mozilla8Utf8UnitEEE
libmozjs128-debug.so:_ZN2JS13DayWithinYearEdd
libmozjs128-debug.so:_ZN2JS13DecodeStencilEP9JSContextRKNS_21ReadOnlyDecodeOptionsERKN7mozilla5RangeIKhEEPPN2js8frontend18CompilationStencilE
libmozjs128-debug.so:_ZN2JS13DecodeStencilEPN2js15FrontendContextERKNS_21ReadOnlyDecodeOptionsERKN7mozilla5RangeIKhEEPPNS0_8frontend18CompilationStencilE
libmozjs128-debug.so:_ZN2JS13EncodeStencilEP9JSContextPN2js8frontend18CompilationStencilERN7mozilla6VectorIhLm0ENS6_17MallocAllocPolicyEEE
libmozjs128-debug.so:_ZN2JS13ExecuteRegExpEP9JSContextNS_6HandleIP8JSObjectEES5_PKDsmPmbNS_13MutableHandleINS_5ValueEEE
libmozjs128-debug.so:_ZN2JS13ForOfIterator10closeThrowEv
libmozjs128-debug.so:_ZN2JS13ForOfIterator4initENS_6HandleINS_5ValueEEENS0_19NonIterableBehaviorE
libmozjs128-debug.so:_ZN2JS13ForOfIterator4nextENS_13MutableHandleINS_5ValueEEEPb
libmozjs128-debug.so:_ZN2JS13GetGCZealBitsEP9JSContextPjS2_S2_
libmozjs128-debug.so:_ZN2JS13GetObjectZoneEP8JSObject
libmozjs128-debug.so:_ZN2JS13GetSymbolCodeENS_6HandleIPNS_6SymbolEEE
libmozjs128-debug.so:_ZN2JS13GetWasmModuleENS_6HandleIP8JSObjectEE
libmozjs128-debug.so:_ZN2JS13IsArrayObjectEP9JSContextNS_6HandleINS_5ValueEEEPb
libmozjs128-debug.so:_ZN2JS13IsArrayObjectEP9JSContextNS_6HandleIP8JSObjectEEPb
libmozjs128-debug.so:_ZN2JS13IsConstructorEP8JSObject
libmozjs128-debug.so:_ZN2JS13IsGCPoisoningEv
libmozjs128-debug.so:_ZN2JS13IsGCScheduledEP9JSContext
libmozjs128-debug.so:_ZN2JS13IterateRealmsEP9JSContextPvPFvS1_S2_PNS_5RealmERKNS_15AutoRequireNoGCEE
libmozjs128-debug.so:_ZN2JS13MinorGcToJSONEP9JSContext
libmozjs128-debug.so:_ZN2JS13MonthFromTimeEd
libmozjs128-debug.so:_ZN2JS13NewDateObjectEP9JSContextNS_11ClippedTimeE
libmozjs128-debug.so:_ZN2JS13NewDateObjectEP9JSContextiiiiii
libmozjs128-debug.so:_ZN2JS13PurgePCCountsEP9JSContext
libmozjs128-debug.so:_ZN2JS13RejectPromiseEP9JSContextNS_6HandleIP8JSObjectEENS2_INS_5ValueEEE
libmozjs128-debug.so:_ZN2JS13ResetTimeZoneEv
libmozjs128-debug.so:_ZN2JS13SizeOfStencilEPN2js8frontend18CompilationStencilEPFmPKvE
libmozjs128-debug.so:_ZN2JS13SkipZoneForGCEP9JSContextPNS_4ZoneE
libmozjs128-debug.so:_ZN2JS13StencilAddRefEPN2js8frontend18CompilationStencilE
libmozjs128-debug.so:_ZN2JS13StrictlyEqualEP9JSContextNS_6HandleINS_5ValueEEES4_Pb
libmozjs128-debug.so:_ZN2JS13StringIsASCIIEN7mozilla4SpanIKcLm18446744073709551615EEE
libmozjs128-debug.so:_ZN2JS13StringIsASCIIEPKc
libmozjs128-debug.so:_ZN2JS13TraceChildrenEP8JSTracerNS_9GCCellPtrE
libmozjs128-debug.so:_ZN2JS14AddServoSizeOfEP9JSContextPFmPKvEPNS_20ObjectPrivateVisitorEPNS_10ServoSizesE
libmozjs128-debug.so:_ZN2JS14AutoAssertNoGC5resetEv
libmozjs128-debug.so:_ZN2JS14AutoAssertNoGCC1EP9JSContext
libmozjs128-debug.so:_ZN2JS14AutoAssertNoGCC2EP9JSContext
libmozjs128-debug.so:_ZN2JS14AutoAssertNoGCD1Ev
libmozjs128-debug.so:_ZN2JS14AutoAssertNoGCD2Ev
libmozjs128-debug.so:_ZN2JS14BigIntToNumberEPKNS_6BigIntE
libmozjs128-debug.so:_ZN2JS14BigIntToStringEP9JSContextNS_6HandleIPNS_6BigIntEEEh
libmozjs128-debug.so:_ZN2JS14CallbackTracerC1EP9JSContextNS_10TracerKindENS_12TraceOptionsE
libmozjs128-debug.so:_ZN2JS14CallbackTracerC2EP9JSContextNS_10TracerKindENS_12TraceOptionsE
libmozjs128-debug.so:_ZN2JS14CompileOptions27setIntroductionInfoToCallerEP9JSContextPKcNS_13MutableHandleIP8JSScriptEE
libmozjs128-debug.so:_ZN2JS14CompileOptionsC1EP9JSContext
libmozjs128-debug.so:_ZN2JS14CompileOptionsC2EP9JSContext
libmozjs128-debug.so:_ZN2JS14ContextOptions10setFuzzingEb
libmozjs128-debug.so:_ZN2JS14CopyAsyncStackEP9JSContextNS_6HandleIP8JSObjectEENS2_IP8JSStringEENS_13MutableHandleIS4_EERKN7mozilla5MaybeImEE
libmozjs128-debug.so:_ZN2JS14GetArrayLengthEP9JSContextNS_6HandleIP8JSObjectEEPj
libmozjs128-debug.so:_ZN2JS14GetRegExpFlagsEP9JSContextNS_6HandleIP8JSObjectEE
libmozjs128-debug.so:_ZN2JS14IsISOStyleDateEP9JSContextRKNS_11Latin1CharsE
libmozjs128-debug.so:_ZN2JS14ModuleEvaluateEP9JSContextNS_6HandleIP8JSObjectEENS_13MutableHandleINS_5ValueEEE
libmozjs128-debug.so:_ZN2JS14ModuleIsLinkedEP8JSObject
libmozjs128-debug.so:_ZN2JS14NewArrayBufferEP9JSContextm
libmozjs128-debug.so:_ZN2JS14NewArrayObjectEP9JSContextRKNS_16HandleValueArrayE
libmozjs128-debug.so:_ZN2JS14NewArrayObjectEP9JSContextm
libmozjs128-debug.so:_ZN2JS14NumberToBigIntEP9JSContextd
libmozjs128-debug.so:_ZN2JS14NumberToStringEdRA32_c
libmozjs128-debug.so:_ZN2JS14ObjectIsRegExpEP9JSContextNS_6HandleIP8JSObjectEEPb
libmozjs128-debug.so:_ZN2JS14ObjectOpResult12failBadIndexEv
libmozjs128-debug.so:_ZN2JS14ObjectOpResult12failReadOnlyEv
libmozjs128-debug.so:_ZN2JS14ObjectOpResult14failCantDeleteEv
libmozjs128-debug.so:_ZN2JS14ObjectOpResult14failGetterOnlyEv
libmozjs128-debug.so:_ZN2JS14ObjectOpResult16failCantSetProtoEv
libmozjs128-debug.so:_ZN2JS14ObjectOpResult17failNoNamedSetterEv
libmozjs128-debug.so:_ZN2JS14ObjectOpResult18failBadArrayLengthEv
libmozjs128-debug.so:_ZN2JS14ObjectOpResult19failNoIndexedSetterEv
libmozjs128-debug.so:_ZN2JS14ObjectOpResult20failCantRedefinePropEv
libmozjs128-debug.so:_ZN2JS14ObjectOpResult21failCantSetInterposedEv
libmozjs128-debug.so:_ZN2JS14ObjectOpResult21failInvalidDescriptorEv
libmozjs128-debug.so:_ZN2JS14ObjectOpResult21failNotDataDescriptorEv
libmozjs128-debug.so:_ZN2JS14ObjectOpResult25failCantPreventExtensionsEv
libmozjs128-debug.so:_ZN2JS14ObjectOpResult27failCantDefineWindowElementEv
libmozjs128-debug.so:_ZN2JS14ObjectOpResult27failCantDeleteWindowElementEv
libmozjs128-debug.so:_ZN2JS14ObjectOpResult33failCantDefineWindowNamedPropertyEv
libmozjs128-debug.so:_ZN2JS14ObjectOpResult33failCantDeleteWindowNamedPropertyEv
libmozjs128-debug.so:_ZN2JS14ObjectOpResult35failCantDefineWindowNonConfigurableEv
libmozjs128-debug.so:_ZN2JS14ResolvePromiseEP9JSContextNS_6HandleIP8JSObjectEENS2_INS_5ValueEEE
libmozjs128-debug.so:_ZN2JS14SetArrayLengthEP9JSContextNS_6HandleIP8JSObjectEEj
libmozjs128-debug.so:_ZN2JS14SetBrittleModeEP9JSContextb
libmozjs128-debug.so:_ZN2JS14SetRegExpInputEP9JSContextNS_6HandleIP8JSObjectEENS2_IP8JSStringEE
libmozjs128-debug.so:_ZN2JS14SetXrayJitInfoEPNS_11XrayJitInfoE
libmozjs128-debug.so:_ZN2JS14StencilReleaseEPN2js8frontend18CompilationStencilE
libmozjs128-debug.so:_ZN2JS14StringToBigIntEP9JSContextRKN7mozilla5RangeIKDsEE
libmozjs128-debug.so:_ZN2JS14StringToBigIntEP9JSContextRKN7mozilla5RangeIKhEE
libmozjs128-debug.so:_ZN2JS14UserRealmCountEP9JSContext
libmozjs128-debug.so:_ZN2JS15ArrayBufferView7getDataEPbRKNS_15AutoRequireNoGCE
libmozjs128-debug.so:_ZN2JS15CompileFunctionEP9JSContextNS_6HandleINS_13StackGCVectorIP8JSObjectN2js15TempAllocPolicyEEEEERKNS_22ReadOnlyCompileOptionsEPKcjPKSE_RNS_10SourceTextIDsEE
libmozjs128-debug.so:_ZN2JS15CompileFunctionEP9JSContextNS_6HandleINS_13StackGCVectorIP8JSObjectN2js15TempAllocPolicyEEEEERKNS_22ReadOnlyCompileOptionsEPKcjPKSE_RNS_10SourceTextIN7mozilla8Utf8UnitEEE
libmozjs128-debug.so:_ZN2JS15CompileUtf8FileEP9JSContextRKNS_22ReadOnlyCompileOptionsEP8_IO_FILE
libmozjs128-debug.so:_ZN2JS15CompileUtf8PathEP9JSContextRKNS_22ReadOnlyCompileOptionsEPKc
libmozjs128-debug.so:_ZN2JS15ConstUTF8CharsZ21validateWithoutLengthEv
libmozjs128-debug.so:_ZN2JS15ConstUTF8CharsZ8validateEm
libmozjs128-debug.so:_ZN2JS15CopyArrayBufferEP9JSContextNS_6HandleIP8JSObjectEE
libmozjs128-debug.so:_ZN2JS15ExplainGCReasonENS_8GCReasonE
libmozjs128-debug.so:_ZN2JS15FormatStackDumpEP9JSContextbbb
libmozjs128-debug.so:_ZN2JS15GCTraceKindSizeENS_9TraceKindE
libmozjs128-debug.so:_ZN2JS15GetBuiltinClassEP9JSContextNS_6HandleIP8JSObjectEEPN2js7ESClassE
libmozjs128-debug.so:_ZN2JS15GetModuleObjectENS_6HandleIP8JSScriptEE
libmozjs128-debug.so:_ZN2JS15GetModuleScriptENS_6HandleIP8JSObjectEE
libmozjs128-debug.so:_ZN2JS15GetPromiseStateENS_6HandleIP8JSObjectEE
libmozjs128-debug.so:_ZN2JS15GetRealmPrivateEPNS_5RealmE
libmozjs128-debug.so:_ZN2JS15GetRegExpSourceEP9JSContextNS_6HandleIP8JSObjectEE
libmozjs128-debug.so:_ZN2JS15GetWeakMapEntryEP9JSContextNS_6HandleIP8JSObjectEENS2_INS_5ValueEEENS_13MutableHandleIS6_EE
libmozjs128-debug.so:_ZN2JS15IsPromiseObjectENS_6HandleIP8JSObjectEE
libmozjs128-debug.so:_ZN2JS15IsWeakMapObjectEP8JSObject
libmozjs128-debug.so:_ZN2JS15JobQueueIsEmptyEP9JSContext
libmozjs128-debug.so:_ZN2JS15NewRegExpObjectEP9JSContextPKcmNS_11RegExpFlagsE
libmozjs128-debug.so:_ZN2JS15NullHandleValueE
libmozjs128-debug.so:_ZN2JS15SetRealmNonLiveEPNS_5RealmE
libmozjs128-debug.so:_ZN2JS15SetRealmPrivateEPNS_5RealmEPv
libmozjs128-debug.so:_ZN2JS15SetWaitCallbackEP9JSRuntimePFPvPhEPFvS2_Em
libmozjs128-debug.so:_ZN2JS15SetWeakMapEntryEP9JSContextNS_6HandleIP8JSObjectEENS2_INS_5ValueEEES7_
libmozjs128-debug.so:_ZN2JS15TrueHandleValueE
libmozjs128-debug.so:_ZN2JS15TypedArray_base10fromObjectEP8JSObject
libmozjs128-debug.so:_ZN2JS15TypedArray_base16resizableClassesE
libmozjs128-debug.so:_ZN2JS15TypedArray_base18fixedLengthClassesE
libmozjs128-debug.so:_ZN2JS16ArrayBufferCloneEP9JSContextNS_6HandleIP8JSObjectEEmm
libmozjs128-debug.so:_ZN2JS16BigIntFitsNumberEPKNS_6BigIntEPd
libmozjs128-debug.so:_ZN2JS16BigIntIsNegativeEPKNS_6BigIntE
libmozjs128-debug.so:_ZN2JS16BuildStackStringEP9JSContextP12JSPrincipalsNS_6HandleIP8JSObjectEENS_13MutableHandleIP8JSStringEEmN2js11StackFormatE
libmozjs128-debug.so:_ZN2JS16ClearKeptObjectsEP9JSContext
libmozjs128-debug.so:_ZN2JS16EncodeUtf8ToWideEP9JSContextPKc
libmozjs128-debug.so:_ZN2JS16EncodeWideToUtf8EP9JSContextPKw
libmozjs128-debug.so:_ZN2JS16EvaluateUtf8PathEP9JSContextRKNS_22ReadOnlyCompileOptionsEPKcNS_13MutableHandleINS_5ValueEEE
libmozjs128-debug.so:_ZN2JS16FalseHandleValueE
libmozjs128-debug.so:_ZN2JS16GCThingTraceKindEPv
libmozjs128-debug.so:_ZN2JS16GetFunctionRealmEP9JSContextNS_6HandleIP8JSObjectEE
libmozjs128-debug.so:_ZN2JS16GetModulePrivateEP8JSObject
libmozjs128-debug.so:_ZN2JS16GetPromiseResultENS_6HandleIP8JSObjectEE
libmozjs128-debug.so:_ZN2JS16GetScriptPrivateEP8JSScript
libmozjs128-debug.so:_ZN2JS16InternalGCReasonENS_8GCReasonE
libmozjs128-debug.so:_ZN2JS16IsJSMEnvironmentEP8JSObject
libmozjs128-debug.so:_ZN2JS16NewPromiseObjectEP9JSContextNS_6HandleIP8JSObjectEE
libmozjs128-debug.so:_ZN2JS16NewWeakMapObjectEP9JSContext
libmozjs128-debug.so:_ZN2JS16NonIncrementalGCEP9JSContextNS_9GCOptionsENS_8GCReasonE
libmozjs128-debug.so:_ZN2JS16PrepareForFullGCEP9JSContext
libmozjs128-debug.so:_ZN2JS16PrepareZoneForGCEP9JSContextPNS_4ZoneE
libmozjs128-debug.so:_ZN2JS16RuntimeHeapStateEv
libmozjs128-debug.so:_ZN2JS16SetModulePrivateEP8JSObjectRKNS_5ValueE
libmozjs128-debug.so:_ZN2JS16SetScriptPrivateEP8JSScriptRKNS_5ValueE
libmozjs128-debug.so:_ZN2JS16SystemRealmCountEP9JSContext
libmozjs128-debug.so:_ZN2JS16WantEagerMajorGCEP9JSRuntime
libmozjs128-debug.so:_ZN2JS16WantEagerMinorGCEP9JSRuntime
libmozjs128-debug.so:_ZN2JS16WasIncrementalGCEP9JSRuntime
libmozjs128-debug.so:_ZN2JS17AddPersistentRootEP9JSRuntimeNS_8RootKindEPN2js20PersistentRootedBaseE
libmozjs128-debug.so:_ZN2JS17AddPersistentRootEPNS_14RootingContextENS_8RootKindEPN2js20PersistentRootedBaseE
libmozjs128-debug.so:_ZN2JS17ArrayBufferOrView6unwrapEP8JSObject
libmozjs128-debug.so:_ZN2JS17CheckRegExpSyntaxEP9JSContextPKDsmNS_11RegExpFlagsENS_13MutableHandleINS_5ValueEEE
libmozjs128-debug.so:_ZN2JS17CompileJsonModuleEP9JSContextRKNS_22ReadOnlyCompileOptionsERNS_10SourceTextIDsEE
libmozjs128-debug.so:_ZN2JS17ContextOptionsRefEP9JSContext
libmozjs128-debug.so:_ZN2JS17DetachArrayBufferEP9JSContextNS_6HandleIP8JSObjectEE
libmozjs128-debug.so:_ZN2JS17DisableJitBackendEv
libmozjs128-debug.so:_ZN2JS17GetExceptionCauseEP8JSObject
libmozjs128-debug.so:_ZN2JS17GetProfiledFramesEP9JSContextPv
libmozjs128-debug.so:_ZN2JS17GetRealmKeyObjectEP9JSContext
libmozjs128-debug.so:_ZN2JS17GetSavedFrameLineEP9JSContextP12JSPrincipalsNS_6HandleIP8JSObjectEEPjNS_20SavedFrameSelfHostedE
libmozjs128-debug.so:_ZN2JS17HadFrontendErrorsEPN2js15FrontendContextE
libmozjs128-debug.so:_ZN2JS17NewJSMEnvironmentEP9JSContext
libmozjs128-debug.so:_ZN2JS17NewUCRegExpObjectEP9JSContextPKDsmNS_11RegExpFlagsE
libmozjs128-debug.so:_ZN2JS17RealmBehaviorsRefEP9JSContext
libmozjs128-debug.so:_ZN2JS17RealmBehaviorsRefEPNS_5RealmE
libmozjs128-debug.so:_ZN2JS17SetLowMemoryStateEP9JSContextb
libmozjs128-debug.so:_ZN2JS17StencilIsBorrowedEPN2js8frontend18CompilationStencilE
libmozjs128-debug.so:_ZN2JS17ToJSONMaybeSafelyEP9JSContextNS_6HandleIP8JSObjectEEPFbPKDsjPvES8_
libmozjs128-debug.so:_ZN2JS17UnwrapArrayBufferEP8JSObject
libmozjs128-debug.so:_ZN2JS17Utf8ToOneUcs4CharEPKhi
libmozjs128-debug.so:_ZN2JS18AbortIncrementalGCEP9JSContext
libmozjs128-debug.so:_ZN2JS18ArrayBufferHasDataEP8JSObject
libmozjs128-debug.so:_ZN2JS18ClearModulePrivateEP8JSObject
libmozjs128-debug.so:_ZN2JS18ClearRegExpStaticsEP9JSContextNS_6HandleIP8JSObjectEE
libmozjs128-debug.so:_ZN2JS18CollectGlobalStatsEPNS_11GlobalStatsE
libmozjs128-debug.so:_ZN2JS18EncodeNarrowToUtf8EP9JSContextPKc
libmozjs128-debug.so:_ZN2JS18EncodeUtf8ToNarrowEP9JSContextPKc
libmozjs128-debug.so:_ZN2JS18ErrorReportBuilder35populateUncaughtExceptionReportUTF8EP9JSContextNS_6HandleIP8JSObjectEEz
libmozjs128-debug.so:_ZN2JS18ErrorReportBuilder37populateUncaughtExceptionReportUTF8VAEP9JSContextNS_6HandleIP8JSObjectEEP13__va_list_tag
libmozjs128-debug.so:_ZN2JS18ErrorReportBuilder4initEP9JSContextRKNS_14ExceptionStackENS0_16SniffingBehaviorE
libmozjs128-debug.so:_ZN2JS18ErrorReportBuilderC1EP9JSContext
libmozjs128-debug.so:_ZN2JS18ErrorReportBuilderC2EP9JSContext
libmozjs128-debug.so:_ZN2JS18ErrorReportBuilderD1Ev
libmozjs128-debug.so:_ZN2JS18ErrorReportBuilderD2Ev
libmozjs128-debug.so:_ZN2JS18FirstSubsumedFrameC1EP9JSContextb
libmozjs128-debug.so:_ZN2JS18FirstSubsumedFrameC2EP9JSContextb
libmozjs128-debug.so:_ZN2JS18GCTraceKindToAsciiENS_9TraceKindE
libmozjs128-debug.so:_ZN2JS18GetArrayBufferDataEP8JSObjectPbRKNS_15AutoRequireNoGCE
libmozjs128-debug.so:_ZN2JS18GetIsSecureContextEPNS_5RealmE
libmozjs128-debug.so:_ZN2JS18GetModuleNamespaceEP9JSContextNS_6HandleIP8JSObjectEE
libmozjs128-debug.so:_ZN2JS18GetNurseryCellZoneEPN2js2gc4CellE
libmozjs128-debug.so:_ZN2JS18GetRealmPrincipalsEPNS_5RealmE
libmozjs128-debug.so:_ZN2JS18GetWarningReporterEP9JSContext
libmozjs128-debug.so:_ZN2JS18GetWellKnownSymbolEP9JSContextNS_10SymbolCodeE
libmozjs128-debug.so:_ZN2JS18HideScriptedCallerEP9JSContext
libmozjs128-debug.so:_ZN2JS18IncrementalGCSliceEP9JSContextNS_8GCReasonERKN2js11SliceBudgetE
libmozjs128-debug.so:_ZN2JS18InitSelfHostedCodeEP9JSContextN7mozilla4SpanIKhLm18446744073709551615EEEPFbS1_S5_E
libmozjs128-debug.so:_ZN2JS18IsWasmModuleObjectENS_6HandleIP8JSObjectEE
libmozjs128-debug.so:_ZN2JS18NewFrontendContextEv
libmozjs128-debug.so:_ZN2JS18NothingHandleValueE
libmozjs128-debug.so:_ZN2JS18PropertyDescriptor5traceEP8JSTracer
libmozjs128-debug.so:_ZN2JS18SetGCSliceCallbackEP9JSContextPFvS1_NS_10GCProgressERKNS_13GCDescriptionEE
libmozjs128-debug.so:_ZN2JS18SetRealmPrincipalsEPNS_5RealmEP12JSPrincipals
libmozjs128-debug.so:_ZN2JS18SetWarningReporterEP9JSContextPFvS1_P13JSErrorReportE
libmozjs128-debug.so:_ZN2JS18ShutdownAsyncTasksEP9JSContext
libmozjs128-debug.so:_ZN2JS18StartIncrementalGCEP9JSContextNS_9GCOptionsENS_8GCReasonERKN2js11SliceBudgetE
libmozjs128-debug.so:_ZN2JS19AddAssociatedMemoryEP8JSObjectmNS_9MemoryUseE
libmozjs128-debug.so:_ZN2JS19AddPromiseReactionsEP9JSContextNS_6HandleIP8JSObjectEES5_S5_
libmozjs128-debug.so:_ZN2JS19ArrayBufferCopyDataEP9JSContextNS_6HandleIP8JSObjectEEmS5_mm
libmozjs128-debug.so:_ZN2JS19CaptureCurrentStackEP9JSContextNS_13MutableHandleIP8JSObjectEEON7mozilla7VariantIJNS_9AllFramesENS_9MaxFramesENS_18FirstSubsumedFrameEEEE
libmozjs128-debug.so:_ZN2JS19ClearFrontendErrorsEPN2js15FrontendContextE
libmozjs128-debug.so:_ZN2JS19CollectRuntimeStatsEP9JSContextPNS_12RuntimeStatsEPNS_20ObjectPrivateVisitorEb
libmozjs128-debug.so:_ZN2JS19CompileFunctionUtf8EP9JSContextNS_6HandleINS_13StackGCVectorIP8JSObjectN2js15TempAllocPolicyEEEEERKNS_22ReadOnlyCompileOptionsEPKcjPKSE_SE_m
libmozjs128-debug.so:_ZN2JS19CreateModuleRequestEP9JSContextNS_6HandleIP8JSStringEE
libmozjs128-debug.so:_ZN2JS19CurrentGlobalOrNullEP9JSContext
libmozjs128-debug.so:_ZN2JS19FinishIncrementalGCEP9JSContextNS_8GCReasonE
libmozjs128-debug.so:_ZN2JS19GetPromiseIsHandledENS_6HandleIP8JSObjectEE
libmozjs128-debug.so:_ZN2JS19GetPromisePrototypeEP9JSContext
libmozjs128-debug.so:_ZN2JS19GetSavedFrameColumnEP9JSContextP12JSPrincipalsNS_6HandleIP8JSObjectEEPNS_27TaggedColumnNumberOneOriginENS_20SavedFrameSelfHostedE
libmozjs128-debug.so:_ZN2JS19GetSavedFrameParentEP9JSContextP12JSPrincipalsNS_6HandleIP8JSObjectEENS_13MutableHandleIS6_EENS_20SavedFrameSelfHostedE
libmozjs128-debug.so:_ZN2JS19GetSavedFrameSourceEP9JSContextP12JSPrincipalsNS_6HandleIP8JSObjectEENS_13MutableHandleIP8JSStringEENS_20SavedFrameSelfHostedE
libmozjs128-debug.so:_ZN2JS19IsArrayBufferObjectEP8JSObject
libmozjs128-debug.so:_ZN2JS19NewFunctionFromSpecEP9JSContextPK14JSFunctionSpec
libmozjs128-debug.so:_ZN2JS19NewFunctionFromSpecEP9JSContextPK14JSFunctionSpecNS_6HandleINS_11PropertyKeyEEE
libmozjs128-debug.so:_ZN2JS19OrdinaryHasInstanceEP9JSContextNS_6HandleIP8JSObjectEENS2_INS_5ValueEEEPb
libmozjs128-debug.so:_ZN2JS19OrdinaryToPrimitiveEP9JSContextNS_6HandleIP8JSObjectEE6JSTypeNS_13MutableHandleINS_5ValueEEE
libmozjs128-debug.so:_ZN2JS19OwningDecodeOptions14infallibleCopyERKNS_21ReadOnlyDecodeOptionsE
libmozjs128-debug.so:_ZN2JS19OwningDecodeOptions4copyEPN2js15FrontendContextERKNS_21ReadOnlyDecodeOptionsE
libmozjs128-debug.so:_ZN2JS19OwningDecodeOptions7releaseEv
libmozjs128-debug.so:_ZN2JS19OwningDecodeOptionsD1Ev
libmozjs128-debug.so:_ZN2JS19OwningDecodeOptionsD2Ev
libmozjs128-debug.so:_ZN2JS19PeakSizeOfTemporaryEPK9JSContext
libmozjs128-debug.so:_ZN2JS19RunHelperThreadTaskEPNS_16HelperThreadTaskE
libmozjs128-debug.so:_ZN2JS19SetNativeStackQuotaEPN2js15FrontendContextEm
libmozjs128-debug.so:_ZN2JS19SetProcessBuildIdOpEPFbPN7mozilla6VectorIcLm0EN2js17SystemAllocPolicyEEEE
libmozjs128-debug.so:_ZN2JS19UpdateDebugMetadataEP9JSContextNS_6HandleIP8JSScriptEERKNS_18InstantiateOptionsENS2_INS_5ValueEEENS2_IP8JSStringEES5_S5_
libmozjs128-debug.so:_ZN2JS20AutoAssertGCCallbackC1Ev
libmozjs128-debug.so:_ZN2JS20AutoAssertGCCallbackC2Ev
libmozjs128-debug.so:_ZN2JS20DisableIncrementalGCEP9JSContext
libmozjs128-debug.so:_ZN2JS20EnableNurseryBigIntsEP9JSContext
libmozjs128-debug.so:_ZN2JS20EnableNurseryStringsEP9JSContext
libmozjs128-debug.so:_ZN2JS20ExceptionStackOrNullENS_6HandleIP8JSObjectEE
libmozjs128-debug.so:_ZN2JS20FindSmallestEncodingERKNS_9UTF8CharsE
libmozjs128-debug.so:_ZN2JS20GetFrontendWarningAtEPN2js15FrontendContextEmRKNS_22ReadOnlyCompileOptionsE
libmozjs128-debug.so:_ZN2JS20GetModuleEnvironmentEP9JSContextNS_6HandleIP8JSObjectEE
libmozjs128-debug.so:_ZN2JS20GetModuleResolveHookEP9JSRuntime
libmozjs128-debug.so:_ZN2JS20GetObjectRealmOrNullEP8JSObject
libmozjs128-debug.so:_ZN2JS20GetRealmGlobalOrNullEPNS_5RealmE
libmozjs128-debug.so:_ZN2JS20GetSymbolDescriptionENS_6HandleIPNS_6SymbolEEE
libmozjs128-debug.so:_ZN2JS20GetWaitForAllPromiseEP9JSContextNS_6HandleINS_13StackGCVectorIP8JSObjectN2js15TempAllocPolicyEEEEE
libmozjs128-debug.so:_ZN2JS20InstantiationStorageD1Ev
libmozjs128-debug.so:_ZN2JS20InstantiationStorageD2Ev
libmozjs128-debug.so:_ZN2JS20NewSharedArrayBufferEP9JSContextm
libmozjs128-debug.so:_ZN2JS20NotifyGCRootsRemovedEP9JSContext
libmozjs128-debug.so:_ZN2JS20OwningCompileOptions4copyEP9JSContextRKNS_22ReadOnlyCompileOptionsE
libmozjs128-debug.so:_ZN2JS20OwningCompileOptions4copyEPN2js15FrontendContextERKNS_22ReadOnlyCompileOptionsE
libmozjs128-debug.so:_ZN2JS20OwningCompileOptions5stealEONS_19OwningDecodeOptionsE
libmozjs128-debug.so:_ZN2JS20OwningCompileOptions5stealEOS0_
libmozjs128-debug.so:_ZN2JS20OwningCompileOptions7releaseEv
libmozjs128-debug.so:_ZN2JS20OwningCompileOptionsC1EP9JSContext
libmozjs128-debug.so:_ZN2JS20OwningCompileOptionsC2EP9JSContext
libmozjs128-debug.so:_ZN2JS20OwningCompileOptionsD1Ev
libmozjs128-debug.so:_ZN2JS20OwningCompileOptionsD2Ev
libmozjs128-debug.so:_ZN2JS20ParseJSONWithHandlerEPKDsjPNS_16JSONParseHandlerE
libmozjs128-debug.so:_ZN2JS20ParseJSONWithHandlerEPKhjPNS_16JSONParseHandlerE
libmozjs128-debug.so:_ZN2JS20RealmCreationOptions14setLocaleCopyZEPKc
libmozjs128-debug.so:_ZN2JS20RealmCreationOptions21setCoopAndCoepEnabledEb
libmozjs128-debug.so:_ZN2JS20RealmCreationOptions22setExistingCompartmentEP8JSObject
libmozjs128-debug.so:_ZN2JS20RealmCreationOptions22setExistingCompartmentEPNS_11CompartmentE
libmozjs128-debug.so:_ZN2JS20RealmCreationOptions24setNewCompartmentAndZoneEv
libmozjs128-debug.so:_ZN2JS20RealmCreationOptions29setNewCompartmentInSystemZoneEv
libmozjs128-debug.so:_ZN2JS20RealmCreationOptions31setNewCompartmentInExistingZoneEP8JSObject
libmozjs128-debug.so:_ZN2JS20RealmCreationOptions32setSharedMemoryAndAtomicsEnabledEb
libmozjs128-debug.so:_ZN2JS20RunNurseryCollectionEP9JSRuntimeNS_8GCReasonEN7mozilla16BaseTimeDurationINS3_27TimeDurationValueCalculatorEEE
libmozjs128-debug.so:_ZN2JS20SetModuleResolveHookEP9JSRuntimePFP8JSObjectP9JSContextNS_6HandleINS_5ValueEEENS6_IS3_EEE
libmozjs128-debug.so:_ZN2JS20SetRealmNameCallbackEP9JSContextPFvS1_PNS_5RealmEPcmRKNS_15AutoRequireNoGCEE
libmozjs128-debug.so:_ZN2JS20SimpleStringToBigIntEP9JSContextN7mozilla4SpanIKcLm18446744073709551615EEEh
libmozjs128-debug.so:_ZN2JS20StopPCCountProfilingEP9JSContext
libmozjs128-debug.so:_ZN2JS20UndefinedHandleValueE
libmozjs128-debug.so:_ZN2JS20UnhideScriptedCallerEP9JSContext
libmozjs128-debug.so:_ZN2JS20UserCompartmentCountEP9JSContext
libmozjs128-debug.so:_ZN2JS21AtomsZoneIsCollectingEP9JSRuntime
libmozjs128-debug.so:_ZN2JS21AutoStableStringChars11initTwoByteEP9JSContextP8JSString
libmozjs128-debug.so:_ZN2JS21AutoStableStringChars15copyLatin1CharsEP9JSContextNS_6HandleIP14JSLinearStringEE
libmozjs128-debug.so:_ZN2JS21AutoStableStringChars15holdStableCharsEP14JSLinearString
libmozjs128-debug.so:_ZN2JS21AutoStableStringChars16copyTwoByteCharsEP9JSContextNS_6HandleIP14JSLinearStringEE
libmozjs128-debug.so:_ZN2JS21AutoStableStringChars25copyAndInflateLatin1CharsEP9JSContextNS_6HandleIP14JSLinearStringEE
libmozjs128-debug.so:_ZN2JS21AutoStableStringChars4initEP9JSContextP8JSString
libmozjs128-debug.so:_ZN2JS21DefaultGlobalClassOpsE
libmozjs128-debug.so:_ZN2JS21DisableNurseryBigIntsEP9JSContext
libmozjs128-debug.so:_ZN2JS21DisableNurseryStringsEP9JSContext
libmozjs128-debug.so:_ZN2JS21DisableWasmHugeMemoryEv
libmozjs128-debug.so:_ZN2JS21GetCurrentRealmOrNullEP9JSContext
libmozjs128-debug.so:_ZN2JS21GetModuleForNamespaceEP9JSContextNS_6HandleIP8JSObjectEE
libmozjs128-debug.so:_ZN2JS21GetModuleMetadataHookEP9JSRuntime
libmozjs128-debug.so:_ZN2JS21GetNonCCWObjectGlobalEP8JSObject
libmozjs128-debug.so:_ZN2JS21GetPCCountScriptCountEP9JSContext
libmozjs128-debug.so:_ZN2JS21GetPromiseConstructorEP9JSContext
libmozjs128-debug.so:_ZN2JS21GetSavedFrameSourceIdEP9JSContextP12JSPrincipalsNS_6HandleIP8JSObjectEEPjNS_20SavedFrameSelfHostedE
libmozjs128-debug.so:_ZN2JS21GetSelfHostedFunctionEP9JSContextPKcNS_6HandleINS_11PropertyKeyEEEj
libmozjs128-debug.so:_ZN2JS21GetTenuredGCThingZoneENS_9GCCellPtrE
libmozjs128-debug.so:_ZN2JS21GetWellKnownSymbolKeyEP9JSContextNS_10SymbolCodeE
libmozjs128-debug.so:_ZN2JS21InformalValueTypeNameERKNS_5ValueE
libmozjs128-debug.so:_ZN2JS21IsUnwrappedSavedFrameEP8JSObject
libmozjs128-debug.so:_ZN2JS21JobQueueMayNotBeEmptyEP9JSContext
libmozjs128-debug.so:_ZN2JS21PrepareForInstantiateEPN2js15FrontendContextERNS0_8frontend18CompilationStencilERNS_20InstantiationStorageE
libmozjs128-debug.so:_ZN2JS21SetModuleMetadataHookEP9JSRuntimePFbP9JSContextNS_6HandleINS_5ValueEEENS4_IP8JSObjectEEE
libmozjs128-debug.so:_ZN2JS21SetTimeResolutionUsecEjb
libmozjs128-debug.so:_ZN2JS21StartPCCountProfilingEP9JSContext
libmozjs128-debug.so:_ZN2JS21VoidHandlePropertyKeyE
libmozjs128-debug.so:_ZN2JS22AutoSaveExceptionState4dropEv
libmozjs128-debug.so:_ZN2JS22AutoSaveExceptionState7restoreEv
libmozjs128-debug.so:_ZN2JS22AutoSaveExceptionStateC1EP9JSContext
libmozjs128-debug.so:_ZN2JS22AutoSaveExceptionStateC2EP9JSContext
libmozjs128-debug.so:_ZN2JS22AutoSaveExceptionStateD1Ev
libmozjs128-debug.so:_ZN2JS22AutoSaveExceptionStateD2Ev
libmozjs128-debug.so:_ZN2JS22ClearModuleEnvironmentEP8JSObject
libmozjs128-debug.so:_ZN2JS22DescribeScriptedCallerEP9JSContextPNS_12AutoFilenameEPjPNS_21ColumnNumberOneOriginE
libmozjs128-debug.so:_ZN2JS22DestroyFrontendContextEPN2js15FrontendContextE
libmozjs128-debug.so:_ZN2JS22ExecuteRegExpNoStaticsEP9JSContextNS_6HandleIP8JSObjectEEPKDsmPmbNS_13MutableHandleINS_5ValueEEE
libmozjs128-debug.so:_ZN2JS22ExposeScriptToDebuggerEP9JSContextNS_6HandleIP8JSScriptEE
libmozjs128-debug.so:_ZN2JS22FromPropertyDescriptorEP9JSContextNS_6HandleIN7mozilla5MaybeINS_18PropertyDescriptorEEEEENS_13MutableHandleINS_5ValueEEE
libmozjs128-debug.so:_ZN2JS22GetFrontendErrorReportEPN2js15FrontendContextERKNS_22ReadOnlyCompileOptionsE
libmozjs128-debug.so:_ZN2JS22GetObjectAsArrayBufferEP8JSObjectPmPPh
libmozjs128-debug.so:_ZN2JS22GetRealmArrayPrototypeEP9JSContext
libmozjs128-debug.so:_ZN2JS22GetRealmErrorPrototypeEP9JSContext
libmozjs128-debug.so:_ZN2JS22HadFrontendOutOfMemoryEPN2js15FrontendContextE
libmozjs128-debug.so:_ZN2JS22HeapValueWriteBarriersEPNS_5ValueERKS0_S3_
libmozjs128-debug.so:_ZN2JS22IsIncrementalGCEnabledEP9JSContext
libmozjs128-debug.so:_ZN2JS22IsLargeArrayBufferViewEP8JSObject
libmozjs128-debug.so:_ZN2JS22NewExternalArrayBufferEP9JSContextmN7mozilla9UniquePtrIvNS_21BufferContentsDeleterEEE
libmozjs128-debug.so:_ZN2JS22ProfilingFrameIterator12iteratorDoneEv
libmozjs128-debug.so:_ZN2JS22ProfilingFrameIterator12settleFramesEv
libmozjs128-debug.so:_ZN2JS22ProfilingFrameIterator15iteratorDestroyEv
libmozjs128-debug.so:_ZN2JS22ProfilingFrameIterator17iteratorConstructERKNS0_13RegisterStateE
libmozjs128-debug.so:_ZN2JS22ProfilingFrameIterator17iteratorConstructEv
libmozjs128-debug.so:_ZN2JS22ProfilingFrameIterator6settleEv
libmozjs128-debug.so:_ZN2JS22ProfilingFrameIteratorC1EP9JSContextRKNS0_13RegisterStateERKN7mozilla5MaybeImEE
libmozjs128-debug.so:_ZN2JS22ProfilingFrameIteratorC2EP9JSContextRKNS0_13RegisterStateERKN7mozilla5MaybeImEE
libmozjs128-debug.so:_ZN2JS22ProfilingFrameIteratorD1Ev
libmozjs128-debug.so:_ZN2JS22ProfilingFrameIteratorD2Ev
libmozjs128-debug.so:_ZN2JS22ProfilingFrameIteratorppEv
libmozjs128-debug.so:_ZN2JS22ReadOnlyCompileOptions27copyPODNonTransitiveOptionsERKS0_
libmozjs128-debug.so:_ZN2JS22RemoveAssociatedMemoryEP8JSObjectmNS_9MemoryUseE
libmozjs128-debug.so:_ZN2JS22SetAnyPromiseIsHandledEP9JSContextNS_6HandleIP8JSObjectEE
libmozjs128-debug.so:_ZN2JS22SetDOMProxyInformationEPKvPFNS_21DOMProxyShadowsResultEP9JSContextNS_6HandleIP8JSObjectEENS5_INS_11PropertyKeyEEEES1_
libmozjs128-debug.so:_ZN2JS22SetOutOfMemoryCallbackEP9JSContextPFvS1_PvES2_
libmozjs128-debug.so:_ZN2JS22SystemCompartmentCountEP9JSContext
libmozjs128-debug.so:_ZN2JS23CallOriginalPromiseThenEP9JSContextNS_6HandleIP8JSObjectEES5_S5_
libmozjs128-debug.so:_ZN2JS23ExecuteInJSMEnvironmentEP9JSContextNS_6HandleIP8JSScriptEENS2_IP8JSObjectEE
libmozjs128-debug.so:_ZN2JS23ExecuteInJSMEnvironmentEP9JSContextNS_6HandleIP8JSScriptEENS2_IP8JSObjectEENS2_INS_13StackGCVectorIS7_N2js15TempAllocPolicyEEEEE
libmozjs128-debug.so:_ZN2JS23GetDebuggerObservesWasmEPNS_5RealmE
libmozjs128-debug.so:_ZN2JS23GetFrontendWarningCountEPN2js15FrontendContextE
libmozjs128-debug.so:_ZN2JS23GetPCCountScriptSummaryEP9JSContextm
libmozjs128-debug.so:_ZN2JS23GetRealmObjectPrototypeEP9JSContext
libmozjs128-debug.so:_ZN2JS23GetSavedFrameAsyncCauseEP9JSContextP12JSPrincipalsNS_6HandleIP8JSObjectEENS_13MutableHandleIP8JSStringEENS_20SavedFrameSelfHostedE
libmozjs128-debug.so:_ZN2JS23GetScriptedCallerGlobalEP9JSContext
libmozjs128-debug.so:_ZN2JS23HadFrontendOverRecursedEPN2js15FrontendContextE
libmozjs128-debug.so:_ZN2JS23HeapBigIntWriteBarriersEPPNS_6BigIntES1_S1_
libmozjs128-debug.so:_ZN2JS23HeapObjectWriteBarriersEPP8JSObjectS1_S1_
libmozjs128-debug.so:_ZN2JS23HeapScriptWriteBarriersEPP8JSScriptS1_S1_
libmozjs128-debug.so:_ZN2JS23HeapStringWriteBarriersEPP8JSStringS1_S1_
libmozjs128-debug.so:_ZN2JS23InitDispatchToEventLoopEP9JSContextPFbPvPNS_12DispatchableEES2_
libmozjs128-debug.so:_ZN2JS23IsArrayBufferViewSharedEP8JSObject
libmozjs128-debug.so:_ZN2JS23IsGenerationalGCEnabledEP9JSRuntime
libmozjs128-debug.so:_ZN2JS23PrepareForIncrementalGCEP9JSContext
libmozjs128-debug.so:_ZN2JS23RealmCreationOptionsRefEP9JSContext
libmozjs128-debug.so:_ZN2JS23RealmCreationOptionsRefEPNS_5RealmE
libmozjs128-debug.so:_ZN2JS23SetDestroyRealmCallbackEP9JSContextPFvPNS_9GCContextEPNS_5RealmEE
libmozjs128-debug.so:_ZN2JS23SetLogCtorDtorFunctionsEPFvPvPKcjES4_
libmozjs128-debug.so:_ZN2JS23ThreadStackQuotaForSizeEm
libmozjs128-debug.so:_ZN2JS23UnwrapSharedArrayBufferEP8JSObject
libmozjs128-debug.so:_ZN2JS24AbortIncrementalEncodingENS_6HandleIP8JSObjectEE
libmozjs128-debug.so:_ZN2JS24AbortIncrementalEncodingENS_6HandleIP8JSScriptEE
libmozjs128-debug.so:_ZN2JS24AutoEnterCycleCollectionC1EP9JSRuntime
libmozjs128-debug.so:_ZN2JS24AutoEnterCycleCollectionC2EP9JSRuntime
libmozjs128-debug.so:_ZN2JS24AutoEnterCycleCollectionD1Ev
libmozjs128-debug.so:_ZN2JS24AutoEnterCycleCollectionD2Ev
libmozjs128-debug.so:_ZN2JS24CheckCompileOptionsMatchERKNS_22ReadOnlyCompileOptionsEP8JSScript
libmozjs128-debug.so:_ZN2JS24GetArrayBufferByteLengthEP8JSObject
libmozjs128-debug.so:_ZN2JS24GetPCCountScriptContentsEP9JSContextm
libmozjs128-debug.so:_ZN2JS24GetPendingExceptionStackEP9JSContextPNS_14ExceptionStackE
libmozjs128-debug.so:_ZN2JS24GetPromiseAllocationSiteENS_6HandleIP8JSObjectEE
libmozjs128-debug.so:_ZN2JS24GetPromiseResolutionSiteENS_6HandleIP8JSObjectEE
libmozjs128-debug.so:_ZN2JS24GetRequestedModulesCountEP9JSContextNS_6HandleIP8JSObjectEE
libmozjs128-debug.so:_ZN2JS24GetSavedFrameAsyncParentEP9JSContextP12JSPrincipalsNS_6HandleIP8JSObjectEENS_13MutableHandleIS6_EENS_20SavedFrameSelfHostedE
libmozjs128-debug.so:_ZN2JS24GetScriptedCallerPrivateEP9JSContext
libmozjs128-debug.so:_ZN2JS24GetSharedArrayBufferDataEP8JSObjectPbRKNS_15AutoRequireNoGCE
libmozjs128-debug.so:_ZN2JS24IdentifyStandardInstanceEP8JSObject
libmozjs128-debug.so:_ZN2JS24InitRealmStandardClassesEP9JSContext
libmozjs128-debug.so:_ZN2JS24InstantiateGlobalStencilEP9JSContextRKNS_18InstantiateOptionsEPN2js8frontend18CompilationStencilEPNS_20InstantiationStorageE
libmozjs128-debug.so:_ZN2JS24InstantiateModuleStencilEP9JSContextRKNS_18InstantiateOptionsEPN2js8frontend18CompilationStencilEPNS_20InstantiationStorageE
libmozjs128-debug.so:_ZN2JS24IsMaybeWrappedSavedFrameEP8JSObject
libmozjs128-debug.so:_ZN2JS24PropertySpecNameEqualsIdEN14JSPropertySpec4NameENS_6HandleINS_11PropertyKeyEEE
libmozjs128-debug.so:_ZN2JS24SetPendingExceptionStackEP9JSContextRKNS_14ExceptionStackE
libmozjs128-debug.so:_ZN2JS24StartIncrementalEncodingEP9JSContextO6RefPtrIN2js8frontend18CompilationStencilEE
libmozjs128-debug.so:_ZN2JS24StealArrayBufferContentsEP9JSContextNS_6HandleIP8JSObjectEE
libmozjs128-debug.so:_ZN2JS24TransitiveCompileOptions24copyPODTransitiveOptionsERKS0_
libmozjs128-debug.so:_ZN2JS25AutoDisableGenerationalGCC1EP9JSContext
libmozjs128-debug.so:_ZN2JS25AutoDisableGenerationalGCC2EP9JSContext
libmozjs128-debug.so:_ZN2JS25AutoDisableGenerationalGCD1Ev
libmozjs128-debug.so:_ZN2JS25AutoDisableGenerationalGCD2Ev
libmozjs128-debug.so:_ZN2JS25CallOriginalPromiseRejectEP9JSContextNS_6HandleINS_5ValueEEE
libmozjs128-debug.so:_ZN2JS25ContainsSharedArrayBufferEP9JSContext
libmozjs128-debug.so:_ZN2JS25DeflateStringToUTF8BufferEP14JSLinearStringN7mozilla4SpanIcLm18446744073709551615EEE
libmozjs128-debug.so:_ZN2JS25DumpPromiseAllocationSiteEP9JSContextNS_6HandleIP8JSObjectEE
libmozjs128-debug.so:_ZN2JS25DumpPromiseResolutionSiteEP9JSContextNS_6HandleIP8JSObjectEE
libmozjs128-debug.so:_ZN2JS25FinishDynamicModuleImportEP9JSContextNS_6HandleIP8JSObjectEENS2_INS_5ValueEEES5_S5_
libmozjs128-debug.so:_ZN2JS25FinishIncrementalEncodingEP9JSContextNS_6HandleIP8JSObjectEERN7mozilla6VectorIhLm0ENS6_17MallocAllocPolicyEEE
libmozjs128-debug.so:_ZN2JS25FinishIncrementalEncodingEP9JSContextNS_6HandleIP8JSScriptEERN7mozilla6VectorIhLm0ENS6_17MallocAllocPolicyEEE
libmozjs128-debug.so:_ZN2JS25GetModuleRequestSpecifierEP9JSContextNS_6HandleIP8JSObjectEE
libmozjs128-debug.so:_ZN2JS25GetRealmFunctionPrototypeEP9JSContext
libmozjs128-debug.so:_ZN2JS25GetRealmIteratorPrototypeEP9JSContext
libmozjs128-debug.so:_ZN2JS25HeapValuePostWriteBarrierEPNS_5ValueERKS0_S3_
libmozjs128-debug.so:_ZN2JS25IdentifyStandardPrototypeEP8JSObject
libmozjs128-debug.so:_ZN2JS25InitConsumeStreamCallbackEP9JSContextPFbS1_NS_6HandleIP8JSObjectEENS_8MimeTypeEPNS_14StreamConsumerEEPFvS1_mE
libmozjs128-debug.so:_ZN2JS25IsIncrementalGCInProgressEP9JSContext
libmozjs128-debug.so:_ZN2JS25IsIncrementalGCInProgressEP9JSRuntime
libmozjs128-debug.so:_ZN2JS25IsMappedArrayBufferObjectEP8JSObject
libmozjs128-debug.so:_ZN2JS25IsSharedArrayBufferObjectEP8JSObject
libmozjs128-debug.so:_ZN2JS25MaybeRunNurseryCollectionEP9JSRuntimeNS_8GCReasonE
libmozjs128-debug.so:_ZN2JS25SetCTypesActivityCallbackEP9JSContextPFvS1_NS_18CTypesActivityTypeEE
libmozjs128-debug.so:_ZN2JS26AssertGCThingMustBeTenuredEP8JSObject
libmozjs128-debug.so:_ZN2JS26AutoCTypesActivityCallbackC1EP9JSContextNS_18CTypesActivityTypeES3_
libmozjs128-debug.so:_ZN2JS26AutoCTypesActivityCallbackC2EP9JSContextNS_18CTypesActivityTypeES3_
libmozjs128-debug.so:_ZN2JS26CallOriginalPromiseResolveEP9JSContextNS_6HandleINS_5ValueEEE
libmozjs128-debug.so:_ZN2JS26EnableRecordingAllocationsEP9JSContextPFvONS_20RecordAllocationInfoEEd
libmozjs128-debug.so:_ZN2JS26ForceLexicalInitializationEP9JSContextNS_6HandleIP8JSObjectEE
libmozjs128-debug.so:_ZN2JS26GetFirstArgumentAsTypeHintEP9JSContextRKNS_8CallArgsEP6JSType
libmozjs128-debug.so:_ZN2JS26GetModuleDynamicImportHookEP9JSRuntime
libmozjs128-debug.so:_ZN2JS26HeapBigIntPostWriteBarrierEPPNS_6BigIntES1_S1_
libmozjs128-debug.so:_ZN2JS26HeapObjectPostWriteBarrierEPP8JSObjectS1_S1_
libmozjs128-debug.so:_ZN2JS26HeapStringPostWriteBarrierEPP8JSStringS1_S1_
libmozjs128-debug.so:_ZN2JS26IncrementalPreWriteBarrierENS_9GCCellPtrE
libmozjs128-debug.so:_ZN2JS26IncrementalPreWriteBarrierEP8JSObject
libmozjs128-debug.so:_ZN2JS26IsIncrementalBarrierNeededEP9JSContext
libmozjs128-debug.so:_ZN2JS26IsResizableArrayBufferViewEP8JSObject
libmozjs128-debug.so:_ZN2JS26IterateRealmsInCompartmentEP9JSContextPNS_11CompartmentEPvPFvS1_S4_PNS_5RealmERKNS_15AutoRequireNoGCEE
libmozjs128-debug.so:_ZN2JS26NewArrayBufferWithContentsEP9JSContextmN7mozilla9UniquePtrIvNS_10FreePolicyEEE
libmozjs128-debug.so:_ZN2JS26NewArrayBufferWithContentsEP9JSContextmPvNS_25NewArrayBufferOutOfMemoryE
libmozjs128-debug.so:_ZN2JS26PinArrayBufferOrViewLengthEP8JSObjectb
libmozjs128-debug.so:_ZN2JS26SetModuleDynamicImportHookEP9JSRuntimePFbP9JSContextNS_6HandleINS_5ValueEEENS4_IP8JSObjectEES9_E
libmozjs128-debug.so:_ZN2JS26SetSettledPromiseIsHandledEP9JSContextNS_6HandleIP8JSObjectEE
libmozjs128-debug.so:_ZN2JS26StealPendingExceptionStackEP9JSContextPNS_14ExceptionStackE
libmozjs128-debug.so:_ZN2JS26UTF8CharsToNewLatin1CharsZEP9JSContextRKNS_9UTF8CharsEPmm
libmozjs128-debug.so:_ZN2JS27DisableRecordingAllocationsEP9JSContext
libmozjs128-debug.so:_ZN2JS27GetArrayBufferLengthAndDataEP8JSObjectPmPbPPh
libmozjs128-debug.so:_ZN2JS27GetDeflatedUTF8StringLengthEP14JSLinearString
libmozjs128-debug.so:_ZN2JS27GetOptimizedEncodingBuildIdEPN7mozilla6VectorIcLm0EN2js17SystemAllocPolicyEEE
libmozjs128-debug.so:_ZN2JS27GetRequestedModuleSourcePosEP9JSContextNS_6HandleIP8JSObjectEEjPjPNS_21ColumnNumberOneOriginE
libmozjs128-debug.so:_ZN2JS27GetRequestedModuleSpecifierEP9JSContextNS_6HandleIP8JSObjectEEj
libmozjs128-debug.so:_ZN2JS27GetScriptTranscodingBuildIdEPN7mozilla6VectorIcLm0EN2js17SystemAllocPolicyEEE
libmozjs128-debug.so:_ZN2JS27IdentifyStandardConstructorEP8JSObject
libmozjs128-debug.so:_ZN2JS27IsDetachedArrayBufferObjectEP8JSObject
libmozjs128-debug.so:_ZN2JS27IterateRealmsWithPrincipalsEP9JSContextP12JSPrincipalsPvPFvS1_S4_PNS_5RealmERKNS_15AutoRequireNoGCEE
libmozjs128-debug.so:_ZN2JS27MaybeFreezeCtorAndPrototypeEP9JSContextNS_6HandleIP8JSObjectEES5_
libmozjs128-debug.so:_ZN2JS27SetHelperThreadTaskCallbackEPFvPNS_16HelperThreadTaskEEmm
libmozjs128-debug.so:_ZN2JS27SetProfilingThreadCallbacksEPFP14ProfilingStackPKcPvEPFvvE
libmozjs128-debug.so:_ZN2JS27UTF8CharsToNewTwoByteCharsZEP9JSContextRKNS_15ConstUTF8CharsZEPmm
libmozjs128-debug.so:_ZN2JS27UTF8CharsToNewTwoByteCharsZEP9JSContextRKNS_9UTF8CharsEPmm
libmozjs128-debug.so:_ZN2JS28AutoSetAsyncStackForNewCallsC1EP9JSContextNS_6HandleIP8JSObjectEEPKcNS0_13AsyncCallKindE
libmozjs128-debug.so:_ZN2JS28AutoSetAsyncStackForNewCallsC2EP9JSContextNS_6HandleIP8JSObjectEEPKcNS0_13AsyncCallKindE
libmozjs128-debug.so:_ZN2JS28AutoSetAsyncStackForNewCallsD1Ev
libmozjs128-debug.so:_ZN2JS28AutoSetAsyncStackForNewCallsD2Ev
libmozjs128-debug.so:_ZN2JS28CompileGlobalScriptToStencilEP9JSContextRKNS_22ReadOnlyCompileOptionsERNS_10SourceTextIDsEE
libmozjs128-debug.so:_ZN2JS28CompileGlobalScriptToStencilEP9JSContextRKNS_22ReadOnlyCompileOptionsERNS_10SourceTextIN7mozilla8Utf8UnitEEE
libmozjs128-debug.so:_ZN2JS28CompileGlobalScriptToStencilEPN2js15FrontendContextERKNS_22ReadOnlyCompileOptionsERNS_10SourceTextIDsEE
libmozjs128-debug.so:_ZN2JS28CompileGlobalScriptToStencilEPN2js15FrontendContextERKNS_22ReadOnlyCompileOptionsERNS_10SourceTextIN7mozilla8Utf8UnitEEE
libmozjs128-debug.so:_ZN2JS28CompileModuleScriptToStencilEP9JSContextRKNS_22ReadOnlyCompileOptionsERNS_10SourceTextIDsEE
libmozjs128-debug.so:_ZN2JS28CompileModuleScriptToStencilEP9JSContextRKNS_22ReadOnlyCompileOptionsERNS_10SourceTextIN7mozilla8Utf8UnitEEE
libmozjs128-debug.so:_ZN2JS28CompileModuleScriptToStencilEPN2js15FrontendContextERKNS_22ReadOnlyCompileOptionsERNS_10SourceTextIDsEE
libmozjs128-debug.so:_ZN2JS28CompileModuleScriptToStencilEPN2js15FrontendContextERKNS_22ReadOnlyCompileOptionsERNS_10SourceTextIN7mozilla8Utf8UnitEEE
libmozjs128-debug.so:_ZN2JS28GetProfilingCategoryPairInfoENS_21ProfilingCategoryPairE
libmozjs128-debug.so:_ZN2JS28IsProfilingEnabledForContextEP9JSContext
libmozjs128-debug.so:_ZN2JS28SetDoCycleCollectionCallbackEP9JSContextPFvS1_E
libmozjs128-debug.so:_ZN2JS28ToCompletePropertyDescriptorEP9JSContextNS_6HandleINS_5ValueEEENS_13MutableHandleINS_18PropertyDescriptorEEE
libmozjs128-debug.so:_ZN2JS28UnmarkGrayGCThingRecursivelyENS_9GCCellPtrE
libmozjs128-debug.so:_ZN2JS28UnwrapArrayBufferMaybeSharedEP8JSObject
libmozjs128-debug.so:_ZN2JS29AddMozDisplayNamesConstructorEP9JSContextNS_6HandleIP8JSObjectEE
libmozjs128-debug.so:_ZN2JS29GetArrayBufferMaybeSharedDataEP8JSObjectPbRKNS_15AutoRequireNoGCE
libmozjs128-debug.so:_ZN2JS29GetRealmObjectPrototypeHandleEP9JSContext
libmozjs128-debug.so:_ZN2JS29HadFrontendAllocationOverflowEPN2js15FrontendContextE
libmozjs128-debug.so:_ZN2JS29IsLargeArrayBufferMaybeSharedEP8JSObject
libmozjs128-debug.so:_ZN2JS29PropertySpecNameToPermanentIdEP9JSContextN14JSPropertySpec4NameEPNS_11PropertyKeyE
libmozjs128-debug.so:_ZN2JS29SetFilenameValidationCallbackEPFbP9JSContextPKcE
libmozjs128-debug.so:_ZN2JS29SetSupportDifferentialTestingEb
libmozjs128-debug.so:_ZN2JS30AddGCNurseryCollectionCallbackEP9JSContextPFvS1_NS_17GCNurseryProgressENS_8GCReasonEPvES4_
libmozjs128-debug.so:_ZN2JS30ConvertSavedFrameToPlainObjectEP9JSContextNS_6HandleIP8JSObjectEENS_20SavedFrameSelfHostedE
libmozjs128-debug.so:_ZN2JS30GetRealmAsyncIteratorPrototypeEP9JSContext
libmozjs128-debug.so:_ZN2JS30GetSharedArrayBufferByteLengthEP8JSObject
libmozjs128-debug.so:_ZN2JS30HasDefinedArrayBufferDetachKeyEP9JSContextNS_6HandleIP8JSObjectEEPb
libmozjs128-debug.so:_ZN2JS30IncrementalGCHasForegroundWorkEP9JSContext
libmozjs128-debug.so:_ZN2JS30IsArrayBufferObjectMaybeSharedEP8JSObject
libmozjs128-debug.so:_ZN2JS30SetCreateGCSliceBudgetCallbackEP9JSContextPFN2js11SliceBudgetENS_8GCReasonElE
libmozjs128-debug.so:_ZN2JS30SetScriptPrivateReferenceHooksEP9JSRuntimePFvRKNS_5ValueEES6_
libmozjs128-debug.so:_ZN2JS30ThrowOnModuleEvaluationFailureEP9JSContextNS_6HandleIP8JSObjectEENS_20ModuleErrorBehaviourE
libmozjs128-debug.so:_ZN2JS31AddMozDateTimeFormatConstructorEP9JSContextNS_6HandleIP8JSObjectEE
libmozjs128-debug.so:_ZN2JS31CreateMappedArrayBufferContentsEimm
libmozjs128-debug.so:_ZN2JS31LossyUTF8CharsToNewLatin1CharsZEP9JSContextRKNS_9UTF8CharsEPmm
libmozjs128-debug.so:_ZN2JS32AutoDebuggerJobQueueInterruption4initEP9JSContext
libmozjs128-debug.so:_ZN2JS32AutoDebuggerJobQueueInterruption7runJobsEv
libmozjs128-debug.so:_ZN2JS32AutoDebuggerJobQueueInterruptionC1Ev
libmozjs128-debug.so:_ZN2JS32AutoDebuggerJobQueueInterruptionC2Ev
libmozjs128-debug.so:_ZN2JS32AutoDebuggerJobQueueInterruptionD1Ev
libmozjs128-debug.so:_ZN2JS32AutoDebuggerJobQueueInterruptionD2Ev
libmozjs128-debug.so:_ZN2JS32EnsureNonInlineArrayBufferOrViewEP9JSContextP8JSObject
libmozjs128-debug.so:_ZN2JS32GetSavedFrameFunctionDisplayNameEP9JSContextP12JSPrincipalsNS_6HandleIP8JSObjectEENS_13MutableHandleIP8JSStringEENS_20SavedFrameSelfHostedE
libmozjs128-debug.so:_ZN2JS32LossyUTF8CharsToNewTwoByteCharsZEP9JSContextRKNS_15ConstUTF8CharsZEPmm
libmozjs128-debug.so:_ZN2JS32LossyUTF8CharsToNewTwoByteCharsZEP9JSContextRKNS_9UTF8CharsEPmm
libmozjs128-debug.so:_ZN2JS32NewMappedArrayBufferWithContentsEP9JSContextmPv
libmozjs128-debug.so:_ZN2JS32ReleaseMappedArrayBufferContentsEPvm
libmozjs128-debug.so:_ZN2JS33GetJSMEnvironmentOfScriptedCallerEP9JSContext
libmozjs128-debug.so:_ZN2JS33GetSharedArrayBufferLengthAndDataEP8JSObjectPmPbPPh
libmozjs128-debug.so:_ZN2JS33IsProfileTimelineRecordingEnabledEv
libmozjs128-debug.so:_ZN2JS33IsResizableArrayBufferMaybeSharedEP8JSObject
libmozjs128-debug.so:_ZN2JS33RemoveGCNurseryCollectionCallbackEP9JSContextPFvS1_NS_17GCNurseryProgressENS_8GCReasonEPvES4_
libmozjs128-debug.so:_ZN2JS34AssertGCThingIsNotNurseryAllocableEPN2js2gc4CellE
libmozjs128-debug.so:_ZN2JS34AssertObjectBelongsToCurrentThreadEP8JSObject
libmozjs128-debug.so:_ZN2JS34DisableSpectreMitigationsAfterInitEv
libmozjs128-debug.so:_ZN2JS34IsAsyncStackCaptureEnabledForRealmEP9JSContext
libmozjs128-debug.so:_ZN2JS34SetProfileTimelineRecordingEnabledEb
libmozjs128-debug.so:_ZN2JS34SetPromiseRejectionTrackerCallbackEP9JSContextPFvS1_bNS_6HandleIP8JSObjectEENS_29PromiseRejectionHandlingStateEPvES7_
libmozjs128-debug.so:_ZN2JS35IdentifyStandardInstanceOrPrototypeEP8JSObject
libmozjs128-debug.so:_ZN2JS35NewArrayBufferWithUserOwnedContentsEP9JSContextmPv
libmozjs128-debug.so:_ZN2JS36ConvertFrontendErrorsToRuntimeErrorsEP9JSContextPN2js15FrontendContextERKNS_22ReadOnlyCompileOptionsE
libmozjs128-debug.so:_ZN2JS36SetShadowRealmGlobalCreationCallbackEP9JSContextPFP8JSObjectS1_RNS_12RealmOptionsEP12JSPrincipalsNS_6HandleIS3_EEE
libmozjs128-debug.so:_ZN2JS37GetPromiseUserInputEventHandlingStateENS_6HandleIP8JSObjectEE
libmozjs128-debug.so:_ZN2JS37SetHostEnsureCanAddPrivateElementHookEP9JSContextPFbS1_NS_6HandleINS_5ValueEEEE
libmozjs128-debug.so:_ZN2JS37SetPromiseUserInputEventHandlingStateENS_6HandleIP8JSObjectEENS_34PromiseUserInputEventHandlingStateE
libmozjs128-debug.so:_ZN2JS38GetArrayBufferMaybeSharedLengthAndDataEP8JSObjectPmPbPPh
libmozjs128-debug.so:_ZN2JS38SetRealmReduceTimerPrecisionCallerTypeEPNS_5RealmENS_18RTPCallerTypeTokenE
libmozjs128-debug.so:_ZN2JS38SetShadowRealmInitializeGlobalCallbackEP9JSContextPFbS1_NS_6HandleIP8JSObjectEEE
libmozjs128-debug.so:_ZN2JS3dbg10IsDebuggerER8JSObject
libmozjs128-debug.so:_ZN2JS3dbg16AutoEntryMonitorC1EP9JSContext
libmozjs128-debug.so:_ZN2JS3dbg16AutoEntryMonitorC2EP9JSContext
libmozjs128-debug.so:_ZN2JS3dbg16AutoEntryMonitorD1Ev
libmozjs128-debug.so:_ZN2JS3dbg16AutoEntryMonitorD2Ev
libmozjs128-debug.so:_ZN2JS3dbg18GetDebuggeeGlobalsEP9JSContextR8JSObjectNS_13MutableHandleINS_13StackGCVectorIPS3_N2js15TempAllocPolicyEEEEE
libmozjs128-debug.so:_ZN2JS3dbg23GetDebuggerMallocSizeOfEP9JSContext
libmozjs128-debug.so:_ZN2JS3dbg23SetDebuggerMallocSizeOfEP9JSContextPFmPKvE
libmozjs128-debug.so:_ZN2JS3dbg27FireOnGarbageCollectionHookEP9JSContextON7mozilla9UniquePtrINS0_22GarbageCollectionEventENS_12DeletePolicyIS5_EEEE
libmozjs128-debug.so:_ZN2JS3dbg35FireOnGarbageCollectionHookRequiredEP9JSContext
libmozjs128-debug.so:_ZN2JS3ubi12CountDeleterclEPNS0_9CountBaseE
libmozjs128-debug.so:_ZN2JS3ubi13CensusHandlerclERNS0_12BreadthFirstIS1_EENS0_4NodeERKNS0_4EdgeEPNS1_8NodeDataEb
libmozjs128-debug.so:_ZN2JS3ubi14ParseBreakdownEP9JSContextNS_6HandleINS_5ValueEEENS_13MutableHandleINS_8GCVectorIP14JSLinearStringLm0EN2js15TempAllocPolicyEEEEE
libmozjs128-debug.so:_ZN2JS3ubi18AtomOrTwoByteChars12copyToBufferEN7mozilla9RangedPtrIDsEEm
libmozjs128-debug.so:_ZN2JS3ubi18AtomOrTwoByteChars6lengthEv
libmozjs128-debug.so:_ZN2JS3ubi18CoarseTypeToStringENS0_10CoarseTypeE
libmozjs128-debug.so:_ZN2JS3ubi18ParseCensusOptionsEP9JSContextRNS0_6CensusENS_6HandleIP8JSObjectEERN7mozilla9UniquePtrINS0_9CountTypeENS_12DeletePolicyISB_EEEE
libmozjs128-debug.so:_ZN2JS3ubi28ConstructSavedFrameStackSlowEP9JSContextRNS0_10StackFrameENS_13MutableHandleIP8JSObjectEE
libmozjs128-debug.so:_ZN2JS3ubi8ConcreteI8JSObjectE16concreteTypeNameE
libmozjs128-debug.so:_ZN2JS3ubi8ConcreteI8JSObjectE9constructEPvPS2_
libmozjs128-debug.so:_ZN2JS3ubi8ConcreteI8JSStringE16concreteTypeNameE
libmozjs128-debug.so:_ZN2JS3ubi8ConcreteIN2js10BaseScriptEE16concreteTypeNameE
libmozjs128-debug.so:_ZN2JS3ubi8ConcreteINS0_8RootListEE16concreteTypeNameE
libmozjs128-debug.so:_ZN2JS3ubi8ConcreteINS_6BigIntEE16concreteTypeNameE
libmozjs128-debug.so:_ZN2JS3ubi8ConcreteINS_6SymbolEE16concreteTypeNameE
libmozjs128-debug.so:_ZN2JS3ubi8RootList4initENS_6HandleIP8JSObjectEE
libmozjs128-debug.so:_ZN2JS3ubi8RootList4initERN7mozilla7HashSetIPNS_11CompartmentENS2_13DefaultHasherIS5_vEEN2js17SystemAllocPolicyEEE
libmozjs128-debug.so:_ZN2JS3ubi8RootList4initEv
libmozjs128-debug.so:_ZN2JS3ubi8RootList7addRootENS0_4NodeEPKDs
libmozjs128-debug.so:_ZN2JS3ubi8RootListC1EP9JSContextb
libmozjs128-debug.so:_ZN2JS3ubi8RootListC2EP9JSContextb
libmozjs128-debug.so:_ZN2JS3ubi9dumpPathsEP9JSContextNS0_4NodeEj
libmozjs128-debug.so:_ZN2JS40SetProcessLargeAllocationFailureCallbackEPFvvE
libmozjs128-debug.so:_ZN2JS41GetReduceMicrosecondTimePrecisionCallbackEv
libmozjs128-debug.so:_ZN2JS41SetReduceMicrosecondTimePrecisionCallbackEPFddNS_18RTPCallerTypeTokenEP9JSContextE
libmozjs128-debug.so:_ZN2JS42SetHostCleanupFinalizationRegistryCallbackEP9JSContextPFvP10JSFunctionP8JSObjectPvES6_
libmozjs128-debug.so:_ZN2JS42SetJSContextProfilerSampleBufferRangeStartEP9JSContextm
libmozjs128-debug.so:_ZN2JS45AddPromiseReactionsIgnoringUnhandledRejectionEP9JSContextNS_6HandleIP8JSObjectEES5_S5_
libmozjs128-debug.so:_ZN2JS4CallEP9JSContextNS_6HandleINS_5ValueEEES4_RKNS_16HandleValueArrayENS_13MutableHandleIS3_EE
libmozjs128-debug.so:_ZN2JS4Zone11finishRootsEv
libmozjs128-debug.so:_ZN2JS4Zone13changeGCStateENS_6shadow4Zone7GCStateES3_
libmozjs128-debug.so:_ZN2JS4Zone13createJitZoneEP9JSContext
libmozjs128-debug.so:_ZN2JS4Zone13sweepWeakMapsEP8JSTracer
libmozjs128-debug.so:_ZN2JS4Zone13traceWeakMapsEP8JSTracer
libmozjs128-debug.so:_ZN2JS4Zone14discardJitCodeEPNS_9GCContextERKNS0_14DiscardOptionsE
libmozjs128-debug.so:_ZN2JS4Zone14purgeAtomCacheEv
libmozjs128-debug.so:_ZN2JS4Zone14sweepUniqueIdsEv
libmozjs128-debug.so:_ZN2JS4Zone15clearScriptLCovEPNS_5RealmE
libmozjs128-debug.so:_ZN2JS4Zone15hasMarkedRealmsEv
libmozjs128-debug.so:_ZN2JS4Zone16addToKeptObjectsENS_6HandleIP8JSObjectEE
libmozjs128-debug.so:_ZN2JS4Zone16clearKeptObjectsEv
libmozjs128-debug.so:_ZN2JS4Zone16traceKeptObjectsEP8JSTracer
libmozjs128-debug.so:_ZN2JS4Zone17clearScriptCountsEPNS_5RealmE
libmozjs128-debug.so:_ZN2JS4Zone17sweepAfterMinorGCEP8JSTracer
libmozjs128-debug.so:_ZN2JS4Zone17sweepCompartmentsEPNS_9GCContextEbb
libmozjs128-debug.so:_ZN2JS4Zone17traceWeakCCWEdgesEP8JSTracer
libmozjs128-debug.so:_ZN2JS4Zone18fixupAfterMovingGCEv
libmozjs128-debug.so:_ZN2JS4Zone19findSweepGroupEdgesEPS0_
libmozjs128-debug.so:_ZN2JS4Zone19forceDiscardJitCodeEPNS_9GCContextERKNS0_14DiscardOptionsE
libmozjs128-debug.so:_ZN2JS4Zone19traceRootsInMajorGCEP8JSTracer
libmozjs128-debug.so:_ZN2JS4Zone19traceWeakJitScriptsEP8JSTracer
libmozjs128-debug.so:_ZN2JS4Zone20enterWeakMarkingModeEPN2js8GCMarkerERNS1_11SliceBudgetE
libmozjs128-debug.so:_ZN2JS4Zone20prepareForCompactingEv
libmozjs128-debug.so:_ZN2JS4Zone20setNurseryAllocFlagsEbbb
libmozjs128-debug.so:_ZN2JS4Zone21traceScriptTableRootsEP8JSTracer
libmozjs128-debug.so:_ZN2JS4Zone22addSizeOfIncludingThisEPFmPKvEPmPNS_9CodeSizesES5_S5_S5_S5_S5_S5_S5_S5_S5_S5_S5_
libmozjs128-debug.so:_ZN2JS4Zone22dropStringWrappersOnGCEv
libmozjs128-debug.so:_ZN2JS4Zone23clearRootsForShutdownGCEv
libmozjs128-debug.so:_ZN2JS4Zone24notifyObservingDebuggersEv
libmozjs128-debug.so:_ZN2JS4Zone26setNeedsIncrementalBarrierEb
libmozjs128-debug.so:_ZN2JS4Zone27beforeClearDelegateInternalEP8JSObjectS2_
libmozjs128-debug.so:_ZN2JS4Zone27ensureFinalizationObserversEv
libmozjs128-debug.so:_ZN2JS4Zone28checkScriptMapsAfterMovingGCEv
libmozjs128-debug.so:_ZN2JS4Zone28fixupScriptMapsAfterMovingGCEP8JSTracer
libmozjs128-debug.so:_ZN2JS4Zone28resetAllocSitesAndInvalidateEbb
libmozjs128-debug.so:_ZN2JS4Zone28sweepObjectsWithWeakPointersEP8JSTracer
libmozjs128-debug.so:_ZN2JS4Zone30registerObjectWithWeakPointersEP8JSObject
libmozjs128-debug.so:_ZN2JS4Zone31checkUniqueIdTableAfterMovingGCEv
libmozjs128-debug.so:_ZN2JS4Zone32checkStringWrappersAfterMovingGCEv
libmozjs128-debug.so:_ZN2JS4Zone32sweepEphemeronTablesAfterMinorGCEv
libmozjs128-debug.so:_ZN2JS4Zone45checkAllCrossCompartmentWrappersAfterMovingGCEv
libmozjs128-debug.so:_ZN2JS4Zone45fixupAllCrossCompartmentWrappersAfterMovingGCEP8JSTracer
libmozjs128-debug.so:_ZN2JS4Zone4initEv
libmozjs128-debug.so:_ZN2JS4Zone7destroyEPNS_9GCContextE
libmozjs128-debug.so:_ZN2JS4Zone9NotOnListE
libmozjs128-debug.so:_ZN2JS4ZoneC1EP9JSRuntimeNS_6shadow4Zone4KindE
libmozjs128-debug.so:_ZN2JS4ZoneC2EP9JSRuntimeNS_6shadow4Zone4KindE
libmozjs128-debug.so:_ZN2JS4ZoneD1Ev
libmozjs128-debug.so:_ZN2JS4ZoneD2Ev
libmozjs128-debug.so:_ZN2JS5Realm10traceRootsEP8JSTracerN2js2gc9GCRuntime18TraceOrMarkRuntimeE
libmozjs128-debug.so:_ZN2JS5Realm11finishRootsEv
libmozjs128-debug.so:_ZN2JS5Realm13setIsDebuggeeEv
libmozjs128-debug.so:_ZN2JS5Realm15clearScriptLCovEv
libmozjs128-debug.so:_ZN2JS5Realm15traceGlobalDataEP8JSTracer
libmozjs128-debug.so:_ZN2JS5Realm15unsetIsDebuggeeEv
libmozjs128-debug.so:_ZN2JS5Realm17clearScriptCountsEv
libmozjs128-debug.so:_ZN2JS5Realm17sweepAfterMinorGCEP8JSTracer
libmozjs128-debug.so:_ZN2JS5Realm18fixupAfterMovingGCEP8JSTracer
libmozjs128-debug.so:_ZN2JS5Realm18purgeForOfPicChainEv
libmozjs128-debug.so:_ZN2JS5Realm19DebuggerVectorEntryC1EPN2js8DebuggerEP8JSObject
libmozjs128-debug.so:_ZN2JS5Realm19DebuggerVectorEntryC2EPN2js8DebuggerEP8JSObject
libmozjs128-debug.so:_ZN2JS5Realm19traceWeakGlobalEdgeEP8JSTracer
libmozjs128-debug.so:_ZN2JS5Realm20setNewObjectMetadataEP9JSContextNS_6HandleIP8JSObjectEE
libmozjs128-debug.so:_ZN2JS5Realm20traceWeakSavedStacksEP8JSTracer
libmozjs128-debug.so:_ZN2JS5Realm22addSizeOfIncludingThisEPFmPKvEPmS5_S5_S5_S5_S5_
libmozjs128-debug.so:_ZN2JS5Realm22isRecordingAllocationsEv
libmozjs128-debug.so:_ZN2JS5Realm23randomHashCodeScramblerEv
libmozjs128-debug.so:_ZN2JS5Realm26shouldCaptureStackForThrowEv
libmozjs128-debug.so:_ZN2JS5Realm26updateDebuggerObservesFlagEj
libmozjs128-debug.so:_ZN2JS5Realm28setAllocationMetadataBuilderEPKN2js25AllocationMetadataBuilderE
libmozjs128-debug.so:_ZN2JS5Realm30traceWeakDebugEnvironmentEdgesEP8JSTracer
libmozjs128-debug.so:_ZN2JS5Realm30updateDebuggerObservesCoverageEv
libmozjs128-debug.so:_ZN2JS5Realm31forgetAllocationMetadataBuilderEv
libmozjs128-debug.so:_ZN2JS5Realm32getOrCreateRandomNumberGeneratorEv
libmozjs128-debug.so:_ZN2JS5Realm4initEP9JSContextP12JSPrincipals
libmozjs128-debug.so:_ZN2JS5Realm5purgeEv
libmozjs128-debug.so:_ZN2JS5Realm7destroyEPNS_9GCContextE
libmozjs128-debug.so:_ZN2JS5Realm9lcovRealmEv
libmozjs128-debug.so:_ZN2JS5RealmC1EPNS_11CompartmentERKNS_12RealmOptionsE
libmozjs128-debug.so:_ZN2JS5RealmC2EPNS_11CompartmentERKNS_12RealmOptionsE
libmozjs128-debug.so:_ZN2JS5RealmD1Ev
libmozjs128-debug.so:_ZN2JS5RealmD2Ev
libmozjs128-debug.so:_ZN2JS6BigInt10absoluteOrEP9JSContextNS_6HandleIPS0_EES5_
libmozjs128-debug.so:_ZN2JS6BigInt10bitOrValueEP9JSContextNS_6HandleINS_5ValueEEES5_NS_13MutableHandleIS4_EE
libmozjs128-debug.so:_ZN2JS6BigInt11absoluteAddEP9JSContextNS_6HandleIPS0_EES5_b
libmozjs128-debug.so:_ZN2JS6BigInt11absoluteAndEP9JSContextNS_6HandleIPS0_EES5_
libmozjs128-debug.so:_ZN2JS6BigInt11absoluteSubEP9JSContextNS_6HandleIPS0_EES5_b
libmozjs128-debug.so:_ZN2JS6BigInt11absoluteXorEP9JSContextNS_6HandleIPS0_EES5_
libmozjs128-debug.so:_ZN2JS6BigInt11bitAndValueEP9JSContextNS_6HandleINS_5ValueEEES5_NS_13MutableHandleIS4_EE
libmozjs128-debug.so:_ZN2JS6BigInt11bitNotValueEP9JSContextNS_6HandleINS_5ValueEEENS_13MutableHandleIS4_EE
libmozjs128-debug.so:_ZN2JS6BigInt11bitXorValueEP9JSContextNS_6HandleINS_5ValueEEES5_NS_13MutableHandleIS4_EE
libmozjs128-debug.so:_ZN2JS6BigInt11negativeOneEP9JSContext
libmozjs128-debug.so:_ZN2JS6BigInt11numberValueEPKS0_
libmozjs128-debug.so:_ZN2JS6BigInt12looselyEqualEP9JSContextNS_6HandleIPS0_EENS3_INS_5ValueEEE
libmozjs128-debug.so:_ZN2JS6BigInt12rshByMaximumEP9JSContextb
libmozjs128-debug.so:_ZN2JS6BigInt13lshByAbsoluteEP9JSContextNS_6HandleIPS0_EES5_
libmozjs128-debug.so:_ZN2JS6BigInt13rshByAbsoluteEP9JSContextNS_6HandleIPS0_EES5_
libmozjs128-debug.so:_ZN2JS6BigInt14absoluteAddOneEP9JSContextNS_6HandleIPS0_EEb
libmozjs128-debug.so:_ZN2JS6BigInt14absoluteAndNotEP9JSContextNS_6HandleIPS0_EES5_
libmozjs128-debug.so:_ZN2JS6BigInt14absoluteSubOneEP9JSContextNS_6HandleIPS0_EEb
libmozjs128-debug.so:_ZN2JS6BigInt15createFromDigitEP9JSContextmb
libmozjs128-debug.so:_ZN2JS6BigInt15createFromInt64EP9JSContextl
libmozjs128-debug.so:_ZN2JS6BigInt15toStringGenericEP9JSContextNS_6HandleIPS0_EEj
libmozjs128-debug.so:_ZN2JS6BigInt16createFromDoubleEP9JSContextd
libmozjs128-debug.so:_ZN2JS6BigInt16createFromUint64EP9JSContextm
libmozjs128-debug.so:_ZN2JS6BigInt18absoluteInplaceAddEPKS0_j
libmozjs128-debug.so:_ZN2JS6BigInt18absoluteInplaceSubEPKS0_j
libmozjs128-debug.so:_ZN2JS6BigInt18inplaceMultiplyAddEmm
libmozjs128-debug.so:_ZN2JS6BigInt18multiplyAccumulateEPKS0_mPS0_j
libmozjs128-debug.so:_ZN2JS6BigInt19createUninitializedEP9JSContextmbN2js2gc4HeapE
libmozjs128-debug.so:_ZN2JS6BigInt19internalMultiplyAddEPKS0_mmjPS0_
libmozjs128-debug.so:_ZN2JS6BigInt22initializeDigitsToZeroEv
libmozjs128-debug.so:_ZN2JS6BigInt26createFromNonZeroRawUint64EP9JSContextmb
libmozjs128-debug.so:_ZN2JS6BigInt27absoluteDivWithDigitDivisorEP9JSContextNS_6HandleIPS0_EEmRKN7mozilla5MaybeINS_13MutableHandleIS4_EEEEPmb
libmozjs128-debug.so:_ZN2JS6BigInt27absoluteLeftShiftAlwaysCopyEP9JSContextNS_6HandleIPS0_EEjNS0_13LeftShiftModeE
libmozjs128-debug.so:_ZN2JS6BigInt28absoluteDivWithBigIntDivisorEP9JSContextNS_6HandleIPS0_EES5_RKN7mozilla5MaybeINS_13MutableHandleIS4_EEEESC_b
libmozjs128-debug.so:_ZN2JS6BigInt28inplaceRightShiftLowZeroBitsEj
libmozjs128-debug.so:_ZN2JS6BigInt28truncateAndSubFromPowerOfTwoEP9JSContextNS_6HandleIPS0_EEmb
libmozjs128-debug.so:_ZN2JS6BigInt30calculateMaximumDigitsRequiredEP9JSContexthmPm
libmozjs128-debug.so:_ZN2JS6BigInt31destructivelyTrimHighZeroDigitsEP9JSContextPS0_
libmozjs128-debug.so:_ZN2JS6BigInt34calculateMaximumCharactersRequiredENS_6HandleIPS0_EEj
libmozjs128-debug.so:_ZN2JS6BigInt3addEP9JSContextNS_6HandleIPS0_EES5_
libmozjs128-debug.so:_ZN2JS6BigInt3decEP9JSContextNS_6HandleIPS0_EE
libmozjs128-debug.so:_ZN2JS6BigInt3divEP9JSContextNS_6HandleIPS0_EES5_
libmozjs128-debug.so:_ZN2JS6BigInt3incEP9JSContextNS_6HandleIPS0_EE
libmozjs128-debug.so:_ZN2JS6BigInt3lshEP9JSContextNS_6HandleIPS0_EES5_
libmozjs128-debug.so:_ZN2JS6BigInt3modEP9JSContextNS_6HandleIPS0_EES5_
libmozjs128-debug.so:_ZN2JS6BigInt3mulEP9JSContextNS_6HandleIPS0_EES5_
libmozjs128-debug.so:_ZN2JS6BigInt3negEP9JSContextNS_6HandleIPS0_EE
libmozjs128-debug.so:_ZN2JS6BigInt3oneEP9JSContext
libmozjs128-debug.so:_ZN2JS6BigInt3powEP9JSContextNS_6HandleIPS0_EES5_
libmozjs128-debug.so:_ZN2JS6BigInt3rshEP9JSContextNS_6HandleIPS0_EES5_
libmozjs128-debug.so:_ZN2JS6BigInt3subEP9JSContextNS_6HandleIPS0_EES5_
libmozjs128-debug.so:_ZN2JS6BigInt4copyEP9JSContextNS_6HandleIPS0_EEN2js2gc4HeapE
libmozjs128-debug.so:_ZN2JS6BigInt4zeroEP9JSContextN2js2gc4HeapE
libmozjs128-debug.so:_ZN2JS6BigInt5bitOrEP9JSContextNS_6HandleIPS0_EES5_
libmozjs128-debug.so:_ZN2JS6BigInt5equalEP9JSContextNS_6HandleIPS0_EENS3_IP8JSStringEE
libmozjs128-debug.so:_ZN2JS6BigInt5equalEPKS0_S2_
libmozjs128-debug.so:_ZN2JS6BigInt5equalEPKS0_d
libmozjs128-debug.so:_ZN2JS6BigInt6asIntNEP9JSContextNS_6HandleIPS0_EEm
libmozjs128-debug.so:_ZN2JS6BigInt6bitAndEP9JSContextNS_6HandleIPS0_EES5_
libmozjs128-debug.so:_ZN2JS6BigInt6bitNotEP9JSContextNS_6HandleIPS0_EE
libmozjs128-debug.so:_ZN2JS6BigInt6bitXorEP9JSContextNS_6HandleIPS0_EES5_
libmozjs128-debug.so:_ZN2JS6BigInt6divmodEP9JSContextNS_6HandleIPS0_EES5_NS_13MutableHandleIS4_EES7_
libmozjs128-debug.so:_ZN2JS6BigInt7asUintNEP9JSContextNS_6HandleIPS0_EEm
libmozjs128-debug.so:_ZN2JS6BigInt7compareEPKS0_S2_
libmozjs128-debug.so:_ZN2JS6BigInt7compareEPKS0_d
libmozjs128-debug.so:_ZN2JS6BigInt7isInt64EPKS0_Pl
libmozjs128-debug.so:_ZN2JS6BigInt7toInt64EPKS0_
libmozjs128-debug.so:_ZN2JS6BigInt8addValueEP9JSContextNS_6HandleINS_5ValueEEES5_NS_13MutableHandleIS4_EE
libmozjs128-debug.so:_ZN2JS6BigInt8decValueEP9JSContextNS_6HandleINS_5ValueEEENS_13MutableHandleIS4_EE
libmozjs128-debug.so:_ZN2JS6BigInt8digitDivEmmmPm
libmozjs128-debug.so:_ZN2JS6BigInt8divValueEP9JSContextNS_6HandleINS_5ValueEEES5_NS_13MutableHandleIS4_EE
libmozjs128-debug.so:_ZN2JS6BigInt8finalizeEPNS_9GCContextE
libmozjs128-debug.so:_ZN2JS6BigInt8incValueEP9JSContextNS_6HandleINS_5ValueEEENS_13MutableHandleIS4_EE
libmozjs128-debug.so:_ZN2JS6BigInt8isNumberEPKS0_Pd
libmozjs128-debug.so:_ZN2JS6BigInt8isUint64EPKS0_Pm
libmozjs128-debug.so:_ZN2JS6BigInt8lessThanEP9JSContextNS_6HandleINS_5ValueEEES5_RN7mozilla5MaybeIbEE
libmozjs128-debug.so:_ZN2JS6BigInt8lessThanEP9JSContextNS_6HandleIP8JSStringEENS3_IPS0_EERN7mozilla5MaybeIbEE
libmozjs128-debug.so:_ZN2JS6BigInt8lessThanEP9JSContextNS_6HandleIPS0_EENS3_IP8JSStringEERN7mozilla5MaybeIbEE
libmozjs128-debug.so:_ZN2JS6BigInt8lessThanEPKS0_S2_
libmozjs128-debug.so:_ZN2JS6BigInt8lessThanEPKS0_d
libmozjs128-debug.so:_ZN2JS6BigInt8lessThanEdPKS0_
libmozjs128-debug.so:_ZN2JS6BigInt8lshValueEP9JSContextNS_6HandleINS_5ValueEEES5_NS_13MutableHandleIS4_EE
libmozjs128-debug.so:_ZN2JS6BigInt8modValueEP9JSContextNS_6HandleINS_5ValueEEES5_NS_13MutableHandleIS4_EE
libmozjs128-debug.so:_ZN2JS6BigInt8mulValueEP9JSContextNS_6HandleINS_5ValueEEES5_NS_13MutableHandleIS4_EE
libmozjs128-debug.so:_ZN2JS6BigInt8negValueEP9JSContextNS_6HandleINS_5ValueEEENS_13MutableHandleIS4_EE
libmozjs128-debug.so:_ZN2JS6BigInt8powValueEP9JSContextNS_6HandleINS_5ValueEEES5_NS_13MutableHandleIS4_EE
libmozjs128-debug.so:_ZN2JS6BigInt8rshValueEP9JSContextNS_6HandleINS_5ValueEEES5_NS_13MutableHandleIS4_EE
libmozjs128-debug.so:_ZN2JS6BigInt8subValueEP9JSContextNS_6HandleINS_5ValueEEES5_NS_13MutableHandleIS4_EE
libmozjs128-debug.so:_ZN2JS6BigInt8toUint64EPKS0_
libmozjs128-debug.so:_ZN2JS6MapGetEP9JSContextNS_6HandleIP8JSObjectEENS2_INS_5ValueEEENS_13MutableHandleIS6_EE
libmozjs128-debug.so:_ZN2JS6MapHasEP9JSContextNS_6HandleIP8JSObjectEENS2_INS_5ValueEEEPb
libmozjs128-debug.so:_ZN2JS6MapSetEP9JSContextNS_6HandleIP8JSObjectEENS2_INS_5ValueEEES7_
libmozjs128-debug.so:_ZN2JS6SetAddEP9JSContextNS_6HandleIP8JSObjectEENS2_INS_5ValueEEE
libmozjs128-debug.so:_ZN2JS6SetHasEP9JSContextNS_6HandleIP8JSObjectEENS2_INS_5ValueEEEPb
libmozjs128-debug.so:_ZN2JS6Symbol11newInternalEP9JSContextNS_10SymbolCodeEjNS_6HandleIP6JSAtomEE
libmozjs128-debug.so:_ZN2JS6Symbol12newWellKnownEP9JSContextNS_10SymbolCodeENS_6HandleIPN2js12PropertyNameEEE
libmozjs128-debug.so:_ZN2JS6Symbol4for_EP9JSContextNS_6HandleIP8JSStringEE
libmozjs128-debug.so:_ZN2JS6Symbol4new_EP9JSContextNS_10SymbolCodeENS_6HandleIP8JSStringEE
libmozjs128-debug.so:_ZN2JS6ToJSONEP9JSContextNS_6HandleINS_5ValueEEENS2_IP8JSObjectEES4_PFbPKDsjPvESA_
libmozjs128-debug.so:_ZN2JS6detail11ComputeThisEP9JSContextPNS_5ValueENS_13MutableHandleIP8JSObjectEE
libmozjs128-debug.so:_ZN2JS6detail13BigIntIsInt64EPKNS_6BigIntEPl
libmozjs128-debug.so:_ZN2JS6detail14BigIntFromBoolEP9JSContextb
libmozjs128-debug.so:_ZN2JS6detail14BigIntIsUint64EPKNS_6BigIntEPm
libmozjs128-debug.so:_ZN2JS6detail15BigIntFromInt64EP9JSContextl
libmozjs128-debug.so:_ZN2JS6detail16BigIntFromUint64EP9JSContextm
libmozjs128-debug.so:_ZN2JS6detail16libraryInitStateE
libmozjs128-debug.so:_ZN2JS6detail19CallMethodIfWrappedEP9JSContextPFbNS_6HandleINS_5ValueEEEEPFbS2_RKNS_8CallArgsEESA_
libmozjs128-debug.so:_ZN2JS6detail19ReportSourceTooLongEP9JSContext
libmozjs128-debug.so:_ZN2JS6detail19ReportSourceTooLongEPN2js15FrontendContextE
libmozjs128-debug.so:_ZN2JS6detail22AssertArgumentsAreSaneEP9JSContextNS_6HandleINS_5ValueEEE
libmozjs128-debug.so:_ZN2JS6detail24StringToLinearStringSlowEP9JSContextP8JSString
libmozjs128-debug.so:_ZN2JS6detail25CheckIsValidConstructibleERKNS_5ValueE
libmozjs128-debug.so:_ZN2JS6detail25InitWithFailureDiagnosticEbNS0_12FrontendOnlyE
libmozjs128-debug.so:_ZN2JS6detail26SetReservedSlotWithBarrierEP8JSObjectmRKNS_5ValueE
libmozjs128-debug.so:_ZN2JS6shadow17RegisterWeakCacheEP9JSRuntimePNS_6detail13WeakCacheBaseE
libmozjs128-debug.so:_ZN2JS6shadow17RegisterWeakCacheEPNS_4ZoneEPNS_6detail13WeakCacheBaseE
libmozjs128-debug.so:_ZN2JS7CompileEP9JSContextRKNS_22ReadOnlyCompileOptionsERNS_10SourceTextIDsEE
libmozjs128-debug.so:_ZN2JS7CompileEP9JSContextRKNS_22ReadOnlyCompileOptionsERNS_10SourceTextIN7mozilla8Utf8UnitEEE
libmozjs128-debug.so:_ZN2JS7IsArrayEP9JSContextNS_6HandleIP8JSObjectEEPNS_13IsArrayAnswerE
libmozjs128-debug.so:_ZN2JS7IsArrayEP9JSContextNS_6HandleIP8JSObjectEEPb
libmozjs128-debug.so:_ZN2JS7LogCtorEPvPKcj
libmozjs128-debug.so:_ZN2JS7LogDtorEPvPKcj
libmozjs128-debug.so:_ZN2JS7MapKeysEP9JSContextNS_6HandleIP8JSObjectEENS_13MutableHandleINS_5ValueEEE
libmozjs128-debug.so:_ZN2JS7MapSizeEP9JSContextNS_6HandleIP8JSObjectEE
libmozjs128-debug.so:_ZN2JS7SetKeysEP9JSContextNS_6HandleIP8JSObjectEENS_13MutableHandleINS_5ValueEEE
libmozjs128-debug.so:_ZN2JS7SetSizeEP9JSContextNS_6HandleIP8JSObjectEE
libmozjs128-debug.so:_ZN2JS8CallArgs20reportMoreArgsNeededEP9JSContextPKcjj
libmozjs128-debug.so:_ZN2JS8DataView17ResizableClassPtrE
libmozjs128-debug.so:_ZN2JS8DataView19FixedLengthClassPtrE
libmozjs128-debug.so:_ZN2JS8EvaluateEP9JSContextNS_6HandleINS_13StackGCVectorIP8JSObjectN2js15TempAllocPolicyEEEEERKNS_22ReadOnlyCompileOptionsERNS_10SourceTextIDsEENS_13MutableHandleINS_5ValueEEE
libmozjs128-debug.so:_ZN2JS8EvaluateEP9JSContextRKNS_22ReadOnlyCompileOptionsERNS_10SourceTextIDsEENS_13MutableHandleINS_5ValueEEE
libmozjs128-debug.so:_ZN2JS8EvaluateEP9JSContextRKNS_22ReadOnlyCompileOptionsERNS_10SourceTextIN7mozilla8Utf8UnitEEENS_13MutableHandleINS_5ValueEEE
libmozjs128-debug.so:_ZN2JS8MakeDateEdjj
libmozjs128-debug.so:_ZN2JS8MakeDateEdjjd
libmozjs128-debug.so:_ZN2JS8MapClearEP9JSContextNS_6HandleIP8JSObjectEE
libmozjs128-debug.so:_ZN2JS8SetClearEP9JSContextNS_6HandleIP8JSObjectEE
libmozjs128-debug.so:_ZN2JS8ToBigIntEP9JSContextNS_6HandleINS_5ValueEEE
libmozjs128-debug.so:_ZN2JS8WarnUTF8EP9JSContextPKcz
libmozjs128-debug.so:_ZN2JS9ConstructEP9JSContextNS_6HandleINS_5ValueEEENS2_IP8JSObjectEERKNS_16HandleValueArrayENS_13MutableHandleIS6_EE
libmozjs128-debug.so:_ZN2JS9ConstructEP9JSContextNS_6HandleINS_5ValueEEERKNS_16HandleValueArrayENS_13MutableHandleIP8JSObjectEE
libmozjs128-debug.so:_ZN2JS9GCCellPtrC1ERKNS_5ValueE
libmozjs128-debug.so:_ZN2JS9GCCellPtrC2ERKNS_5ValueE
libmozjs128-debug.so:_ZN2JS9GCContext13poisonJitCodeEv
libmozjs128-debug.so:_ZN2JS9GCContextC1EP9JSRuntime
libmozjs128-debug.so:_ZN2JS9GCContextC2EP9JSRuntime
libmozjs128-debug.so:_ZN2JS9GCContextD1Ev
libmozjs128-debug.so:_ZN2JS9GCContextD2Ev
libmozjs128-debug.so:_ZN2JS9MapDeleteEP9JSContextNS_6HandleIP8JSObjectEENS2_INS_5ValueEEEPb
libmozjs128-debug.so:_ZN2JS9MapValuesEP9JSContextNS_6HandleIP8JSObjectEENS_13MutableHandleINS_5ValueEEE
libmozjs128-debug.so:_ZN2JS9NewSymbolEP9JSContextNS_6HandleIP8JSStringEE
libmozjs128-debug.so:_ZN2JS9SameValueEP9JSContextNS_6HandleINS_5ValueEEES4_Pb
libmozjs128-debug.so:_ZN2JS9SetDeleteEP9JSContextNS_6HandleIP8JSObjectEENS2_INS_5ValueEEEPb
libmozjs128-debug.so:_ZN2JS9SetGCZealEP9JSContexthj
libmozjs128-debug.so:_ZN2JS9SetValuesEP9JSContextNS_6HandleIP8JSObjectEENS_13MutableHandleINS_5ValueEEE
libmozjs128-debug.so:_ZN2JS9TraceRootEP8JSTracerPN2js4wasm6AnyRefEPKc
libmozjs128-debug.so:_ZN2JS9TraceRootEP8JSTracerPNS_11PropertyKeyEPKc
libmozjs128-debug.so:_ZN2JS9TraceRootEP8JSTracerPNS_5ValueEPKc
libmozjs128-debug.so:_ZN2JS9TraceRootEP8JSTracerPP10JSFunctionPKc
libmozjs128-debug.so:_ZN2JS9TraceRootEP8JSTracerPP14JSLinearStringPKc
libmozjs128-debug.so:_ZN2JS9TraceRootEP8JSTracerPP6JSAtomPKc
libmozjs128-debug.so:_ZN2JS9TraceRootEP8JSTracerPP8JSObjectPKc
libmozjs128-debug.so:_ZN2JS9TraceRootEP8JSTracerPP8JSScriptPKc
libmozjs128-debug.so:_ZN2JS9TraceRootEP8JSTracerPP8JSStringPKc
libmozjs128-debug.so:_ZN2JS9TraceRootEP8JSTracerPPN2js10SavedFrameEPKc
libmozjs128-debug.so:_ZN2JS9TraceRootEP8JSTracerPPN2js23AbstractGeneratorObjectEPKc
libmozjs128-debug.so:_ZN2JS9TraceRootEP8JSTracerPPNS_6BigIntEPKc
libmozjs128-debug.so:_ZN2JS9TraceRootEP8JSTracerPPNS_6SymbolEPKc
libmozjs128-debug.so:_ZN2JS9WarnASCIIEP9JSContextPKcz
libmozjs128-debug.so:_ZN2js10DumpBigIntEPN2JS6BigIntE
libmozjs128-debug.so:_ZN2js10DumpBigIntEPN2JS6BigIntEP8_IO_FILE
libmozjs128-debug.so:_ZN2js10DumpBigIntEPN2JS6BigIntERNS_14GenericPrinterE
libmozjs128-debug.so:_ZN2js10DumpObjectEP8JSObject
libmozjs128-debug.so:_ZN2js10DumpObjectEP8JSObjectP8_IO_FILE
libmozjs128-debug.so:_ZN2js10DumpObjectEP8JSObjectRNS_14GenericPrinterE
libmozjs128-debug.so:_ZN2js10DumpScriptEP9JSContextP8JSScript
libmozjs128-debug.so:_ZN2js10DumpScriptEP9JSContextP8JSScriptP8_IO_FILE
libmozjs128-debug.so:_ZN2js10DumpStringEP8JSString
libmozjs128-debug.so:_ZN2js10DumpStringEP8JSStringP8_IO_FILE
libmozjs128-debug.so:_ZN2js10DumpStringEP8JSStringRNS_14GenericPrinterE
libmozjs128-debug.so:_ZN2js10EnqueueJobEP9JSContextN2JS6HandleIP8JSObjectEE
libmozjs128-debug.so:_ZN2js10JSONEscape10isSafeCharEDs
libmozjs128-debug.so:_ZN2js10JSONEscape11convertIntoERNS_14GenericPrinterEDs
libmozjs128-debug.so:_ZN2js10ProxyClassE
libmozjs128-debug.so:_ZN2js10TimeBudget18setDeadlineFromNowEv
libmozjs128-debug.so:_ZN2js10ToInt8SlowEP9JSContextN2JS6HandleINS2_5ValueEEEPa
libmozjs128-debug.so:_ZN2js11DateIsValidEP9JSContextN2JS6HandleIP8JSObjectEEPb
libmozjs128-debug.so:_ZN2js11GetSCOffsetEP23JSStructuredCloneWriter
libmozjs128-debug.so:_ZN2js11MallocArenaE
libmozjs128-debug.so:_ZN2js11QuoteStringEP9JSContextP8JSStringc
libmozjs128-debug.so:_ZN2js11QuoteStringEPNS_8SprinterEP8JSStringc
libmozjs128-debug.so:_ZN2js11SliceBudget15checkOverBudgetEv
libmozjs128-debug.so:_ZN2js11SliceBudgetC1ENS_10TimeBudgetEPN7mozilla6AtomicIbLNS2_14MemoryOrderingE0EvEE
libmozjs128-debug.so:_ZN2js11SliceBudgetC1ENS_10WorkBudgetE
libmozjs128-debug.so:_ZN2js11SliceBudgetC2ENS_10TimeBudgetEPN7mozilla6AtomicIbLNS2_14MemoryOrderingE0EvEE
libmozjs128-debug.so:_ZN2js11SliceBudgetC2ENS_10WorkBudgetE
libmozjs128-debug.so:_ZN2js11ToInt16SlowEP9JSContextN2JS6HandleINS2_5ValueEEEPs
libmozjs128-debug.so:_ZN2js11ToInt32SlowEP9JSContextN2JS6HandleINS2_5ValueEEEPi
libmozjs128-debug.so:_ZN2js11ToInt64SlowEP9JSContextN2JS6HandleINS2_5ValueEEEPl
libmozjs128-debug.so:_ZN2js11ToUint8SlowEP9JSContextN2JS6HandleINS2_5ValueEEEPh
libmozjs128-debug.so:_ZN2js12AppendUniqueEP9JSContextN2JS13MutableHandleINS2_13StackGCVectorINS2_11PropertyKeyENS_15TempAllocPolicyEEEEENS2_6HandleIS7_EE
libmozjs128-debug.so:_ZN2js12ElementAdder10appendHoleEv
libmozjs128-debug.so:_ZN2js12ElementAdder6appendEP9JSContextN2JS6HandleINS3_5ValueEEE
libmozjs128-debug.so:_ZN2js12GetRealmZoneEPN2JS5RealmE
libmozjs128-debug.so:_ZN2js12IsSavedFrameEP8JSObject
libmozjs128-debug.so:_ZN2js12IsSystemZoneEPN2JS4ZoneE
libmozjs128-debug.so:_ZN2js12StringEscape10isSafeCharEDs
libmozjs128-debug.so:_ZN2js12StringEscape11convertIntoERNS_14GenericPrinterEDs
libmozjs128-debug.so:_ZN2js12ToNumberSlowEP9JSContextN2JS6HandleINS2_5ValueEEEPd
libmozjs128-debug.so:_ZN2js12ToObjectSlowEP9JSContextN2JS6HandleINS2_5ValueEEEb
libmozjs128-debug.so:_ZN2js12ToStringSlowEP9JSContextN2JS6HandleINS2_5ValueEEE
libmozjs128-debug.so:_ZN2js12ToUint16SlowEP9JSContextN2JS6HandleINS2_5ValueEEEPt
libmozjs128-debug.so:_ZN2js12ToUint32SlowEP9JSContextN2JS6HandleINS2_5ValueEEEPj
libmozjs128-debug.so:_ZN2js12ToUint64SlowEP9JSContextN2JS6HandleINS2_5ValueEEEPm
libmozjs128-debug.so:_ZN2js13DumpBacktraceEP9JSContext
libmozjs128-debug.so:_ZN2js13DumpBacktraceEP9JSContextP8_IO_FILE
libmozjs128-debug.so:_ZN2js13DumpBacktraceEP9JSContextRNS_14GenericPrinterE
libmozjs128-debug.so:_ZN2js13IsSystemRealmEPN2JS5RealmE
libmozjs128-debug.so:_ZN2js13IsWindowProxyEP8JSObject
libmozjs128-debug.so:_ZN2js13NewDateObjectEP9JSContextiiiiii
libmozjs128-debug.so:_ZN2js13ProxyClassOpsE
libmozjs128-debug.so:_ZN2js13SetSourceHookEP9JSContextN7mozilla9UniquePtrINS_10SourceHookENS2_13DefaultDeleteIS4_EEEE
libmozjs128-debug.so:_ZN2js13StringPrinter11DefaultSizeE
libmozjs128-debug.so:_ZN2js13StringPrinter12releaseCharsEv
libmozjs128-debug.so:_ZN2js13StringPrinter18forwardOutOfMemoryEv
libmozjs128-debug.so:_ZN2js13StringPrinter3putEPKcm
libmozjs128-debug.so:_ZN2js13StringPrinter4initEv
libmozjs128-debug.so:_ZN2js13StringPrinter7reserveEm
libmozjs128-debug.so:_ZN2js13StringPrinter8realloc_Em
libmozjs128-debug.so:_ZN2js13StringPrinter9putStringEP9JSContextP8JSString
libmozjs128-debug.so:_ZN2js13StringPrinter9releaseJSEP9JSContext
libmozjs128-debug.so:_ZN2js13StringPrinterC1EmP9JSContextb
libmozjs128-debug.so:_ZN2js13StringPrinterC2EmP9JSContextb
libmozjs128-debug.so:_ZN2js13StringPrinterD1Ev
libmozjs128-debug.so:_ZN2js13StringPrinterD2Ev
libmozjs128-debug.so:_ZN2js13ToBooleanSlowEN2JS6HandleINS0_5ValueEEE
libmozjs128-debug.so:_ZN2js13TraceWeakMapsEPNS_13WeakMapTracerE
libmozjs128-debug.so:_ZN2js14GenericPrinter17reportOutOfMemoryEv
libmozjs128-debug.so:_ZN2js14GenericPrinter3putEN7mozilla4SpanIKDsLm18446744073709551615EEE
libmozjs128-debug.so:_ZN2js14GenericPrinter3putEN7mozilla4SpanIKhLm18446744073709551615EEE
libmozjs128-debug.so:_ZN2js14GenericPrinter6printfEPKcz
libmozjs128-debug.so:_ZN2js14GenericPrinter7vprintfEPKcP13__va_list_tag
libmozjs128-debug.so:_ZN2js14GenericPrinter9putStringEP9JSContextP8JSString
libmozjs128-debug.so:_ZN2js14GetGCHeapUsageEP9JSContext
libmozjs128-debug.so:_ZN2js14GetObjectProtoEP9JSContextN2JS6HandleIP8JSObjectEENS2_13MutableHandleIS5_EE
libmozjs128-debug.so:_ZN2js14GetStackFormatEP9JSContext
libmozjs128-debug.so:_ZN2js14NewProxyObjectEP9JSContextPKNS_16BaseProxyHandlerEN2JS6HandleINS5_5ValueEEEP8JSObjectRKNS_12ProxyOptionsE
libmozjs128-debug.so:_ZN2js14ObjectClassPtrE
libmozjs128-debug.so:_ZN2js14ProxyObjectOpsE
libmozjs128-debug.so:_ZN2js14SetStackFormatEP9JSContextNS_11StackFormatE
libmozjs128-debug.so:_ZN2js14SetWindowProxyEP9JSContextN2JS6HandleIP8JSObjectEES6_
libmozjs128-debug.so:_ZN2js15AddRawValueRootEP9JSContextPN2JS5ValueEPKc
libmozjs128-debug.so:_ZN2js15AllowNewWrapperEPN2JS11CompartmentEP8JSObject
libmozjs128-debug.so:_ZN2js15AutoEnterPolicy11recordEnterEP9JSContextN2JS6HandleIP8JSObjectEENS4_INS3_11PropertyKeyEEEj
libmozjs128-debug.so:_ZN2js15AutoEnterPolicy11recordLeaveEv
libmozjs128-debug.so:_ZN2js15AutoEnterPolicy34reportErrorIfExceptionIsNotPendingEP9JSContextN2JS6HandleINS3_11PropertyKeyEEE
libmozjs128-debug.so:_ZN2js15ForwardToNativeEP9JSContextPFbS1_jPN2JS5ValueEERKNS2_8CallArgsE
libmozjs128-debug.so:_ZN2js15GetDOMCallbacksEP9JSContext
libmozjs128-debug.so:_ZN2js15GetErrorMessageEPvj
libmozjs128-debug.so:_ZN2js15GetPropertyKeysEP9JSContextN2JS6HandleIP8JSObjectEEjNS2_13MutableHandleINS2_13StackGCVectorINS2_11PropertyKeyENS_15TempAllocPolicyEEEEE
libmozjs128-debug.so:_ZN2js15IndentedPrinter18putWithMaybeIndentEPKcm
libmozjs128-debug.so:_ZN2js15IndentedPrinter3putEPKcm
libmozjs128-debug.so:_ZN2js15IndentedPrinter9putIndentEv
libmozjs128-debug.so:_ZN2js15JSONQuoteStringEPNS_13StringPrinterEP8JSString
libmozjs128-debug.so:_ZN2js15NukeNonCCWProxyEP9JSContextN2JS6HandleIP8JSObjectEE
libmozjs128-debug.so:_ZN2js15ProtoKeyToClassE10JSProtoKey
libmozjs128-debug.so:_ZN2js15SetDOMCallbacksEP9JSContextPKNS_14JSDOMCallbacksE
libmozjs128-debug.so:_ZN2js15TempAllocPolicy13onOutOfMemoryEmNS_13AllocFunctionEmPv
libmozjs128-debug.so:_ZN2js15TraceValueArrayEP8JSTracermPN2JS5ValueE
libmozjs128-debug.so:_ZN2js15UncheckedUnwrapEP8JSObjectbPj
libmozjs128-debug.so:_ZN2js15UnwrapInt8ArrayEP8JSObject
libmozjs128-debug.so:_ZN2js16ForgetSourceHookEP9JSContext
libmozjs128-debug.so:_ZN2js16FunctionClassPtrE
libmozjs128-debug.so:_ZN2js16GetErrorTypeNameEP9JSContexts
libmozjs128-debug.so:_ZN2js16HasObjectMovedOpEP8JSObject
libmozjs128-debug.so:_ZN2js16IsFunctionObjectEP8JSObject
libmozjs128-debug.so:_ZN2js16NukedObjectRealmEP8JSObject
libmozjs128-debug.so:_ZN2js16UnwrapInt16ArrayEP8JSObject
libmozjs128-debug.so:_ZN2js16UnwrapInt32ArrayEP8JSObject
libmozjs128-debug.so:_ZN2js16UnwrapUint8ArrayEP8JSObject
libmozjs128-debug.so:_ZN2js17GetAnyRealmInZoneEPN2JS4ZoneE
libmozjs128-debug.so:_ZN2js17IsArgumentsObjectEN2JS6HandleIP8JSObjectEE
libmozjs128-debug.so:_ZN2js17RecomputeWrappersEP9JSContextRKNS_17CompartmentFilterES4_
libmozjs128-debug.so:_ZN2js17ReportOutOfMemoryEP9JSContext
libmozjs128-debug.so:_ZN2js17ReportOutOfMemoryEPNS_15FrontendContextE
libmozjs128-debug.so:_ZN2js17StringBufferArenaE
libmozjs128-debug.so:_ZN2js17UnwrapUint16ArrayEP8JSObject
libmozjs128-debug.so:_ZN2js17UnwrapUint32ArrayEP8JSObject
libmozjs128-debug.so:_ZN2js18AreGCGrayBitsValidEP9JSRuntime
libmozjs128-debug.so:_ZN2js18EnableCodeCoverageEv
libmozjs128-debug.so:_ZN2js18GetStaticPrototypeEP8JSObject
libmozjs128-debug.so:_ZN2js18IterateGrayObjectsEPN2JS4ZoneEPFvPvNS0_9GCCellPtrERKNS0_15AutoRequireNoGCEES3_
libmozjs128-debug.so:_ZN2js18RemoveRawValueRootEP9JSContextPN2JS5ValueE
libmozjs128-debug.so:_ZN2js18ReportOverRecursedEP9JSContext
libmozjs128-debug.so:_ZN2js18ReportOverRecursedEPNS_15FrontendContextE
libmozjs128-debug.so:_ZN2js18StringIsArrayIndexEP14JSLinearStringPj
libmozjs128-debug.so:_ZN2js18StringIsArrayIndexEPKDsjPj
libmozjs128-debug.so:_ZN2js18UnwrapFloat16ArrayEP8JSObject
libmozjs128-debug.so:_ZN2js18UnwrapFloat32ArrayEP8JSObject
libmozjs128-debug.so:_ZN2js18UnwrapFloat64ArrayEP8JSObject
libmozjs128-debug.so:_ZN2js19CheckedUnwrapStaticEP8JSObject
libmozjs128-debug.so:_ZN2js19GetScriptLineExtentEP8JSScript
libmozjs128-debug.so:_ZN2js19GetTestingFunctionsEP9JSContext
libmozjs128-debug.so:_ZN2js19IsSystemCompartmentEPN2JS11CompartmentE
libmozjs128-debug.so:_ZN2js19ProxyClassExtensionE
libmozjs128-debug.so:_ZN2js19ReportIsNotFunctionEP9JSContextN2JS6HandleINS2_5ValueEEE
libmozjs128-debug.so:_ZN2js19SetWindowProxyClassEP9JSContextPK7JSClass
libmozjs128-debug.so:_ZN2js19UnwrapBigInt64ArrayEP8JSObject
libmozjs128-debug.so:_ZN2js19assertEnteredPolicyEP9JSContextP8JSObjectN2JS11PropertyKeyEj
libmozjs128-debug.so:_ZN2js20CheckedUnwrapDynamicEP8JSObjectP9JSContextb
libmozjs128-debug.so:_ZN2js20DumpInterpreterFrameEP9JSContextPNS_16InterpreterFrameE
libmozjs128-debug.so:_ZN2js20DumpInterpreterFrameEP9JSContextRNS_14GenericPrinterEPNS_16InterpreterFrameE
libmozjs128-debug.so:_ZN2js20GetElementsWithAdderEP9JSContextN2JS6HandleIP8JSObjectEES6_jjPNS_12ElementAdderE
libmozjs128-debug.so:_ZN2js20GetRealmOriginalEvalEP9JSContextN2JS13MutableHandleIP8JSObjectEE
libmozjs128-debug.so:_ZN2js20NoteIntentionalCrashEv
libmozjs128-debug.so:_ZN2js20StopDrainingJobQueueEP9JSContext
libmozjs128-debug.so:_ZN2js20UnwrapBigUint64ArrayEP8JSObject
libmozjs128-debug.so:_ZN2js20UseInternalJobQueuesEP9JSContext
libmozjs128-debug.so:_ZN2js21AssertSameCompartmentEP8JSObjectS1_
libmozjs128-debug.so:_ZN2js21AssertSameCompartmentEP9JSContextN2JS6HandleINS2_5ValueEEE
libmozjs128-debug.so:_ZN2js21AssertSameCompartmentEP9JSContextP8JSObject
libmozjs128-debug.so:_ZN2js21AutoAssertNoContentJSC1EP9JSContext
libmozjs128-debug.so:_ZN2js21AutoAssertNoContentJSC2EP9JSContext
libmozjs128-debug.so:_ZN2js21AutoAssertNoContentJSD1Ev
libmozjs128-debug.so:_ZN2js21AutoAssertNoContentJSD2Ev
libmozjs128-debug.so:_ZN2js21CheckGrayMarkingStateEP9JSRuntime
libmozjs128-debug.so:_ZN2js21DateGetMsecSinceEpochEP9JSContextN2JS6HandleIP8JSObjectEEPd
libmozjs128-debug.so:_ZN2js21GetAllocationMetadataEP8JSObject
libmozjs128-debug.so:_ZN2js21GetMemoryUsageForZoneEPN2JS4ZoneE
libmozjs128-debug.so:_ZN2js21IsSharableCompartmentEPN2JS11CompartmentE
libmozjs128-debug.so:_ZN2js21MaybeGetScriptPrivateEP8JSObject
libmozjs128-debug.so:_ZN2js21ToWindowIfWindowProxyEP8JSObject
libmozjs128-debug.so:_ZN2js21UnwrapArrayBufferViewEP8JSObject
libmozjs128-debug.so:_ZN2js21ZoneGlobalsAreAllGrayEPN2JS4ZoneE
libmozjs128-debug.so:_ZN2js22GetCodeCoverageSummaryEP9JSContextPm
libmozjs128-debug.so:_ZN2js22ReportLargeOutOfMemoryEP9JSContext
libmozjs128-debug.so:_ZN2js22UnwrapOneCheckedStaticEP8JSObject
libmozjs128-debug.so:_ZN2js23CrossCompartmentWrapper9singletonE
libmozjs128-debug.so:_ZN2js23NewFunctionWithReservedEP9JSContextPFbS1_jPN2JS5ValueEEjjPKc
libmozjs128-debug.so:_ZN2js23NotifyAnimationActivityEP8JSObject
libmozjs128-debug.so:_ZN2js23RestartDrainingJobQueueEP9JSContext
libmozjs128-debug.so:_ZN2js23RuntimeIsBeingDestroyedEv
libmozjs128-debug.so:_ZN2js23TraceGrayWrapperTargetsEP8JSTracerPN2JS4ZoneE
libmozjs128-debug.so:_ZN2js23UnwrapOneCheckedDynamicEN2JS6HandleIP8JSObjectEEP9JSContextb
libmozjs128-debug.so:_ZN2js23UnwrapUint8ClampedArrayEP8JSObject
libmozjs128-debug.so:_ZN2js24ArrayBufferContentsArenaE
libmozjs128-debug.so:_ZN2js24AutoEnterOOMUnsafeRegion10crash_implEPKc
libmozjs128-debug.so:_ZN2js24AutoEnterOOMUnsafeRegion10crash_implEmPKc
libmozjs128-debug.so:_ZN2js24AutoEnterOOMUnsafeRegion23annotateOOMSizeCallbackE
libmozjs128-debug.so:_ZN2js24AutoEnterOOMUnsafeRegion6owner_E
libmozjs128-debug.so:_ZN2js24CompartmentHasLiveGlobalEPN2JS11CompartmentE
libmozjs128-debug.so:_ZN2js24FunctionExtendedClassPtrE
libmozjs128-debug.so:_ZN2js24RemapRemoteWindowProxiesEP9JSContextPNS_29CompartmentTransplantCallbackEN2JS13MutableHandleIP8JSObjectEE
libmozjs128-debug.so:_ZN2js24SetContextProfilingStackEP9JSContextP14ProfilingStack
libmozjs128-debug.so:_ZN2js25CurrentThreadIsMainThreadEv
libmozjs128-debug.so:_ZN2js25FunctionHasNativeReservedEP8JSObject
libmozjs128-debug.so:_ZN2js25GetCodeCoverageSummaryAllEP9JSContextPm
libmozjs128-debug.so:_ZN2js25GetFunctionNativeReservedEP8JSObjectm
libmozjs128-debug.so:_ZN2js25GetJobsInInternalJobQueueEP9JSContext
libmozjs128-debug.so:_ZN2js25RemapAllWrappersForObjectEP9JSContextN2JS6HandleIP8JSObjectEES6_
libmozjs128-debug.so:_ZN2js25SetFunctionNativeReservedEP8JSObjectmRKN2JS5ValueE
libmozjs128-debug.so:_ZN2js26CurrentThreadCanAccessZoneEPN2JS4ZoneE
libmozjs128-debug.so:_ZN2js26DefineFunctionWithReservedEP9JSContextP8JSObjectPKcPFbS1_jPN2JS5ValueEEjj
libmozjs128-debug.so:_ZN2js26GetFirstSubsumedSavedFrameEP9JSContextP12JSPrincipalsN2JS6HandleIP8JSObjectEENS4_20SavedFrameSelfHostedE
libmozjs128-debug.so:_ZN2js26GetObjectZoneFromAnyThreadEPK8JSObject
libmozjs128-debug.so:_ZN2js27EnableContextProfilingStackEP9JSContextb
libmozjs128-debug.so:_ZN2js27GetFirstGlobalInCompartmentEPN2JS11CompartmentE
libmozjs128-debug.so:_ZN2js27GetSharedMemoryUsageForZoneEPN2JS4ZoneE
libmozjs128-debug.so:_ZN2js27NewFunctionByIdWithReservedEP9JSContextPFbS1_jPN2JS5ValueEEjjNS2_11PropertyKeyE
libmozjs128-debug.so:_ZN2js27NukeCrossCompartmentWrapperEP9JSContextP8JSObject
libmozjs128-debug.so:_ZN2js27SetPreserveWrapperCallbacksEP9JSContextPFbS1_N2JS6HandleIP8JSObjectEEEPFbS6_E
libmozjs128-debug.so:_ZN2js28IsObjectInContextCompartmentEP8JSObjectPK9JSContext
libmozjs128-debug.so:_ZN2js28NukeCrossCompartmentWrappersEP9JSContextRKNS_17CompartmentFilterEPN2JS5RealmENS_22NukeReferencesToWindowENS_24NukeReferencesFromTargetE
libmozjs128-debug.so:_ZN2js28SetAllocationMetadataBuilderEP9JSContextPKNS_25AllocationMetadataBuilderE
libmozjs128-debug.so:_ZN2js28SetScriptEnvironmentPreparerEP9JSContextPNS_25ScriptEnvironmentPreparerE
libmozjs128-debug.so:_ZN2js28UncheckedUnwrapWithoutExposeEP8JSObject
libmozjs128-debug.so:_ZN2js29CurrentThreadCanAccessRuntimeEPK9JSRuntime
libmozjs128-debug.so:_ZN2js29OpaqueCrossCompartmentWrapper9singletonE
libmozjs128-debug.so:_ZN2js2gc10TraceRealmEP8JSTracerPN2JS5RealmEPKc
libmozjs128-debug.so:_ZN2js2gc12GetGCContextEP9JSContext
libmozjs128-debug.so:_ZN2js2gc15LockStoreBufferEP9JSRuntime
libmozjs128-debug.so:_ZN2js2gc17TraceExternalEdgeEP8JSTracerPN2JS11PropertyKeyEPKc
libmozjs128-debug.so:_ZN2js2gc17TraceExternalEdgeEP8JSTracerPN2JS5ValueEPKc
libmozjs128-debug.so:_ZN2js2gc17TraceExternalEdgeEP8JSTracerPP10JSFunctionPKc
libmozjs128-debug.so:_ZN2js2gc17TraceExternalEdgeEP8JSTracerPP14JSLinearStringPKc
libmozjs128-debug.so:_ZN2js2gc17TraceExternalEdgeEP8JSTracerPP6JSAtomPKc
libmozjs128-debug.so:_ZN2js2gc17TraceExternalEdgeEP8JSTracerPP8JSObjectPKc
libmozjs128-debug.so:_ZN2js2gc17TraceExternalEdgeEP8JSTracerPP8JSScriptPKc
libmozjs128-debug.so:_ZN2js2gc17TraceExternalEdgeEP8JSTracerPP8JSStringPKc
libmozjs128-debug.so:_ZN2js2gc17TraceExternalEdgeEP8JSTracerPPN2JS6BigIntEPKc
libmozjs128-debug.so:_ZN2js2gc17TraceExternalEdgeEP8JSTracerPPN2JS6SymbolEPKc
libmozjs128-debug.so:_ZN2js2gc17UnlockStoreBufferEP9JSRuntime
libmozjs128-debug.so:_ZN2js2gc18SetPerformanceHintEP9JSContextNS0_15PerformanceHintE
libmozjs128-debug.so:_ZN2js2gc19NewMemoryInfoObjectEP9JSContext
libmozjs128-debug.so:_ZN2js2gc20AssertGCThingHasTypeEPNS0_4CellEN2JS9TraceKindE
libmozjs128-debug.so:_ZN2js2gc29PerformIncrementalReadBarrierEN2JS9GCCellPtrE
libmozjs128-debug.so:_ZN2js2gc5Arena10ThingSizesE
libmozjs128-debug.so:_ZN2js2gc5Arena14ThingsPerArenaE
libmozjs128-debug.so:_ZN2js2gc5Arena17FirstThingOffsetsE
libmozjs128-debug.so:_ZN2js2gc6detail16CanCheckGrayBitsEPKNS0_11TenuredCellE
libmozjs128-debug.so:_ZN2js2gc6detail19AssertCellIsNotGrayEPKNS0_4CellE
libmozjs128-debug.so:_ZN2js2gc6detail19ObjectIsMarkedBlackEPK8JSObject
libmozjs128-debug.so:_ZN2js2gc6detail23CellIsMarkedGrayIfKnownEPKNS0_11TenuredCellE
libmozjs128-debug.so:_ZN2js30SetPropertyIgnoringNamedGetterEP9JSContextN2JS6HandleIP8JSObjectEENS3_INS2_11PropertyKeyEEENS3_INS2_5ValueEEESA_NS3_IN7mozilla5MaybeINS2_18PropertyDescriptorEEEEERNS2_14ObjectOpResultE
libmozjs128-debug.so:_ZN2js30ShouldIgnorePropertyDefinitionEP9JSContext10JSProtoKeyN2JS11PropertyKeyE
libmozjs128-debug.so:_ZN2js31ExecuteInFrameScriptEnvironmentEP9JSContextN2JS6HandleIP8JSObjectEENS3_IP8JSScriptEENS2_13MutableHandleIS5_EE
libmozjs128-debug.so:_ZN2js31GetArrayBufferViewLengthAndDataEP8JSObjectPmPbPPh
libmozjs128-debug.so:_ZN2js32MemoryReportingSundriesThresholdEv
libmozjs128-debug.so:_ZN2js32UnsafeTraceManuallyBarrieredEdgeEP8JSTracerPP8JSObjectPKc
libmozjs128-debug.so:_ZN2js33PrepareScriptEnvironmentAndInvokeEP9JSContextN2JS6HandleIP8JSObjectEERNS_25ScriptEnvironmentPreparer7ClosureE
libmozjs128-debug.so:_ZN2js34NukeRemovedCrossCompartmentWrapperEP9JSContextP8JSObject
libmozjs128-debug.so:_ZN2js34UninlinedIsCrossCompartmentWrapperEPK8JSObject
libmozjs128-debug.so:_ZN2js35NewFunctionByIdWithReservedAndProtoEP9JSContextPFbS1_jPN2JS5ValueEENS2_6HandleIP8JSObjectEEjjNS2_11PropertyKeyE
libmozjs128-debug.so:_ZN2js35NukeCrossCompartmentWrapperIfExistsEP9JSContextPN2JS11CompartmentEP8JSObject
libmozjs128-debug.so:_ZN2js35RegisterContextProfilingEventMarkerEP9JSContextPFvPKcS3_E
libmozjs128-debug.so:_ZN2js37IsCompartmentZoneSweepingOrCompactingEPN2JS11CompartmentE
libmozjs128-debug.so:_ZN2js3oom13GetThreadTypeEv
libmozjs128-debug.so:_ZN2js3oom9simulatorE
libmozjs128-debug.so:_ZN2js6DumpIdEN2JS11PropertyKeyE
libmozjs128-debug.so:_ZN2js6DumpIdEN2JS11PropertyKeyEP8_IO_FILE
libmozjs128-debug.so:_ZN2js6DumpIdEN2JS11PropertyKeyERNS_14GenericPrinterE
libmozjs128-debug.so:_ZN2js6DumpPCEP9JSContext
libmozjs128-debug.so:_ZN2js6DumpPCEP9JSContextP8_IO_FILE
libmozjs128-debug.so:_ZN2js6detail12IsWindowSlowEP8JSObject
libmozjs128-debug.so:_ZN2js6detail15SetValueInProxyEPN2JS5ValueERKS2_
libmozjs128-debug.so:_ZN2js6detail25ToWindowProxyIfWindowSlowEP8JSObject
libmozjs128-debug.so:_ZN2js7DumpFmtEP8_IO_FILEPKcz
libmozjs128-debug.so:_ZN2js7DumpFmtEPKcz
libmozjs128-debug.so:_ZN2js7RunJobsEP9JSContext
libmozjs128-debug.so:_ZN2js7Wrapper12defaultProtoE
libmozjs128-debug.so:_ZN2js7Wrapper13wrappedObjectEP8JSObject
libmozjs128-debug.so:_ZN2js7Wrapper22singletonWithPrototypeE
libmozjs128-debug.so:_ZN2js7Wrapper3NewEP9JSContextP8JSObjectPKS0_RKNS_14WrapperOptionsE
libmozjs128-debug.so:_ZN2js7Wrapper5RenewEP8JSObjectS2_PKS0_
libmozjs128-debug.so:_ZN2js7Wrapper6familyE
libmozjs128-debug.so:_ZN2js7Wrapper9singletonE
libmozjs128-debug.so:_ZN2js8DumpAtomEP6JSAtom
libmozjs128-debug.so:_ZN2js8DumpAtomEP6JSAtomP8_IO_FILE
libmozjs128-debug.so:_ZN2js8DumpAtomEP6JSAtomRNS_14GenericPrinterE
libmozjs128-debug.so:_ZN2js8DumpHeapEP9JSContextP8_IO_FILENS_24DumpHeapNurseryBehaviourEPFmPKvE
libmozjs128-debug.so:_ZN2js8Fprinter3putEPKcm
libmozjs128-debug.so:_ZN2js8Fprinter4initEP8_IO_FILE
libmozjs128-debug.so:_ZN2js8Fprinter4initEPKc
libmozjs128-debug.so:_ZN2js8Fprinter5flushEv
libmozjs128-debug.so:_ZN2js8Fprinter6finishEv
libmozjs128-debug.so:_ZN2js8FprinterC1EP8_IO_FILE
libmozjs128-debug.so:_ZN2js8FprinterC2EP8_IO_FILE
libmozjs128-debug.so:_ZN2js8FprinterD1Ev
libmozjs128-debug.so:_ZN2js8FprinterD2Ev
libmozjs128-debug.so:_ZN2js9DumpCharsEPKDsm
libmozjs128-debug.so:_ZN2js9DumpCharsEPKDsmP8_IO_FILE
libmozjs128-debug.so:_ZN2js9DumpCharsEPKDsmRNS_14GenericPrinterE
libmozjs128-debug.so:_ZN2js9DumpValueERKN2JS5ValueE
libmozjs128-debug.so:_ZN2js9DumpValueERKN2JS5ValueEP8_IO_FILE
libmozjs128-debug.so:_ZN2js9DumpValueERKN2JS5ValueERNS_14GenericPrinterE
libmozjs128-debug.so:_ZN2js9LSprinter3putEPKcm
libmozjs128-debug.so:_ZN2js9LSprinter5clearEv
libmozjs128-debug.so:_ZN2js9LSprinterC1EPNS_9LifoAllocE
libmozjs128-debug.so:_ZN2js9LSprinterC2EPNS_9LifoAllocE
libmozjs128-debug.so:_ZN2js9LSprinterD1Ev
libmozjs128-debug.so:_ZN2js9LSprinterD2Ev
libmozjs128-debug.so:_ZN31_$LT$dyn$u20$core..any..Any$GT$12downcast_ref17he889c78a2055c0bfE
libmozjs128-debug.so:_ZN31_$LT$dyn$u20$core..any..Any$GT$12downcast_ref17hfea80bac01b9ec00E
libmozjs128-debug.so:_ZN42_$LT$$RF$T$u20$as$u20$core..fmt..Debug$GT$3fmt17h3fcf8a36df15b498E
libmozjs128-debug.so:_ZN42_$LT$$RF$T$u20$as$u20$core..fmt..Debug$GT$3fmt17h49635d6c7d7c31baE
libmozjs128-debug.so:_ZN42_$LT$$RF$T$u20$as$u20$core..fmt..Debug$GT$3fmt17h6bcfff2155cf0018E
libmozjs128-debug.so:_ZN42_$LT$$RF$T$u20$as$u20$core..fmt..Debug$GT$3fmt17hc3ed027243f7c696E
libmozjs128-debug.so:_ZN44_$LT$$RF$T$u20$as$u20$core..fmt..Display$GT$3fmt17h1173fd04dc4b5c7bE
libmozjs128-debug.so:_ZN44_$LT$$RF$T$u20$as$u20$core..fmt..Display$GT$3fmt17h982216a99692ac10E
libmozjs128-debug.so:_ZN47_$LT$$RF$str$u20$as$u20$serde..de..Expected$GT$3fmt17hd65074e696dd2300E
libmozjs128-debug.so:_ZN4core10intrinsics20select_unpredictable17h9b220350b3973407E
libmozjs128-debug.so:_ZN4core10intrinsics20select_unpredictable17hf4d8e1d56c52eb41E
libmozjs128-debug.so:_ZN4core10intrinsics23is_val_statically_known17h767fc2265112b16aE
libmozjs128-debug.so:_ZN4core10intrinsics23is_val_statically_known17hfcf880c1049db802E
libmozjs128-debug.so:_ZN4core3cmp3Ord3max17ha9705602124044b0E
libmozjs128-debug.so:_ZN4core3cmp3Ord3max17hc9e33aafcdae34eaE
libmozjs128-debug.so:_ZN4core3cmp3Ord3min17h16b36c3d48f4fc79E
libmozjs128-debug.so:_ZN4core3cmp3Ord3min17ha2b293c196fec68dE
libmozjs128-debug.so:_ZN4core3cmp3max17h4de67ef9b29688feE
libmozjs128-debug.so:_ZN4core3cmp3min17h5dddf726a843d4f7E
libmozjs128-debug.so:_ZN4core3cmp3min17hc006a4a2d5f2e660E
libmozjs128-debug.so:_ZN4core3cmp5impls50_$LT$impl$u20$core..cmp..Ord$u20$for$u20$$RF$A$GT$3cmp17hc942c3dfde4c50ddE
libmozjs128-debug.so:_ZN4core3cmp5impls69_$LT$impl$u20$core..cmp..PartialEq$LT$$RF$B$GT$$u20$for$u20$$RF$A$GT$2eq17h7c87c755ef89b1ffE
libmozjs128-debug.so:_ZN4core3cmp5impls69_$LT$impl$u20$core..cmp..PartialEq$LT$$RF$B$GT$$u20$for$u20$$RF$A$GT$2eq17h8c1ae417623cbb28E
libmozjs128-debug.so:_ZN4core3cmp5impls69_$LT$impl$u20$core..cmp..PartialEq$LT$$RF$B$GT$$u20$for$u20$$RF$A$GT$2ne17h8978f5556cec31ffE
libmozjs128-debug.so:_ZN4core3cmp9PartialEq2ne17h852c6e95d396f2d9E
libmozjs128-debug.so:_ZN4core3cmp9PartialEq2ne17haa9b0da76f8197f7E
libmozjs128-debug.so:_ZN4core3fmt2rt38_$LT$impl$u20$core..fmt..Arguments$GT$6new_v117h5bffd20ea4800358E
libmozjs128-debug.so:_ZN4core3fmt2rt38_$LT$impl$u20$core..fmt..Arguments$GT$6new_v117h87565152ee7a5b31E
libmozjs128-debug.so:_ZN4core3fmt2rt38_$LT$impl$u20$core..fmt..Arguments$GT$6new_v117h8818c0eea36ecc8fE
libmozjs128-debug.so:_ZN4core3fmt2rt38_$LT$impl$u20$core..fmt..Arguments$GT$6new_v117hc15ddbe362638466E
libmozjs128-debug.so:_ZN4core3fmt2rt38_$LT$impl$u20$core..fmt..Arguments$GT$6new_v117hcca788ad5af53f59E
libmozjs128-debug.so:_ZN4core3fmt2rt8Argument11new_display17h025a7461048f5c98E
libmozjs128-debug.so:_ZN4core3fmt2rt8Argument11new_display17h054e6b793cbedebcE
libmozjs128-debug.so:_ZN4core3fmt2rt8Argument11new_display17h59212eb24c670090E
libmozjs128-debug.so:_ZN4core3fmt2rt8Argument11new_display17ha268a6fde3c1bb9fE
libmozjs128-debug.so:_ZN4core3fmt2rt8Argument11new_display17hb1b1bc1561da3797E
libmozjs128-debug.so:_ZN4core3fmt2rt8Argument11new_display17hb5326851bbbc0f04E
libmozjs128-debug.so:_ZN4core3fmt2rt8Argument11new_display17hbdafb8d6915744e4E
libmozjs128-debug.so:_ZN4core3fmt2rt8Argument11new_display17hbea81716496136fbE
libmozjs128-debug.so:_ZN4core3fmt2rt8Argument11new_display17hd5e735ab154af293E
libmozjs128-debug.so:_ZN4core3fmt2rt8Argument11new_display17he2930a10241063b7E
libmozjs128-debug.so:_ZN4core3fmt2rt8Argument9new_debug17h2b720454ffaf535cE
libmozjs128-debug.so:_ZN4core3fmt5Write9write_fmt17hda6e0b11f811e11fE
libmozjs128-debug.so:_ZN4core3ptr14read_unaligned17hd346268cc18b175cE
libmozjs128-debug.so:_ZN4core3ptr14read_unaligned17he0a134952f25c9c2E
libmozjs128-debug.so:_ZN4core3ptr42drop_in_place$LT$alloc..string..String$GT$17h617becff8fbd6f70E
libmozjs128-debug.so:_ZN4core3ptr46drop_in_place$LT$alloc..vec..Vec$LT$u8$GT$$GT$17h30b5b0ba0a984c88E
libmozjs128-debug.so:_ZN4core3ptr49drop_in_place$LT$alloc..boxed..Box$LT$str$GT$$GT$17h7abf10b121c2e606E
libmozjs128-debug.so:_ZN4core3ptr53drop_in_place$LT$alloc..raw_vec..RawVec$LT$u8$GT$$GT$17h62e09ba9b90b6d0fE
libmozjs128-debug.so:_ZN4core3ptr66drop_in_place$LT$alloc..boxed..Box$LT$encoding_rs..Decoder$GT$$GT$17hb6c0624cb3173b00E
libmozjs128-debug.so:_ZN4core3ptr66drop_in_place$LT$alloc..boxed..Box$LT$encoding_rs..Encoder$GT$$GT$17hdb97bdfb4ae57132E
libmozjs128-debug.so:_ZN4core3ptr79drop_in_place$LT$core..hint..select_unpredictable..DropOnPanic$LT$usize$GT$$GT$17h235bbabbb5bcd215E
libmozjs128-debug.so:_ZN4core3ptr7mut_ptr31_$LT$impl$u20$$BP$mut$u20$T$GT$7is_null17h2a4a08af055f05eeE
libmozjs128-debug.so:_ZN4core3ptr8non_null16NonNull$LT$T$GT$20offset_from_unsigned17h0093cfc631d2ee64E
libmozjs128-debug.so:_ZN4core3ptr8non_null16NonNull$LT$T$GT$20offset_from_unsigned17h5fa81f1883c01972E
libmozjs128-debug.so:_ZN4core3ptr8non_null16NonNull$LT$T$GT$20offset_from_unsigned17h617a56b50d5b0059E
libmozjs128-debug.so:_ZN4core3str11validations15next_code_point17hf557619d36c1e9e7E
libmozjs128-debug.so:_ZN4core3str21_$LT$impl$u20$str$GT$3get17h257a9efee2393f1eE
libmozjs128-debug.so:_ZN4core3str21_$LT$impl$u20$str$GT$8contains17he548778b899046fcE
libmozjs128-debug.so:_ZN4core3str6traits66_$LT$impl$u20$core..ops..index..Index$LT$I$GT$$u20$for$u20$str$GT$5index17h7943737a9ed03993E
libmozjs128-debug.so:_ZN4core3str7pattern13simd_contains28_$u7b$$u7b$closure$u7d$$u7d$17h04ffb28ef1647446E
libmozjs128-debug.so:_ZN4core3str7pattern13simd_contains28_$u7b$$u7b$closure$u7d$$u7d$17h14a35c5e7537f0d8E
libmozjs128-debug.so:_ZN4core3str7pattern13simd_contains28_$u7b$$u7b$closure$u7d$$u7d$17hbbd7d8ae9de6943cE
libmozjs128-debug.so:_ZN4core3str7pattern13simd_contains28_$u7b$$u7b$closure$u7d$$u7d$17hea386209cabc3e49E
libmozjs128-debug.so:_ZN4core3str7pattern14TwoWaySearcher4next17h7c36525d6370e7d3E
libmozjs128-debug.so:_ZN4core3str7pattern14TwoWaySearcher4next17hc8d67017a46aa39bE
libmozjs128-debug.so:_ZN4core4iter5range101_$LT$impl$u20$core..iter..traits..iterator..Iterator$u20$for$u20$core..ops..range..Range$LT$A$GT$$GT$4next17h9b8a39d230ba34fbE
libmozjs128-debug.so:_ZN4core4iter5range116_$LT$impl$u20$core..iter..traits..double_ended..DoubleEndedIterator$u20$for$u20$core..ops..range..Range$LT$A$GT$$GT$9next_back17h099716730566efafE
libmozjs128-debug.so:_ZN4core4iter6traits12double_ended19DoubleEndedIterator5rfind5check28_$u7b$$u7b$closure$u7d$$u7d$17h5b23f872ae50b236E
libmozjs128-debug.so:_ZN4core4iter6traits12double_ended19DoubleEndedIterator9try_rfold17h74c562b36689edcdE
libmozjs128-debug.so:_ZN4core4iter6traits12double_ended19DoubleEndedIterator9try_rfold17h7840e19a1a0225efE
libmozjs128-debug.so:_ZN4core4iter6traits8iterator12iter_compare17h479595e7a1594532E
libmozjs128-debug.so:_ZN4core4iter6traits8iterator12iter_compare7compare28_$u7b$$u7b$closure$u7d$$u7d$17hb5b6f75c42760704E
libmozjs128-debug.so:_ZN4core4iter6traits8iterator8Iterator12try_for_each17h52ebd7d180594e67E
libmozjs128-debug.so:_ZN4core4iter6traits8iterator8Iterator12try_for_each4call28_$u7b$$u7b$closure$u7d$$u7d$17h3094e0b396c00cecE
libmozjs128-debug.so:_ZN4core4iter6traits8iterator8Iterator3any5check28_$u7b$$u7b$closure$u7d$$u7d$17h46850826dcbba6a4E
libmozjs128-debug.so:_ZN4core4iter6traits8iterator8Iterator3cmp17h306906d4e30ab16bE
libmozjs128-debug.so:_ZN4core4iter6traits8iterator8Iterator3cmp28_$u7b$$u7b$closure$u7d$$u7d$17h9ff70abe7445dfc4E
libmozjs128-debug.so:_ZN4core4iter6traits8iterator8Iterator3rev17hf5ac787343fca1b3E
libmozjs128-debug.so:_ZN4core4iter6traits8iterator8Iterator3zip17h1aed0c7ff8a8c670E
libmozjs128-debug.so:_ZN4core4iter6traits8iterator8Iterator3zip17hffa322ec98981369E
libmozjs128-debug.so:_ZN4core4iter6traits8iterator8Iterator4take17h7a2c51f0c014c4aaE
libmozjs128-debug.so:_ZN4core4iter6traits8iterator8Iterator6cmp_by17hc1588e91d3311335E
libmozjs128-debug.so:_ZN4core4iter6traits8iterator8Iterator6cmp_by7compare28_$u7b$$u7b$closure$u7d$$u7d$17h7dca8d9ecac84294E
libmozjs128-debug.so:_ZN4core4iter6traits8iterator8Iterator8for_each17h3bf3906104694aecE
libmozjs128-debug.so:_ZN4core4iter6traits8iterator8Iterator8for_each4call28_$u7b$$u7b$closure$u7d$$u7d$17he1ea2aa8bf73a0daE
libmozjs128-debug.so:_ZN4core4iter6traits8iterator8Iterator8try_fold17hc9d8a629f2b50bfeE
libmozjs128-debug.so:_ZN4core4iter6traits8iterator8Iterator9enumerate17h486520f292bfd517E
libmozjs128-debug.so:_ZN4core4iter6traits8iterator8Iterator9enumerate17h4bae70193737cf6fE
libmozjs128-debug.so:_ZN4core4iter6traits8iterator8Iterator9enumerate17h89f88f8e7ffdbcf8E
libmozjs128-debug.so:_ZN4core4iter8adapters3zip27TrustedRandomAccessNoCoerce4size17h707fbbcb7080e25fE
libmozjs128-debug.so:_ZN4core4iter8adapters3zip27TrustedRandomAccessNoCoerce4size17h85f3f9b31b31d2edE
libmozjs128-debug.so:_ZN4core4iter8adapters3zip27TrustedRandomAccessNoCoerce4size17ha9d73e0befbc2ac5E
libmozjs128-debug.so:_ZN4core5array85_$LT$impl$u20$core..ops..index..Index$LT$I$GT$$u20$for$u20$$u5b$T$u3b$$u20$N$u5d$$GT$5index17h01f1b28d17d15810E
libmozjs128-debug.so:_ZN4core5array85_$LT$impl$u20$core..ops..index..Index$LT$I$GT$$u20$for$u20$$u5b$T$u3b$$u20$N$u5d$$GT$5index17h04fa58fdf13ca9efE
libmozjs128-debug.so:_ZN4core5array85_$LT$impl$u20$core..ops..index..Index$LT$I$GT$$u20$for$u20$$u5b$T$u3b$$u20$N$u5d$$GT$5index17h1212a80b7d0b60adE
libmozjs128-debug.so:_ZN4core5array85_$LT$impl$u20$core..ops..index..Index$LT$I$GT$$u20$for$u20$$u5b$T$u3b$$u20$N$u5d$$GT$5index17h13f15aa156486dc6E
libmozjs128-debug.so:_ZN4core5array85_$LT$impl$u20$core..ops..index..Index$LT$I$GT$$u20$for$u20$$u5b$T$u3b$$u20$N$u5d$$GT$5index17h1bca48f5669efb8cE
libmozjs128-debug.so:_ZN4core5array85_$LT$impl$u20$core..ops..index..Index$LT$I$GT$$u20$for$u20$$u5b$T$u3b$$u20$N$u5d$$GT$5index17h2050de7ecce69f79E
libmozjs128-debug.so:_ZN4core5array85_$LT$impl$u20$core..ops..index..Index$LT$I$GT$$u20$for$u20$$u5b$T$u3b$$u20$N$u5d$$GT$5index17h2ddc53b6afe30788E
libmozjs128-debug.so:_ZN4core5array85_$LT$impl$u20$core..ops..index..Index$LT$I$GT$$u20$for$u20$$u5b$T$u3b$$u20$N$u5d$$GT$5index17h2f1b865db12b3312E
libmozjs128-debug.so:_ZN4core5array85_$LT$impl$u20$core..ops..index..Index$LT$I$GT$$u20$for$u20$$u5b$T$u3b$$u20$N$u5d$$GT$5index17h306b32f89199086fE
libmozjs128-debug.so:_ZN4core5array85_$LT$impl$u20$core..ops..index..Index$LT$I$GT$$u20$for$u20$$u5b$T$u3b$$u20$N$u5d$$GT$5index17h39c0e1031e4030c2E
libmozjs128-debug.so:_ZN4core5array85_$LT$impl$u20$core..ops..index..Index$LT$I$GT$$u20$for$u20$$u5b$T$u3b$$u20$N$u5d$$GT$5index17h410ab0d758cfdf78E
libmozjs128-debug.so:_ZN4core5array85_$LT$impl$u20$core..ops..index..Index$LT$I$GT$$u20$for$u20$$u5b$T$u3b$$u20$N$u5d$$GT$5index17h5539d16fe635a7f8E
libmozjs128-debug.so:_ZN4core5array85_$LT$impl$u20$core..ops..index..Index$LT$I$GT$$u20$for$u20$$u5b$T$u3b$$u20$N$u5d$$GT$5index17h5a52dedee03dce2dE
libmozjs128-debug.so:_ZN4core5array85_$LT$impl$u20$core..ops..index..Index$LT$I$GT$$u20$for$u20$$u5b$T$u3b$$u20$N$u5d$$GT$5index17h5c203fc3b68e5208E
libmozjs128-debug.so:_ZN4core5array85_$LT$impl$u20$core..ops..index..Index$LT$I$GT$$u20$for$u20$$u5b$T$u3b$$u20$N$u5d$$GT$5index17h614a396db2d17f3dE
libmozjs128-debug.so:_ZN4core5array85_$LT$impl$u20$core..ops..index..Index$LT$I$GT$$u20$for$u20$$u5b$T$u3b$$u20$N$u5d$$GT$5index17h63b5bf4685d2423aE
libmozjs128-debug.so:_ZN4core5array85_$LT$impl$u20$core..ops..index..Index$LT$I$GT$$u20$for$u20$$u5b$T$u3b$$u20$N$u5d$$GT$5index17h64976e3a0c11048fE
libmozjs128-debug.so:_ZN4core5array85_$LT$impl$u20$core..ops..index..Index$LT$I$GT$$u20$for$u20$$u5b$T$u3b$$u20$N$u5d$$GT$5index17h65e5a47f0000e2bbE
libmozjs128-debug.so:_ZN4core5array85_$LT$impl$u20$core..ops..index..Index$LT$I$GT$$u20$for$u20$$u5b$T$u3b$$u20$N$u5d$$GT$5index17h6756dfb671ce621cE
libmozjs128-debug.so:_ZN4core5array85_$LT$impl$u20$core..ops..index..Index$LT$I$GT$$u20$for$u20$$u5b$T$u3b$$u20$N$u5d$$GT$5index17h795be76f1acbe3ccE
libmozjs128-debug.so:_ZN4core5array85_$LT$impl$u20$core..ops..index..Index$LT$I$GT$$u20$for$u20$$u5b$T$u3b$$u20$N$u5d$$GT$5index17h7affb2ba28840189E
libmozjs128-debug.so:_ZN4core5array85_$LT$impl$u20$core..ops..index..Index$LT$I$GT$$u20$for$u20$$u5b$T$u3b$$u20$N$u5d$$GT$5index17h7ca0d7f728f2fcacE
libmozjs128-debug.so:_ZN4core5array85_$LT$impl$u20$core..ops..index..Index$LT$I$GT$$u20$for$u20$$u5b$T$u3b$$u20$N$u5d$$GT$5index17h80d3ffcb79e35e1dE
libmozjs128-debug.so:_ZN4core5array85_$LT$impl$u20$core..ops..index..Index$LT$I$GT$$u20$for$u20$$u5b$T$u3b$$u20$N$u5d$$GT$5index17h9a7cb7e89c245f02E
libmozjs128-debug.so:_ZN4core5array85_$LT$impl$u20$core..ops..index..Index$LT$I$GT$$u20$for$u20$$u5b$T$u3b$$u20$N$u5d$$GT$5index17ha0034cb2a41945dcE
libmozjs128-debug.so:_ZN4core5array85_$LT$impl$u20$core..ops..index..Index$LT$I$GT$$u20$for$u20$$u5b$T$u3b$$u20$N$u5d$$GT$5index17ha17f435de68a523bE
libmozjs128-debug.so:_ZN4core5array85_$LT$impl$u20$core..ops..index..Index$LT$I$GT$$u20$for$u20$$u5b$T$u3b$$u20$N$u5d$$GT$5index17ha911ed757131fa1fE
libmozjs128-debug.so:_ZN4core5array85_$LT$impl$u20$core..ops..index..Index$LT$I$GT$$u20$for$u20$$u5b$T$u3b$$u20$N$u5d$$GT$5index17hb6128af5d8747f46E
libmozjs128-debug.so:_ZN4core5array85_$LT$impl$u20$core..ops..index..Index$LT$I$GT$$u20$for$u20$$u5b$T$u3b$$u20$N$u5d$$GT$5index17hbdda5b3f3129aa4aE
libmozjs128-debug.so:_ZN4core5array85_$LT$impl$u20$core..ops..index..Index$LT$I$GT$$u20$for$u20$$u5b$T$u3b$$u20$N$u5d$$GT$5index17hbf68e10db9da2f4bE
libmozjs128-debug.so:_ZN4core5array85_$LT$impl$u20$core..ops..index..Index$LT$I$GT$$u20$for$u20$$u5b$T$u3b$$u20$N$u5d$$GT$5index17hcb8c5e6267e860f9E
libmozjs128-debug.so:_ZN4core5array85_$LT$impl$u20$core..ops..index..Index$LT$I$GT$$u20$for$u20$$u5b$T$u3b$$u20$N$u5d$$GT$5index17hd11a4ce2b354c9c5E
libmozjs128-debug.so:_ZN4core5array85_$LT$impl$u20$core..ops..index..Index$LT$I$GT$$u20$for$u20$$u5b$T$u3b$$u20$N$u5d$$GT$5index17hd6121c819f91ce1fE
libmozjs128-debug.so:_ZN4core5array85_$LT$impl$u20$core..ops..index..Index$LT$I$GT$$u20$for$u20$$u5b$T$u3b$$u20$N$u5d$$GT$5index17hda3c8b64aa919a89E
libmozjs128-debug.so:_ZN4core5array85_$LT$impl$u20$core..ops..index..Index$LT$I$GT$$u20$for$u20$$u5b$T$u3b$$u20$N$u5d$$GT$5index17hdc870a7b1c210dceE
libmozjs128-debug.so:_ZN4core5array85_$LT$impl$u20$core..ops..index..Index$LT$I$GT$$u20$for$u20$$u5b$T$u3b$$u20$N$u5d$$GT$5index17hea55f61ae18e2a0eE
libmozjs128-debug.so:_ZN4core5array85_$LT$impl$u20$core..ops..index..Index$LT$I$GT$$u20$for$u20$$u5b$T$u3b$$u20$N$u5d$$GT$5index17hebb13bf7c181a845E
libmozjs128-debug.so:_ZN4core5array85_$LT$impl$u20$core..ops..index..Index$LT$I$GT$$u20$for$u20$$u5b$T$u3b$$u20$N$u5d$$GT$5index17hebd70913cb198de9E
libmozjs128-debug.so:_ZN4core5array85_$LT$impl$u20$core..ops..index..Index$LT$I$GT$$u20$for$u20$$u5b$T$u3b$$u20$N$u5d$$GT$5index17hed0c548fef7c4076E
libmozjs128-debug.so:_ZN4core5slice29_$LT$impl$u20$$u5b$T$u5d$$GT$13binary_search17hd72effae7e96f30aE
libmozjs128-debug.so:_ZN4core5slice29_$LT$impl$u20$$u5b$T$u5d$$GT$13binary_search28_$u7b$$u7b$closure$u7d$$u7d$17hb5fc9a633630ced2E
libmozjs128-debug.so:_ZN4core5slice29_$LT$impl$u20$$u5b$T$u5d$$GT$13get_unchecked17haa1ccf37a9ce03faE
libmozjs128-debug.so:_ZN4core5slice29_$LT$impl$u20$$u5b$T$u5d$$GT$13get_unchecked17hf54f9b1d4f06fc8aE
libmozjs128-debug.so:_ZN4core5slice29_$LT$impl$u20$$u5b$T$u5d$$GT$15copy_from_slice17hbb086bee5cd3baabE
libmozjs128-debug.so:_ZN4core5slice29_$LT$impl$u20$$u5b$T$u5d$$GT$15copy_from_slice17hf5105319d9ddb22dE
libmozjs128-debug.so:_ZN4core5slice29_$LT$impl$u20$$u5b$T$u5d$$GT$16binary_search_by17h1e812d13b53e7d63E
libmozjs128-debug.so:_ZN4core5slice29_$LT$impl$u20$$u5b$T$u5d$$GT$16binary_search_by17h252eec1488025b74E
libmozjs128-debug.so:_ZN4core5slice29_$LT$impl$u20$$u5b$T$u5d$$GT$17get_unchecked_mut17h19f465b33b054721E
libmozjs128-debug.so:_ZN4core5slice29_$LT$impl$u20$$u5b$T$u5d$$GT$17get_unchecked_mut17h40b81e03e087fabfE
libmozjs128-debug.so:_ZN4core5slice29_$LT$impl$u20$$u5b$T$u5d$$GT$18split_at_unchecked17h8369e8238e05a2f4E
libmozjs128-debug.so:_ZN4core5slice29_$LT$impl$u20$$u5b$T$u5d$$GT$4iter17h0c41e2b31d4a094cE
libmozjs128-debug.so:_ZN4core5slice29_$LT$impl$u20$$u5b$T$u5d$$GT$4iter17h2d1fbe95bcae7887E
libmozjs128-debug.so:_ZN4core5slice29_$LT$impl$u20$$u5b$T$u5d$$GT$4iter17hcf57590502dc6828E
libmozjs128-debug.so:_ZN4core5slice29_$LT$impl$u20$$u5b$T$u5d$$GT$8contains17heca20f9b18055d28E
libmozjs128-debug.so:_ZN4core5slice29_$LT$impl$u20$$u5b$T$u5d$$GT$8is_empty17h51800762e408f5c5E
libmozjs128-debug.so:_ZN4core5slice29_$LT$impl$u20$$u5b$T$u5d$$GT$8is_empty17hefa6a714d68465efE
libmozjs128-debug.so:_ZN4core5slice29_$LT$impl$u20$$u5b$T$u5d$$GT$8iter_mut17h591c168c85485d50E
libmozjs128-debug.so:_ZN4core5slice29_$LT$impl$u20$$u5b$T$u5d$$GT$8split_at17hc344eb8778f43420E
libmozjs128-debug.so:_ZN4core5slice3raw14from_raw_parts17h1d5bef3651e1c281E
libmozjs128-debug.so:_ZN4core5slice3raw14from_raw_parts17h94a2a3112037f62fE
libmozjs128-debug.so:_ZN4core5slice3raw14from_raw_parts17hb9370cc043e64672E
libmozjs128-debug.so:_ZN4core5slice3raw14from_raw_parts17hf1095c7e2f51dd6eE
libmozjs128-debug.so:_ZN4core5slice3raw14from_raw_parts17hf5333b1bfbe28c8eE
libmozjs128-debug.so:_ZN4core5slice3raw18from_raw_parts_mut17h59bba88364302153E
libmozjs128-debug.so:_ZN4core5slice3raw18from_raw_parts_mut17h5bc48f55c3136175E
libmozjs128-debug.so:_ZN4core5slice3raw18from_raw_parts_mut17h5dd153e9b436d88aE
libmozjs128-debug.so:_ZN4core5slice3raw18from_raw_parts_mut17h7dc3fa73de376cc4E
libmozjs128-debug.so:_ZN4core5slice4iter13Iter$LT$T$GT$3new17h1d5004168ecf3216E
libmozjs128-debug.so:_ZN4core5slice4iter13Iter$LT$T$GT$3new17h5375853de8203e84E
libmozjs128-debug.so:_ZN4core5slice4iter13Iter$LT$T$GT$3new17h840d79bd6a62fb06E
libmozjs128-debug.so:_ZN4core5slice4iter16IterMut$LT$T$GT$3new17h3c2e140efc7d3a05E
libmozjs128-debug.so:_ZN4core5slice4iter87_$LT$impl$u20$core..iter..traits..collect..IntoIterator$u20$for$u20$$RF$$u5b$T$u5d$$GT$9into_iter17h2ff012b0aa080d52E
libmozjs128-debug.so:_ZN4core5slice4iter87_$LT$impl$u20$core..iter..traits..collect..IntoIterator$u20$for$u20$$RF$$u5b$T$u5d$$GT$9into_iter17h7aaef7e3d3e3e0f1E
libmozjs128-debug.so:_ZN4core5slice4iter87_$LT$impl$u20$core..iter..traits..collect..IntoIterator$u20$for$u20$$RF$$u5b$T$u5d$$GT$9into_iter17hefe96ad3c9a8f6c3E
libmozjs128-debug.so:_ZN4core6option15Option$LT$T$GT$14unwrap_or_else17hff19e1282da8abd9E
libmozjs128-debug.so:_ZN4core6option15Option$LT$T$GT$3map17h4d3bf1c13c71b1daE
libmozjs128-debug.so:_ZN4core6option15Option$LT$T$GT$3map17h63859e0d4d40767dE
libmozjs128-debug.so:_ZN4core6option15Option$LT$T$GT$3map17h746952d2da44c310E
libmozjs128-debug.so:_ZN4core6option15Option$LT$T$GT$3map17h9ecb09aef0e8683cE
libmozjs128-debug.so:_ZN4core6option15Option$LT$T$GT$3map17hade53435913dc147E
libmozjs128-debug.so:_ZN4core6option15Option$LT$T$GT$3map17hb49cbd1543079bfbE
libmozjs128-debug.so:_ZN4core6option15Option$LT$T$GT$3map17hb65c6f5280ac05fdE
libmozjs128-debug.so:_ZN4core6option15Option$LT$T$GT$3map17hd8b9ee4efdf0a2daE
libmozjs128-debug.so:_ZN4core6option15Option$LT$T$GT$3map17heee3d9e46a732716E
libmozjs128-debug.so:_ZN4core6option15Option$LT$T$GT$4take17hedcb7b827e21c26aE
libmozjs128-debug.so:_ZN4core6option15Option$LT$T$GT$6map_or17h907c4f24cf043e0eE
libmozjs128-debug.so:_ZN4core6option15Option$LT$T$GT$7is_none17h25d88fb2940b526cE
libmozjs128-debug.so:_ZN4core6option15Option$LT$T$GT$7is_none17h3b27142052ba797bE
libmozjs128-debug.so:_ZN4core6option15Option$LT$T$GT$7is_some17h6c0c09812bd8572fE
libmozjs128-debug.so:_ZN4core6option15Option$LT$T$GT$9unwrap_or17h1afa8dbb626ca3ffE
libmozjs128-debug.so:_ZN4core6result19Result$LT$T$C$E$GT$2ok17h90607fcbd64122a2E
libmozjs128-debug.so:_ZN4core9core_simd5masks71_$LT$impl$u20$core..core_simd..masks..sealed..Sealed$u20$for$u20$i8$GT$5valid17h3b53a4e2e184a18bE
libmozjs128-debug.so:_ZN4core9core_simd5masks9mask_impl17Mask$LT$T$C$_$GT$18to_bitmask_integer17h47b8e9ec284a225cE
libmozjs128-debug.so:_ZN4core9core_simd6vector17Simd$LT$T$C$_$GT$4load17h5ecbb649a3dea84eE
libmozjs128-debug.so:_ZN4core9core_simd6vector17Simd$LT$T$C$_$GT$4load17haa68d57c2c9ec0ecE
libmozjs128-debug.so:_ZN4core9panicking13assert_failed17hc4796c231ea57251E
libmozjs128-debug.so:_ZN4core9panicking13assert_failed17hc911347296c73bb9E
libmozjs128-debug.so:_ZN4core9panicking13assert_failed17hda62a82f68568e9cE
libmozjs128-debug.so:_ZN4core9panicking19unreachable_display17hff4914e23f51cd41E
libmozjs128-debug.so:_ZN53_$LT$T$u20$as$u20$core..slice..cmp..SliceContains$GT$14slice_contains17hbf0f3f5ee3490578E
libmozjs128-debug.so:_ZN53_$LT$T$u20$as$u20$core..slice..cmp..SliceContains$GT$14slice_contains28_$u7b$$u7b$closure$u7d$$u7d$17h0e55ffb38f65d006E
libmozjs128-debug.so:_ZN54_$LT$dyn$u20$core..any..Any$u2b$core..marker..Send$GT$12downcast_ref17h92931ea7c04da314E
libmozjs128-debug.so:_ZN54_$LT$dyn$u20$core..any..Any$u2b$core..marker..Send$GT$12downcast_ref17hea63f07fa8f28577E
libmozjs128-debug.so:_ZN55_$LT$$RF$T$u20$as$u20$core..convert..AsRef$LT$U$GT$$GT$6as_ref17hef8003cf3a38d083E
libmozjs128-debug.so:_ZN55_$LT$serde..de..OneOf$u20$as$u20$core..fmt..Display$GT$3fmt17h70f84a6b574bbbe8E
libmozjs128-debug.so:_ZN59_$LT$serde..de..format..Buf$u20$as$u20$core..fmt..Write$GT$9write_str17hb7e5e26d94d59560E
libmozjs128-debug.so:_ZN5alloc3vec12Vec$LT$T$GT$13with_capacity17hef12728166e3513aE
libmozjs128-debug.so:_ZN5alloc3vec16Vec$LT$T$C$A$GT$10as_mut_ptr17h5cfd839a90deb32aE
libmozjs128-debug.so:_ZN5alloc3vec16Vec$LT$T$C$A$GT$13reserve_exact17h773fd3fb76af6a4fE
libmozjs128-debug.so:_ZN5alloc3vec16Vec$LT$T$C$A$GT$3len17h93c2ed4dbc31b886E
libmozjs128-debug.so:_ZN5alloc3vec16Vec$LT$T$C$A$GT$7reserve17h120931b19dad4ba5E
libmozjs128-debug.so:_ZN5alloc3vec16Vec$LT$T$C$A$GT$7set_len17h5c285918606d58caE
libmozjs128-debug.so:_ZN5alloc3vec16Vec$LT$T$C$A$GT$8as_slice17h074fc8ff163f9ff2E
libmozjs128-debug.so:_ZN5alloc3vec16Vec$LT$T$C$A$GT$8capacity17h8ace86413f7cc9a8E
libmozjs128-debug.so:_ZN5alloc3vec16Vec$LT$T$C$A$GT$8truncate17h1c1933856bcf45c1E
libmozjs128-debug.so:_ZN5alloc5boxed12Box$LT$T$GT$8from_raw17h00257b817af3cc15E
libmozjs128-debug.so:_ZN5alloc5boxed12Box$LT$T$GT$8from_raw17h330af4c8ea5c95e3E
libmozjs128-debug.so:_ZN5alloc5boxed12Box$LT$T$GT$8into_raw17h781b6ccf390c60c8E
libmozjs128-debug.so:_ZN5alloc5boxed12Box$LT$T$GT$8into_raw17h8a3e2d8e2c8f05f4E
libmozjs128-debug.so:_ZN5alloc7raw_vec20RawVecInner$LT$A$GT$10deallocate17he5ad2ec88e42d7d7E
libmozjs128-debug.so:_ZN5alloc7raw_vec20RawVecInner$LT$A$GT$10grow_exact17h2bfb7235e10529f4E
libmozjs128-debug.so:_ZN5alloc7raw_vec20RawVecInner$LT$A$GT$11finish_grow17h6bec42836f40a3f4E
libmozjs128-debug.so:_ZN5alloc7raw_vec20RawVecInner$LT$A$GT$13reserve_exact17hc5437a7459e7232eE
libmozjs128-debug.so:_ZN5alloc7raw_vec20RawVecInner$LT$A$GT$14current_memory17h4bd892025c7e88d6E
libmozjs128-debug.so:_ZN5alloc7raw_vec20RawVecInner$LT$A$GT$14grow_amortized17h6f7c83386391d1f9E
libmozjs128-debug.so:_ZN5alloc7raw_vec20RawVecInner$LT$A$GT$15try_allocate_in17h5fbf74cc1a0ede8aE
libmozjs128-debug.so:_ZN5alloc7raw_vec20RawVecInner$LT$A$GT$16with_capacity_in17ha9af026cdbee07c4E
libmozjs128-debug.so:_ZN5alloc7raw_vec20RawVecInner$LT$A$GT$17try_reserve_exact17h03372c49048f7f03E
libmozjs128-debug.so:_ZN5alloc7raw_vec20RawVecInner$LT$A$GT$7reserve21do_reserve_and_handle17hd087a11ce684013cE
libmozjs128-debug.so:_ZN5blink7Decimal10fromDoubleEd
libmozjs128-debug.so:_ZN5blink7Decimal10fromStringERKNSt7__cxx1112basic_stringIcSt11char_traitsIcESaIcEEE
libmozjs128-debug.so:_ZN5blink7Decimal13alignOperandsERKS0_S2_
libmozjs128-debug.so:_ZN5blink7Decimal4zeroENS0_4SignE
libmozjs128-debug.so:_ZN5blink7Decimal8infinityENS0_4SignE
libmozjs128-debug.so:_ZN5blink7DecimalC1ENS0_4SignEim
libmozjs128-debug.so:_ZN5blink7DecimalC1ERKS0_
libmozjs128-debug.so:_ZN5blink7DecimalC1Ei
libmozjs128-debug.so:_ZN5blink7DecimalC2ENS0_4SignEim
libmozjs128-debug.so:_ZN5blink7DecimalC2ERKS0_
libmozjs128-debug.so:_ZN5blink7DecimalC2Ei
libmozjs128-debug.so:_ZN5blink7DecimalaSERKS0_
libmozjs128-debug.so:_ZN5blink7DecimaldVERKS0_
libmozjs128-debug.so:_ZN5blink7DecimalmIERKS0_
libmozjs128-debug.so:_ZN5blink7DecimalmLERKS0_
libmozjs128-debug.so:_ZN5blink7DecimalpLERKS0_
libmozjs128-debug.so:_ZN5serde2de5impls14OSSTR_VARIANTS17h3da76a785d05c5feE
libmozjs128-debug.so:_ZN5serde2de5impls73_$LT$impl$u20$serde..de..Deserialize$u20$for$u20$core..time..Duration$GT$11deserialize14check_overflow13NANOS_PER_SEC17h3fa9c2eddc1320f9E
libmozjs128-debug.so:_ZN5serde2de5impls74_$LT$impl$u20$serde..de..Deserialize$u20$for$u20$std..time..SystemTime$GT$11deserialize14check_overflow13NANOS_PER_SEC17hdd147fd433b88b65E
libmozjs128-debug.so:_ZN5serde2de5impls79_$LT$impl$u20$serde..de..Deserialize$u20$for$u20$core..net..ip_addr..IpAddr$GT$11deserialize8VARIANTS17h322f0c4f7eaf485aE
libmozjs128-debug.so:_ZN5serde2de5impls87_$LT$impl$u20$serde..de..Deserialize$u20$for$u20$core..net..socket_addr..SocketAddr$GT$11deserialize8VARIANTS17h8c13dccbb78c9f0dE
libmozjs128-debug.so:_ZN5serde2de6format3Buf3new17he447bd6c0310e20dE
libmozjs128-debug.so:_ZN5serde2de6format3Buf6as_str17hb508936a177e2982E
libmozjs128-debug.so:_ZN5serde2de9size_hint6helper17h5500649ec000cd46E
libmozjs128-debug.so:_ZN5serde3ser3fmt85_$LT$impl$u20$serde..ser..Serializer$u20$for$u20$$RF$mut$u20$core..fmt..Formatter$GT$12serialize_i817h11a9a7646b6efd72E
libmozjs128-debug.so:_ZN5serde3ser3fmt85_$LT$impl$u20$serde..ser..Serializer$u20$for$u20$$RF$mut$u20$core..fmt..Formatter$GT$12serialize_u817h409d1fc4f358eff2E
libmozjs128-debug.so:_ZN5serde3ser3fmt85_$LT$impl$u20$serde..ser..Serializer$u20$for$u20$$RF$mut$u20$core..fmt..Formatter$GT$13serialize_f3217h50ddf1ca100d950fE
libmozjs128-debug.so:_ZN5serde3ser3fmt85_$LT$impl$u20$serde..ser..Serializer$u20$for$u20$$RF$mut$u20$core..fmt..Formatter$GT$13serialize_f6417hba15fa2b3353fd26E
libmozjs128-debug.so:_ZN5serde3ser3fmt85_$LT$impl$u20$serde..ser..Serializer$u20$for$u20$$RF$mut$u20$core..fmt..Formatter$GT$13serialize_i1617hbe1a4320a5d65b72E
libmozjs128-debug.so:_ZN5serde3ser3fmt85_$LT$impl$u20$serde..ser..Serializer$u20$for$u20$$RF$mut$u20$core..fmt..Formatter$GT$13serialize_i3217hc7cb00f70bb54f9fE
libmozjs128-debug.so:_ZN5serde3ser3fmt85_$LT$impl$u20$serde..ser..Serializer$u20$for$u20$$RF$mut$u20$core..fmt..Formatter$GT$13serialize_i6417h54bd2e92063f69d3E
libmozjs128-debug.so:_ZN5serde3ser3fmt85_$LT$impl$u20$serde..ser..Serializer$u20$for$u20$$RF$mut$u20$core..fmt..Formatter$GT$13serialize_map17h685dd42d550907c8E
libmozjs128-debug.so:_ZN5serde3ser3fmt85_$LT$impl$u20$serde..ser..Serializer$u20$for$u20$$RF$mut$u20$core..fmt..Formatter$GT$13serialize_seq17h2ac649a0cc26bc1bE
libmozjs128-debug.so:_ZN5serde3ser3fmt85_$LT$impl$u20$serde..ser..Serializer$u20$for$u20$$RF$mut$u20$core..fmt..Formatter$GT$13serialize_str17hf3560a8581b156bcE
libmozjs128-debug.so:_ZN5serde3ser3fmt85_$LT$impl$u20$serde..ser..Serializer$u20$for$u20$$RF$mut$u20$core..fmt..Formatter$GT$13serialize_u1617h21e032125a27a079E
libmozjs128-debug.so:_ZN5serde3ser3fmt85_$LT$impl$u20$serde..ser..Serializer$u20$for$u20$$RF$mut$u20$core..fmt..Formatter$GT$13serialize_u3217h8f5f155822fc9c96E
libmozjs128-debug.so:_ZN5serde3ser3fmt85_$LT$impl$u20$serde..ser..Serializer$u20$for$u20$$RF$mut$u20$core..fmt..Formatter$GT$13serialize_u6417hae8e7a6a5913e28aE
libmozjs128-debug.so:_ZN5serde3ser3fmt85_$LT$impl$u20$serde..ser..Serializer$u20$for$u20$$RF$mut$u20$core..fmt..Formatter$GT$14serialize_bool17h50f64fab6ebeb548E
libmozjs128-debug.so:_ZN5serde3ser3fmt85_$LT$impl$u20$serde..ser..Serializer$u20$for$u20$$RF$mut$u20$core..fmt..Formatter$GT$14serialize_char17hf36f09a61cbd4d9aE
libmozjs128-debug.so:_ZN5serde3ser3fmt85_$LT$impl$u20$serde..ser..Serializer$u20$for$u20$$RF$mut$u20$core..fmt..Formatter$GT$14serialize_i12817h956c307682d78009E
libmozjs128-debug.so:_ZN5serde3ser3fmt85_$LT$impl$u20$serde..ser..Serializer$u20$for$u20$$RF$mut$u20$core..fmt..Formatter$GT$14serialize_none17hc67dc80e332adce4E
libmozjs128-debug.so:_ZN5serde3ser3fmt85_$LT$impl$u20$serde..ser..Serializer$u20$for$u20$$RF$mut$u20$core..fmt..Formatter$GT$14serialize_u12817ha99aeba2e8a4a0c4E
libmozjs128-debug.so:_ZN5serde3ser3fmt85_$LT$impl$u20$serde..ser..Serializer$u20$for$u20$$RF$mut$u20$core..fmt..Formatter$GT$14serialize_unit17h5528d92868f69285E
libmozjs128-debug.so:_ZN5serde3ser3fmt85_$LT$impl$u20$serde..ser..Serializer$u20$for$u20$$RF$mut$u20$core..fmt..Formatter$GT$15serialize_bytes17h268e3bcfe62c004cE
libmozjs128-debug.so:_ZN5serde3ser3fmt85_$LT$impl$u20$serde..ser..Serializer$u20$for$u20$$RF$mut$u20$core..fmt..Formatter$GT$15serialize_tuple17hd21b15c87f8207eaE
libmozjs128-debug.so:_ZN5serde3ser3fmt85_$LT$impl$u20$serde..ser..Serializer$u20$for$u20$$RF$mut$u20$core..fmt..Formatter$GT$16serialize_struct17h8cd0ce45689481e5E
libmozjs128-debug.so:_ZN5serde3ser3fmt85_$LT$impl$u20$serde..ser..Serializer$u20$for$u20$$RF$mut$u20$core..fmt..Formatter$GT$21serialize_unit_struct17h1501b8c2d4eaafdcE
libmozjs128-debug.so:_ZN5serde3ser3fmt85_$LT$impl$u20$serde..ser..Serializer$u20$for$u20$$RF$mut$u20$core..fmt..Formatter$GT$22serialize_tuple_struct17hea2fccb38ff2aa61E
libmozjs128-debug.so:_ZN5serde3ser3fmt85_$LT$impl$u20$serde..ser..Serializer$u20$for$u20$$RF$mut$u20$core..fmt..Formatter$GT$22serialize_unit_variant17h9613fc4fa6b887a6E
libmozjs128-debug.so:_ZN5serde3ser3fmt85_$LT$impl$u20$serde..ser..Serializer$u20$for$u20$$RF$mut$u20$core..fmt..Formatter$GT$23serialize_tuple_variant17h1bb41244d079d81eE
libmozjs128-debug.so:_ZN5serde3ser3fmt85_$LT$impl$u20$serde..ser..Serializer$u20$for$u20$$RF$mut$u20$core..fmt..Formatter$GT$24serialize_struct_variant17hd5dfbdeee9290702E
libmozjs128-debug.so:_ZN5serde9__private2de19flat_map_take_entry17hd8a9f56974297ff4E
libmozjs128-debug.so:_ZN5serde9__private2de7content14ContentVisitor3new17h4d3d8317db3f1beeE
libmozjs128-debug.so:_ZN5serde9__private2de7content19TagOrContentVisitor3new17h487f6175021da901E
libmozjs128-debug.so:_ZN5serde9__private2de7content19UntaggedUnitVisitor3new17h18f56b8fee902b22E
libmozjs128-debug.so:_ZN5serde9__private2de7content27InternallyTaggedUnitVisitor3new17h19599c7f0921af30E
libmozjs128-debug.so:_ZN5serde9__private2de7content7Content10unexpected17hb3b69db3e47d6108E
libmozjs128-debug.so:_ZN5serde9__private2de7content7Content6as_str17h46b598906f195afcE
libmozjs128-debug.so:_ZN5serde9__private6string15from_utf8_lossy17h1829cfc519826a35E
libmozjs128-debug.so:_ZN60_$LT$serde..de..Unexpected$u20$as$u20$core..fmt..Display$GT$3fmt17h503c3dd8d7caf12fE
libmozjs128-debug.so:_ZN60_$LT$serde..de..value..Error$u20$as$u20$core..fmt..Debug$GT$3fmt17h19f10dfd748e38f9E
libmozjs128-debug.so:_ZN62_$LT$serde..de..value..Error$u20$as$u20$core..error..Error$GT$11description17hcc1f5c2bd43a6b39E
libmozjs128-debug.so:_ZN62_$LT$serde..de..value..Error$u20$as$u20$core..fmt..Display$GT$3fmt17h4292e3ac9aaea476E
libmozjs128-debug.so:_ZN63_$LT$I$u20$as$u20$core..iter..traits..collect..IntoIterator$GT$9into_iter17h102c5858c221b094E
libmozjs128-debug.so:_ZN63_$LT$I$u20$as$u20$core..iter..traits..collect..IntoIterator$GT$9into_iter17h44f5458f61c30b35E
libmozjs128-debug.so:_ZN63_$LT$I$u20$as$u20$core..iter..traits..collect..IntoIterator$GT$9into_iter17h4b8d22a05959ea24E
libmozjs128-debug.so:_ZN63_$LT$I$u20$as$u20$core..iter..traits..collect..IntoIterator$GT$9into_iter17h57102b4873f95222E
libmozjs128-debug.so:_ZN63_$LT$I$u20$as$u20$core..iter..traits..collect..IntoIterator$GT$9into_iter17ha379ca9c69da7eacE
libmozjs128-debug.so:_ZN63_$LT$I$u20$as$u20$core..iter..traits..collect..IntoIterator$GT$9into_iter17haf6ae7f5cfadfed2E
libmozjs128-debug.so:_ZN66_$LT$dyn$u20$serde..de..Expected$u20$as$u20$core..fmt..Display$GT$3fmt17hd41eaf27aee40841E
libmozjs128-debug.so:_ZN66_$LT$serde..de..WithDecimalPoint$u20$as$u20$core..fmt..Display$GT$3fmt17hbd873216643ff2b2E
libmozjs128-debug.so:_ZN67_$LT$alloc..boxed..Box$LT$T$C$A$GT$$u20$as$u20$core..fmt..Debug$GT$3fmt17h95b6a09cc6196ff0E
libmozjs128-debug.so:_ZN67_$LT$serde..__private..doc..Error$u20$as$u20$core..error..Error$GT$11description17hf39ec6a4da030a8eE
libmozjs128-debug.so:_ZN67_$LT$serde..__private..doc..Error$u20$as$u20$core..fmt..Display$GT$3fmt17ha696fe720e21c7d1E
libmozjs128-debug.so:_ZN67_$LT$serde..de..impls..StrVisitor$u20$as$u20$serde..de..Visitor$GT$9expecting17h1970e1eeac7ed677E
libmozjs128-debug.so:_ZN68_$LT$serde..de..impls..BoolVisitor$u20$as$u20$serde..de..Visitor$GT$9expecting17h3bed7c03f9915543E
libmozjs128-debug.so:_ZN68_$LT$serde..de..impls..CharVisitor$u20$as$u20$serde..de..Visitor$GT$9expecting17h636b5042b5878e91E
libmozjs128-debug.so:_ZN68_$LT$serde..de..impls..PathVisitor$u20$as$u20$serde..de..Visitor$GT$9expecting17h1fdaa59b67099ef2E
libmozjs128-debug.so:_ZN68_$LT$serde..de..impls..UnitVisitor$u20$as$u20$serde..de..Visitor$GT$9expecting17hc193524ad7d8a9dfE
libmozjs128-debug.so:_ZN69_$LT$serde..de..impls..BytesVisitor$u20$as$u20$serde..de..Visitor$GT$9expecting17hc81aa44cda25a187E
libmozjs128-debug.so:_ZN6JSAtom4dumpERN2js14GenericPrinterE
libmozjs128-debug.so:_ZN6JSAtom4dumpEv
libmozjs128-debug.so:_ZN70_$LT$alloc..vec..Vec$LT$T$C$A$GT$$u20$as$u20$core..ops..drop..Drop$GT$4drop17hfe101048073e431cE
libmozjs128-debug.so:_ZN70_$LT$serde..de..impls..StringVisitor$u20$as$u20$serde..de..Visitor$GT$9expecting17h978419eaff6eb70eE
libmozjs128-debug.so:_ZN71_$LT$serde..de..impls..CStringVisitor$u20$as$u20$serde..de..Visitor$GT$9expecting17hf7af363cb862edaaE
libmozjs128-debug.so:_ZN71_$LT$serde..de..impls..PathBufVisitor$u20$as$u20$serde..de..Visitor$GT$9expecting17h9080aea089be7dacE
libmozjs128-debug.so:_ZN71_$LT$serde..de..value..ExpectedInMap$u20$as$u20$serde..de..Expected$GT$3fmt17h7d1915d814b907a3E
libmozjs128-debug.so:_ZN71_$LT$serde..de..value..ExpectedInSeq$u20$as$u20$serde..de..Expected$GT$3fmt17h91c07f8b46a2a5d8E
libmozjs128-debug.so:_ZN72_$LT$alloc..boxed..Box$LT$T$C$A$GT$$u20$as$u20$core..ops..drop..Drop$GT$4drop17h148117bd12610549E
libmozjs128-debug.so:_ZN72_$LT$alloc..boxed..Box$LT$T$C$A$GT$$u20$as$u20$core..ops..drop..Drop$GT$4drop17h384ee61c1fa795a4E
libmozjs128-debug.so:_ZN72_$LT$alloc..boxed..Box$LT$T$C$A$GT$$u20$as$u20$core..ops..drop..Drop$GT$4drop17hd73f02e76b8877e1E
libmozjs128-debug.so:_ZN72_$LT$alloc..vec..Vec$LT$T$C$A$GT$$u20$as$u20$core..ops..deref..Deref$GT$5deref17hbfa8092ebc01e0deE
libmozjs128-debug.so:_ZN72_$LT$serde..de..impls..OsStringVisitor$u20$as$u20$serde..de..Visitor$GT$9expecting17hc4f76e6b332e6e3cE
libmozjs128-debug.so:_ZN73_$LT$serde..__private..ser..Unsupported$u20$as$u20$core..fmt..Display$GT$3fmt17h24f3a8c24b165539E
libmozjs128-debug.so:_ZN73_$LT$serde..de..ignored_any..IgnoredAny$u20$as$u20$serde..de..Visitor$GT$9expecting17h958bd487bd5d0430E
libmozjs128-debug.so:_ZN75_$LT$$RF$mut$u20$W$u20$as$u20$core..fmt..Write..write_fmt..SpecWriteFmt$GT$14spec_write_fmt17hca39d1628e9f742bE
libmozjs128-debug.so:_ZN75_$LT$usize$u20$as$u20$core..slice..index..SliceIndex$LT$$u5b$T$u5d$$GT$$GT$13get_unchecked17he7fa6149d03aca3cE
libmozjs128-debug.so:_ZN75_$LT$usize$u20$as$u20$core..slice..index..SliceIndex$LT$$u5b$T$u5d$$GT$$GT$13get_unchecked17hf414304e9fae90b9E
libmozjs128-debug.so:_ZN75_$LT$usize$u20$as$u20$core..slice..index..SliceIndex$LT$$u5b$T$u5d$$GT$$GT$17get_unchecked_mut17h1a80e8813c38f877E
libmozjs128-debug.so:_ZN75_$LT$usize$u20$as$u20$core..slice..index..SliceIndex$LT$$u5b$T$u5d$$GT$$GT$17get_unchecked_mut17h4b913befaf4c3f8cE
libmozjs128-debug.so:_ZN77_$LT$alloc..raw_vec..RawVec$LT$T$C$A$GT$$u20$as$u20$core..ops..drop..Drop$GT$4drop17h2cf376926cf5f0b4E
libmozjs128-debug.so:_ZN77_$LT$arrayvec..errors..CapacityError$LT$T$GT$$u20$as$u20$core..fmt..Debug$GT$3fmt17h967df2b7974a4f9cE
libmozjs128-debug.so:_ZN77_$LT$arrayvec..errors..CapacityError$LT$T$GT$$u20$as$u20$core..fmt..Debug$GT$3fmt17h976612bdb2b1928bE
libmozjs128-debug.so:_ZN77_$LT$serde..de..impls..StringInPlaceVisitor$u20$as$u20$serde..de..Visitor$GT$9expecting17hff24b571d08b9e78E
libmozjs128-debug.so:_ZN79_$LT$core..result..Result$LT$T$C$E$GT$$u20$as$u20$core..ops..try_trait..Try$GT$6branch17h63bbd6eb4d247019E
libmozjs128-debug.so:_ZN79_$LT$mozglue_static..GeckoAlloc$u20$as$u20$core..alloc..global..GlobalAlloc$GT$12alloc_zeroed17h5d5c605551aee7daE
libmozjs128-debug.so:_ZN79_$LT$mozglue_static..GeckoAlloc$u20$as$u20$core..alloc..global..GlobalAlloc$GT$5alloc17h7d9ea058c16ec127E
libmozjs128-debug.so:_ZN79_$LT$mozglue_static..GeckoAlloc$u20$as$u20$core..alloc..global..GlobalAlloc$GT$7dealloc17hd3ded95b36a94cf0E
libmozjs128-debug.so:_ZN79_$LT$mozglue_static..GeckoAlloc$u20$as$u20$core..alloc..global..GlobalAlloc$GT$7realloc17h4efaecc053e6b7c3E
libmozjs128-debug.so:_ZN7mozilla11Compression26LZ4FrameCompressionContext14EndCompressingEv
libmozjs128-debug.so:_ZN7mozilla11Compression26LZ4FrameCompressionContext16BeginCompressingENS_4SpanIcLm18446744073709551615EEE
libmozjs128-debug.so:_ZN7mozilla11Compression26LZ4FrameCompressionContext19ContinueCompressingENS_4SpanIKcLm18446744073709551615EEE
libmozjs128-debug.so:_ZN7mozilla11Compression26LZ4FrameCompressionContextC1Eimbb
libmozjs128-debug.so:_ZN7mozilla11Compression26LZ4FrameCompressionContextC2Eimbb
libmozjs128-debug.so:_ZN7mozilla11Compression26LZ4FrameCompressionContextD1Ev
libmozjs128-debug.so:_ZN7mozilla11Compression26LZ4FrameCompressionContextD2Ev
libmozjs128-debug.so:_ZN7mozilla11Compression28LZ4FrameDecompressionContext10DecompressENS_4SpanIcLm18446744073709551615EEENS2_IKcLm18446744073709551615EEE
libmozjs128-debug.so:_ZN7mozilla11Compression28LZ4FrameDecompressionContextC1Eb
libmozjs128-debug.so:_ZN7mozilla11Compression28LZ4FrameDecompressionContextC2Eb
libmozjs128-debug.so:_ZN7mozilla11Compression28LZ4FrameDecompressionContextD1Ev
libmozjs128-debug.so:_ZN7mozilla11Compression28LZ4FrameDecompressionContextD2Ev
libmozjs128-debug.so:_ZN7mozilla11Compression3LZ410decompressEPKcmPcmPm
libmozjs128-debug.so:_ZN7mozilla11Compression3LZ417decompressPartialEPKcmPcmPm
libmozjs128-debug.so:_ZN7mozilla11Compression3LZ421compressLimitedOutputEPKcmPcm
libmozjs128-debug.so:_ZN7mozilla11Compression3LZ48compressEPKcmPc
libmozjs128-debug.so:_ZN7mozilla11sse_private11aes_enabledE
libmozjs128-debug.so:_ZN7mozilla11sse_private11avx_enabledE
libmozjs128-debug.so:_ZN7mozilla11sse_private12avx2_enabledE
libmozjs128-debug.so:_ZN7mozilla11sse_private12fma3_enabledE
libmozjs128-debug.so:_ZN7mozilla11sse_private12sse3_enabledE
libmozjs128-debug.so:_ZN7mozilla11sse_private13sse4a_enabledE
libmozjs128-debug.so:_ZN7mozilla11sse_private13ssse3_enabledE
libmozjs128-debug.so:_ZN7mozilla11sse_private14sse4_1_enabledE
libmozjs128-debug.so:_ZN7mozilla11sse_private14sse4_2_enabledE
libmozjs128-debug.so:_ZN7mozilla11sse_private15avxvnni_enabledE
libmozjs128-debug.so:_ZN7mozilla11sse_private16has_constant_tscE
libmozjs128-debug.so:_ZN7mozilla12PrintfTarget12appendIntDecEi
libmozjs128-debug.so:_ZN7mozilla12PrintfTarget12appendIntDecEj
libmozjs128-debug.so:_ZN7mozilla12PrintfTarget12appendIntDecEl
libmozjs128-debug.so:_ZN7mozilla12PrintfTarget12appendIntDecEm
libmozjs128-debug.so:_ZN7mozilla12PrintfTarget12appendIntHexEj
libmozjs128-debug.so:_ZN7mozilla12PrintfTarget12appendIntHexEm
libmozjs128-debug.so:_ZN7mozilla12PrintfTarget12appendIntOctEj
libmozjs128-debug.so:_ZN7mozilla12PrintfTarget12appendIntOctEm
libmozjs128-debug.so:_ZN7mozilla12PrintfTarget5printEPKcz
libmozjs128-debug.so:_ZN7mozilla12PrintfTarget6vprintEPKcP13__va_list_tag
libmozjs128-debug.so:_ZN7mozilla12PrintfTargetC1Ev
libmozjs128-debug.so:_ZN7mozilla12PrintfTargetC2Ev
libmozjs128-debug.so:_ZN7mozilla12RandomUint64Ev
libmozjs128-debug.so:_ZN7mozilla12baseprofiler23profiler_is_main_threadEv
libmozjs128-debug.so:_ZN7mozilla12baseprofiler23profiler_main_thread_idEv
libmozjs128-debug.so:_ZN7mozilla12baseprofiler26profiler_current_thread_idEv
libmozjs128-debug.so:_ZN7mozilla12baseprofiler27profiler_current_process_idEv
libmozjs128-debug.so:_ZN7mozilla12baseprofiler28profiler_init_main_thread_idEv
libmozjs128-debug.so:_ZN7mozilla14AwakeTimeStamp8NowLoResEv
libmozjs128-debug.so:_ZN7mozilla14AwakeTimeStampmIERKNS_17AwakeTimeDurationE
libmozjs128-debug.so:_ZN7mozilla14AwakeTimeStamppLERKNS_17AwakeTimeDurationE
libmozjs128-debug.so:_ZN7mozilla14DemangleSymbolEPKcPci
libmozjs128-debug.so:_ZN7mozilla15ProcessUptimeMsEv
libmozjs128-debug.so:_ZN7mozilla16InitializeUptimeEv
libmozjs128-debug.so:_ZN7mozilla17RandomUint64OrDieEv
libmozjs128-debug.so:_ZN7mozilla21FramePointerStackWalkEPFvjPvS0_S0_EjS0_PS0_S0_
libmozjs128-debug.so:_ZN7mozilla22IsFloat32RepresentableEd
libmozjs128-debug.so:_ZN7mozilla25GenerateRandomBytesFromOSEPvm
libmozjs128-debug.so:_ZN7mozilla29BaseTimeDurationPlatformUtils17ResolutionInTicksEv
libmozjs128-debug.so:_ZN7mozilla29BaseTimeDurationPlatformUtils18ToSecondsSigDigitsEl
libmozjs128-debug.so:_ZN7mozilla29BaseTimeDurationPlatformUtils21TicksFromMillisecondsEd
libmozjs128-debug.so:_ZN7mozilla29BaseTimeDurationPlatformUtils9ToSecondsEl
libmozjs128-debug.so:_ZN7mozilla30RegisterProfilerLabelEnterExitEPFPvPKcS2_S0_EPFvS0_E
libmozjs128-debug.so:_ZN7mozilla31ProcessUptimeExcludingSuspendMsEv
libmozjs128-debug.so:_ZN7mozilla4SIMD10memchr2x16EPKDsDsDsm
libmozjs128-debug.so:_ZN7mozilla4SIMD11memchr8AVX2EPKccm
libmozjs128-debug.so:_ZN7mozilla4SIMD11memchr8SSE2EPKccm
libmozjs128-debug.so:_ZN7mozilla4SIMD12memchr16AVX2EPKDsDsm
libmozjs128-debug.so:_ZN7mozilla4SIMD12memchr16SSE2EPKDsDsm
libmozjs128-debug.so:_ZN7mozilla4SIMD12memchr64AVX2EPKmmm
libmozjs128-debug.so:_ZN7mozilla4SIMD7memchr8EPKccm
libmozjs128-debug.so:_ZN7mozilla4SIMD8memchr16EPKDsDsm
libmozjs128-debug.so:_ZN7mozilla4SIMD8memchr64EPKmmm
libmozjs128-debug.so:_ZN7mozilla4SIMD9memchr2x8EPKcccm
libmozjs128-debug.so:_ZN7mozilla6UnusedE
libmozjs128-debug.so:_ZN7mozilla6detail10RWLockImpl10readUnlockEv
libmozjs128-debug.so:_ZN7mozilla6detail10RWLockImpl11tryReadLockEv
libmozjs128-debug.so:_ZN7mozilla6detail10RWLockImpl11writeUnlockEv
libmozjs128-debug.so:_ZN7mozilla6detail10RWLockImpl12tryWriteLockEv
libmozjs128-debug.so:_ZN7mozilla6detail10RWLockImpl8readLockEv
libmozjs128-debug.so:_ZN7mozilla6detail10RWLockImpl9writeLockEv
libmozjs128-debug.so:_ZN7mozilla6detail10RWLockImplC1Ev
libmozjs128-debug.so:_ZN7mozilla6detail10RWLockImplC2Ev
libmozjs128-debug.so:_ZN7mozilla6detail10RWLockImplD1Ev
libmozjs128-debug.so:_ZN7mozilla6detail10RWLockImplD2Ev
libmozjs128-debug.so:_ZN7mozilla6detail11IsValidUtf8EPKvm
libmozjs128-debug.so:_ZN7mozilla6detail14gChaosFeaturesE
libmozjs128-debug.so:_ZN7mozilla6detail15gTwoCharEscapesE
libmozjs128-debug.so:_ZN7mozilla6detail17FileHandleDeleterclENS0_16FileHandleHelperE
libmozjs128-debug.so:_ZN7mozilla6detail17gChaosModeCounterE
libmozjs128-debug.so:_ZN7mozilla6detail21ConditionVariableImpl10notify_allEv
libmozjs128-debug.so:_ZN7mozilla6detail21ConditionVariableImpl10notify_oneEv
libmozjs128-debug.so:_ZN7mozilla6detail21ConditionVariableImpl4waitERNS0_9MutexImplE
libmozjs128-debug.so:_ZN7mozilla6detail21ConditionVariableImpl8wait_forERNS0_9MutexImplERKNS_16BaseTimeDurationINS_27TimeDurationValueCalculatorEEE
libmozjs128-debug.so:_ZN7mozilla6detail21ConditionVariableImplC1Ev
libmozjs128-debug.so:_ZN7mozilla6detail21ConditionVariableImplC2Ev
libmozjs128-debug.so:_ZN7mozilla6detail21ConditionVariableImplD1Ev
libmozjs128-debug.so:_ZN7mozilla6detail21ConditionVariableImplD2Ev
libmozjs128-debug.so:_ZN7mozilla6detail23InvalidArrayIndex_CRASHEmm
libmozjs128-debug.so:_ZN7mozilla6detail9MutexImpl4lockEv
libmozjs128-debug.so:_ZN7mozilla6detail9MutexImpl6unlockEv
libmozjs128-debug.so:_ZN7mozilla6detail9MutexImpl7tryLockEv
libmozjs128-debug.so:_ZN7mozilla6detail9MutexImplC1Ev
libmozjs128-debug.so:_ZN7mozilla6detail9MutexImplC2Ev
libmozjs128-debug.so:_ZN7mozilla6detail9MutexImplD1Ev
libmozjs128-debug.so:_ZN7mozilla6detail9MutexImplD2Ev
libmozjs128-debug.so:_ZN7mozilla6xgetbvEj
libmozjs128-debug.so:_ZN7mozilla7SHA1Sum6finishERA20_h
libmozjs128-debug.so:_ZN7mozilla7SHA1Sum6updateEPKvj
libmozjs128-debug.so:_ZN7mozilla7SHA1SumC1Ev
libmozjs128-debug.so:_ZN7mozilla7SHA1SumC2Ev
libmozjs128-debug.so:_ZN7mozilla8profiler6detail12FilterHasPidEPKcNS_12baseprofiler21BaseProfilerProcessIdE
libmozjs128-debug.so:_ZN7mozilla8profiler6detail17FiltersExcludePidENS_4SpanIKPKcLm18446744073709551615EEENS_12baseprofiler21BaseProfilerProcessIdE
libmozjs128-debug.so:_ZN7mozilla9HashBytesEPKvm
libmozjs128-debug.so:_ZN7mozilla9TimeStamp14FirstTimeStampEv
libmozjs128-debug.so:_ZN7mozilla9TimeStamp15ProcessCreationEv
libmozjs128-debug.so:_ZN7mozilla9TimeStamp20ComputeProcessUptimeEv
libmozjs128-debug.so:_ZN7mozilla9TimeStamp20RecordProcessRestartEv
libmozjs128-debug.so:_ZN7mozilla9TimeStamp3NowEb
libmozjs128-debug.so:_ZN7mozilla9TimeStamp7StartupEv
libmozjs128-debug.so:_ZN7mozilla9TimeStamp8ShutdownEv
libmozjs128-debug.so:_ZN81_$LT$mozglue_static..ArrayCString$LT$_$GT$$u20$as$u20$core..ops..deref..Deref$GT$5deref17h0bffb1ae6008337aE
libmozjs128-debug.so:_ZN84_$LT$alloc..vec..Vec$LT$T$C$A$GT$$u20$as$u20$core..ops..index..IndexMut$LT$I$GT$$GT$9index_mut17hb686da2a2349b187E
libmozjs128-debug.so:_ZN84_$LT$alloc..vec..Vec$LT$T$C$A$GT$$u20$as$u20$core..ops..index..IndexMut$LT$I$GT$$GT$9index_mut17hba0988ce278b1a1eE
libmozjs128-debug.so:_ZN84_$LT$serde..__private..de..content..ContentVisitor$u20$as$u20$serde..de..Visitor$GT$9expecting17h21b2cfbb43f646c0E
libmozjs128-debug.so:_ZN86_$LT$mozglue_static..ArrayCString$LT$_$GT$$u20$as$u20$core..convert..From$LT$S$GT$$GT$4from17he405b5829595df3dE
libmozjs128-debug.so:_ZN88_$LT$arrayvec..array_string..ArrayString$LT$_$GT$$u20$as$u20$core..ops..deref..Deref$GT$5deref17hcd10de8a00def05bE
libmozjs128-debug.so:_ZN89_$LT$core..ops..range..Range$LT$T$GT$$u20$as$u20$core..iter..range..RangeIteratorImpl$GT$14spec_next_back17hd77c9e8b79334572E
libmozjs128-debug.so:_ZN89_$LT$core..ops..range..Range$LT$T$GT$$u20$as$u20$core..iter..range..RangeIteratorImpl$GT$9spec_next17ha39ba3238d2ccac7E
libmozjs128-debug.so:_ZN89_$LT$serde..__private..de..content..TagOrContentVisitor$u20$as$u20$serde..de..Visitor$GT$9expecting17h46f056023f7c8040E
libmozjs128-debug.so:_ZN89_$LT$serde..__private..de..content..UntaggedUnitVisitor$u20$as$u20$serde..de..Visitor$GT$9expecting17h92a2496a85aae1c2E
libmozjs128-debug.so:_ZN8JSObject13traceChildrenEP8JSTracer
libmozjs128-debug.so:_ZN8JSObject17setProtoUncheckedEP9JSContextN2JS6HandleIPS_EENS3_IN2js11TaggedProtoEEE
libmozjs128-debug.so:_ZN8JSObject19debugCheckNewObjectEPN2js5ShapeENS0_2gc9AllocKindENS3_4HeapE
libmozjs128-debug.so:_ZN8JSObject19nonNativeSetElementEP9JSContextN2JS6HandleIPS_EEjNS3_INS2_5ValueEEES7_RNS2_14ObjectOpResultE
libmozjs128-debug.so:_ZN8JSObject20nonNativeSetPropertyEP9JSContextN2JS6HandleIPS_EENS3_INS2_11PropertyKeyEEENS3_INS2_5ValueEEES9_RNS2_14ObjectOpResultE
libmozjs128-debug.so:_ZN8JSObject22addSizeOfExcludingThisEPFmPKvEPN2JS9ClassInfoEPNS4_12RuntimeSizesE
libmozjs128-debug.so:_ZN8JSObject4swapEP9JSContextN2JS6HandleIPS_EES5_RN2js24AutoEnterOOMUnsafeRegionE
libmozjs128-debug.so:_ZN8JSObject7setFlagEP9JSContextN2JS6HandleIPS_EEN2js10ObjectFlagE
libmozjs128-debug.so:_ZN8JSScript10sourceDataEP9JSContextN2JS6HandleIPS_EE
libmozjs128-debug.so:_ZN8JSScript11fromStencilEP9JSContextRN2js8frontend20CompilationAtomCacheERKNS3_18CompilationStencilERNS3_19CompilationGCOutputENS3_10TypedIndexINS3_13ScriptStencilEEE
libmozjs128-debug.so:_ZN8JSScript11getHitCountEPh
libmozjs128-debug.so:_ZN8JSScript12AutoDelazify10dropScriptEv
libmozjs128-debug.so:_ZN8JSScript12AutoDelazify10holdScriptEN2JS6HandleIP10JSFunctionEE
libmozjs128-debug.so:_ZN8JSScript12addIonCountsEPN2js3jit15IonScriptCountsE
libmozjs128-debug.so:_ZN8JSScript12dumpGCThingsEP9JSContextN2JS6HandleIPS_EEPN2js14GenericPrinterE
libmozjs128-debug.so:_ZN8JSScript12dumpSrcNotesEP9JSContextN2JS6HandleIPS_EEPN2js14GenericPrinterE
libmozjs128-debug.so:_ZN8JSScript12dumpTryNotesEP9JSContextN2JS6HandleIPS_EEPN2js14GenericPrinterE
libmozjs128-debug.so:_ZN8JSScript12getIonCountsEv
libmozjs128-debug.so:_ZN8JSScript13dumpRecursiveEP9JSContext
libmozjs128-debug.so:_ZN8JSScript14dumpScopeNotesEP9JSContextN2JS6HandleIPS_EEPN2js14GenericPrinterE
libmozjs128-debug.so:_ZN8JSScript14getThrowCountsEPh
libmozjs128-debug.so:_ZN8JSScript15createJitScriptEP9JSContext
libmozjs128-debug.so:_ZN8JSScript15formalIsAliasedEj
libmozjs128-debug.so:_ZN8JSScript15getScriptCountsEv
libmozjs128-debug.so:_ZN8JSScript16initScriptCountsEP9JSContext
libmozjs128-debug.so:_ZN8JSScript16maybeGetPCCountsEPh
libmozjs128-debug.so:_ZN8JSScript16releaseJitScriptEPN2JS9GCContextE
libmozjs128-debug.so:_ZN8JSScript16updateJitCodeRawEP9JSRuntime
libmozjs128-debug.so:_ZN8JSScript17resetScriptCountsEv
libmozjs128-debug.so:_ZN8JSScript18calculateLiveFixedEPh
libmozjs128-debug.so:_ZN8JSScript19destroyScriptCountsEv
libmozjs128-debug.so:_ZN8JSScript19maybeGetThrowCountsEPh
libmozjs128-debug.so:_ZN8JSScript19releaseScriptCountsEPN2js12ScriptCountsE
libmozjs128-debug.so:_ZN8JSScript20anyFormalIsForwardedEv
libmozjs128-debug.so:_ZN8JSScript20fullyInitFromStencilEP9JSContextRKN2js8frontend20CompilationAtomCacheERKNS3_18CompilationStencilERNS3_19CompilationGCOutputEN2JS6HandleIPS_EENS3_10TypedIndexINS3_13ScriptStencilEEE
libmozjs128-debug.so:_ZN8JSScript21maybeReleaseJitScriptEPN2JS9GCContextE
libmozjs128-debug.so:_ZN8JSScript23createPrivateScriptDataEP9JSContextN2JS6HandleIPS_EEj
libmozjs128-debug.so:_ZN8JSScript24mayReadFrameArgsDirectlyEv
libmozjs128-debug.so:_ZN8JSScript26releaseJitScriptOnFinalizeEPN2JS9GCContextE
libmozjs128-debug.so:_ZN8JSScript28formalLivesInArgumentsObjectEj
libmozjs128-debug.so:_ZN8JSScript39resetWarmUpCounterToDelayIonCompilationEv
libmozjs128-debug.so:_ZN8JSScript4dumpEP9JSContext
libmozjs128-debug.so:_ZN8JSScript4dumpEP9JSContextN2JS6HandleIPS_EERNS_11DumpOptionsEPN2js13StringPrinterE
libmozjs128-debug.so:_ZN8JSScript6CreateEP9JSContextN2JS6HandleIP10JSFunctionEENS3_IPN2js18ScriptSourceObjectEEERKNS7_12SourceExtentENS7_20ImmutableScriptFlagsE
libmozjs128-debug.so:_ZN8JSScript8hasLoopsEv
libmozjs128-debug.so:_ZN8JSScript8relazifyEP9JSRuntime
libmozjs128-debug.so:_ZN8JSString19sizeOfExcludingThisEPFmPKvE
libmozjs128-debug.so:_ZN8JSString21tryReplaceWithAtomRefEP6JSAtom
libmozjs128-debug.so:_ZN8JSString23fillWithRepresentativesEP9JSContextN2JS6HandleIPN2js11ArrayObjectEEE
libmozjs128-debug.so:_ZN8JSString6equalsEPKc
libmozjs128-debug.so:_ZN8arrayvec12array_string20ArrayString$LT$_$GT$10as_mut_ptr17h7f68729d01589f29E
libmozjs128-debug.so:_ZN8arrayvec12array_string20ArrayString$LT$_$GT$12try_push_str17h53ceca4f03017dc1E
libmozjs128-debug.so:_ZN8arrayvec12array_string20ArrayString$LT$_$GT$3len17h319d7f2b10428bbeE
libmozjs128-debug.so:_ZN8arrayvec12array_string20ArrayString$LT$_$GT$3new17h23df5a3df38f0fddE
libmozjs128-debug.so:_ZN8arrayvec12array_string20ArrayString$LT$_$GT$4from17h2e7f63def15db833E
libmozjs128-debug.so:_ZN8arrayvec12array_string20ArrayString$LT$_$GT$4push17h9ae6a66c2c0b97a1E
libmozjs128-debug.so:_ZN8arrayvec12array_string20ArrayString$LT$_$GT$6as_ptr17hd7be9bfaa2671aafE
libmozjs128-debug.so:_ZN8arrayvec12array_string20ArrayString$LT$_$GT$6as_str17h1f9861967ba37e0fE
libmozjs128-debug.so:_ZN8arrayvec12array_string20ArrayString$LT$_$GT$7set_len17h2211392790a952fdE
libmozjs128-debug.so:_ZN8arrayvec12array_string20ArrayString$LT$_$GT$8try_push17haed7e4142aa72b3dE
libmozjs128-debug.so:_ZN8arrayvec6errors22CapacityError$LT$T$GT$3new17h3c8ac779d12067e2E
libmozjs128-debug.so:_ZN8arrayvec6errors22CapacityError$LT$T$GT$3new17he0c05953cb4d7b7eE
libmozjs128-debug.so:_ZN90_$LT$core..ops..control_flow..ControlFlow$LT$B$C$C$GT$$u20$as$u20$core..cmp..PartialEq$GT$2eq17h3b221429a74c5053E
libmozjs128-debug.so:_ZN90_$LT$serde..__private..de..borrow_cow_str..CowStrVisitor$u20$as$u20$serde..de..Visitor$GT$9expecting17h50622bb0e003e87fE
libmozjs128-debug.so:_ZN91_$LT$core..slice..iter..Iter$LT$T$GT$$u20$as$u20$core..iter..traits..iterator..Iterator$GT$24__iterator_get_unchecked17h620967c5ca9f2e8fE
libmozjs128-debug.so:_ZN91_$LT$core..slice..iter..Iter$LT$T$GT$$u20$as$u20$core..iter..traits..iterator..Iterator$GT$24__iterator_get_unchecked17hc87061fd4bc47dfdE
libmozjs128-debug.so:_ZN91_$LT$core..slice..iter..Iter$LT$T$GT$$u20$as$u20$core..iter..traits..iterator..Iterator$GT$3any17hbc7920c282b093a0E
libmozjs128-debug.so:_ZN91_$LT$core..slice..iter..Iter$LT$T$GT$$u20$as$u20$core..iter..traits..iterator..Iterator$GT$4next17h31e088de7212a717E
libmozjs128-debug.so:_ZN91_$LT$core..slice..iter..Iter$LT$T$GT$$u20$as$u20$core..iter..traits..iterator..Iterator$GT$4next17h35b5fc325e73ef4eE
libmozjs128-debug.so:_ZN91_$LT$core..slice..iter..Iter$LT$T$GT$$u20$as$u20$core..iter..traits..iterator..Iterator$GT$4next17h3eb165dcc9990cbaE
libmozjs128-debug.so:_ZN91_$LT$core..slice..iter..Iter$LT$T$GT$$u20$as$u20$core..iter..traits..iterator..Iterator$GT$4next17hc879c0cc5e2be54aE
libmozjs128-debug.so:_ZN91_$LT$core..slice..iter..Iter$LT$T$GT$$u20$as$u20$core..iter..traits..iterator..Iterator$GT$8position17hd632849be8636564E
libmozjs128-debug.so:_ZN91_$LT$core..slice..iter..Iter$LT$T$GT$$u20$as$u20$core..iter..traits..iterator..Iterator$GT$9size_hint17h1ce984b25451cfa8E
libmozjs128-debug.so:_ZN91_$LT$core..slice..iter..Iter$LT$T$GT$$u20$as$u20$core..iter..traits..iterator..Iterator$GT$9size_hint17hb2e5f03bea3024b6E
libmozjs128-debug.so:_ZN94_$LT$core..slice..iter..IterMut$LT$T$GT$$u20$as$u20$core..iter..traits..iterator..Iterator$GT$24__iterator_get_unchecked17h906f11d816979407E
libmozjs128-debug.so:_ZN94_$LT$core..slice..iter..IterMut$LT$T$GT$$u20$as$u20$core..iter..traits..iterator..Iterator$GT$4next17hdfb2c9038a6b0febE
libmozjs128-debug.so:_ZN94_$LT$core..slice..iter..IterMut$LT$T$GT$$u20$as$u20$core..iter..traits..iterator..Iterator$GT$9size_hint17h575a30b9d5ba03c4E
libmozjs128-debug.so:_ZN94_$LT$core..slice..iter..Windows$LT$T$GT$$u20$as$u20$core..iter..traits..iterator..Iterator$GT$4next17h3159e83b64b0a089E
libmozjs128-debug.so:_ZN94_$LT$serde..__private..de..borrow_cow_bytes..CowBytesVisitor$u20$as$u20$serde..de..Visitor$GT$9expecting17h15c0efdf8a8b483dE
libmozjs128-debug.so:_ZN94_$LT$serde..__private..de..content..TagOrContentFieldVisitor$u20$as$u20$serde..de..Visitor$GT$9expecting17h8a74607dda3aeb9bE
libmozjs128-debug.so:_ZN95_$LT$core..ops..control_flow..ControlFlow$LT$B$C$C$GT$$u20$as$u20$core..ops..try_trait..Try$GT$11from_output17h2f71a8e0d973c08bE
libmozjs128-debug.so:_ZN95_$LT$core..ops..control_flow..ControlFlow$LT$B$C$C$GT$$u20$as$u20$core..ops..try_trait..Try$GT$11from_output17h95f42f8b6c77ab02E
libmozjs128-debug.so:_ZN95_$LT$core..ops..control_flow..ControlFlow$LT$B$C$C$GT$$u20$as$u20$core..ops..try_trait..Try$GT$11from_output17hd21c9ab993c6abf0E
libmozjs128-debug.so:_ZN95_$LT$core..ops..control_flow..ControlFlow$LT$B$C$C$GT$$u20$as$u20$core..ops..try_trait..Try$GT$6branch17h324d91f0cf6c1980E
libmozjs128-debug.so:_ZN95_$LT$core..ops..control_flow..ControlFlow$LT$B$C$C$GT$$u20$as$u20$core..ops..try_trait..Try$GT$6branch17h900b320580ef77dfE
libmozjs128-debug.so:_ZN95_$LT$core..ops..control_flow..ControlFlow$LT$B$C$C$GT$$u20$as$u20$core..ops..try_trait..Try$GT$6branch17hf1a406e0b93c87eaE
libmozjs128-debug.so:_ZN96_$LT$core..hint..select_unpredictable..DropOnPanic$LT$T$GT$$u20$as$u20$core..ops..drop..Drop$GT$4drop17h68b1147d539d2966E
libmozjs128-debug.so:_ZN97_$LT$core..ops..range..RangeFull$u20$as$u20$core..slice..index..SliceIndex$LT$$u5b$T$u5d$$GT$$GT$5index17h3f30e328fc0947c6E
libmozjs128-debug.so:_ZN97_$LT$core..ops..range..RangeFull$u20$as$u20$core..slice..index..SliceIndex$LT$$u5b$T$u5d$$GT$$GT$5index17ha23a5674656f68d0E
libmozjs128-debug.so:_ZN97_$LT$serde..__private..de..content..InternallyTaggedUnitVisitor$u20$as$u20$serde..de..Visitor$GT$9expecting17hd09a88d839049c57E
libmozjs128-debug.so:_ZN97_$LT$serde..__private..de..content..TagContentOtherFieldVisitor$u20$as$u20$serde..de..Visitor$GT$9expecting17h23d061b0601bfe90E
libmozjs128-debug.so:_ZN98_$LT$core..iter..adapters..rev..Rev$LT$I$GT$$u20$as$u20$core..iter..traits..iterator..Iterator$GT$4next17hbb0831a7a533183eE
libmozjs128-debug.so:_ZN98_$LT$core..iter..adapters..rev..Rev$LT$I$GT$$u20$as$u20$core..iter..traits..iterator..Iterator$GT$8try_fold17h8d8670f465b4f0c5E
libmozjs128-debug.so:_ZN9JSContext10setRuntimeEP9JSRuntime
libmozjs128-debug.so:_ZN9JSContext13currentScriptEPPhNS_15AllowCrossRealmE
libmozjs128-debug.so:_ZN9JSContext13onOutOfMemoryEv
libmozjs128-debug.so:_ZN9JSContext14onOverRecursedEv
libmozjs128-debug.so:_ZN9JSContext15handleInterruptEv
libmozjs128-debug.so:_ZN9JSContext16requestInterruptEN2js15InterruptReasonE
libmozjs128-debug.so:_ZN9JSContext17initJitStackLimitEv
libmozjs128-debug.so:_ZN9JSContext18alreadyReportedOOMEv
libmozjs128-debug.so:_ZN9JSContext18isClosingGeneratorEv
libmozjs128-debug.so:_ZN9JSContext18resetJitStackLimitEv
libmozjs128-debug.so:_ZN9JSContext19getPendingExceptionEN2JS13MutableHandleINS0_5ValueEEE
libmozjs128-debug.so:_ZN9JSContext19setPendingExceptionEN2JS6HandleINS0_5ValueEEEN2js18ShouldCaptureStackE
libmozjs128-debug.so:_ZN9JSContext19setPendingExceptionEN2JS6HandleINS0_5ValueEEENS1_IPN2js10SavedFrameEEE
libmozjs128-debug.so:_ZN9JSContext20alreadyReportedErrorEv
libmozjs128-debug.so:_ZN9JSContext20stackLimitForJitCodeEN2JS9StackKindE
libmozjs128-debug.so:_ZN9JSContext21clearPendingInterruptEN2js15InterruptReasonE
libmozjs128-debug.so:_ZN9JSContext22recoverFromOutOfMemoryEv
libmozjs128-debug.so:_ZN9JSContext23isRuntimeCodeGenEnabledEN2JS11RuntimeCodeENS0_6HandleIP8JSStringEE
libmozjs128-debug.so:_ZN9JSContext24getPendingExceptionStackEN2JS13MutableHandleINS0_5ValueEEE
libmozjs128-debug.so:_ZN9JSContext24getPendingExceptionStackEv
libmozjs128-debug.so:_ZN9JSContext24reportAllocationOverflowEv
libmozjs128-debug.so:_ZN9JSContext26isThrowingDebuggeeWouldRunEv
libmozjs128-debug.so:_ZN9JSContext28getPendingExceptionUnwrappedEv
libmozjs128-debug.so:_ZN9JSContext28stackKindForCurrentPrincipalEv
libmozjs128-debug.so:_ZN9JSContext29stackLimitForCurrentPrincipalEv
libmozjs128-debug.so:_ZN9JSContext4initEv
libmozjs128-debug.so:_ZN9JSContext5traceEP8JSTracer
libmozjs128-debug.so:_ZN9JSContextC1EP9JSRuntimeRKN2JS14ContextOptionsE
libmozjs128-debug.so:_ZN9JSContextC2EP9JSRuntimeRKN2JS14ContextOptionsE
libmozjs128-debug.so:_ZN9JSContextD1Ev
libmozjs128-debug.so:_ZN9JSContextD2Ev
libmozjs128-debug.so:_ZN9JSRuntime11finishAtomsEv
libmozjs128-debug.so:_ZN9JSRuntime12addTelemetryE8JSMetricj
libmozjs128-debug.so:_ZN9JSRuntime13onOutOfMemoryEN2js13AllocFunctionEmmPvP9JSContext
libmozjs128-debug.so:_ZN9JSRuntime13setUseCounterEP8JSObject12JSUseCounter
libmozjs128-debug.so:_ZN9JSRuntime14destroyRuntimeEv
libmozjs128-debug.so:_ZN9JSRuntime14randomHashCodeEv
libmozjs128-debug.so:_ZN9JSRuntime15initializeAtomsEP9JSContext
libmozjs128-debug.so:_ZN9JSRuntime16createJitRuntimeEP9JSContext
libmozjs128-debug.so:_ZN9JSRuntime16getDefaultLocaleEv
libmozjs128-debug.so:_ZN9JSRuntime16setDefaultLocaleEPKc
libmozjs128-debug.so:_ZN9JSRuntime17enqueuePromiseJobEP9JSContextN2JS6HandleIP10JSFunctionEENS3_IP8JSObjectEENS3_IPN2js12GlobalObjectEEE
libmozjs128-debug.so:_ZN9JSRuntime17finishSelfHostingEv
libmozjs128-debug.so:_ZN9JSRuntime17liveRuntimesCountE
libmozjs128-debug.so:_ZN9JSRuntime18getIncumbentGlobalEP9JSContext
libmozjs128-debug.so:_ZN9JSRuntime18getSelfHostedValueEP9JSContextN2JS6HandleIPN2js12PropertyNameEEENS2_13MutableHandleINS2_5ValueEEE
libmozjs128-debug.so:_ZN9JSRuntime18onOutOfMemoryCanGCEN2js13AllocFunctionEmmPv
libmozjs128-debug.so:_ZN9JSRuntime18randomKeyGeneratorEv
libmozjs128-debug.so:_ZN9JSRuntime18resetDefaultLocaleEv
libmozjs128-debug.so:_ZN9JSRuntime19activeGCInAtomsZoneEv
libmozjs128-debug.so:_ZN9JSRuntime20setTelemetryCallbackEPS_PFv8JSMetricjE
libmozjs128-debug.so:_ZN9JSRuntime20tracePersistentRootsEP8JSTracer
libmozjs128-debug.so:_ZN9JSRuntime21finishPersistentRootsEv
libmozjs128-debug.so:_ZN9JSRuntime21scriptDataTableHolderEv
libmozjs128-debug.so:_ZN9JSRuntime21setSelfHostingStencilEN2JS13MutableHandleIN7mozilla9UniquePtrIN2js8frontend16CompilationInputENS0_12DeletePolicyIS6_EEEEEEO6RefPtrINS5_18CompilationStencilEE
libmozjs128-debug.so:_ZN9JSRuntime21setUseCounterCallbackEPS_PFvP8JSObject12JSUseCounterE
libmozjs128-debug.so:_ZN9JSRuntime22addSizeOfIncludingThisEPFmPKvEPN2JS12RuntimeSizesE
libmozjs128-debug.so:_ZN9JSRuntime22forkRandomKeyGeneratorEv
libmozjs128-debug.so:_ZN9JSRuntime22initSelfHostingStencilEP9JSContextN7mozilla4SpanIKhLm18446744073709551615EEEPFbS1_S5_E
libmozjs128-debug.so:_ZN9JSRuntime23randomHashCodeScramblerEv
libmozjs128-debug.so:_ZN9JSRuntime23traceSelfHostingStencilEP8JSTracer
libmozjs128-debug.so:_ZN9JSRuntime24stopRecordingAllocationsEv
libmozjs128-debug.so:_ZN9JSRuntime25startRecordingAllocationsEdPFvON2JS20RecordAllocationInfoEE
libmozjs128-debug.so:_ZN9JSRuntime26decrementNumDebuggeeRealmsEv
libmozjs128-debug.so:_ZN9JSRuntime26delazifySelfHostedFunctionEP9JSContextN2JS6HandleIPN2js12PropertyNameEEENS3_IP10JSFunctionEE
libmozjs128-debug.so:_ZN9JSRuntime26incrementNumDebuggeeRealmsEv
libmozjs128-debug.so:_ZN9JSRuntime26initSelfHostingFromStencilEP9JSContext
libmozjs128-debug.so:_ZN9JSRuntime27addUnhandledRejectedPromiseEP9JSContextN2JS6HandleIP8JSObjectEE
libmozjs128-debug.so:_ZN9JSRuntime29getSelfHostedScriptIndexRangeEPN2js12PropertyNameE
libmozjs128-debug.so:_ZN9JSRuntime30removeUnhandledRejectedPromiseEP9JSContextN2JS6HandleIP8JSObjectEE
libmozjs128-debug.so:_ZN9JSRuntime33ensureRealmIsRecordingAllocationsEN2JS6HandleIPN2js12GlobalObjectEEE
libmozjs128-debug.so:_ZN9JSRuntime34getSelfHostedFunctionGeneratorKindEPN2js12PropertyNameE
libmozjs128-debug.so:_ZN9JSRuntime40assertSelfHostedFunctionHasCanonicalNameEN2JS6HandleIPN2js12PropertyNameEEE
libmozjs128-debug.so:_ZN9JSRuntime43decrementNumDebuggeeRealmsObservingCoverageEv
libmozjs128-debug.so:_ZN9JSRuntime43incrementNumDebuggeeRealmsObservingCoverageEv
libmozjs128-debug.so:_ZN9JSRuntime4initEP9JSContextj
libmozjs128-debug.so:_ZN9JSRuntimeC1EPS_
libmozjs128-debug.so:_ZN9JSRuntimeC2EPS_
libmozjs128-debug.so:_ZN9JSRuntimeD1Ev
libmozjs128-debug.so:_ZN9JSRuntimeD2Ev
libmozjs128-debug.so:_ZNK10JSFunction13dumpOwnFieldsERN2js11JSONPrinterE
libmozjs128-debug.so:_ZNK10JSFunction15needsCallObjectEv
libmozjs128-debug.so:_ZNK10JSFunction19isSyntheticFunctionEv
libmozjs128-debug.so:_ZNK10JSFunction20dumpOwnStringContentERN2js14GenericPrinterE
libmozjs128-debug.so:_ZNK10JSFunction25isDerivedClassConstructorEv
libmozjs128-debug.so:_ZNK10JSFunction27needsNamedLambdaEnvironmentEv
libmozjs128-debug.so:_ZNK10JSFunction28needsExtraBodyVarEnvironmentEv
libmozjs128-debug.so:_ZNK10JSFunction29clonedSelfHostedGeneratorKindEv
libmozjs128-debug.so:_ZNK14JSPropertySpec8getValueEP9JSContextN2JS13MutableHandleINS2_5ValueEEE
libmozjs128-debug.so:_ZNK17double_conversion23DoubleToStringConverter11ToPrecisionEdiPNS_13StringBuilderE
libmozjs128-debug.so:_ZNK17double_conversion23DoubleToStringConverter13ToExponentialEdiPNS_13StringBuilderE
libmozjs128-debug.so:_ZNK17double_conversion23DoubleToStringConverter19HandleSpecialValuesEdPNS_13StringBuilderE
libmozjs128-debug.so:_ZNK17double_conversion23DoubleToStringConverter20ToShortestIeeeNumberEdPNS_13StringBuilderENS0_8DtoaModeE
libmozjs128-debug.so:_ZNK17double_conversion23DoubleToStringConverter27CreateDecimalRepresentationEPKciiiPNS_13StringBuilderE
libmozjs128-debug.so:_ZNK17double_conversion23DoubleToStringConverter31CreateExponentialRepresentationEPKciiPNS_13StringBuilderE
libmozjs128-debug.so:_ZNK17double_conversion23DoubleToStringConverter7ToFixedEdiPNS_13StringBuilderE
libmozjs128-debug.so:_ZNK17double_conversion23StringToDoubleConverter13StringToFloatEPKciPi
libmozjs128-debug.so:_ZNK17double_conversion23StringToDoubleConverter13StringToFloatEPKtiPi
libmozjs128-debug.so:_ZNK17double_conversion23StringToDoubleConverter14StringToDoubleEPKciPi
libmozjs128-debug.so:_ZNK17double_conversion23StringToDoubleConverter14StringToDoubleEPKtiPi
libmozjs128-debug.so:_ZNK2JS11Compartment11firstGlobalEv
libmozjs128-debug.so:_ZNK2JS11PropertyKey10dumpFieldsERN2js11JSONPrinterE
libmozjs128-debug.so:_ZNK2JS11PropertyKey13isPrivateNameEv
libmozjs128-debug.so:_ZNK2JS11PropertyKey16dumpPropertyNameERN2js14GenericPrinterE
libmozjs128-debug.so:_ZNK2JS11PropertyKey17dumpStringContentERN2js14GenericPrinterE
libmozjs128-debug.so:_ZNK2JS11PropertyKey17isWellKnownSymbolENS_10SymbolCodeE
libmozjs128-debug.so:_ZNK2JS11PropertyKey4dumpERN2js11JSONPrinterE
libmozjs128-debug.so:_ZNK2JS11PropertyKey4dumpERN2js14GenericPrinterE
libmozjs128-debug.so:_ZNK2JS11PropertyKey4dumpEv
libmozjs128-debug.so:_ZNK2JS12AutoFilename3getEv
libmozjs128-debug.so:_ZNK2JS13GCDescription12lastSliceEndEP9JSContext
libmozjs128-debug.so:_ZNK2JS13GCDescription14lastSliceStartEP9JSContext
libmozjs128-debug.so:_ZNK2JS13GCDescription18formatJSONProfilerEP9JSContext
libmozjs128-debug.so:_ZNK2JS13GCDescription18formatSliceMessageEP9JSContext
libmozjs128-debug.so:_ZNK2JS13GCDescription19sliceToJSONProfilerEP9JSContext
libmozjs128-debug.so:_ZNK2JS13GCDescription20formatSummaryMessageEP9JSContext
libmozjs128-debug.so:_ZNK2JS13GCDescription7endTimeEP9JSContext
libmozjs128-debug.so:_ZNK2JS13GCDescription9startTimeEP9JSContext
libmozjs128-debug.so:_ZNK2JS13GCDescription9toGCEventEP9JSContext
libmozjs128-debug.so:_ZNK2JS15ArrayBufferView10isDetachedEv
libmozjs128-debug.so:_ZNK2JS15ArrayBufferView11isResizableEv
libmozjs128-debug.so:_ZNK2JS17ArrayBufferOrView10isDetachedEv
libmozjs128-debug.so:_ZNK2JS17ArrayBufferOrView11isResizableEv
libmozjs128-debug.so:_ZNK2JS18ProfiledFrameRange4IterdeEv
libmozjs128-debug.so:_ZNK2JS19OwningDecodeOptions19sizeOfExcludingThisEPFmPKvE
libmozjs128-debug.so:_ZNK2JS19ProfiledFrameHandle7realmIDEv
libmozjs128-debug.so:_ZNK2JS19ProfiledFrameHandle9frameKindEv
libmozjs128-debug.so:_ZNK2JS20OwningCompileOptions19sizeOfExcludingThisEPFmPKvE
libmozjs128-debug.so:_ZNK2JS20RealmCreationOptions21getCoopAndCoepEnabledEv
libmozjs128-debug.so:_ZNK2JS20RealmCreationOptions32getSharedMemoryAndAtomicsEnabledEv
libmozjs128-debug.so:_ZNK2JS22ProfilingFrameIterator12extractStackEPNS0_5FrameEjj
libmozjs128-debug.so:_ZNK2JS22ProfilingFrameIterator12stackAddressEv
libmozjs128-debug.so:_ZNK2JS22ProfilingFrameIterator20getCppEntryRegistersEv
libmozjs128-debug.so:_ZNK2JS22ProfilingFrameIterator24getPhysicalFrameAndEntryEPPKN2js3jit18JitcodeGlobalEntryE
libmozjs128-debug.so:_ZNK2JS22ProfilingFrameIterator28getPhysicalFrameWithoutLabelEv
libmozjs128-debug.so:_ZNK2JS22ProfilingFrameIterator6isWasmEv
libmozjs128-debug.so:_ZNK2JS22ProfilingFrameIterator7isJSJitEv
libmozjs128-debug.so:_ZNK2JS3ubi8BackEdge5cloneEv
libmozjs128-debug.so:_ZNK2JS3ubi8ConcreteI8JSObjectE11compartmentEv
libmozjs128-debug.so:_ZNK2JS3ubi8ConcreteI8JSObjectE15allocationStackEv
libmozjs128-debug.so:_ZNK2JS3ubi8ConcreteI8JSObjectE17jsObjectClassNameEv
libmozjs128-debug.so:_ZNK2JS3ubi8ConcreteI8JSObjectE18hasAllocationStackEv
libmozjs128-debug.so:_ZNK2JS3ubi8ConcreteI8JSObjectE4sizeEPFmPKvE
libmozjs128-debug.so:_ZNK2JS3ubi8ConcreteI8JSObjectE5realmEv
libmozjs128-debug.so:_ZNK2JS3ubi8ConcreteI8JSStringE4sizeEPFmPKvE
libmozjs128-debug.so:_ZNK2JS3ubi8ConcreteIN2js10BaseScriptEE14scriptFilenameEv
libmozjs128-debug.so:_ZNK2JS3ubi8ConcreteIN2js10BaseScriptEE4sizeEPFmPKvE
libmozjs128-debug.so:_ZNK2JS3ubi8ConcreteINS0_8RootListEE5edgesEP9JSContextb
libmozjs128-debug.so:_ZNK2JS3ubi8ConcreteINS_6BigIntEE4sizeEPFmPKvE
libmozjs128-debug.so:_ZNK2JS3ubi8ConcreteINS_6SymbolEE4sizeEPFmPKvE
libmozjs128-debug.so:_ZNK2JS3ubi8ConcreteIvE10coarseTypeEv
libmozjs128-debug.so:_ZNK2JS3ubi8ConcreteIvE11compartmentEv
libmozjs128-debug.so:_ZNK2JS3ubi8ConcreteIvE4sizeEPFmPKvE
libmozjs128-debug.so:_ZNK2JS3ubi8ConcreteIvE4zoneEv
libmozjs128-debug.so:_ZNK2JS3ubi8ConcreteIvE5edgesEP9JSContextb
libmozjs128-debug.so:_ZNK2JS3ubi8ConcreteIvE5realmEv
libmozjs128-debug.so:_ZNK2JS3ubi8ConcreteIvE8typeNameEv
libmozjs128-debug.so:_ZNK2JS4Zone19initialMarkingStateEv
libmozjs128-debug.so:_ZNK2JS4Zone8isOnListEv
libmozjs128-debug.so:_ZNK2JS4Zone8nextZoneEv
libmozjs128-debug.so:_ZNK2JS5Realm23collectCoverageForDebugEv
libmozjs128-debug.so:_ZNK2JS5Realm9getLocaleEv
libmozjs128-debug.so:_ZNK2JS5Value10dumpFieldsERN2js11JSONPrinterE
libmozjs128-debug.so:_ZNK2JS5Value17dumpStringContentERN2js14GenericPrinterE
libmozjs128-debug.so:_ZNK2JS5Value22assertTraceKindMatchesEPN2js2gc4CellE
libmozjs128-debug.so:_ZNK2JS5Value4dumpERN2js11JSONPrinterE
libmozjs128-debug.so:_ZNK2JS5Value4dumpERN2js14GenericPrinterE
libmozjs128-debug.so:_ZNK2JS5Value4dumpEv
libmozjs128-debug.so:_ZNK2JS6BigInt10dumpFieldsERN2js11JSONPrinterE
libmozjs128-debug.so:_ZNK2JS6BigInt11dumpLiteralERN2js14GenericPrinterE
libmozjs128-debug.so:_ZNK2JS6BigInt17dumpStringContentERN2js14GenericPrinterE
libmozjs128-debug.so:_ZNK2JS6BigInt19sizeOfExcludingThisEPFmPKvE
libmozjs128-debug.so:_ZNK2JS6BigInt28sizeOfExcludingThisInNurseryEPFmPKvE
libmozjs128-debug.so:_ZNK2JS6BigInt4dumpERN2js11JSONPrinterE
libmozjs128-debug.so:_ZNK2JS6BigInt4dumpERN2js14GenericPrinterE
libmozjs128-debug.so:_ZNK2JS6BigInt4dumpEv
libmozjs128-debug.so:_ZNK2JS6BigInt4hashEv
libmozjs128-debug.so:_ZNK2JS6Symbol10dumpFieldsERN2js11JSONPrinterE
libmozjs128-debug.so:_ZNK2JS6Symbol16dumpPropertyNameERN2js14GenericPrinterE
libmozjs128-debug.so:_ZNK2JS6Symbol17dumpStringContentERN2js14GenericPrinterE
libmozjs128-debug.so:_ZNK2JS6Symbol4dumpERN2js11JSONPrinterE
libmozjs128-debug.so:_ZNK2JS6Symbol4dumpERN2js14GenericPrinterE
libmozjs128-debug.so:_ZNK2JS6Symbol4dumpEv
libmozjs128-debug.so:_ZNK2JS9GCCellPtr13outOfLineKindEv
libmozjs128-debug.so:_ZNK2js11SliceBudget8describeEPcm
libmozjs128-debug.so:_ZNK2js13StringPrinter15checkInvariantsEv
libmozjs128-debug.so:_ZNK2js13StringPrinter6lengthEv
libmozjs128-debug.so:_ZNK2js15TempAllocPolicy19reportAllocOverflowEv
libmozjs128-debug.so:_ZNK2js16BaseProxyHandler10isCallableEP8JSObject
libmozjs128-debug.so:_ZNK2js16BaseProxyHandler10nativeCallEP9JSContextPFbN2JS6HandleINS3_5ValueEEEEPFbS2_RKNS3_8CallArgsEESB_
libmozjs128-debug.so:_ZNK2js16BaseProxyHandler11getElementsEP9JSContextN2JS6HandleIP8JSObjectEEjjPNS_12ElementAdderE
libmozjs128-debug.so:_ZNK2js16BaseProxyHandler11objectMovedEP8JSObjectS2_
libmozjs128-debug.so:_ZNK2js16BaseProxyHandler12fun_toStringEP9JSContextN2JS6HandleIP8JSObjectEEb
libmozjs128-debug.so:_ZNK2js16BaseProxyHandler12getPrototypeEP9JSContextN2JS6HandleIP8JSObjectEENS3_13MutableHandleIS6_EE
libmozjs128-debug.so:_ZNK2js16BaseProxyHandler12setPrototypeEP9JSContextN2JS6HandleIP8JSObjectEES7_RNS3_14ObjectOpResultE
libmozjs128-debug.so:_ZNK2js16BaseProxyHandler13isConstructorEP8JSObject
libmozjs128-debug.so:_ZNK2js16BaseProxyHandler15getBuiltinClassEP9JSContextN2JS6HandleIP8JSObjectEEPNS_7ESClassE
libmozjs128-debug.so:_ZNK2js16BaseProxyHandler15regexp_toSharedEP9JSContextN2JS6HandleIP8JSObjectEE
libmozjs128-debug.so:_ZNK2js16BaseProxyHandler16boxedValue_unboxEP9JSContextN2JS6HandleIP8JSObjectEENS3_13MutableHandleINS3_5ValueEEE
libmozjs128-debug.so:_ZNK2js16BaseProxyHandler21setImmutablePrototypeEP9JSContextN2JS6HandleIP8JSObjectEEPb
libmozjs128-debug.so:_ZNK2js16BaseProxyHandler28getOwnEnumerablePropertyKeysEP9JSContextN2JS6HandleIP8JSObjectEENS3_13MutableHandleINS3_13StackGCVectorINS3_11PropertyKeyENS_15TempAllocPolicyEEEEE
libmozjs128-debug.so:_ZNK2js16BaseProxyHandler3getEP9JSContextN2JS6HandleIP8JSObjectEENS4_INS3_5ValueEEENS4_INS3_11PropertyKeyEEENS3_13MutableHandleIS8_EE
libmozjs128-debug.so:_ZNK2js16BaseProxyHandler3hasEP9JSContextN2JS6HandleIP8JSObjectEENS4_INS3_11PropertyKeyEEEPb
libmozjs128-debug.so:_ZNK2js16BaseProxyHandler3setEP9JSContextN2JS6HandleIP8JSObjectEENS4_INS3_11PropertyKeyEEENS4_INS3_5ValueEEESB_RNS3_14ObjectOpResultE
libmozjs128-debug.so:_ZNK2js16BaseProxyHandler4callEP9JSContextN2JS6HandleIP8JSObjectEERKNS3_8CallArgsE
libmozjs128-debug.so:_ZNK2js16BaseProxyHandler5enterEP9JSContextN2JS6HandleIP8JSObjectEENS4_INS3_11PropertyKeyEEEjbPb
libmozjs128-debug.so:_ZNK2js16BaseProxyHandler5traceEP8JSTracerP8JSObject
libmozjs128-debug.so:_ZNK2js16BaseProxyHandler6hasOwnEP9JSContextN2JS6HandleIP8JSObjectEENS4_INS3_11PropertyKeyEEEPb
libmozjs128-debug.so:_ZNK2js16BaseProxyHandler7isArrayEP9JSContextN2JS6HandleIP8JSObjectEEPNS3_13IsArrayAnswerE
libmozjs128-debug.so:_ZNK2js16BaseProxyHandler8finalizeEPN2JS9GCContextEP8JSObject
libmozjs128-debug.so:_ZNK2js16BaseProxyHandler9classNameEP9JSContextN2JS6HandleIP8JSObjectEE
libmozjs128-debug.so:_ZNK2js16BaseProxyHandler9constructEP9JSContextN2JS6HandleIP8JSObjectEERKNS3_8CallArgsE
libmozjs128-debug.so:_ZNK2js16BaseProxyHandler9enumerateEP9JSContextN2JS6HandleIP8JSObjectEENS3_13MutableHandleINS3_13StackGCVectorINS3_11PropertyKeyENS_15TempAllocPolicyEEEEE
libmozjs128-debug.so:_ZNK2js19ProfilingStackFrame2pcEv
libmozjs128-debug.so:_ZNK2js19ProfilingStackFrame6scriptEv
libmozjs128-debug.so:_ZNK2js19ProfilingStackFrame8functionEv
libmozjs128-debug.so:_ZNK2js22ForwardingProxyHandler10isCallableEP8JSObject
libmozjs128-debug.so:_ZNK2js22ForwardingProxyHandler10nativeCallEP9JSContextPFbN2JS6HandleINS3_5ValueEEEEPFbS2_RKNS3_8CallArgsEESB_
libmozjs128-debug.so:_ZNK2js22ForwardingProxyHandler12fun_toStringEP9JSContextN2JS6HandleIP8JSObjectEEb
libmozjs128-debug.so:_ZNK2js22ForwardingProxyHandler12getPrototypeEP9JSContextN2JS6HandleIP8JSObjectEENS3_13MutableHandleIS6_EE
libmozjs128-debug.so:_ZNK2js22ForwardingProxyHandler12isExtensibleEP9JSContextN2JS6HandleIP8JSObjectEEPb
libmozjs128-debug.so:_ZNK2js22ForwardingProxyHandler12setPrototypeEP9JSContextN2JS6HandleIP8JSObjectEES7_RNS3_14ObjectOpResultE
libmozjs128-debug.so:_ZNK2js22ForwardingProxyHandler13isConstructorEP8JSObject
libmozjs128-debug.so:_ZNK2js22ForwardingProxyHandler14definePropertyEP9JSContextN2JS6HandleIP8JSObjectEENS4_INS3_11PropertyKeyEEENS4_INS3_18PropertyDescriptorEEERNS3_14ObjectOpResultE
libmozjs128-debug.so:_ZNK2js22ForwardingProxyHandler15getBuiltinClassEP9JSContextN2JS6HandleIP8JSObjectEEPNS_7ESClassE
libmozjs128-debug.so:_ZNK2js22ForwardingProxyHandler15ownPropertyKeysEP9JSContextN2JS6HandleIP8JSObjectEENS3_13MutableHandleINS3_13StackGCVectorINS3_11PropertyKeyENS_15TempAllocPolicyEEEEE
libmozjs128-debug.so:_ZNK2js22ForwardingProxyHandler15regexp_toSharedEP9JSContextN2JS6HandleIP8JSObjectEE
libmozjs128-debug.so:_ZNK2js22ForwardingProxyHandler16boxedValue_unboxEP9JSContextN2JS6HandleIP8JSObjectEENS3_13MutableHandleINS3_5ValueEEE
libmozjs128-debug.so:_ZNK2js22ForwardingProxyHandler17preventExtensionsEP9JSContextN2JS6HandleIP8JSObjectEERNS3_14ObjectOpResultE
libmozjs128-debug.so:_ZNK2js22ForwardingProxyHandler21setImmutablePrototypeEP9JSContextN2JS6HandleIP8JSObjectEEPb
libmozjs128-debug.so:_ZNK2js22ForwardingProxyHandler22getPrototypeIfOrdinaryEP9JSContextN2JS6HandleIP8JSObjectEEPbNS3_13MutableHandleIS6_EE
libmozjs128-debug.so:_ZNK2js22ForwardingProxyHandler24getOwnPropertyDescriptorEP9JSContextN2JS6HandleIP8JSObjectEENS4_INS3_11PropertyKeyEEENS3_13MutableHandleIN7mozilla5MaybeINS3_18PropertyDescriptorEEEEE
libmozjs128-debug.so:_ZNK2js22ForwardingProxyHandler28getOwnEnumerablePropertyKeysEP9JSContextN2JS6HandleIP8JSObjectEENS3_13MutableHandleINS3_13StackGCVectorINS3_11PropertyKeyENS_15TempAllocPolicyEEEEE
libmozjs128-debug.so:_ZNK2js22ForwardingProxyHandler3getEP9JSContextN2JS6HandleIP8JSObjectEENS4_INS3_5ValueEEENS4_INS3_11PropertyKeyEEENS3_13MutableHandleIS8_EE
libmozjs128-debug.so:_ZNK2js22ForwardingProxyHandler3hasEP9JSContextN2JS6HandleIP8JSObjectEENS4_INS3_11PropertyKeyEEEPb
libmozjs128-debug.so:_ZNK2js22ForwardingProxyHandler3setEP9JSContextN2JS6HandleIP8JSObjectEENS4_INS3_11PropertyKeyEEENS4_INS3_5ValueEEESB_RNS3_14ObjectOpResultE
libmozjs128-debug.so:_ZNK2js22ForwardingProxyHandler4callEP9JSContextN2JS6HandleIP8JSObjectEERKNS3_8CallArgsE
libmozjs128-debug.so:_ZNK2js22ForwardingProxyHandler6hasOwnEP9JSContextN2JS6HandleIP8JSObjectEENS4_INS3_11PropertyKeyEEEPb
libmozjs128-debug.so:_ZNK2js22ForwardingProxyHandler7delete_EP9JSContextN2JS6HandleIP8JSObjectEENS4_INS3_11PropertyKeyEEERNS3_14ObjectOpResultE
libmozjs128-debug.so:_ZNK2js22ForwardingProxyHandler7isArrayEP9JSContextN2JS6HandleIP8JSObjectEEPNS3_13IsArrayAnswerE
libmozjs128-debug.so:_ZNK2js22ForwardingProxyHandler9classNameEP9JSContextN2JS6HandleIP8JSObjectEE
libmozjs128-debug.so:_ZNK2js22ForwardingProxyHandler9constructEP9JSContextN2JS6HandleIP8JSObjectEERKNS3_8CallArgsE
libmozjs128-debug.so:_ZNK2js22ForwardingProxyHandler9enumerateEP9JSContextN2JS6HandleIP8JSObjectEENS3_13MutableHandleINS3_13StackGCVectorINS3_11PropertyKeyENS_15TempAllocPolicyEEEEE
libmozjs128-debug.so:_ZNK2js23AutoCheckRecursionLimit28stackKindForCurrentPrincipalEP9JSContext
libmozjs128-debug.so:_ZNK2js23CrossCompartmentWrapper10nativeCallEP9JSContextPFbN2JS6HandleINS3_5ValueEEEEPFbS2_RKNS3_8CallArgsEESB_
libmozjs128-debug.so:_ZNK2js23CrossCompartmentWrapper12fun_toStringEP9JSContextN2JS6HandleIP8JSObjectEEb
libmozjs128-debug.so:_ZNK2js23CrossCompartmentWrapper12getPrototypeEP9JSContextN2JS6HandleIP8JSObjectEENS3_13MutableHandleIS6_EE
libmozjs128-debug.so:_ZNK2js23CrossCompartmentWrapper12isExtensibleEP9JSContextN2JS6HandleIP8JSObjectEEPb
libmozjs128-debug.so:_ZNK2js23CrossCompartmentWrapper12setPrototypeEP9JSContextN2JS6HandleIP8JSObjectEES7_RNS3_14ObjectOpResultE
libmozjs128-debug.so:_ZNK2js23CrossCompartmentWrapper14definePropertyEP9JSContextN2JS6HandleIP8JSObjectEENS4_INS3_11PropertyKeyEEENS4_INS3_18PropertyDescriptorEEERNS3_14ObjectOpResultE
libmozjs128-debug.so:_ZNK2js23CrossCompartmentWrapper15ownPropertyKeysEP9JSContextN2JS6HandleIP8JSObjectEENS3_13MutableHandleINS3_13StackGCVectorINS3_11PropertyKeyENS_15TempAllocPolicyEEEEE
libmozjs128-debug.so:_ZNK2js23CrossCompartmentWrapper15regexp_toSharedEP9JSContextN2JS6HandleIP8JSObjectEE
libmozjs128-debug.so:_ZNK2js23CrossCompartmentWrapper16boxedValue_unboxEP9JSContextN2JS6HandleIP8JSObjectEENS3_13MutableHandleINS3_5ValueEEE
libmozjs128-debug.so:_ZNK2js23CrossCompartmentWrapper17preventExtensionsEP9JSContextN2JS6HandleIP8JSObjectEERNS3_14ObjectOpResultE
libmozjs128-debug.so:_ZNK2js23CrossCompartmentWrapper21setImmutablePrototypeEP9JSContextN2JS6HandleIP8JSObjectEEPb
libmozjs128-debug.so:_ZNK2js23CrossCompartmentWrapper22getPrototypeIfOrdinaryEP9JSContextN2JS6HandleIP8JSObjectEEPbNS3_13MutableHandleIS6_EE
libmozjs128-debug.so:_ZNK2js23CrossCompartmentWrapper24getOwnPropertyDescriptorEP9JSContextN2JS6HandleIP8JSObjectEENS4_INS3_11PropertyKeyEEENS3_13MutableHandleIN7mozilla5MaybeINS3_18PropertyDescriptorEEEEE
libmozjs128-debug.so:_ZNK2js23CrossCompartmentWrapper28getOwnEnumerablePropertyKeysEP9JSContextN2JS6HandleIP8JSObjectEENS3_13MutableHandleINS3_13StackGCVectorINS3_11PropertyKeyENS_15TempAllocPolicyEEEEE
libmozjs128-debug.so:_ZNK2js23CrossCompartmentWrapper3getEP9JSContextN2JS6HandleIP8JSObjectEENS4_INS3_5ValueEEENS4_INS3_11PropertyKeyEEENS3_13MutableHandleIS8_EE
libmozjs128-debug.so:_ZNK2js23CrossCompartmentWrapper3hasEP9JSContextN2JS6HandleIP8JSObjectEENS4_INS3_11PropertyKeyEEEPb
libmozjs128-debug.so:_ZNK2js23CrossCompartmentWrapper3setEP9JSContextN2JS6HandleIP8JSObjectEENS4_INS3_11PropertyKeyEEENS4_INS3_5ValueEEESB_RNS3_14ObjectOpResultE
libmozjs128-debug.so:_ZNK2js23CrossCompartmentWrapper4callEP9JSContextN2JS6HandleIP8JSObjectEERKNS3_8CallArgsE
libmozjs128-debug.so:_ZNK2js23CrossCompartmentWrapper6hasOwnEP9JSContextN2JS6HandleIP8JSObjectEENS4_INS3_11PropertyKeyEEEPb
libmozjs128-debug.so:_ZNK2js23CrossCompartmentWrapper7delete_EP9JSContextN2JS6HandleIP8JSObjectEENS4_INS3_11PropertyKeyEEERNS3_14ObjectOpResultE
libmozjs128-debug.so:_ZNK2js23CrossCompartmentWrapper9classNameEP9JSContextN2JS6HandleIP8JSObjectEE
libmozjs128-debug.so:_ZNK2js23CrossCompartmentWrapper9constructEP9JSContextN2JS6HandleIP8JSObjectEERKNS3_8CallArgsE
libmozjs128-debug.so:_ZNK2js23CrossCompartmentWrapper9enumerateEP9JSContextN2JS6HandleIP8JSObjectEENS3_13MutableHandleINS3_13StackGCVectorINS3_11PropertyKeyENS_15TempAllocPolicyEEEEE
libmozjs128-debug.so:_ZNK2js29OpaqueCrossCompartmentWrapper12fun_toStringEP9JSContextN2JS6HandleIP8JSObjectEEb
libmozjs128-debug.so:_ZNK2js29OpaqueCrossCompartmentWrapper12getPrototypeEP9JSContextN2JS6HandleIP8JSObjectEENS3_13MutableHandleIS6_EE
libmozjs128-debug.so:_ZNK2js29OpaqueCrossCompartmentWrapper12isExtensibleEP9JSContextN2JS6HandleIP8JSObjectEEPb
libmozjs128-debug.so:_ZNK2js29OpaqueCrossCompartmentWrapper12setPrototypeEP9JSContextN2JS6HandleIP8JSObjectEES7_RNS3_14ObjectOpResultE
libmozjs128-debug.so:_ZNK2js29OpaqueCrossCompartmentWrapper14definePropertyEP9JSContextN2JS6HandleIP8JSObjectEENS4_INS3_11PropertyKeyEEENS4_INS3_18PropertyDescriptorEEERNS3_14ObjectOpResultE
libmozjs128-debug.so:_ZNK2js29OpaqueCrossCompartmentWrapper15getBuiltinClassEP9JSContextN2JS6HandleIP8JSObjectEEPNS_7ESClassE
libmozjs128-debug.so:_ZNK2js29OpaqueCrossCompartmentWrapper15ownPropertyKeysEP9JSContextN2JS6HandleIP8JSObjectEENS3_13MutableHandleINS3_13StackGCVectorINS3_11PropertyKeyENS_15TempAllocPolicyEEEEE
libmozjs128-debug.so:_ZNK2js29OpaqueCrossCompartmentWrapper17preventExtensionsEP9JSContextN2JS6HandleIP8JSObjectEERNS3_14ObjectOpResultE
libmozjs128-debug.so:_ZNK2js29OpaqueCrossCompartmentWrapper21setImmutablePrototypeEP9JSContextN2JS6HandleIP8JSObjectEEPb
libmozjs128-debug.so:_ZNK2js29OpaqueCrossCompartmentWrapper22getPrototypeIfOrdinaryEP9JSContextN2JS6HandleIP8JSObjectEEPbNS3_13MutableHandleIS6_EE
libmozjs128-debug.so:_ZNK2js29OpaqueCrossCompartmentWrapper24getOwnPropertyDescriptorEP9JSContextN2JS6HandleIP8JSObjectEENS4_INS3_11PropertyKeyEEENS3_13MutableHandleIN7mozilla5MaybeINS3_18PropertyDescriptorEEEEE
libmozjs128-debug.so:_ZNK2js29OpaqueCrossCompartmentWrapper28getOwnEnumerablePropertyKeysEP9JSContextN2JS6HandleIP8JSObjectEENS3_13MutableHandleINS3_13StackGCVectorINS3_11PropertyKeyENS_15TempAllocPolicyEEEEE
libmozjs128-debug.so:_ZNK2js29OpaqueCrossCompartmentWrapper3getEP9JSContextN2JS6HandleIP8JSObjectEENS4_INS3_5ValueEEENS4_INS3_11PropertyKeyEEENS3_13MutableHandleIS8_EE
libmozjs128-debug.so:_ZNK2js29OpaqueCrossCompartmentWrapper3hasEP9JSContextN2JS6HandleIP8JSObjectEENS4_INS3_11PropertyKeyEEEPb
libmozjs128-debug.so:_ZNK2js29OpaqueCrossCompartmentWrapper3setEP9JSContextN2JS6HandleIP8JSObjectEENS4_INS3_11PropertyKeyEEENS4_INS3_5ValueEEESB_RNS3_14ObjectOpResultE
libmozjs128-debug.so:_ZNK2js29OpaqueCrossCompartmentWrapper4callEP9JSContextN2JS6HandleIP8JSObjectEERKNS3_8CallArgsE
libmozjs128-debug.so:_ZNK2js29OpaqueCrossCompartmentWrapper6hasOwnEP9JSContextN2JS6HandleIP8JSObjectEENS4_INS3_11PropertyKeyEEEPb
libmozjs128-debug.so:_ZNK2js29OpaqueCrossCompartmentWrapper7delete_EP9JSContextN2JS6HandleIP8JSObjectEENS4_INS3_11PropertyKeyEEERNS3_14ObjectOpResultE
libmozjs128-debug.so:_ZNK2js29OpaqueCrossCompartmentWrapper7isArrayEP9JSContextN2JS6HandleIP8JSObjectEEPNS3_13IsArrayAnswerE
libmozjs128-debug.so:_ZNK2js29OpaqueCrossCompartmentWrapper9classNameEP9JSContextN2JS6HandleIP8JSObjectEE
libmozjs128-debug.so:_ZNK2js29OpaqueCrossCompartmentWrapper9constructEP9JSContextN2JS6HandleIP8JSObjectEERKNS3_8CallArgsE
libmozjs128-debug.so:_ZNK2js29OpaqueCrossCompartmentWrapper9enumerateEP9JSContextN2JS6HandleIP8JSObjectEENS3_13MutableHandleINS3_13StackGCVectorINS3_11PropertyKeyENS_15TempAllocPolicyEEEEE
libmozjs128-debug.so:_ZNK2js7Wrapper20finalizeInBackgroundERKN2JS5ValueE
libmozjs128-debug.so:_ZNK2js9LSprinter10exportIntoERNS_14GenericPrinterE
libmozjs128-debug.so:_ZNK5blink7Decimal3absEv
libmozjs128-debug.so:_ZNK5blink7Decimal4ceilEv
libmozjs128-debug.so:_ZNK5blink7Decimal5floorEv
libmozjs128-debug.so:_ZNK5blink7Decimal5roundEv
libmozjs128-debug.so:_ZNK5blink7Decimal8toDoubleEv
libmozjs128-debug.so:_ZNK5blink7Decimal8toStringB5cxx11Ev
libmozjs128-debug.so:_ZNK5blink7Decimal8toStringEPcm
libmozjs128-debug.so:_ZNK5blink7Decimal9compareToERKS0_
libmozjs128-debug.so:_ZNK5blink7Decimal9remainderERKS0_
libmozjs128-debug.so:_ZNK5blink7DecimaldvERKS0_
libmozjs128-debug.so:_ZNK5blink7DecimaleqERKS0_
libmozjs128-debug.so:_ZNK5blink7DecimalgeERKS0_
libmozjs128-debug.so:_ZNK5blink7DecimalgtERKS0_
libmozjs128-debug.so:_ZNK5blink7DecimalleERKS0_
libmozjs128-debug.so:_ZNK5blink7DecimalltERKS0_
libmozjs128-debug.so:_ZNK5blink7DecimalmiERKS0_
libmozjs128-debug.so:_ZNK5blink7DecimalmlERKS0_
libmozjs128-debug.so:_ZNK5blink7DecimalneERKS0_
libmozjs128-debug.so:_ZNK5blink7DecimalngEv
libmozjs128-debug.so:_ZNK5blink7DecimalplERKS0_
libmozjs128-debug.so:_ZNK6JSAtom12getIndexSlowEv
libmozjs128-debug.so:_ZNK7mozilla14AwakeTimeStampmiERKS0_
libmozjs128-debug.so:_ZNK7mozilla14AwakeTimeStampplERKNS_17AwakeTimeDurationE
libmozjs128-debug.so:_ZNK7mozilla17AwakeTimeDuration14ToMicrosecondsEv
libmozjs128-debug.so:_ZNK7mozilla17AwakeTimeDuration14ToMillisecondsEv
libmozjs128-debug.so:_ZNK7mozilla17AwakeTimeDuration9ToSecondsEv
libmozjs128-debug.so:_ZNK8JSObject10dumpFieldsERN2js11JSONPrinterE
libmozjs128-debug.so:_ZNK8JSObject14hasSameRealmAsEP9JSContext
libmozjs128-debug.so:_ZNK8JSObject17dumpStringContentERN2js14GenericPrinterE
libmozjs128-debug.so:_ZNK8JSObject18allocKindForTenureERKN2js7NurseryE
libmozjs128-debug.so:_ZNK8JSObject21isBackgroundFinalizedEv
libmozjs128-debug.so:_ZNK8JSObject22uninlinedIsProxyObjectEv
libmozjs128-debug.so:_ZNK8JSObject28sizeOfIncludingThisInNurseryEv
libmozjs128-debug.so:_ZNK8JSObject29uninlinedNonProxyIsExtensibleEv
libmozjs128-debug.so:_ZNK8JSObject2isIN2js21ArrayBufferViewObjectEEEbv
libmozjs128-debug.so:_ZNK8JSObject2isIN2js21DebugEnvironmentProxyEEEbv
libmozjs128-debug.so:_ZNK8JSObject2isIN2js23AbstractGeneratorObjectEEEbv
libmozjs128-debug.so:_ZNK8JSObject2isIN2js28ArrayBufferObjectMaybeSharedEEEbv
libmozjs128-debug.so:_ZNK8JSObject4dumpERN2js11JSONPrinterE
libmozjs128-debug.so:_ZNK8JSObject4dumpERN2js14GenericPrinterE
libmozjs128-debug.so:_ZNK8JSObject4dumpEv
libmozjs128-debug.so:_ZNK8JSScript11lookupScopeEPKh
libmozjs128-debug.so:_ZNK8JSScript12isGlobalCodeEv
libmozjs128-debug.so:_ZNK8JSScript14innermostScopeEPKh
libmozjs128-debug.so:_ZNK8JSScript15uninlinedGlobalEv
libmozjs128-debug.so:_ZNK8JSScript18addSizeOfJitScriptEPFmPKvEPmS4_
libmozjs128-debug.so:_ZNK8JSScript20needsBodyEnvironmentEv
libmozjs128-debug.so:_ZNK8JSScript22assertValidJumpTargetsEv
libmozjs128-debug.so:_ZNK8JSScript22isDirectEvalInFunctionEv
libmozjs128-debug.so:_ZNK8JSScript23numAlwaysLiveFixedSlotsEv
libmozjs128-debug.so:_ZNK8JSScript25functionExtraBodyVarScopeEv
libmozjs128-debug.so:_ZNK8JSScript25functionHasParameterExprsEv
libmozjs128-debug.so:_ZNK8JSScript6moduleEv
libmozjs128-debug.so:_ZNK8JSScript7numArgsEv
libmozjs128-debug.so:_ZNK8JSScript8isModuleEv
libmozjs128-debug.so:_ZNK8JSString10dumpFieldsERN2js11JSONPrinterE
libmozjs128-debug.so:_ZNK8JSString15dumpCharsFieldsERN2js11JSONPrinterE
libmozjs128-debug.so:_ZNK8JSString16dumpCharsNoQuoteERN2js14GenericPrinterE
libmozjs128-debug.so:_ZNK8JSString16dumpCommonFieldsERN2js11JSONPrinterE
libmozjs128-debug.so:_ZNK8JSString16dumpPropertyNameERN2js14GenericPrinterE
libmozjs128-debug.so:_ZNK8JSString17dumpStringContentERN2js14GenericPrinterE
libmozjs128-debug.so:_ZNK8JSString17encodeUTF8PartialERKN2JS15AutoRequireNoGCEN7mozilla4SpanIcLm18446744073709551615EEE
libmozjs128-debug.so:_ZNK8JSString18dumpRepresentationERN2js11JSONPrinterE
libmozjs128-debug.so:_ZNK8JSString18dumpRepresentationERN2js14GenericPrinterE
libmozjs128-debug.so:_ZNK8JSString18dumpRepresentationEv
libmozjs128-debug.so:_ZNK8JSString20dumpCharsSingleQuoteERN2js14GenericPrinterE
libmozjs128-debug.so:_ZNK8JSString24dumpRepresentationFieldsERN2js11JSONPrinterE
libmozjs128-debug.so:_ZNK8JSString4dumpERN2js11JSONPrinterE
libmozjs128-debug.so:_ZNK8JSString4dumpERN2js14GenericPrinterE
libmozjs128-debug.so:_ZNK8JSString4dumpEv
libmozjs128-debug.so:_ZNK8JSString9dumpCharsERN2js14GenericPrinterE
libmozjs128-debug.so:_ZNK9JSContext11inAtomsZoneEv
libmozjs128-debug.so:_ZNK9JSContext19sizeOfExcludingThisEPFmPKvE
libmozjs128-debug.so:_ZNK9JSContext19sizeOfIncludingThisEPFmPKvE
libmozjs128-debug.so:abort
libmozjs128-debug.so:clearenv
libmozjs128-debug.so:decoder_decode_to_utf16
libmozjs128-debug.so:decoder_decode_to_utf16_without_replacement
libmozjs128-debug.so:decoder_decode_to_utf8
libmozjs128-debug.so:decoder_decode_to_utf8_without_replacement
libmozjs128-debug.so:decoder_encoding
libmozjs128-debug.so:decoder_free
libmozjs128-debug.so:decoder_latin1_byte_compatible_up_to
libmozjs128-debug.so:decoder_max_utf16_buffer_length
libmozjs128-debug.so:decoder_max_utf8_buffer_length
libmozjs128-debug.so:decoder_max_utf8_buffer_length_without_replacement
libmozjs128-debug.so:encoder_encode_from_utf16
libmozjs128-debug.so:encoder_encode_from_utf16_without_replacement
libmozjs128-debug.so:encoder_encode_from_utf8
libmozjs128-debug.so:encoder_encode_from_utf8_without_replacement
libmozjs128-debug.so:encoder_encoding
libmozjs128-debug.so:encoder_free
libmozjs128-debug.so:encoder_has_pending_state
libmozjs128-debug.so:encoder_max_buffer_length_from_utf16_if_no_unmappables
libmozjs128-debug.so:encoder_max_buffer_length_from_utf16_without_replacement
libmozjs128-debug.so:encoder_max_buffer_length_from_utf8_if_no_unmappables
libmozjs128-debug.so:encoder_max_buffer_length_from_utf8_without_replacement
libmozjs128-debug.so:encoding_can_encode_everything
libmozjs128-debug.so:encoding_for_bom
libmozjs128-debug.so:encoding_for_label
libmozjs128-debug.so:encoding_for_label_no_replacement
libmozjs128-debug.so:encoding_is_ascii_compatible
libmozjs128-debug.so:encoding_is_single_byte
libmozjs128-debug.so:encoding_iso_2022_jp_ascii_valid_up_to
libmozjs128-debug.so:encoding_mem_check_str_for_latin1_and_bidi
libmozjs128-debug.so:encoding_mem_check_utf16_for_latin1_and_bidi
libmozjs128-debug.so:encoding_mem_check_utf8_for_latin1_and_bidi
libmozjs128-debug.so:encoding_mem_convert_latin1_to_utf8
libmozjs128-debug.so:encoding_mem_convert_str_to_utf16
libmozjs128-debug.so:encoding_mem_convert_utf8_to_latin1_lossy
libmozjs128-debug.so:encoding_mem_convert_utf8_to_utf16
libmozjs128-debug.so:encoding_mem_convert_utf8_to_utf16_without_replacement
libmozjs128-debug.so:encoding_mem_copy_ascii_to_ascii
libmozjs128-debug.so:encoding_mem_copy_ascii_to_basic_latin
libmozjs128-debug.so:encoding_mem_copy_basic_latin_to_ascii
libmozjs128-debug.so:encoding_mem_is_char_bidi
libmozjs128-debug.so:encoding_mem_is_str_bidi
libmozjs128-debug.so:encoding_mem_is_str_latin1
libmozjs128-debug.so:encoding_mem_is_utf16_bidi
libmozjs128-debug.so:encoding_mem_is_utf16_code_unit_bidi
libmozjs128-debug.so:encoding_mem_is_utf8_bidi
libmozjs128-debug.so:encoding_mem_str_latin1_up_to
libmozjs128-debug.so:encoding_mem_utf8_latin1_up_to
libmozjs128-debug.so:encoding_name
libmozjs128-debug.so:encoding_new_decoder
libmozjs128-debug.so:encoding_new_decoder_into
libmozjs128-debug.so:encoding_new_decoder_with_bom_removal
libmozjs128-debug.so:encoding_new_decoder_with_bom_removal_into
libmozjs128-debug.so:encoding_new_decoder_without_bom_handling
libmozjs128-debug.so:encoding_new_decoder_without_bom_handling_into
libmozjs128-debug.so:encoding_new_encoder
libmozjs128-debug.so:encoding_new_encoder_into
libmozjs128-debug.so:encoding_output_encoding
libmozjs128-debug.so:fprint_stderr
libmozjs128-debug.so:fprintf_stderr
libmozjs128-debug.so:gMozCrashReason
libmozjs128-debug.so:gMozillaPoisonBase
libmozjs128-debug.so:gMozillaPoisonSize
libmozjs128-debug.so:gMozillaPoisonValue
libmozjs128-debug.so:gOOMAllocationSize
libmozjs128-debug.so:getenv
libmozjs128-debug.so:moz_arena_calloc
libmozjs128-debug.so:moz_arena_free
libmozjs128-debug.so:moz_arena_malloc
libmozjs128-debug.so:moz_arena_memalign
libmozjs128-debug.so:moz_arena_realloc
libmozjs128-debug.so:moz_create_arena_with_params
libmozjs128-debug.so:moz_dispose_arena
libmozjs128-debug.so:moz_malloc_enclosing_size_of
libmozjs128-debug.so:moz_malloc_size_of
libmozjs128-debug.so:moz_malloc_usable_size
libmozjs128-debug.so:moz_set_max_dirty_page_modifier
libmozjs128-debug.so:moz_xcalloc
libmozjs128-debug.so:moz_xmalloc
libmozjs128-debug.so:moz_xmemalign
libmozjs128-debug.so:moz_xmemdup
libmozjs128-debug.so:moz_xrealloc
libmozjs128-debug.so:moz_xstrdup
libmozjs128-debug.so:moz_xstrndup
libmozjs128-debug.so:mozalloc_abort
libmozjs128-debug.so:mozjs128_debug
libmozjs128-debug.so:print_stderr
libmozjs128-debug.so:printf_stderr
libmozjs128-debug.so:putenv
libmozjs128-debug.so:rust_eh_personality
libmozjs128-debug.so:setenv
libmozjs128-debug.so:unsetenv
libmozjs128-debug.so:vprintf_stderr
libmozjs128-release.so:BIG5_ENCODING
libmozjs128-release.so:EUC_JP_ENCODING
libmozjs128-release.so:EUC_KR_ENCODING
libmozjs128-release.so:GB18030_ENCODING
libmozjs128-release.so:GBK_ENCODING
libmozjs128-release.so:IBM866_ENCODING
libmozjs128-release.so:ICU4XDataProvider_create_compiled
libmozjs128-release.so:ICU4XDataProvider_create_empty
libmozjs128-release.so:ICU4XDataProvider_destroy
libmozjs128-release.so:ICU4XDataProvider_enable_locale_fallback
libmozjs128-release.so:ICU4XDataProvider_fork_by_key
libmozjs128-release.so:ICU4XDataProvider_fork_by_locale
libmozjs128-release.so:ICU4XDataStruct_destroy
libmozjs128-release.so:ICU4XError_destroy
libmozjs128-release.so:ICU4XGraphemeClusterBreakIteratorLatin1_destroy
libmozjs128-release.so:ICU4XGraphemeClusterBreakIteratorLatin1_next
libmozjs128-release.so:ICU4XGraphemeClusterBreakIteratorUtf16_destroy
libmozjs128-release.so:ICU4XGraphemeClusterBreakIteratorUtf16_next
libmozjs128-release.so:ICU4XGraphemeClusterBreakIteratorUtf8_destroy
libmozjs128-release.so:ICU4XGraphemeClusterBreakIteratorUtf8_next
libmozjs128-release.so:ICU4XGraphemeClusterSegmenter_create
libmozjs128-release.so:ICU4XGraphemeClusterSegmenter_destroy
libmozjs128-release.so:ICU4XGraphemeClusterSegmenter_segment_latin1
libmozjs128-release.so:ICU4XGraphemeClusterSegmenter_segment_utf16
libmozjs128-release.so:ICU4XGraphemeClusterSegmenter_segment_utf8
libmozjs128-release.so:ICU4XLineBreakIteratorLatin1_destroy
libmozjs128-release.so:ICU4XLineBreakIteratorLatin1_next
libmozjs128-release.so:ICU4XLineBreakIteratorUtf16_destroy
libmozjs128-release.so:ICU4XLineBreakIteratorUtf16_next
libmozjs128-release.so:ICU4XLineBreakIteratorUtf8_destroy
libmozjs128-release.so:ICU4XLineBreakIteratorUtf8_next
libmozjs128-release.so:ICU4XLineBreakOptionsV1_destroy
libmozjs128-release.so:ICU4XLineBreakStrictness_destroy
libmozjs128-release.so:ICU4XLineBreakWordOption_destroy
libmozjs128-release.so:ICU4XLineSegmenter_create_auto
libmozjs128-release.so:ICU4XLineSegmenter_create_auto_with_options_v1
libmozjs128-release.so:ICU4XLineSegmenter_create_dictionary
libmozjs128-release.so:ICU4XLineSegmenter_create_dictionary_with_options_v1
libmozjs128-release.so:ICU4XLineSegmenter_create_lstm
libmozjs128-release.so:ICU4XLineSegmenter_create_lstm_with_options_v1
libmozjs128-release.so:ICU4XLineSegmenter_destroy
libmozjs128-release.so:ICU4XLineSegmenter_segment_latin1
libmozjs128-release.so:ICU4XLineSegmenter_segment_utf16
libmozjs128-release.so:ICU4XLineSegmenter_segment_utf8
libmozjs128-release.so:ICU4XLocale_basename
libmozjs128-release.so:ICU4XLocale_canonicalize
libmozjs128-release.so:ICU4XLocale_clone
libmozjs128-release.so:ICU4XLocale_create_from_string
libmozjs128-release.so:ICU4XLocale_create_und
libmozjs128-release.so:ICU4XLocale_destroy
libmozjs128-release.so:ICU4XLocale_get_unicode_extension
libmozjs128-release.so:ICU4XLocale_language
libmozjs128-release.so:ICU4XLocale_normalizing_eq
libmozjs128-release.so:ICU4XLocale_region
libmozjs128-release.so:ICU4XLocale_script
libmozjs128-release.so:ICU4XLocale_set_language
libmozjs128-release.so:ICU4XLocale_set_region
libmozjs128-release.so:ICU4XLocale_set_script
libmozjs128-release.so:ICU4XLocale_strict_cmp
libmozjs128-release.so:ICU4XLocale_to_string
libmozjs128-release.so:ICU4XOrdering_destroy
libmozjs128-release.so:ICU4XSegmenterWordType_destroy
libmozjs128-release.so:ICU4XSentenceBreakIteratorLatin1_destroy
libmozjs128-release.so:ICU4XSentenceBreakIteratorLatin1_next
libmozjs128-release.so:ICU4XSentenceBreakIteratorUtf16_destroy
libmozjs128-release.so:ICU4XSentenceBreakIteratorUtf16_next
libmozjs128-release.so:ICU4XSentenceBreakIteratorUtf8_destroy
libmozjs128-release.so:ICU4XSentenceBreakIteratorUtf8_next
libmozjs128-release.so:ICU4XSentenceSegmenter_create
libmozjs128-release.so:ICU4XSentenceSegmenter_destroy
libmozjs128-release.so:ICU4XSentenceSegmenter_segment_latin1
libmozjs128-release.so:ICU4XSentenceSegmenter_segment_utf16
libmozjs128-release.so:ICU4XSentenceSegmenter_segment_utf8
libmozjs128-release.so:ICU4XWordBreakIteratorLatin1_destroy
libmozjs128-release.so:ICU4XWordBreakIteratorLatin1_is_word_like
libmozjs128-release.so:ICU4XWordBreakIteratorLatin1_next
libmozjs128-release.so:ICU4XWordBreakIteratorLatin1_word_type
libmozjs128-release.so:ICU4XWordBreakIteratorUtf16_destroy
libmozjs128-release.so:ICU4XWordBreakIteratorUtf16_is_word_like
libmozjs128-release.so:ICU4XWordBreakIteratorUtf16_next
libmozjs128-release.so:ICU4XWordBreakIteratorUtf16_word_type
libmozjs128-release.so:ICU4XWordBreakIteratorUtf8_destroy
libmozjs128-release.so:ICU4XWordBreakIteratorUtf8_is_word_like
libmozjs128-release.so:ICU4XWordBreakIteratorUtf8_next
libmozjs128-release.so:ICU4XWordBreakIteratorUtf8_word_type
libmozjs128-release.so:ICU4XWordSegmenter_create_auto
libmozjs128-release.so:ICU4XWordSegmenter_create_dictionary
libmozjs128-release.so:ICU4XWordSegmenter_create_lstm
libmozjs128-release.so:ICU4XWordSegmenter_destroy
libmozjs128-release.so:ICU4XWordSegmenter_segment_latin1
libmozjs128-release.so:ICU4XWordSegmenter_segment_utf16
libmozjs128-release.so:ICU4XWordSegmenter_segment_utf8
libmozjs128-release.so:ISO_2022_JP_ENCODING
libmozjs128-release.so:ISO_8859_10_ENCODING
libmozjs128-release.so:ISO_8859_13_ENCODING
libmozjs128-release.so:ISO_8859_14_ENCODING
libmozjs128-release.so:ISO_8859_15_ENCODING
libmozjs128-release.so:ISO_8859_16_ENCODING
libmozjs128-release.so:ISO_8859_2_ENCODING
libmozjs128-release.so:ISO_8859_3_ENCODING
libmozjs128-release.so:ISO_8859_4_ENCODING
libmozjs128-release.so:ISO_8859_5_ENCODING
libmozjs128-release.so:ISO_8859_6_ENCODING
libmozjs128-release.so:ISO_8859_7_ENCODING
libmozjs128-release.so:ISO_8859_8_ENCODING
libmozjs128-release.so:ISO_8859_8_I_ENCODING
libmozjs128-release.so:KOI8_R_ENCODING
libmozjs128-release.so:KOI8_U_ENCODING
libmozjs128-release.so:LZ4F_compressBegin
libmozjs128-release.so:LZ4F_compressBound
libmozjs128-release.so:LZ4F_compressEnd
libmozjs128-release.so:LZ4F_compressFrame
libmozjs128-release.so:LZ4F_compressFrameBound
libmozjs128-release.so:LZ4F_compressUpdate
libmozjs128-release.so:LZ4F_compressionLevel_max
libmozjs128-release.so:LZ4F_createCompressionContext
libmozjs128-release.so:LZ4F_createDecompressionContext
libmozjs128-release.so:LZ4F_decompress
libmozjs128-release.so:LZ4F_flush
libmozjs128-release.so:LZ4F_freeCompressionContext
libmozjs128-release.so:LZ4F_freeDecompressionContext
libmozjs128-release.so:LZ4F_getErrorName
libmozjs128-release.so:LZ4F_getFrameInfo
libmozjs128-release.so:LZ4F_getVersion
libmozjs128-release.so:LZ4F_headerSize
libmozjs128-release.so:LZ4F_isError
libmozjs128-release.so:LZ4F_resetDecompressionContext
libmozjs128-release.so:MACINTOSH_ENCODING
libmozjs128-release.so:MOZ_CrashPrintf
libmozjs128-release.so:MozDescribeCodeAddress
libmozjs128-release.so:MozFormatCodeAddress
libmozjs128-release.so:MozFormatCodeAddressDetails
libmozjs128-release.so:MozStackWalk
libmozjs128-release.so:MozTagAnonymousMemory
libmozjs128-release.so:MozTaggedAnonymousMmap
libmozjs128-release.so:MozWalkTheStack
libmozjs128-release.so:MozWalkTheStackWithWriter
libmozjs128-release.so:REPLACEMENT_ENCODING
libmozjs128-release.so:SHIFT_JIS_ENCODING
libmozjs128-release.so:UTF_16BE_ENCODING
libmozjs128-release.so:UTF_16LE_ENCODING
libmozjs128-release.so:UTF_8_ENCODING
libmozjs128-release.so:WINDOWS_1250_ENCODING
libmozjs128-release.so:WINDOWS_1251_ENCODING
libmozjs128-release.so:WINDOWS_1252_ENCODING
libmozjs128-release.so:WINDOWS_1253_ENCODING
libmozjs128-release.so:WINDOWS_1254_ENCODING
libmozjs128-release.so:WINDOWS_1255_ENCODING
libmozjs128-release.so:WINDOWS_1256_ENCODING
libmozjs128-release.so:WINDOWS_1257_ENCODING
libmozjs128-release.so:WINDOWS_1258_ENCODING
libmozjs128-release.so:WINDOWS_874_ENCODING
libmozjs128-release.so:X_MAC_CYRILLIC_ENCODING
libmozjs128-release.so:X_USER_DEFINED_ENCODING
libmozjs128-release.so:_RNvNtCsh60fBBS5e0U_3std9panicking11EMPTY_PANIC
libmozjs128-release.so:_RNvNtNtNtNtCsh60fBBS5e0U_3std3sys4args4unix3imp15ARGV_INIT_ARRAY
libmozjs128-release.so:_Z10JS_MaybeGCP9JSContext
libmozjs128-release.so:_Z10JS_reallocP9JSContextPvmm
libmozjs128-release.so:_Z11JS_IsNativeP8JSObject
libmozjs128-release.so:_Z11JS_ShutDownv
libmozjs128-release.so:_Z11JS_smprintfPKcz
libmozjs128-release.so:_Z11js_StopPerfv
libmozjs128-release.so:_Z12JS_CharsToIdP9JSContextN2JS12TwoByteCharsENS1_13MutableHandleINS1_11PropertyKeyEEE
libmozjs128-release.so:_Z12JS_EnumerateP9JSContextN2JS6HandleIP8JSObjectEENS1_13MutableHandleINS1_8GCVectorINS1_11PropertyKeyELm0EN2js15TempAllocPolicyEEEEE
libmozjs128-release.so:_Z12JS_IdToValueP9JSContextN2JS11PropertyKeyENS1_13MutableHandleINS1_5ValueEEE
libmozjs128-release.so:_Z12JS_IndexToIdP9JSContextjN2JS13MutableHandleINS1_11PropertyKeyEEE
libmozjs128-release.so:_Z12JS_InitClassP9JSContextN2JS6HandleIP8JSObjectEEPK7JSClassS5_PKcPFbS0_jPNS1_5ValueEEjPK14JSPropertySpecPK14JSFunctionSpecSH_SK_
libmozjs128-release.so:_Z12JS_NewObjectP9JSContextPK7JSClass
libmozjs128-release.so:_Z12JS_ParseJSONP9JSContextN2JS6HandleIP8JSStringEENS1_13MutableHandleINS1_5ValueEEE
libmozjs128-release.so:_Z12JS_ParseJSONP9JSContextPKDsjN2JS13MutableHandleINS3_5ValueEEE
libmozjs128-release.so:_Z12JS_ParseJSONP9JSContextPKhjN2JS13MutableHandleINS3_5ValueEEE
libmozjs128-release.so:_Z12JS_ReadBytesP23JSStructuredCloneReaderPvm
libmozjs128-release.so:_Z12JS_StringifyP9JSContextN2JS13MutableHandleINS1_5ValueEEENS1_6HandleIP8JSObjectEENS5_IS3_EEPFbPKDsjPvESC_
libmozjs128-release.so:_Z12JS_ValueToIdP9JSContextN2JS6HandleINS1_5ValueEEENS1_13MutableHandleINS1_11PropertyKeyEEE
libmozjs128-release.so:_Z12JS_WrapValueP9JSContextN2JS13MutableHandleINS1_5ValueEEE
libmozjs128-release.so:_Z12JS_vsmprintfPKcP13__va_list_tag
libmozjs128-release.so:_Z12js_StartPerfv
libmozjs128-release.so:_Z13JS_GetElementP9JSContextN2JS6HandleIP8JSObjectEEjNS1_13MutableHandleINS1_5ValueEEE
libmozjs128-release.so:_Z13JS_GetRuntimeP9JSContext
libmozjs128-release.so:_Z13JS_HasElementP9JSContextN2JS6HandleIP8JSObjectEEjPb
libmozjs128-release.so:_Z13JS_InstanceOfP9JSContextN2JS6HandleIP8JSObjectEEPK7JSClassPNS1_8CallArgsE
libmozjs128-release.so:_Z13JS_NewContextjP9JSRuntime
libmozjs128-release.so:_Z13JS_ReadDoubleP23JSStructuredCloneReaderPd
libmozjs128-release.so:_Z13JS_ReadStringP23JSStructuredCloneReaderN2JS13MutableHandleIP8JSStringEE
libmozjs128-release.so:_Z13JS_SetElementP9JSContextN2JS6HandleIP8JSObjectEEjNS2_INS1_5ValueEEE
libmozjs128-release.so:_Z13JS_SetElementP9JSContextN2JS6HandleIP8JSObjectEEjNS2_IP8JSStringEE
libmozjs128-release.so:_Z13JS_SetElementP9JSContextN2JS6HandleIP8JSObjectEEjS5_
libmozjs128-release.so:_Z13JS_SetElementP9JSContextN2JS6HandleIP8JSObjectEEjd
libmozjs128-release.so:_Z13JS_SetElementP9JSContextN2JS6HandleIP8JSObjectEEji
libmozjs128-release.so:_Z13JS_SetElementP9JSContextN2JS6HandleIP8JSObjectEEjj
libmozjs128-release.so:_Z13JS_StringToIdP9JSContextN2JS6HandleIP8JSStringEENS1_13MutableHandleINS1_11PropertyKeyEEE
libmozjs128-release.so:_Z13JS_WrapObjectP9JSContextN2JS13MutableHandleIP8JSObjectEE
libmozjs128-release.so:_Z13JS_WriteBytesP23JSStructuredCloneWriterPKvm
libmozjs128-release.so:_Z14JS_CloneObjectP9JSContextN2JS6HandleIP8JSObjectEES5_
libmozjs128-release.so:_Z14JS_DecodeBytesP9JSContextPKcmPDsPm
libmozjs128-release.so:_Z14JS_DumpProfilePKcS0_
libmozjs128-release.so:_Z14JS_GetPropertyP9JSContextN2JS6HandleIP8JSObjectEEPKcNS1_13MutableHandleINS1_5ValueEEE
libmozjs128-release.so:_Z14JS_HasInstanceP9JSContextN2JS6HandleIP8JSObjectEENS2_INS1_5ValueEEEPb
libmozjs128-release.so:_Z14JS_HasPropertyP9JSContextN2JS6HandleIP8JSObjectEEPKcPb
libmozjs128-release.so:_Z14JS_NewDataViewP9JSContextN2JS6HandleIP8JSObjectEEmm
libmozjs128-release.so:_Z14JS_NewFunctionP9JSContextPFbS0_jPN2JS5ValueEEjjPKc
libmozjs128-release.so:_Z14JS_NewUCStringP9JSContextN7mozilla9UniquePtrIA_DsN2JS10FreePolicyEEEm
libmozjs128-release.so:_Z14JS_SetPropertyP9JSContextN2JS6HandleIP8JSObjectEEPKcNS2_INS1_5ValueEEE
libmozjs128-release.so:_Z14JS_TypeOfValueP9JSContextN2JS6HandleINS1_5ValueEEE
libmozjs128-release.so:_Z14JS_WriteDoubleP23JSStructuredCloneWriterd
libmozjs128-release.so:_Z14JS_WriteStringP23JSStructuredCloneWriterN2JS6HandleIP8JSStringEE
libmozjs128-release.so:_Z14JS_string_freeP9JSContextPv
libmozjs128-release.so:_Z15JS_AssignObjectP9JSContextN2JS6HandleIP8JSObjectEES5_
libmozjs128-release.so:_Z15JS_CallFunctionP9JSContextN2JS6HandleIP8JSObjectEENS2_IP10JSFunctionEERKNS1_16HandleValueArrayENS1_13MutableHandleINS1_5ValueEEE
libmozjs128-release.so:_Z15JS_DefineObjectP9JSContextN2JS6HandleIP8JSObjectEEPKcPK7JSClassj
libmozjs128-release.so:_Z15JS_FreezeObjectP9JSContextN2JS6HandleIP8JSObjectEE
libmozjs128-release.so:_Z15JS_GetErrorTypeRKN2JS5ValueE
libmozjs128-release.so:_Z15JS_GetPrototypeP9JSContextN2JS6HandleIP8JSObjectEENS1_13MutableHandleIS4_EE
libmozjs128-release.so:_Z15JS_IdToProtoKeyP9JSContextN2JS6HandleINS1_11PropertyKeyEEE
libmozjs128-release.so:_Z15JS_IsExtensibleP9JSContextN2JS6HandleIP8JSObjectEEPb
libmozjs128-release.so:_Z15JS_IsIdentifierP9JSContextN2JS6HandleIP8JSStringEEPb
libmozjs128-release.so:_Z15JS_IsIdentifierPKDsm
libmozjs128-release.so:_Z15JS_NewInt8ArrayP9JSContextm
libmozjs128-release.so:_Z15JS_SetPrototypeP9JSContextN2JS6HandleIP8JSObjectEES5_
libmozjs128-release.so:_Z16JS_AtomizeStringP9JSContextPKc
libmozjs128-release.so:_Z16JS_ConcatStringsP9JSContextN2JS6HandleIP8JSStringEES5_
libmozjs128-release.so:_Z16JS_DefineElementP9JSContextN2JS6HandleIP8JSObjectEEjNS2_INS1_5ValueEEEj
libmozjs128-release.so:_Z16JS_DefineElementP9JSContextN2JS6HandleIP8JSObjectEEjNS2_IP8JSStringEEj
libmozjs128-release.so:_Z16JS_DefineElementP9JSContextN2JS6HandleIP8JSObjectEEjS5_S5_j
libmozjs128-release.so:_Z16JS_DefineElementP9JSContextN2JS6HandleIP8JSObjectEEjS5_j
libmozjs128-release.so:_Z16JS_DefineElementP9JSContextN2JS6HandleIP8JSObjectEEjdj
libmozjs128-release.so:_Z16JS_DefineElementP9JSContextN2JS6HandleIP8JSObjectEEjij
libmozjs128-release.so:_Z16JS_DefineElementP9JSContextN2JS6HandleIP8JSObjectEEjjj
libmozjs128-release.so:_Z16JS_DeleteElementP9JSContextN2JS6HandleIP8JSObjectEEj
libmozjs128-release.so:_Z16JS_DeleteElementP9JSContextN2JS6HandleIP8JSObjectEEjRNS1_14ObjectOpResultE
libmozjs128-release.so:_Z16JS_DoubleIsInt32dPi
libmozjs128-release.so:_Z16JS_ExecuteScriptP9JSContextN2JS6HandleINS1_13StackGCVectorIP8JSObjectN2js15TempAllocPolicyEEEEENS2_IP8JSScriptEE
libmozjs128-release.so:_Z16JS_ExecuteScriptP9JSContextN2JS6HandleINS1_13StackGCVectorIP8JSObjectN2js15TempAllocPolicyEEEEENS2_IP8JSScriptEENS1_13MutableHandleINS1_5ValueEEE
libmozjs128-release.so:_Z16JS_ExecuteScriptP9JSContextN2JS6HandleIP8JSScriptEE
libmozjs128-release.so:_Z16JS_ExecuteScriptP9JSContextN2JS6HandleIP8JSScriptEENS1_13MutableHandleINS1_5ValueEEE
libmozjs128-release.so:_Z16JS_GetFunctionIdP9JSContextN2JS6HandleIP10JSFunctionEENS1_13MutableHandleIP8JSStringEE
libmozjs128-release.so:_Z16JS_GetUCPropertyP9JSContextN2JS6HandleIP8JSObjectEEPKDsmNS1_13MutableHandleINS1_5ValueEEE
libmozjs128-release.so:_Z16JS_HasUCPropertyP9JSContextN2JS6HandleIP8JSObjectEEPKDsmPb
libmozjs128-release.so:_Z16JS_IsConstructorP10JSFunction
libmozjs128-release.so:_Z16JS_IsDeadWrapperP8JSObject
libmozjs128-release.so:_Z16JS_NewInt16ArrayP9JSContextm
libmozjs128-release.so:_Z16JS_NewInt32ArrayP9JSContextm
libmozjs128-release.so:_Z16JS_NewUint8ArrayP9JSContextm
libmozjs128-release.so:_Z16JS_SetGCCallbackP9JSContextPFvS0_10JSGCStatusN2JS8GCReasonEPvES4_
libmozjs128-release.so:_Z16JS_SetUCPropertyP9JSContextN2JS6HandleIP8JSObjectEEPKDsmNS2_INS1_5ValueEEE
libmozjs128-release.so:_Z16JS_StopProfilingPKc
libmozjs128-release.so:_Z16JS_ValueToObjectP9JSContextN2JS6HandleINS1_5ValueEEENS1_13MutableHandleIP8JSObjectEE
libmozjs128-release.so:_Z16JS_ValueToSourceP9JSContextN2JS6HandleINS1_5ValueEEE
libmozjs128-release.so:_Z16JS_string_mallocP9JSContextm
libmozjs128-release.so:_Z17JS_AtomizeStringNP9JSContextPKcm
libmozjs128-release.so:_Z17JS_CompareStringsP9JSContextP8JSStringS2_Pi
libmozjs128-release.so:_Z17JS_DefineFunctionP9JSContextN2JS6HandleIP8JSObjectEEPKcPFbS0_jPNS1_5ValueEEjj
libmozjs128-release.so:_Z17JS_DefinePropertyP9JSContextN2JS6HandleIP8JSObjectEEPKcNS2_INS1_5ValueEEEj
libmozjs128-release.so:_Z17JS_DefinePropertyP9JSContextN2JS6HandleIP8JSObjectEEPKcNS2_IP8JSStringEEj
libmozjs128-release.so:_Z17JS_DefinePropertyP9JSContextN2JS6HandleIP8JSObjectEEPKcPFbS0_jPNS1_5ValueEESB_j
libmozjs128-release.so:_Z17JS_DefinePropertyP9JSContextN2JS6HandleIP8JSObjectEEPKcS5_S5_j
libmozjs128-release.so:_Z17JS_DefinePropertyP9JSContextN2JS6HandleIP8JSObjectEEPKcS5_j
libmozjs128-release.so:_Z17JS_DefinePropertyP9JSContextN2JS6HandleIP8JSObjectEEPKcdj
libmozjs128-release.so:_Z17JS_DefinePropertyP9JSContextN2JS6HandleIP8JSObjectEEPKcij
libmozjs128-release.so:_Z17JS_DefinePropertyP9JSContextN2JS6HandleIP8JSObjectEEPKcjj
libmozjs128-release.so:_Z17JS_DeletePropertyP9JSContextN2JS6HandleIP8JSObjectEEPKc
libmozjs128-release.so:_Z17JS_DeletePropertyP9JSContextN2JS6HandleIP8JSObjectEEPKcRNS1_14ObjectOpResultE
libmozjs128-release.so:_Z17JS_DestroyContextP9JSContext
libmozjs128-release.so:_Z17JS_DropPrincipalsP9JSContextP12JSPrincipals
libmozjs128-release.so:_Z17JS_GetClassObjectP9JSContext10JSProtoKeyN2JS13MutableHandleIP8JSObjectEE
libmozjs128-release.so:_Z17JS_GetConstructorP9JSContextN2JS6HandleIP8JSObjectEE
libmozjs128-release.so:_Z17JS_GetEmptyStringP9JSContext
libmozjs128-release.so:_Z17JS_GetGCParameterP9JSContext12JSGCParamKey
libmozjs128-release.so:_Z17JS_HasOwnPropertyP9JSContextN2JS6HandleIP8JSObjectEEPKcPb
libmozjs128-release.so:_Z17JS_HoldPrincipalsP12JSPrincipals
libmozjs128-release.so:_Z17JS_IsGlobalObjectP8JSObject
libmozjs128-release.so:_Z17JS_NewDeadWrapperP9JSContextP8JSObject
libmozjs128-release.so:_Z17JS_NewPlainObjectP9JSContext
libmozjs128-release.so:_Z17JS_NewStringCopyNP9JSContextPKcm
libmozjs128-release.so:_Z17JS_NewStringCopyZP9JSContextPKc
libmozjs128-release.so:_Z17JS_NewUint16ArrayP9JSContextm
libmozjs128-release.so:_Z17JS_NewUint32ArrayP9JSContextm
libmozjs128-release.so:_Z17JS_PCToLineNumberP8JSScriptPhPN2JS28LimitedColumnNumberOneOriginE
libmozjs128-release.so:_Z17JS_PauseProfilersPKc
libmozjs128-release.so:_Z17JS_ReadTypedArrayP23JSStructuredCloneReaderN2JS13MutableHandleINS1_5ValueEEE
libmozjs128-release.so:_Z17JS_ReadUint32PairP23JSStructuredCloneReaderPjS1_
libmozjs128-release.so:_Z17JS_SetGCParameterP9JSContext12JSGCParamKeyj
libmozjs128-release.so:_Z17JS_StartProfilingPKci
libmozjs128-release.so:_Z17JS_StringIsLinearP8JSString
libmozjs128-release.so:_Z17JS_sprintf_appendON7mozilla9UniquePtrIA_cN2JS10FreePolicyEEEPKcz
libmozjs128-release.so:_Z17JS_string_reallocP9JSContextPvmm
libmozjs128-release.so:_Z18JS_AtomizeUCStringP9JSContextPKDs
libmozjs128-release.so:_Z18JS_CopyStringCharsP9JSContextRKN7mozilla5RangeIDsEEP8JSString
libmozjs128-release.so:_Z18JS_DecompileScriptP9JSContextN2JS6HandleIP8JSScriptEE
libmozjs128-release.so:_Z18JS_DefineFunctionsP9JSContextN2JS6HandleIP8JSObjectEEPK14JSFunctionSpec
libmozjs128-release.so:_Z18JS_GetPropertyByIdP9JSContextN2JS6HandleIP8JSObjectEENS2_INS1_11PropertyKeyEEENS1_13MutableHandleINS1_5ValueEEE
libmozjs128-release.so:_Z18JS_GetStringCharAtP9JSContextP8JSStringmPDs
libmozjs128-release.so:_Z18JS_GetStringLengthP8JSString
libmozjs128-release.so:_Z18JS_GetZoneUserDataPN2JS4ZoneE
libmozjs128-release.so:_Z18JS_HasPropertyByIdP9JSContextN2JS6HandleIP8JSObjectEENS2_INS1_11PropertyKeyEEEPb
libmozjs128-release.so:_Z18JS_MarkCrossZoneIdP9JSContextN2JS11PropertyKeyE
libmozjs128-release.so:_Z18JS_NewFloat16ArrayP9JSContextm
libmozjs128-release.so:_Z18JS_NewFloat32ArrayP9JSContextm
libmozjs128-release.so:_Z18JS_NewFloat64ArrayP9JSContextm
libmozjs128-release.so:_Z18JS_NewGlobalObjectP9JSContextPK7JSClassP12JSPrincipalsN2JS21OnNewGlobalHookOptionERKNS6_12RealmOptionsE
libmozjs128-release.so:_Z18JS_NewLatin1StringP9JSContextN7mozilla9UniquePtrIA_hN2JS10FreePolicyEEEm
libmozjs128-release.so:_Z18JS_ReportErrorUTF8P9JSContextPKcz
libmozjs128-release.so:_Z18JS_ResumeProfilersPKc
libmozjs128-release.so:_Z18JS_SetFutexCanWaitP9JSContext
libmozjs128-release.so:_Z18JS_SetPropertyByIdP9JSContextN2JS6HandleIP8JSObjectEENS2_INS1_11PropertyKeyEEENS2_INS1_5ValueEEE
libmozjs128-release.so:_Z18JS_SetReservedSlotP8JSObjectjRKN2JS5ValueE
libmozjs128-release.so:_Z18JS_SetZoneUserDataPN2JS4ZoneEPv
libmozjs128-release.so:_Z18JS_StructuredCloneP9JSContextN2JS6HandleINS1_5ValueEEENS1_13MutableHandleIS3_EEPK26JSStructuredCloneCallbacksPv
libmozjs128-release.so:_Z18JS_ValueToFunctionP9JSContextN2JS6HandleINS1_5ValueEEE
libmozjs128-release.so:_Z18JS_WriteTypedArrayP23JSStructuredCloneWriterN2JS6HandleINS1_5ValueEEE
libmozjs128-release.so:_Z18JS_WriteUint32PairP23JSStructuredCloneWriterjj
libmozjs128-release.so:_Z18JS_vsprintf_appendON7mozilla9UniquePtrIA_cN2JS10FreePolicyEEEPKcP13__va_list_tag
libmozjs128-release.so:_Z19JS_AtomizeUCStringNP9JSContextPKDsm
libmozjs128-release.so:_Z19JS_CallFunctionNameP9JSContextN2JS6HandleIP8JSObjectEEPKcRKNS1_16HandleValueArrayENS1_13MutableHandleINS1_5ValueEEE
libmozjs128-release.so:_Z19JS_CopyStringCharsZP9JSContextP8JSString
libmozjs128-release.so:_Z19JS_DeepFreezeObjectP9JSContextN2JS6HandleIP8JSObjectEE
libmozjs128-release.so:_Z19JS_DefinePropertiesP9JSContextN2JS6HandleIP8JSObjectEEPK14JSPropertySpec
libmozjs128-release.so:_Z19JS_DefineUCFunctionP9JSContextN2JS6HandleIP8JSObjectEEPKDsmPFbS0_jPNS1_5ValueEEjj
libmozjs128-release.so:_Z19JS_DefineUCPropertyP9JSContextN2JS6HandleIP8JSObjectEEPKDsmNS2_INS1_18PropertyDescriptorEEE
libmozjs128-release.so:_Z19JS_DefineUCPropertyP9JSContextN2JS6HandleIP8JSObjectEEPKDsmNS2_INS1_18PropertyDescriptorEEERNS1_14ObjectOpResultE
libmozjs128-release.so:_Z19JS_DefineUCPropertyP9JSContextN2JS6HandleIP8JSObjectEEPKDsmNS2_INS1_5ValueEEEj
libmozjs128-release.so:_Z19JS_DefineUCPropertyP9JSContextN2JS6HandleIP8JSObjectEEPKDsmNS2_IP8JSStringEEj
libmozjs128-release.so:_Z19JS_DefineUCPropertyP9JSContextN2JS6HandleIP8JSObjectEEPKDsmS5_S5_j
libmozjs128-release.so:_Z19JS_DefineUCPropertyP9JSContextN2JS6HandleIP8JSObjectEEPKDsmS5_j
libmozjs128-release.so:_Z19JS_DefineUCPropertyP9JSContextN2JS6HandleIP8JSObjectEEPKDsmdj
libmozjs128-release.so:_Z19JS_DefineUCPropertyP9JSContextN2JS6HandleIP8JSObjectEEPKDsmij
libmozjs128-release.so:_Z19JS_DefineUCPropertyP9JSContextN2JS6HandleIP8JSObjectEEPKDsmjj
libmozjs128-release.so:_Z19JS_DeleteUCPropertyP9JSContextN2JS6HandleIP8JSObjectEEPKDsmRNS1_14ObjectOpResultE
libmozjs128-release.so:_Z19JS_GetDefaultLocaleP9JSContext
libmozjs128-release.so:_Z19JS_GetFunctionArityP10JSFunction
libmozjs128-release.so:_Z19JS_GetInt8ArrayDataP8JSObjectPbRKN2JS15AutoRequireNoGCE
libmozjs128-release.so:_Z19JS_GetParentRuntimeP9JSContext
libmozjs128-release.so:_Z19JS_InitReflectParseP9JSContextN2JS6HandleIP8JSObjectEE
libmozjs128-release.so:_Z19JS_InitReservedSlotP8JSObjectjPvmN2JS9MemoryUseE
libmozjs128-release.so:_Z19JS_IsNativeFunctionP8JSObjectPFbP9JSContextjPN2JS5ValueEE
libmozjs128-release.so:_Z19JS_NewBigInt64ArrayP9JSContextm
libmozjs128-release.so:_Z19JS_NewUCStringCopyNP9JSContextPKDsm
libmozjs128-release.so:_Z19JS_NewUCStringCopyZP9JSContextPKDs
libmozjs128-release.so:_Z19JS_ObjectIsFunctionP8JSObject
libmozjs128-release.so:_Z19JS_ObjectNotWrittenP23JSStructuredCloneWriterN2JS6HandleIP8JSObjectEE
libmozjs128-release.so:_Z19JS_PutEscapedStringP9JSContextPcmP8JSStringc
libmozjs128-release.so:_Z19JS_ReportErrorASCIIP9JSContextPKcz
libmozjs128-release.so:_Z19JS_ResetGCParameterP9JSContext12JSGCParamKey
libmozjs128-release.so:_Z19JS_SetDefaultLocaleP9JSRuntimePKc
libmozjs128-release.so:_Z19JS_TransplantObjectP9JSContextN2JS6HandleIP8JSObjectEES5_
libmozjs128-release.so:_Z19mozalloc_handle_oomm
libmozjs128-release.so:_Z20JS_CallFunctionValueP9JSContextN2JS6HandleIP8JSObjectEENS2_INS1_5ValueEEERKNS1_16HandleValueArrayENS1_13MutableHandleIS6_EE
libmozjs128-release.so:_Z20JS_CheckForInterruptP9JSContext
libmozjs128-release.so:_Z20JS_DecompileFunctionP9JSContextN2JS6HandleIP10JSFunctionEE
libmozjs128-release.so:_Z20JS_GetClassPrototypeP9JSContext10JSProtoKeyN2JS13MutableHandleIP8JSObjectEE
libmozjs128-release.so:_Z20JS_GetContextPrivateP9JSContext
libmozjs128-release.so:_Z20JS_GetFunctionLengthP9JSContextN2JS6HandleIP10JSFunctionEEPt
libmozjs128-release.so:_Z20JS_GetFunctionObjectP10JSFunction
libmozjs128-release.so:_Z20JS_GetFunctionScriptP9JSContextN2JS6HandleIP10JSFunctionEE
libmozjs128-release.so:_Z20JS_GetInt16ArrayDataP8JSObjectPbRKN2JS15AutoRequireNoGCE
libmozjs128-release.so:_Z20JS_GetInt32ArrayDataP8JSObjectPbRKN2JS15AutoRequireNoGCE
libmozjs128-release.so:_Z20JS_GetObjectFunctionP8JSObject
libmozjs128-release.so:_Z20JS_GetScriptFilenameP8JSScript
libmozjs128-release.so:_Z20JS_GetUint8ArrayDataP8JSObjectPbRKN2JS15AutoRequireNoGCE
libmozjs128-release.so:_Z20JS_NewBigUint64ArrayP9JSContextm
libmozjs128-release.so:_Z20JS_PreventExtensionsP9JSContextN2JS6HandleIP8JSObjectEERNS1_14ObjectOpResultE
libmozjs128-release.so:_Z20JS_ReportErrorLatin1P9JSContextPKcz
libmozjs128-release.so:_Z20JS_ReportOutOfMemoryP9JSContext
libmozjs128-release.so:_Z20JS_SetContextPrivateP9JSContextPv
libmozjs128-release.so:_Z20JS_StringEqualsAsciiP9JSContextP8JSStringPKcPb
libmozjs128-release.so:_Z20JS_StringEqualsAsciiP9JSContextP8JSStringPKcmPb
libmozjs128-release.so:_Z21JS_AbortIfWrongThreadP9JSContext
libmozjs128-release.so:_Z21JS_DefineFunctionByIdP9JSContextN2JS6HandleIP8JSObjectEENS2_INS1_11PropertyKeyEEEPFbS0_jPNS1_5ValueEEjj
libmozjs128-release.so:_Z21JS_DefinePropertyByIdP9JSContextN2JS6HandleIP8JSObjectEENS2_INS1_11PropertyKeyEEENS2_INS1_18PropertyDescriptorEEE
libmozjs128-release.so:_Z21JS_DefinePropertyByIdP9JSContextN2JS6HandleIP8JSObjectEENS2_INS1_11PropertyKeyEEENS2_INS1_18PropertyDescriptorEEERNS1_14ObjectOpResultE
libmozjs128-release.so:_Z21JS_DefinePropertyByIdP9JSContextN2JS6HandleIP8JSObjectEENS2_INS1_11PropertyKeyEEENS2_INS1_5ValueEEEj
libmozjs128-release.so:_Z21JS_DefinePropertyByIdP9JSContextN2JS6HandleIP8JSObjectEENS2_INS1_11PropertyKeyEEENS2_IP8JSStringEEj
libmozjs128-release.so:_Z21JS_DefinePropertyByIdP9JSContextN2JS6HandleIP8JSObjectEENS2_INS1_11PropertyKeyEEEPFbS0_jPNS1_5ValueEESB_j
libmozjs128-release.so:_Z21JS_DefinePropertyByIdP9JSContextN2JS6HandleIP8JSObjectEENS2_INS1_11PropertyKeyEEES5_S5_j
libmozjs128-release.so:_Z21JS_DefinePropertyByIdP9JSContextN2JS6HandleIP8JSObjectEENS2_INS1_11PropertyKeyEEES5_j
libmozjs128-release.so:_Z21JS_DefinePropertyByIdP9JSContextN2JS6HandleIP8JSObjectEENS2_INS1_11PropertyKeyEEEdj
libmozjs128-release.so:_Z21JS_DefinePropertyByIdP9JSContextN2JS6HandleIP8JSObjectEENS2_INS1_11PropertyKeyEEEij
libmozjs128-release.so:_Z21JS_DefinePropertyByIdP9JSContextN2JS6HandleIP8JSObjectEENS2_INS1_11PropertyKeyEEEjj
libmozjs128-release.so:_Z21JS_DeletePropertyByIdP9JSContextN2JS6HandleIP8JSObjectEENS2_INS1_11PropertyKeyEEE
libmozjs128-release.so:_Z21JS_DeletePropertyByIdP9JSContextN2JS6HandleIP8JSObjectEENS2_INS1_11PropertyKeyEEERNS1_14ObjectOpResultE
libmozjs128-release.so:_Z21JS_EncodeStringToUTF8P9JSContextN2JS6HandleIP8JSStringEE
libmozjs128-release.so:_Z21JS_EnsureLinearStringP9JSContextP8JSString
libmozjs128-release.so:_Z21JS_ErrorFromExceptionP9JSContextN2JS6HandleIP8JSObjectEE
libmozjs128-release.so:_Z21JS_GetLocaleCallbacksP9JSRuntime
libmozjs128-release.so:_Z21JS_GetUint16ArrayDataP8JSObjectPbRKN2JS15AutoRequireNoGCE
libmozjs128-release.so:_Z21JS_GetUint32ArrayDataP8JSObjectPbRKN2JS15AutoRequireNoGCE
libmozjs128-release.so:_Z21JS_HasOwnPropertyByIdP9JSContextN2JS6HandleIP8JSObjectEENS2_INS1_11PropertyKeyEEEPb
libmozjs128-release.so:_Z21JS_IsExceptionPendingP9JSContext
libmozjs128-release.so:_Z21JS_IsTypedArrayObjectP8JSObject
libmozjs128-release.so:_Z21JS_NewDependentStringP9JSContextN2JS6HandleIP8JSStringEEmm
libmozjs128-release.so:_Z21JS_NewStringCopyUTF8NP9JSContextRKN2JS9UTF8CharsE
libmozjs128-release.so:_Z21JS_NewStringCopyUTF8ZP9JSContextN2JS15ConstUTF8CharsZE
libmozjs128-release.so:_Z21JS_ResetDefaultLocaleP9JSRuntime
libmozjs128-release.so:_Z21JS_SetLocaleCallbacksP9JSRuntimePK17JSLocaleCallbacks
libmozjs128-release.so:_Z21JS_ValueToConstructorP9JSContextN2JS6HandleINS1_5ValueEEE
libmozjs128-release.so:_Z22JS_AddFinalizeCallbackP9JSContextPFvPN2JS9GCContextE16JSFinalizeStatusPvES5_
libmozjs128-release.so:_Z22JS_AtomizeAndPinStringP9JSContextPKc
libmozjs128-release.so:_Z22JS_EncodeStringToASCIIP9JSContextP8JSString
libmozjs128-release.so:_Z22JS_ForwardGetElementToP9JSContextN2JS6HandleIP8JSObjectEEjS5_NS1_13MutableHandleINS1_5ValueEEE
libmozjs128-release.so:_Z22JS_GetEmptyStringValueP9JSContext
libmozjs128-release.so:_Z22JS_GetFloat16ArrayDataP8JSObjectPbRKN2JS15AutoRequireNoGCE
libmozjs128-release.so:_Z22JS_GetFloat32ArrayDataP8JSObjectPbRKN2JS15AutoRequireNoGCE
libmozjs128-release.so:_Z22JS_GetFloat64ArrayDataP8JSObjectPbRKN2JS15AutoRequireNoGCE
libmozjs128-release.so:_Z22JS_GetGlobalFromScriptP8JSScript
libmozjs128-release.so:_Z22JS_GetPendingExceptionP9JSContextN2JS13MutableHandleINS1_5ValueEEE
libmozjs128-release.so:_Z22JS_GetScriptPrincipalsP8JSScript
libmozjs128-release.so:_Z22JS_GetTypedArrayLengthP8JSObject
libmozjs128-release.so:_Z22JS_IterateCompartmentsP9JSContextPvPFN2JS21CompartmentIterResultES0_S1_PNS2_11CompartmentEE
libmozjs128-release.so:_Z22JS_NewExternalUCStringP9JSContextPKDsmPK25JSExternalStringCallbacks
libmozjs128-release.so:_Z22JS_ReadStructuredCloneP9JSContextRK21JSStructuredCloneDatajN2JS20StructuredCloneScopeENS4_13MutableHandleINS4_5ValueEEERKNS4_15CloneDataPolicyEPK26JSStructuredCloneCallbacksPv
libmozjs128-release.so:_Z22JS_ReportErrorNumberUCP9JSContextPFPK19JSErrorFormatStringPvjES4_jz
libmozjs128-release.so:_Z22JS_SetNativeStackQuotaP9JSContextmmm
libmozjs128-release.so:_Z22JS_SetPendingExceptionP9JSContextN2JS6HandleINS1_5ValueEEENS1_22ExceptionStackBehaviorE
libmozjs128-release.so:_Z22JS_StringHasBeenPinnedP9JSContextP8JSString
libmozjs128-release.so:_Z23JS_AddInterruptCallbackP9JSContextPFbS0_E
libmozjs128-release.so:_Z23JS_AlreadyHasOwnElementP9JSContextN2JS6HandleIP8JSObjectEEjPb
libmozjs128-release.so:_Z23JS_AtomizeAndPinStringNP9JSContextPKcm
libmozjs128-release.so:_Z23JS_DefineDebuggerObjectP9JSContextN2JS6HandleIP8JSObjectEE
libmozjs128-release.so:_Z23JS_EncodeStringToBufferP9JSContextP8JSStringPcm
libmozjs128-release.so:_Z23JS_EncodeStringToLatin1P9JSContextP8JSString
libmozjs128-release.so:_Z23JS_FindCompilationScopeP9JSContextN2JS6HandleIP8JSObjectEE
libmozjs128-release.so:_Z23JS_ForwardGetPropertyToP9JSContextN2JS6HandleIP8JSObjectEENS2_INS1_11PropertyKeyEEENS2_INS1_5ValueEEENS1_13MutableHandleIS8_EE
libmozjs128-release.so:_Z23JS_ForwardSetPropertyToP9JSContextN2JS6HandleIP8JSObjectEENS2_INS1_11PropertyKeyEEENS2_INS1_5ValueEEES9_RNS1_14ObjectOpResultE
libmozjs128-release.so:_Z23JS_FrontendOnlyShutDownv
libmozjs128-release.so:_Z23JS_GetBigInt64ArrayDataP8JSObjectPbRKN2JS15AutoRequireNoGCE
libmozjs128-release.so:_Z23JS_GetFunctionDisplayIdP9JSContextN2JS6HandleIP10JSFunctionEENS1_13MutableHandleIP8JSStringEE
libmozjs128-release.so:_Z23JS_GetObjectAsInt8ArrayP8JSObjectPmPbPPa
libmozjs128-release.so:_Z23JS_GetSecurityCallbacksP9JSContext
libmozjs128-release.so:_Z23JS_MarkCrossZoneIdValueP9JSContextRKN2JS5ValueE
libmozjs128-release.so:_Z23JS_NewUint8ClampedArrayP9JSContextm
libmozjs128-release.so:_Z23JS_ParseJSONWithReviverP9JSContextN2JS6HandleIP8JSStringEENS2_INS1_5ValueEEENS1_13MutableHandleIS6_EE
libmozjs128-release.so:_Z23JS_ParseJSONWithReviverP9JSContextPKDsjN2JS6HandleINS3_5ValueEEENS3_13MutableHandleIS5_EE
libmozjs128-release.so:_Z23JS_ResolveStandardClassP9JSContextN2JS6HandleIP8JSObjectEENS2_INS1_11PropertyKeyEEEPb
libmozjs128-release.so:_Z23JS_ScriptHasMutedErrorsP8JSScript
libmozjs128-release.so:_Z23JS_SetGrayGCRootsTracerP9JSContextPFbP8JSTracerRN2js11SliceBudgetEPvES6_
libmozjs128-release.so:_Z23JS_SetSecurityCallbacksP9JSContextPK19JSSecurityCallbacks
libmozjs128-release.so:_Z23JS_SetTrustedPrincipalsP9JSContextP12JSPrincipals
libmozjs128-release.so:_Z23JS_WriteStructuredCloneP9JSContextN2JS6HandleINS1_5ValueEEEP21JSStructuredCloneDataNS1_20StructuredCloneScopeERKNS1_15CloneDataPolicyEPK26JSStructuredCloneCallbacksPvS4_
libmozjs128-release.so:_Z24JS_AddExtraGCRootsTracerP9JSContextPFvP8JSTracerPvES3_
libmozjs128-release.so:_Z24JS_AlreadyHasOwnPropertyP9JSContextN2JS6HandleIP8JSObjectEEPKcPb
libmozjs128-release.so:_Z24JS_ClearPendingExceptionP9JSContext
libmozjs128-release.so:_Z24JS_FireOnNewGlobalObjectP9JSContextN2JS6HandleIP8JSObjectEE
libmozjs128-release.so:_Z24JS_GetBigUint64ArrayDataP8JSObjectPbRKN2JS15AutoRequireNoGCE
libmozjs128-release.so:_Z24JS_GetCompartmentPrivatePN2JS11CompartmentE
libmozjs128-release.so:_Z24JS_GetObjectAsInt16ArrayP8JSObjectPmPbPPs
libmozjs128-release.so:_Z24JS_GetObjectAsInt32ArrayP8JSObjectPmPbPPi
libmozjs128-release.so:_Z24JS_GetObjectAsUint8ArrayP8JSObjectPmPbPPh
libmozjs128-release.so:_Z24JS_GetPropertyDescriptorP9JSContextN2JS6HandleIP8JSObjectEEPKcNS1_13MutableHandleIN7mozilla5MaybeINS1_18PropertyDescriptorEEEEENS8_IS4_EE
libmozjs128-release.so:_Z24JS_GlobalObjectTraceHookP8JSTracerP8JSObject
libmozjs128-release.so:_Z24JS_IsBuiltinEvalFunctionP10JSFunction
libmozjs128-release.so:_Z24JS_IsThrowingOutOfMemoryP9JSContext
libmozjs128-release.so:_Z24JS_NewInt8ArrayFromArrayP9JSContextN2JS6HandleIP8JSObjectEE
libmozjs128-release.so:_Z24JS_ObjectIsBoundFunctionP8JSObject
libmozjs128-release.so:_Z24JS_ReportErrorNumberUTF8P9JSContextPFPK19JSErrorFormatStringPvjES4_jz
libmozjs128-release.so:_Z24JS_SetCompartmentPrivatePN2JS11CompartmentEPv
libmozjs128-release.so:_Z24JS_SetICUMemoryFunctionsPFPvPKvmEPFS_S1_S_mEPFvS1_S_E
libmozjs128-release.so:_Z24JS_SetImmutablePrototypeP9JSContextN2JS6HandleIP8JSObjectEEPb
libmozjs128-release.so:_Z25JS_GetArrayBufferViewDataP8JSObjectPbRKN2JS15AutoRequireNoGCE
libmozjs128-release.so:_Z25JS_GetArrayBufferViewTypeP8JSObject
libmozjs128-release.so:_Z25JS_GetBoundFunctionTargetP8JSObject
libmozjs128-release.so:_Z25JS_GetObjectAsUint16ArrayP8JSObjectPmPbPPt
libmozjs128-release.so:_Z25JS_GetObjectAsUint32ArrayP8JSObjectPmPbPPj
libmozjs128-release.so:_Z25JS_GetPrototypeIfOrdinaryP9JSContextN2JS6HandleIP8JSObjectEEPbNS1_13MutableHandleIS4_EE
libmozjs128-release.so:_Z25JS_NewInt16ArrayFromArrayP9JSContextN2JS6HandleIP8JSObjectEE
libmozjs128-release.so:_Z25JS_NewInt32ArrayFromArrayP9JSContextN2JS6HandleIP8JSObjectEE
libmozjs128-release.so:_Z25JS_NewInt8ArrayWithBufferP9JSContextN2JS6HandleIP8JSObjectEEml
libmozjs128-release.so:_Z25JS_NewUCStringDontDeflateP9JSContextN7mozilla9UniquePtrIA_DsN2JS10FreePolicyEEEm
libmozjs128-release.so:_Z25JS_NewUint8ArrayFromArrayP9JSContextN2JS6HandleIP8JSObjectEE
libmozjs128-release.so:_Z25JS_PutEscapedLinearStringPcmP14JSLinearStringc
libmozjs128-release.so:_Z25JS_RemoveFinalizeCallbackP9JSContextPFvPN2JS9GCContextE16JSFinalizeStatusPvE
libmozjs128-release.so:_Z25JS_ReportErrorNumberASCIIP9JSContextPFPK19JSErrorFormatStringPvjES4_jz
libmozjs128-release.so:_Z25JS_ResetInterruptCallbackP9JSContextb
libmozjs128-release.so:_Z25JS_SetDestroyZoneCallbackP9JSContextPFvPN2JS9GCContextEPNS1_4ZoneEE
libmozjs128-release.so:_Z25JS_SetWrapObjectCallbacksP9JSContextPK21JSWrapObjectCallbacks
libmozjs128-release.so:_Z25JS_WrapPropertyDescriptorP9JSContextN2JS13MutableHandleIN7mozilla5MaybeINS1_18PropertyDescriptorEEEEE
libmozjs128-release.so:_Z25JS_WrapPropertyDescriptorP9JSContextN2JS13MutableHandleINS1_18PropertyDescriptorEEE
libmozjs128-release.so:_Z26JS_AlreadyHasOwnUCPropertyP9JSContextN2JS6HandleIP8JSObjectEEPKDsmPb
libmozjs128-release.so:_Z26JS_DefineFunctionsWithHelpP9JSContextN2JS6HandleIP8JSObjectEEPK22JSFunctionSpecWithHelp
libmozjs128-release.so:_Z26JS_GetObjectAsFloat16ArrayP8JSObjectPmPbPPt
libmozjs128-release.so:_Z26JS_GetObjectAsFloat32ArrayP8JSObjectPmPbPPf
libmozjs128-release.so:_Z26JS_GetObjectAsFloat64ArrayP8JSObjectPmPbPPd
libmozjs128-release.so:_Z26JS_GetScriptBaseLineNumberP9JSContextP8JSScript
libmozjs128-release.so:_Z26JS_GetStringEncodingLengthP9JSContextP8JSString
libmozjs128-release.so:_Z26JS_GetStructuredCloneScopeP23JSStructuredCloneWriter
libmozjs128-release.so:_Z26JS_GetTypedArrayByteLengthP8JSObject
libmozjs128-release.so:_Z26JS_GetTypedArrayByteOffsetP8JSObject
libmozjs128-release.so:_Z26JS_GetTypedArraySharednessP8JSObject
libmozjs128-release.so:_Z26JS_GetUCPropertyDescriptorP9JSContextN2JS6HandleIP8JSObjectEEPKDsmNS1_13MutableHandleIN7mozilla5MaybeINS1_18PropertyDescriptorEEEEENS8_IS4_EE
libmozjs128-release.so:_Z26JS_IsArrayBufferViewObjectP8JSObject
libmozjs128-release.so:_Z26JS_LinearStringEqualsAsciiP14JSLinearStringPKc
libmozjs128-release.so:_Z26JS_LinearStringEqualsAsciiP14JSLinearStringPKcm
libmozjs128-release.so:_Z26JS_MayResolveStandardClassRK11JSAtomStateN2JS11PropertyKeyEP8JSObject
libmozjs128-release.so:_Z26JS_NewExternalStringLatin1P9JSContextPKhmPK25JSExternalStringCallbacks
libmozjs128-release.so:_Z26JS_NewInt16ArrayWithBufferP9JSContextN2JS6HandleIP8JSObjectEEml
libmozjs128-release.so:_Z26JS_NewInt32ArrayWithBufferP9JSContextN2JS6HandleIP8JSObjectEEml
libmozjs128-release.so:_Z26JS_NewObjectForConstructorP9JSContextPK7JSClassRKN2JS8CallArgsE
libmozjs128-release.so:_Z26JS_NewObjectWithGivenProtoP9JSContextPK7JSClassN2JS6HandleIP8JSObjectEE
libmozjs128-release.so:_Z26JS_NewUint16ArrayFromArrayP9JSContextN2JS6HandleIP8JSObjectEE
libmozjs128-release.so:_Z26JS_NewUint32ArrayFromArrayP9JSContextN2JS6HandleIP8JSObjectEE
libmozjs128-release.so:_Z26JS_NewUint8ArrayWithBufferP9JSContextN2JS6HandleIP8JSObjectEEml
libmozjs128-release.so:_Z26JS_ReportErrorNumberLatin1P9JSContextPFPK19JSErrorFormatStringPvjES4_jz
libmozjs128-release.so:_Z26JS_ReportErrorNumberUTF8VAP9JSContextPFPK19JSErrorFormatStringPvjES4_jP13__va_list_tag
libmozjs128-release.so:_Z27JS_DefineProfilingFunctionsP9JSContextN2JS6HandleIP8JSObjectEE
libmozjs128-release.so:_Z27JS_DisableInterruptCallbackP9JSContext
libmozjs128-release.so:_Z27JS_EnumerateStandardClassesP9JSContextN2JS6HandleIP8JSObjectEE
libmozjs128-release.so:_Z27JS_GetArrayBufferViewBufferP9JSContextN2JS6HandleIP8JSObjectEEPb
libmozjs128-release.so:_Z27JS_GetImplementationVersionv
libmozjs128-release.so:_Z27JS_GetObjectAsBigInt64ArrayP8JSObjectPmPbPPl
libmozjs128-release.so:_Z27JS_GetOwnPropertyDescriptorP9JSContextN2JS6HandleIP8JSObjectEEPKcNS1_13MutableHandleIN7mozilla5MaybeINS1_18PropertyDescriptorEEEEE
libmozjs128-release.so:_Z27JS_GetUint8ClampedArrayDataP8JSObjectPbRKN2JS15AutoRequireNoGCE
libmozjs128-release.so:_Z27JS_GlobalLexicalEnvironmentP8JSObject
libmozjs128-release.so:_Z27JS_MaxMovableTypedArraySizev
libmozjs128-release.so:_Z27JS_NewFloat16ArrayFromArrayP9JSContextN2JS6HandleIP8JSObjectEE
libmozjs128-release.so:_Z27JS_NewFloat32ArrayFromArrayP9JSContextN2JS6HandleIP8JSObjectEE
libmozjs128-release.so:_Z27JS_NewFloat64ArrayFromArrayP9JSContextN2JS6HandleIP8JSObjectEE
libmozjs128-release.so:_Z27JS_NewMaybeExternalUCStringP9JSContextPKDsmPK25JSExternalStringCallbacksPb
libmozjs128-release.so:_Z27JS_NewObjectWithoutMetadataP9JSContextPK7JSClassN2JS6HandleIP8JSObjectEE
libmozjs128-release.so:_Z27JS_NewUint16ArrayWithBufferP9JSContextN2JS6HandleIP8JSObjectEEml
libmozjs128-release.so:_Z27JS_NewUint32ArrayWithBufferP9JSContextN2JS6HandleIP8JSObjectEEml
libmozjs128-release.so:_Z27JS_RemoveExtraGCRootsTracerP9JSContextPFvP8JSTracerPvES3_
libmozjs128-release.so:_Z27JS_ReportAllocationOverflowP9JSContext
libmozjs128-release.so:_Z27JS_ReportErrorNumberASCIIVAP9JSContextPFPK19JSErrorFormatStringPvjES4_jP13__va_list_tag
libmozjs128-release.so:_Z27JS_ReportErrorNumberUCArrayP9JSContextPFPK19JSErrorFormatStringPvjES4_jPPKDs
libmozjs128-release.so:_Z27JS_RequestInterruptCallbackP9JSContext
libmozjs128-release.so:_Z27JS_SetSetUseCounterCallbackP9JSContextPFvP8JSObject12JSUseCounterE
libmozjs128-release.so:_Z27JS_UpdateWeakPointerAfterGCP8JSTracerPN2JS4HeapIP8JSObjectEE
libmozjs128-release.so:_Z28JS_AlreadyHasOwnPropertyByIdP9JSContextN2JS6HandleIP8JSObjectEENS2_INS1_11PropertyKeyEEEPb
libmozjs128-release.so:_Z28JS_ExpandErrorArgumentsASCIIP9JSContextPFPK19JSErrorFormatStringPvjEjP13JSErrorReportz
libmozjs128-release.so:_Z28JS_GetInt8ArrayLengthAndDataP8JSObjectPmPbRKN2JS15AutoRequireNoGCE
libmozjs128-release.so:_Z28JS_GetMaybePartialFunctionIdP10JSFunction
libmozjs128-release.so:_Z28JS_GetObjectAsBigUint64ArrayP8JSObjectPmPbPS1_
libmozjs128-release.so:_Z28JS_GetPropertyDescriptorByIdP9JSContextN2JS6HandleIP8JSObjectEENS2_INS1_11PropertyKeyEEENS1_13MutableHandleIN7mozilla5MaybeINS1_18PropertyDescriptorEEEEENS8_IS4_EE
libmozjs128-release.so:_Z28JS_IterateCompartmentsInZoneP9JSContextPN2JS4ZoneEPvPFNS1_21CompartmentIterResultES0_S4_PNS1_11CompartmentEE
libmozjs128-release.so:_Z28JS_NewBigInt64ArrayFromArrayP9JSContextN2JS6HandleIP8JSObjectEE
libmozjs128-release.so:_Z28JS_NewFloat16ArrayWithBufferP9JSContextN2JS6HandleIP8JSObjectEEml
libmozjs128-release.so:_Z28JS_NewFloat32ArrayWithBufferP9JSContextN2JS6HandleIP8JSObjectEEml
libmozjs128-release.so:_Z28JS_NewFloat64ArrayWithBufferP9JSContextN2JS6HandleIP8JSObjectEEml
libmozjs128-release.so:_Z28JS_ReportErrorNumberLatin1VAP9JSContextPFPK19JSErrorFormatStringPvjES4_jP13__va_list_tag
libmozjs128-release.so:_Z28JS_SetObjectsTenuredCallbackP9JSContextPFvPN2JS9GCContextEPvES4_
libmozjs128-release.so:_Z28JS_SetParallelParsingEnabledP9JSContextb
libmozjs128-release.so:_Z29JS_GetExternalStringCallbacksP8JSString
libmozjs128-release.so:_Z29JS_GetGlobalJitCompilerOptionP9JSContext19JSJitCompilerOptionPj
libmozjs128-release.so:_Z29JS_GetInt16ArrayLengthAndDataP8JSObjectPmPbRKN2JS15AutoRequireNoGCE
libmozjs128-release.so:_Z29JS_GetInt32ArrayLengthAndDataP8JSObjectPmPbRKN2JS15AutoRequireNoGCE
libmozjs128-release.so:_Z29JS_GetObjectAsArrayBufferViewP8JSObjectPmPbPPh
libmozjs128-release.so:_Z29JS_GetOwnUCPropertyDescriptorP9JSContextN2JS6HandleIP8JSObjectEEPKDsmNS1_13MutableHandleIN7mozilla5MaybeINS1_18PropertyDescriptorEEEEE
libmozjs128-release.so:_Z29JS_GetUint8ArrayLengthAndDataP8JSObjectPmPbRKN2JS15AutoRequireNoGCE
libmozjs128-release.so:_Z29JS_InitReadPrincipalsCallbackP9JSContextPFbS0_P23JSStructuredCloneReaderPP12JSPrincipalsE
libmozjs128-release.so:_Z29JS_NewBigInt64ArrayWithBufferP9JSContextN2JS6HandleIP8JSObjectEEml
libmozjs128-release.so:_Z29JS_NewBigUint64ArrayFromArrayP9JSContextN2JS6HandleIP8JSObjectEE
libmozjs128-release.so:_Z29JS_NewMaybeExternalStringUTF8P9JSContextRKN2JS9UTF8CharsEPK25JSExternalStringCallbacksPb
libmozjs128-release.so:_Z29JS_ReportErrorNumberUTF8ArrayP9JSContextPFPK19JSErrorFormatStringPvjES4_jPPKc
libmozjs128-release.so:_Z29JS_SetGlobalJitCompilerOptionP9JSContext19JSJitCompilerOptionj
libmozjs128-release.so:_Z29JS_Utf8BufferIsCompilableUnitP9JSContextN2JS6HandleIP8JSObjectEEPKcm
libmozjs128-release.so:_Z30JS_AddWeakPointerZonesCallbackP9JSContextPFvP8JSTracerPvES3_
libmozjs128-release.so:_Z30JS_GetArrayBufferViewFixedDataP8JSObjectPhm
libmozjs128-release.so:_Z30JS_GetErrorInterceptorCallbackP9JSRuntime
libmozjs128-release.so:_Z30JS_GetUint16ArrayLengthAndDataP8JSObjectPmPbRKN2JS15AutoRequireNoGCE
libmozjs128-release.so:_Z30JS_GetUint32ArrayLengthAndDataP8JSObjectPmPbRKN2JS15AutoRequireNoGCE
libmozjs128-release.so:_Z30JS_LinkConstructorAndPrototypeP9JSContextN2JS6HandleIP8JSObjectEES5_
libmozjs128-release.so:_Z30JS_NewBigUint64ArrayWithBufferP9JSContextN2JS6HandleIP8JSObjectEEml
libmozjs128-release.so:_Z30JS_NewEnumerateStandardClassesP9JSContextN2JS6HandleIP8JSObjectEENS1_13MutableHandleINS1_13StackGCVectorINS1_11PropertyKeyEN2js15TempAllocPolicyEEEEEb
libmozjs128-release.so:_Z30JS_SetErrorInterceptorCallbackP9JSRuntimeP18JSErrorInterceptor
libmozjs128-release.so:_Z30JS_UnsafeGetLastProfilingErrorv
libmozjs128-release.so:_Z31JS_ExtensibleLexicalEnvironmentP8JSObject
libmozjs128-release.so:_Z31JS_GetArrayBufferViewByteLengthP8JSObject
libmozjs128-release.so:_Z31JS_GetArrayBufferViewByteOffsetP8JSObject
libmozjs128-release.so:_Z31JS_GetFloat16ArrayLengthAndDataP8JSObjectPmPbRKN2JS15AutoRequireNoGCE
libmozjs128-release.so:_Z31JS_GetFloat32ArrayLengthAndDataP8JSObjectPmPbRKN2JS15AutoRequireNoGCE
libmozjs128-release.so:_Z31JS_GetFloat64ArrayLengthAndDataP8JSObjectPmPbRKN2JS15AutoRequireNoGCE
libmozjs128-release.so:_Z31JS_GetObjectAsUint8ClampedArrayP8JSObjectPmPbPPh
libmozjs128-release.so:_Z31JS_GetOwnPropertyDescriptorByIdP9JSContextN2JS6HandleIP8JSObjectEENS2_INS1_11PropertyKeyEEENS1_13MutableHandleIN7mozilla5MaybeINS1_18PropertyDescriptorEEEEE
libmozjs128-release.so:_Z31JS_IsBuiltinFunctionConstructorP10JSFunction
libmozjs128-release.so:_Z31JS_NewMaybeExternalStringLatin1P9JSContextPKhmPK25JSExternalStringCallbacksPb
libmozjs128-release.so:_Z32JS_GetBigInt64ArrayLengthAndDataP8JSObjectPmPbRKN2JS15AutoRequireNoGCE
libmozjs128-release.so:_Z32JS_GetLatin1StringCharsAndLengthP9JSContextRKN2JS15AutoRequireNoGCEP8JSStringPm
libmozjs128-release.so:_Z32JS_GetTwoByteExternalStringCharsP8JSString
libmozjs128-release.so:_Z32JS_InitDestroyPrincipalsCallbackP9JSContextPFvP12JSPrincipalsE
libmozjs128-release.so:_Z32JS_NewUint8ClampedArrayFromArrayP9JSContextN2JS6HandleIP8JSObjectEE
libmozjs128-release.so:_Z32JS_SetDestroyCompartmentCallbackP9JSContextPFvPN2JS9GCContextEPNS1_11CompartmentEE
libmozjs128-release.so:_Z33JS_DeprecatedStringHasLatin1CharsP8JSString
libmozjs128-release.so:_Z33JS_GetBigUint64ArrayLengthAndDataP8JSObjectPmPbRKN2JS15AutoRequireNoGCE
libmozjs128-release.so:_Z33JS_GetTwoByteStringCharsAndLengthP9JSContextRKN2JS15AutoRequireNoGCEP8JSStringPm
libmozjs128-release.so:_Z33JS_NewUint8ClampedArrayWithBufferP9JSContextN2JS6HandleIP8JSObjectEEml
libmozjs128-release.so:_Z33JS_NondeterministicGetWeakMapKeysP9JSContextN2JS6HandleIP8JSObjectEENS1_13MutableHandleIS4_EE
libmozjs128-release.so:_Z33JS_NondeterministicGetWeakSetKeysP9JSContextN2JS6HandleIP8JSObjectEENS1_13MutableHandleIS4_EE
libmozjs128-release.so:_Z33JS_RemoveWeakPointerZonesCallbackP9JSContextPFvP8JSTracerPvE
libmozjs128-release.so:_Z33JS_SetAccumulateTelemetryCallbackP9JSContextPFv8JSMetricjE
libmozjs128-release.so:_Z34JS_EncodeStringToUTF8BufferPartialP9JSContextP8JSStringN7mozilla4SpanIcLm18446744073709551615EEE
libmozjs128-release.so:_Z34JS_HasExtensibleLexicalEnvironmentP8JSObject
libmozjs128-release.so:_Z34JS_RefreshCrossCompartmentWrappersP9JSContextN2JS6HandleIP8JSObjectEE
libmozjs128-release.so:_Z34JS_RequestInterruptCallbackCanWaitP9JSContext
libmozjs128-release.so:_Z34JS_StructuredCloneHasTransferablesR21JSStructuredCloneDataPb
libmozjs128-release.so:_Z35JS_GetMaybePartialFunctionDisplayIdP10JSFunction
libmozjs128-release.so:_Z35JS_TraceShapeCycleCollectorChildrenPN2JS14CallbackTracerENS_9GCCellPtrE
libmozjs128-release.so:_Z36JS_AddWeakPointerCompartmentCallbackP9JSContextPFvP8JSTracerPN2JS11CompartmentEPvES6_
libmozjs128-release.so:_Z36JS_CopyOwnPropertiesAndPrivateFieldsP9JSContextN2JS6HandleIP8JSObjectEES5_
libmozjs128-release.so:_Z36JS_GetUint8ClampedArrayLengthAndDataP8JSObjectPmPbRKN2JS15AutoRequireNoGCE
libmozjs128-release.so:_Z36JS_SetAllNonReservedSlotsToUndefinedN2JS6HandleIP8JSObjectEE
libmozjs128-release.so:_Z36JS_SetOffthreadIonCompilationEnabledP9JSContextb
libmozjs128-release.so:_Z38JS_UpdateWeakPointerAfterGCUnbarrieredP8JSTracerPP8JSObject
libmozjs128-release.so:_Z39JS_RemoveWeakPointerCompartmentCallbackP9JSContextPFvP8JSTracerPN2JS11CompartmentEPvE
libmozjs128-release.so:_Z40JS_SetGCParametersBasedOnAvailableMemoryP9JSContextj
libmozjs128-release.so:_Z44JS_SetSizeOfIncludingThisCompartmentCallbackP9JSContextPFmPFmPKvEPN2JS11CompartmentEE
libmozjs128-release.so:_Z47JS_NewEnumerateStandardClassesIncludingResolvedP9JSContextN2JS6HandleIP8JSObjectEENS1_13MutableHandleINS1_13StackGCVectorINS1_11PropertyKeyEN2js15TempAllocPolicyEEEEEb
libmozjs128-release.so:_Z49JS_InitializePropertiesFromCompatibleNativeObjectP9JSContextN2JS6HandleIP8JSObjectEES5_
libmozjs128-release.so:_Z5JS_GCP9JSContextN2JS8GCReasonE
libmozjs128-release.so:_Z6JS_Nowv
libmozjs128-release.so:_Z7JS_freeP9JSContextPv
libmozjs128-release.so:_Z9JS_AssertPKcS0_i
libmozjs128-release.so:_Z9JS_mallocP9JSContextm
libmozjs128-release.so:_ZN10JSFunction13maybeRelazifyEP9JSRuntime
libmozjs128-release.so:_ZN10JSFunction14getDisplayAtomEP9JSContextN2JS13MutableHandleIP6JSAtomEE
libmozjs128-release.so:_ZN10JSFunction15getExplicitNameEP9JSContextN2JS13MutableHandleIP6JSAtomEE
libmozjs128-release.so:_ZN10JSFunction22getAccessorNameForLazyEP9JSContext
libmozjs128-release.so:_ZN10JSFunction22needsPrototypePropertyEv
libmozjs128-release.so:_ZN10JSFunction28isBuiltinFunctionConstructorEv
libmozjs128-release.so:_ZN10JSFunction30delazifySelfHostedLazyFunctionEP9JSContextN2JS6HandleIPS_EE
libmozjs128-release.so:_ZN10JSFunction33delazifyLazilyInterpretedFunctionEP9JSContextN2JS6HandleIPS_EE
libmozjs128-release.so:_ZN10JSFunction39hasNonConfigurablePrototypeDataPropertyEv
libmozjs128-release.so:_ZN11JSAutoRealmC1EP9JSContextP8JSObject
libmozjs128-release.so:_ZN11JSAutoRealmC1EP9JSContextP8JSScript
libmozjs128-release.so:_ZN11JSAutoRealmC2EP9JSContextP8JSObject
libmozjs128-release.so:_ZN11JSAutoRealmC2EP9JSContextP8JSScript
libmozjs128-release.so:_ZN11JSAutoRealmD1Ev
libmozjs128-release.so:_ZN11JSAutoRealmD2Ev
libmozjs128-release.so:_ZN12JSErrorNotes3endEv
libmozjs128-release.so:_ZN12JSErrorNotes5beginEv
libmozjs128-release.so:_ZN12JSErrorNotes6lengthEv
libmozjs128-release.so:_ZN14ProfilingStack18ensureCapacitySlowEv
libmozjs128-release.so:_ZN14ProfilingStackD1Ev
libmozjs128-release.so:_ZN14ProfilingStackD2Ev
libmozjs128-release.so:_ZN15MmapAccessScopeC1EPvjPKc
libmozjs128-release.so:_ZN15MmapAccessScopeC2EPvjPKc
libmozjs128-release.so:_ZN15MmapAccessScopeD1Ev
libmozjs128-release.so:_ZN15MmapAccessScopeD2Ev
libmozjs128-release.so:_ZN17double_conversion23DoubleToStringConverter13DoubleToAsciiEdNS0_8DtoaModeEiPciPbPiS4_
libmozjs128-release.so:_ZN17double_conversion23DoubleToStringConverter19EcmaScriptConverterEv
libmozjs128-release.so:_ZN19JSAutoNullableRealmC1EP9JSContextP8JSObject
libmozjs128-release.so:_ZN19JSAutoNullableRealmC2EP9JSContextP8JSObject
libmozjs128-release.so:_ZN19JSAutoNullableRealmD1Ev
libmozjs128-release.so:_ZN19JSAutoNullableRealmD2Ev
libmozjs128-release.so:_ZN21JSStructuredCloneData20discardTransferablesEv
libmozjs128-release.so:_ZN21JSStructuredCloneDataD1Ev
libmozjs128-release.so:_ZN21JSStructuredCloneDataD2Ev
libmozjs128-release.so:_ZN27JSAutoStructuredCloneBuffer4readEP9JSContextN2JS13MutableHandleINS2_5ValueEEERKNS2_15CloneDataPolicyEPK26JSStructuredCloneCallbacksPv
libmozjs128-release.so:_ZN27JSAutoStructuredCloneBuffer5adoptEO21JSStructuredCloneDatajPK26JSStructuredCloneCallbacksPv
libmozjs128-release.so:_ZN27JSAutoStructuredCloneBuffer5clearEv
libmozjs128-release.so:_ZN27JSAutoStructuredCloneBuffer5writeEP9JSContextN2JS6HandleINS2_5ValueEEEPK26JSStructuredCloneCallbacksPv
libmozjs128-release.so:_ZN27JSAutoStructuredCloneBuffer5writeEP9JSContextN2JS6HandleINS2_5ValueEEES5_RKNS2_15CloneDataPolicyEPK26JSStructuredCloneCallbacksPv
libmozjs128-release.so:_ZN27JSAutoStructuredCloneBuffer6giveToEP21JSStructuredCloneData
libmozjs128-release.so:_ZN27JSAutoStructuredCloneBufferC1EOS_
libmozjs128-release.so:_ZN27JSAutoStructuredCloneBufferC2EOS_
libmozjs128-release.so:_ZN27JSAutoStructuredCloneBufferaSEOS_
libmozjs128-release.so:_ZN2JS10EnterRealmEP9JSContextP8JSObject
libmozjs128-release.so:_ZN2JS10IsCallableEP8JSObject
libmozjs128-release.so:_ZN2JS10LeaveRealmEP9JSContextPNS_5RealmE
libmozjs128-release.so:_ZN2JS10MapEntriesEP9JSContextNS_6HandleIP8JSObjectEENS_13MutableHandleINS_5ValueEEE
libmozjs128-release.so:_ZN2JS10MapForEachEP9JSContextNS_6HandleIP8JSObjectEENS2_INS_5ValueEEES7_
libmozjs128-release.so:_ZN2JS10ModuleLinkEP9JSContextNS_6HandleIP8JSObjectEE
libmozjs128-release.so:_ZN2JS10PrintErrorEP8_IO_FILEP13JSErrorReportb
libmozjs128-release.so:_ZN2JS10PrintErrorEP8_IO_FILERKNS_18ErrorReportBuilderEb
libmozjs128-release.so:_ZN2JS10SetEntriesEP9JSContextNS_6HandleIP8JSObjectEENS_13MutableHandleINS_5ValueEEE
libmozjs128-release.so:_ZN2JS10SetForEachEP9JSContextNS_6HandleIP8JSObjectEENS2_INS_5ValueEEES7_
libmozjs128-release.so:_ZN2JS10ToBigInt64EPKNS_6BigIntE
libmozjs128-release.so:_ZN2JS10ToGetterIdEP9JSContextNS_6HandleINS_11PropertyKeyEEENS_13MutableHandleIS3_EE
libmozjs128-release.so:_ZN2JS10ToSetterIdEP9JSContextNS_6HandleINS_11PropertyKeyEEENS_13MutableHandleIS3_EE
libmozjs128-release.so:_ZN2JS10WarnLatin1EP9JSContextPKcz
libmozjs128-release.so:_ZN2JS11ArrayBuffer19GrowableSharedClassE
libmozjs128-release.so:_ZN2JS11ArrayBuffer22FixedLengthSharedClassE
libmozjs128-release.so:_ZN2JS11ArrayBuffer22ResizableUnsharedClassE
libmozjs128-release.so:_ZN2JS11ArrayBuffer24FixedLengthUnsharedClassE
libmozjs128-release.so:_ZN2JS11ArrayBuffer6createEP9JSContextm
libmozjs128-release.so:_ZN2JS11ArrayBuffer6unwrapEP8JSObject
libmozjs128-release.so:_ZN2JS11ArrayBuffer7getDataEPbRKNS_15AutoRequireNoGCE
libmozjs128-release.so:_ZN2JS11Compartment10putWrapperEP9JSContextP8JSObjectS4_
libmozjs128-release.so:_ZN2JS11Compartment10putWrapperEP9JSContextP8JSStringS4_
libmozjs128-release.so:_ZN2JS11Compartment11sweepRealmsEPNS_9GCContextEbb
libmozjs128-release.so:_ZN2JS11Compartment13removeWrapperEN2js16ObjectWrapperMap3PtrE
libmozjs128-release.so:_ZN2JS11Compartment17sweepAfterMinorGCEP8JSTracer
libmozjs128-release.so:_ZN2JS11Compartment18fixupAfterMovingGCEP8JSTracer
libmozjs128-release.so:_ZN2JS11Compartment18getOrCreateWrapperEP9JSContextNS_6HandleIP8JSObjectEENS_13MutableHandleIS5_EE
libmozjs128-release.so:_ZN2JS11Compartment19findSweepGroupEdgesEv
libmozjs128-release.so:_ZN2JS11Compartment22addSizeOfIncludingThisEPFmPKvEPmS5_S5_
libmozjs128-release.so:_ZN2JS11Compartment24traceWeakNativeIteratorsEP8JSTracer
libmozjs128-release.so:_ZN2JS11Compartment35traceWrapperTargetsInCollectedZonesEP8JSTracerNS0_12EdgeSelectorE
libmozjs128-release.so:_ZN2JS11Compartment39traceCrossCompartmentObjectWrapperEdgesEP8JSTracer
libmozjs128-release.so:_ZN2JS11Compartment40getNonWrapperObjectForCurrentCompartmentEP9JSContextNS_6HandleIP8JSObjectEENS_13MutableHandleIS5_EE
libmozjs128-release.so:_ZN2JS11Compartment43traceIncomingCrossCompartmentEdgesForZoneGCEP8JSTracerNS0_12EdgeSelectorE
libmozjs128-release.so:_ZN2JS11Compartment48fixupCrossCompartmentObjectWrappersAfterMovingGCEP8JSTracer
libmozjs128-release.so:_ZN2JS11Compartment4wrapEP9JSContextNS_13MutableHandleIN7mozilla5MaybeINS_18PropertyDescriptorEEEEE
libmozjs128-release.so:_ZN2JS11Compartment4wrapEP9JSContextNS_13MutableHandleINS_18PropertyDescriptorEEE
libmozjs128-release.so:_ZN2JS11Compartment4wrapEP9JSContextNS_13MutableHandleINS_8GCVectorINS_5ValueELm0EN2js15TempAllocPolicyEEEEE
libmozjs128-release.so:_ZN2JS11Compartment4wrapEP9JSContextNS_13MutableHandleIP8JSObjectEE
libmozjs128-release.so:_ZN2JS11Compartment4wrapEP9JSContextNS_13MutableHandleIP8JSStringEE
libmozjs128-release.so:_ZN2JS11Compartment4wrapEP9JSContextNS_13MutableHandleIPNS_6BigIntEEE
libmozjs128-release.so:_ZN2JS11Compartment6rewrapEP9JSContextNS_13MutableHandleIP8JSObjectEENS_6HandleIS5_EE
libmozjs128-release.so:_ZN2JS11Compartment7destroyEPNS_9GCContextE
libmozjs128-release.so:_ZN2JS11CompartmentC1EPNS_4ZoneEb
libmozjs128-release.so:_ZN2JS11CompartmentC2EPNS_4ZoneEb
libmozjs128-release.so:_ZN2JS11CreateErrorEP9JSContext9JSExnTypeNS_6HandleIP8JSObjectEENS3_IP8JSStringEEjNS_21ColumnNumberOneOriginEP13JSErrorReportS9_NS3_IN7mozilla5MaybeINS_5ValueEEEEENS_13MutableHandleISF_EE
libmozjs128-release.so:_ZN2JS11DayFromTimeEd
libmozjs128-release.so:_ZN2JS11DayFromYearEd
libmozjs128-release.so:_ZN2JS11GetJSTimersEP9JSContext
libmozjs128-release.so:_ZN2JS11IsAtomsZoneEPNS_4ZoneE
libmozjs128-release.so:_ZN2JS11IsMapObjectEP9JSContextNS_6HandleIP8JSObjectEEPb
libmozjs128-release.so:_ZN2JS11IsSetObjectEP9JSContextNS_6HandleIP8JSObjectEEPb
libmozjs128-release.so:_ZN2JS11IsValidJSONEPKDsj
libmozjs128-release.so:_ZN2JS11IsValidJSONEPKhj
libmozjs128-release.so:_ZN2JS11PropertyKey12isNonIntAtomEP6JSAtom
libmozjs128-release.so:_ZN2JS11PropertyKey12isNonIntAtomEP8JSString
libmozjs128-release.so:_ZN2JS11PropertyKey16fromPinnedStringEP8JSString
libmozjs128-release.so:_ZN2JS11SetJobQueueEP9JSContextPNS_8JobQueueE
libmozjs128-release.so:_ZN2JS11ToBigUint64EPKNS_6BigIntE
libmozjs128-release.so:_ZN2JS11ToPrimitiveEP9JSContextNS_6HandleIP8JSObjectEE6JSTypeNS_13MutableHandleINS_5ValueEEE
libmozjs128-release.so:_ZN2JS12AddSizeOfTabEP9JSContextNS_6HandleIP8JSObjectEEPFmPKvEPNS_20ObjectPrivateVisitorEPNS_8TabSizesE
libmozjs128-release.so:_ZN2JS12AutoFilename10setUnownedEPKc
libmozjs128-release.so:_ZN2JS12AutoFilename15setScriptSourceEPN2js12ScriptSourceE
libmozjs128-release.so:_ZN2JS12AutoFilename5resetEv
libmozjs128-release.so:_ZN2JS12AutoFilename8setOwnedEON7mozilla9UniquePtrIA_cNS_10FreePolicyEEE
libmozjs128-release.so:_ZN2JS12AutoGCRooter5traceEP8JSTracer
libmozjs128-release.so:_ZN2JS12GetPromiseIDENS_6HandleIP8JSObjectEE
libmozjs128-release.so:_ZN2JS12GetSymbolForEP9JSContextNS_6HandleIP8JSStringEE
libmozjs128-release.so:_ZN2JS12LooselyEqualEP9JSContextNS_6HandleINS_5ValueEEES4_Pb
libmozjs128-release.so:_ZN2JS12NewMapObjectEP9JSContext
libmozjs128-release.so:_ZN2JS12NewSetObjectEP9JSContext
libmozjs128-release.so:_ZN2JS12ObjectIsDateEP9JSContextNS_6HandleIP8JSObjectEEPb
libmozjs128-release.so:_ZN2JS12ProtoKeyToIdEP9JSContext10JSProtoKeyNS_13MutableHandleINS_11PropertyKeyEEE
libmozjs128-release.so:_ZN2JS12YearFromTimeEd
libmozjs128-release.so:_ZN2JS13CompileModuleEP9JSContextRKNS_22ReadOnlyCompileOptionsERNS_10SourceTextIDsEE
libmozjs128-release.so:_ZN2JS13CompileModuleEP9JSContextRKNS_22ReadOnlyCompileOptionsERNS_10SourceTextIN7mozilla8Utf8UnitEEE
libmozjs128-release.so:_ZN2JS13DayWithinYearEdd
libmozjs128-release.so:_ZN2JS13DecodeStencilEP9JSContextRKNS_21ReadOnlyDecodeOptionsERKN7mozilla5RangeIKhEEPPN2js8frontend18CompilationStencilE
libmozjs128-release.so:_ZN2JS13DecodeStencilEPN2js15FrontendContextERKNS_21ReadOnlyDecodeOptionsERKN7mozilla5RangeIKhEEPPNS0_8frontend18CompilationStencilE
libmozjs128-release.so:_ZN2JS13EncodeStencilEP9JSContextPN2js8frontend18CompilationStencilERN7mozilla6VectorIhLm0ENS6_17MallocAllocPolicyEEE
libmozjs128-release.so:_ZN2JS13ExecuteRegExpEP9JSContextNS_6HandleIP8JSObjectEES5_PKDsmPmbNS_13MutableHandleINS_5ValueEEE
libmozjs128-release.so:_ZN2JS13ForOfIterator10closeThrowEv
libmozjs128-release.so:_ZN2JS13ForOfIterator4initENS_6HandleINS_5ValueEEENS0_19NonIterableBehaviorE
libmozjs128-release.so:_ZN2JS13ForOfIterator4nextENS_13MutableHandleINS_5ValueEEEPb
libmozjs128-release.so:_ZN2JS13GetObjectZoneEP8JSObject
libmozjs128-release.so:_ZN2JS13GetSymbolCodeENS_6HandleIPNS_6SymbolEEE
libmozjs128-release.so:_ZN2JS13GetWasmModuleENS_6HandleIP8JSObjectEE
libmozjs128-release.so:_ZN2JS13IsArrayObjectEP9JSContextNS_6HandleINS_5ValueEEEPb
libmozjs128-release.so:_ZN2JS13IsArrayObjectEP9JSContextNS_6HandleIP8JSObjectEEPb
libmozjs128-release.so:_ZN2JS13IsConstructorEP8JSObject
libmozjs128-release.so:_ZN2JS13IsGCPoisoningEv
libmozjs128-release.so:_ZN2JS13IsGCScheduledEP9JSContext
libmozjs128-release.so:_ZN2JS13IterateRealmsEP9JSContextPvPFvS1_S2_PNS_5RealmERKNS_15AutoRequireNoGCEE
libmozjs128-release.so:_ZN2JS13MinorGcToJSONEP9JSContext
libmozjs128-release.so:_ZN2JS13MonthFromTimeEd
libmozjs128-release.so:_ZN2JS13NewDateObjectEP9JSContextNS_11ClippedTimeE
libmozjs128-release.so:_ZN2JS13NewDateObjectEP9JSContextiiiiii
libmozjs128-release.so:_ZN2JS13PurgePCCountsEP9JSContext
libmozjs128-release.so:_ZN2JS13RejectPromiseEP9JSContextNS_6HandleIP8JSObjectEENS2_INS_5ValueEEE
libmozjs128-release.so:_ZN2JS13ResetTimeZoneEv
libmozjs128-release.so:_ZN2JS13SizeOfStencilEPN2js8frontend18CompilationStencilEPFmPKvE
libmozjs128-release.so:_ZN2JS13SkipZoneForGCEP9JSContextPNS_4ZoneE
libmozjs128-release.so:_ZN2JS13StencilAddRefEPN2js8frontend18CompilationStencilE
libmozjs128-release.so:_ZN2JS13StrictlyEqualEP9JSContextNS_6HandleINS_5ValueEEES4_Pb
libmozjs128-release.so:_ZN2JS13StringIsASCIIEN7mozilla4SpanIKcLm18446744073709551615EEE
libmozjs128-release.so:_ZN2JS13StringIsASCIIEPKc
libmozjs128-release.so:_ZN2JS13TraceChildrenEP8JSTracerNS_9GCCellPtrE
libmozjs128-release.so:_ZN2JS14AddServoSizeOfEP9JSContextPFmPKvEPNS_20ObjectPrivateVisitorEPNS_10ServoSizesE
libmozjs128-release.so:_ZN2JS14BigIntToNumberEPKNS_6BigIntE
libmozjs128-release.so:_ZN2JS14BigIntToStringEP9JSContextNS_6HandleIPNS_6BigIntEEEh
libmozjs128-release.so:_ZN2JS14CallbackTracerC1EP9JSContextNS_10TracerKindENS_12TraceOptionsE
libmozjs128-release.so:_ZN2JS14CallbackTracerC2EP9JSContextNS_10TracerKindENS_12TraceOptionsE
libmozjs128-release.so:_ZN2JS14CompileOptions27setIntroductionInfoToCallerEP9JSContextPKcNS_13MutableHandleIP8JSScriptEE
libmozjs128-release.so:_ZN2JS14CompileOptionsC1EP9JSContext
libmozjs128-release.so:_ZN2JS14CompileOptionsC2EP9JSContext
libmozjs128-release.so:_ZN2JS14ContextOptions10setFuzzingEb
libmozjs128-release.so:_ZN2JS14CopyAsyncStackEP9JSContextNS_6HandleIP8JSObjectEENS2_IP8JSStringEENS_13MutableHandleIS4_EERKN7mozilla5MaybeImEE
libmozjs128-release.so:_ZN2JS14GetArrayLengthEP9JSContextNS_6HandleIP8JSObjectEEPj
libmozjs128-release.so:_ZN2JS14GetRegExpFlagsEP9JSContextNS_6HandleIP8JSObjectEE
libmozjs128-release.so:_ZN2JS14IsISOStyleDateEP9JSContextRKNS_11Latin1CharsE
libmozjs128-release.so:_ZN2JS14ModuleEvaluateEP9JSContextNS_6HandleIP8JSObjectEENS_13MutableHandleINS_5ValueEEE
libmozjs128-release.so:_ZN2JS14ModuleIsLinkedEP8JSObject
libmozjs128-release.so:_ZN2JS14NewArrayBufferEP9JSContextm
libmozjs128-release.so:_ZN2JS14NewArrayObjectEP9JSContextRKNS_16HandleValueArrayE
libmozjs128-release.so:_ZN2JS14NewArrayObjectEP9JSContextm
libmozjs128-release.so:_ZN2JS14NumberToBigIntEP9JSContextd
libmozjs128-release.so:_ZN2JS14NumberToStringEdRA32_c
libmozjs128-release.so:_ZN2JS14ObjectIsRegExpEP9JSContextNS_6HandleIP8JSObjectEEPb
libmozjs128-release.so:_ZN2JS14ObjectOpResult12failBadIndexEv
libmozjs128-release.so:_ZN2JS14ObjectOpResult12failReadOnlyEv
libmozjs128-release.so:_ZN2JS14ObjectOpResult14failCantDeleteEv
libmozjs128-release.so:_ZN2JS14ObjectOpResult14failGetterOnlyEv
libmozjs128-release.so:_ZN2JS14ObjectOpResult16failCantSetProtoEv
libmozjs128-release.so:_ZN2JS14ObjectOpResult17failNoNamedSetterEv
libmozjs128-release.so:_ZN2JS14ObjectOpResult18failBadArrayLengthEv
libmozjs128-release.so:_ZN2JS14ObjectOpResult19failNoIndexedSetterEv
libmozjs128-release.so:_ZN2JS14ObjectOpResult20failCantRedefinePropEv
libmozjs128-release.so:_ZN2JS14ObjectOpResult21failCantSetInterposedEv
libmozjs128-release.so:_ZN2JS14ObjectOpResult21failInvalidDescriptorEv
libmozjs128-release.so:_ZN2JS14ObjectOpResult21failNotDataDescriptorEv
libmozjs128-release.so:_ZN2JS14ObjectOpResult25failCantPreventExtensionsEv
libmozjs128-release.so:_ZN2JS14ObjectOpResult27failCantDefineWindowElementEv
libmozjs128-release.so:_ZN2JS14ObjectOpResult27failCantDeleteWindowElementEv
libmozjs128-release.so:_ZN2JS14ObjectOpResult33failCantDefineWindowNamedPropertyEv
libmozjs128-release.so:_ZN2JS14ObjectOpResult33failCantDeleteWindowNamedPropertyEv
libmozjs128-release.so:_ZN2JS14ObjectOpResult35failCantDefineWindowNonConfigurableEv
libmozjs128-release.so:_ZN2JS14ResolvePromiseEP9JSContextNS_6HandleIP8JSObjectEENS2_INS_5ValueEEE
libmozjs128-release.so:_ZN2JS14SetArrayLengthEP9JSContextNS_6HandleIP8JSObjectEEj
libmozjs128-release.so:_ZN2JS14SetBrittleModeEP9JSContextb
libmozjs128-release.so:_ZN2JS14SetRegExpInputEP9JSContextNS_6HandleIP8JSObjectEENS2_IP8JSStringEE
libmozjs128-release.so:_ZN2JS14SetXrayJitInfoEPNS_11XrayJitInfoE
libmozjs128-release.so:_ZN2JS14StencilReleaseEPN2js8frontend18CompilationStencilE
libmozjs128-release.so:_ZN2JS14StringToBigIntEP9JSContextRKN7mozilla5RangeIKDsEE
libmozjs128-release.so:_ZN2JS14StringToBigIntEP9JSContextRKN7mozilla5RangeIKhEE
libmozjs128-release.so:_ZN2JS14UserRealmCountEP9JSContext
libmozjs128-release.so:_ZN2JS15ArrayBufferView7getDataEPbRKNS_15AutoRequireNoGCE
libmozjs128-release.so:_ZN2JS15CompileFunctionEP9JSContextNS_6HandleINS_13StackGCVectorIP8JSObjectN2js15TempAllocPolicyEEEEERKNS_22ReadOnlyCompileOptionsEPKcjPKSE_RNS_10SourceTextIDsEE
libmozjs128-release.so:_ZN2JS15CompileFunctionEP9JSContextNS_6HandleINS_13StackGCVectorIP8JSObjectN2js15TempAllocPolicyEEEEERKNS_22ReadOnlyCompileOptionsEPKcjPKSE_RNS_10SourceTextIN7mozilla8Utf8UnitEEE
libmozjs128-release.so:_ZN2JS15CompileUtf8FileEP9JSContextRKNS_22ReadOnlyCompileOptionsEP8_IO_FILE
libmozjs128-release.so:_ZN2JS15CompileUtf8PathEP9JSContextRKNS_22ReadOnlyCompileOptionsEPKc
libmozjs128-release.so:_ZN2JS15CopyArrayBufferEP9JSContextNS_6HandleIP8JSObjectEE
libmozjs128-release.so:_ZN2JS15ExplainGCReasonENS_8GCReasonE
libmozjs128-release.so:_ZN2JS15FormatStackDumpEP9JSContextbbb
libmozjs128-release.so:_ZN2JS15GCTraceKindSizeENS_9TraceKindE
libmozjs128-release.so:_ZN2JS15GetBuiltinClassEP9JSContextNS_6HandleIP8JSObjectEEPN2js7ESClassE
libmozjs128-release.so:_ZN2JS15GetModuleObjectENS_6HandleIP8JSScriptEE
libmozjs128-release.so:_ZN2JS15GetModuleScriptENS_6HandleIP8JSObjectEE
libmozjs128-release.so:_ZN2JS15GetPromiseStateENS_6HandleIP8JSObjectEE
libmozjs128-release.so:_ZN2JS15GetRealmPrivateEPNS_5RealmE
libmozjs128-release.so:_ZN2JS15GetRegExpSourceEP9JSContextNS_6HandleIP8JSObjectEE
libmozjs128-release.so:_ZN2JS15GetWeakMapEntryEP9JSContextNS_6HandleIP8JSObjectEENS2_INS_5ValueEEENS_13MutableHandleIS6_EE
libmozjs128-release.so:_ZN2JS15IsPromiseObjectENS_6HandleIP8JSObjectEE
libmozjs128-release.so:_ZN2JS15IsWeakMapObjectEP8JSObject
libmozjs128-release.so:_ZN2JS15JobQueueIsEmptyEP9JSContext
libmozjs128-release.so:_ZN2JS15NewRegExpObjectEP9JSContextPKcmNS_11RegExpFlagsE
libmozjs128-release.so:_ZN2JS15NullHandleValueE
libmozjs128-release.so:_ZN2JS15SetRealmNonLiveEPNS_5RealmE
libmozjs128-release.so:_ZN2JS15SetRealmPrivateEPNS_5RealmEPv
libmozjs128-release.so:_ZN2JS15SetWaitCallbackEP9JSRuntimePFPvPhEPFvS2_Em
libmozjs128-release.so:_ZN2JS15SetWeakMapEntryEP9JSContextNS_6HandleIP8JSObjectEENS2_INS_5ValueEEES7_
libmozjs128-release.so:_ZN2JS15TrueHandleValueE
libmozjs128-release.so:_ZN2JS15TypedArray_base10fromObjectEP8JSObject
libmozjs128-release.so:_ZN2JS15TypedArray_base16resizableClassesE
libmozjs128-release.so:_ZN2JS15TypedArray_base18fixedLengthClassesE
libmozjs128-release.so:_ZN2JS16ArrayBufferCloneEP9JSContextNS_6HandleIP8JSObjectEEmm
libmozjs128-release.so:_ZN2JS16BigIntFitsNumberEPKNS_6BigIntEPd
libmozjs128-release.so:_ZN2JS16BigIntIsNegativeEPKNS_6BigIntE
libmozjs128-release.so:_ZN2JS16BuildStackStringEP9JSContextP12JSPrincipalsNS_6HandleIP8JSObjectEENS_13MutableHandleIP8JSStringEEmN2js11StackFormatE
libmozjs128-release.so:_ZN2JS16ClearKeptObjectsEP9JSContext
libmozjs128-release.so:_ZN2JS16EncodeUtf8ToWideEP9JSContextPKc
libmozjs128-release.so:_ZN2JS16EncodeWideToUtf8EP9JSContextPKw
libmozjs128-release.so:_ZN2JS16EvaluateUtf8PathEP9JSContextRKNS_22ReadOnlyCompileOptionsEPKcNS_13MutableHandleINS_5ValueEEE
libmozjs128-release.so:_ZN2JS16FalseHandleValueE
libmozjs128-release.so:_ZN2JS16GCThingTraceKindEPv
libmozjs128-release.so:_ZN2JS16GetFunctionRealmEP9JSContextNS_6HandleIP8JSObjectEE
libmozjs128-release.so:_ZN2JS16GetModulePrivateEP8JSObject
libmozjs128-release.so:_ZN2JS16GetPromiseResultENS_6HandleIP8JSObjectEE
libmozjs128-release.so:_ZN2JS16GetScriptPrivateEP8JSScript
libmozjs128-release.so:_ZN2JS16InternalGCReasonENS_8GCReasonE
libmozjs128-release.so:_ZN2JS16IsJSMEnvironmentEP8JSObject
libmozjs128-release.so:_ZN2JS16NewPromiseObjectEP9JSContextNS_6HandleIP8JSObjectEE
libmozjs128-release.so:_ZN2JS16NewWeakMapObjectEP9JSContext
libmozjs128-release.so:_ZN2JS16NonIncrementalGCEP9JSContextNS_9GCOptionsENS_8GCReasonE
libmozjs128-release.so:_ZN2JS16PrepareForFullGCEP9JSContext
libmozjs128-release.so:_ZN2JS16PrepareZoneForGCEP9JSContextPNS_4ZoneE
libmozjs128-release.so:_ZN2JS16RuntimeHeapStateEv
libmozjs128-release.so:_ZN2JS16SetModulePrivateEP8JSObjectRKNS_5ValueE
libmozjs128-release.so:_ZN2JS16SetScriptPrivateEP8JSScriptRKNS_5ValueE
libmozjs128-release.so:_ZN2JS16SystemRealmCountEP9JSContext
libmozjs128-release.so:_ZN2JS16WantEagerMajorGCEP9JSRuntime
libmozjs128-release.so:_ZN2JS16WantEagerMinorGCEP9JSRuntime
libmozjs128-release.so:_ZN2JS16WasIncrementalGCEP9JSRuntime
libmozjs128-release.so:_ZN2JS17AddPersistentRootEP9JSRuntimeNS_8RootKindEPN2js20PersistentRootedBaseE
libmozjs128-release.so:_ZN2JS17AddPersistentRootEPNS_14RootingContextENS_8RootKindEPN2js20PersistentRootedBaseE
libmozjs128-release.so:_ZN2JS17ArrayBufferOrView6unwrapEP8JSObject
libmozjs128-release.so:_ZN2JS17CheckRegExpSyntaxEP9JSContextPKDsmNS_11RegExpFlagsENS_13MutableHandleINS_5ValueEEE
libmozjs128-release.so:_ZN2JS17CompileJsonModuleEP9JSContextRKNS_22ReadOnlyCompileOptionsERNS_10SourceTextIDsEE
libmozjs128-release.so:_ZN2JS17ContextOptionsRefEP9JSContext
libmozjs128-release.so:_ZN2JS17DetachArrayBufferEP9JSContextNS_6HandleIP8JSObjectEE
libmozjs128-release.so:_ZN2JS17DisableJitBackendEv
libmozjs128-release.so:_ZN2JS17GetExceptionCauseEP8JSObject
libmozjs128-release.so:_ZN2JS17GetProfiledFramesEP9JSContextPv
libmozjs128-release.so:_ZN2JS17GetRealmKeyObjectEP9JSContext
libmozjs128-release.so:_ZN2JS17GetSavedFrameLineEP9JSContextP12JSPrincipalsNS_6HandleIP8JSObjectEEPjNS_20SavedFrameSelfHostedE
libmozjs128-release.so:_ZN2JS17HadFrontendErrorsEPN2js15FrontendContextE
libmozjs128-release.so:_ZN2JS17NewJSMEnvironmentEP9JSContext
libmozjs128-release.so:_ZN2JS17NewUCRegExpObjectEP9JSContextPKDsmNS_11RegExpFlagsE
libmozjs128-release.so:_ZN2JS17RealmBehaviorsRefEP9JSContext
libmozjs128-release.so:_ZN2JS17RealmBehaviorsRefEPNS_5RealmE
libmozjs128-release.so:_ZN2JS17SetLowMemoryStateEP9JSContextb
libmozjs128-release.so:_ZN2JS17StencilIsBorrowedEPN2js8frontend18CompilationStencilE
libmozjs128-release.so:_ZN2JS17ToJSONMaybeSafelyEP9JSContextNS_6HandleIP8JSObjectEEPFbPKDsjPvES8_
libmozjs128-release.so:_ZN2JS17UnwrapArrayBufferEP8JSObject
libmozjs128-release.so:_ZN2JS17Utf8ToOneUcs4CharEPKhi
libmozjs128-release.so:_ZN2JS18AbortIncrementalGCEP9JSContext
libmozjs128-release.so:_ZN2JS18ArrayBufferHasDataEP8JSObject
libmozjs128-release.so:_ZN2JS18ClearModulePrivateEP8JSObject
libmozjs128-release.so:_ZN2JS18ClearRegExpStaticsEP9JSContextNS_6HandleIP8JSObjectEE
libmozjs128-release.so:_ZN2JS18CollectGlobalStatsEPNS_11GlobalStatsE
libmozjs128-release.so:_ZN2JS18EncodeNarrowToUtf8EP9JSContextPKc
libmozjs128-release.so:_ZN2JS18EncodeUtf8ToNarrowEP9JSContextPKc
libmozjs128-release.so:_ZN2JS18ErrorReportBuilder35populateUncaughtExceptionReportUTF8EP9JSContextNS_6HandleIP8JSObjectEEz
libmozjs128-release.so:_ZN2JS18ErrorReportBuilder37populateUncaughtExceptionReportUTF8VAEP9JSContextNS_6HandleIP8JSObjectEEP13__va_list_tag
libmozjs128-release.so:_ZN2JS18ErrorReportBuilder4initEP9JSContextRKNS_14ExceptionStackENS0_16SniffingBehaviorE
libmozjs128-release.so:_ZN2JS18ErrorReportBuilderC1EP9JSContext
libmozjs128-release.so:_ZN2JS18ErrorReportBuilderC2EP9JSContext
