libQt5Pdf.so.5:_ZN12QPdfDocument10getAllTextEi
libQt5Pdf.so.5:_ZN12QPdfDocument11qt_metacallEN11QMetaObject4CallEiPPv
libQt5Pdf.so.5:_ZN12QPdfDocument11qt_metacastEPKc
libQt5Pdf.so.5:_ZN12QPdfDocument11setPasswordERK7QString
libQt5Pdf.so.5:_ZN12QPdfDocument12getSelectionEi7QPointFS0_
libQt5Pdf.so.5:_ZN12QPdfDocument13statusChangedENS_6StatusE
libQt5Pdf.so.5:_ZN12QPdfDocument15passwordChangedEv
libQt5Pdf.so.5:_ZN12QPdfDocument16pageCountChangedEi
libQt5Pdf.so.5:_ZN12QPdfDocument16passwordRequiredEv
libQt5Pdf.so.5:_ZN12QPdfDocument16staticMetaObjectE
libQt5Pdf.so.5:_ZN12QPdfDocument19getSelectionAtIndexEiii
libQt5Pdf.so.5:_ZN12QPdfDocument4loadEP9QIODevice
libQt5Pdf.so.5:_ZN12QPdfDocument4loadERK7QString
libQt5Pdf.so.5:_ZN12QPdfDocument5closeEv
libQt5Pdf.so.5:_ZN12QPdfDocument6renderEi5QSize25QPdfDocumentRenderOptions
libQt5Pdf.so.5:_ZN12QPdfDocumentC1EP7QObject
libQt5Pdf.so.5:_ZN12QPdfDocumentC2EP7QObject
libQt5Pdf.so.5:_ZN12QPdfDocumentD0Ev
libQt5Pdf.so.5:_ZN12QPdfDocumentD1Ev
libQt5Pdf.so.5:_ZN12QPdfDocumentD2Ev
libQt5Pdf.so.5:_ZN13QPdfLinkModel11pageChangedEi
libQt5Pdf.so.5:_ZN13QPdfLinkModel11qt_metacallEN11QMetaObject4CallEiPPv
libQt5Pdf.so.5:_ZN13QPdfLinkModel11qt_metacastEPKc
libQt5Pdf.so.5:_ZN13QPdfLinkModel11setDocumentEP12QPdfDocument
libQt5Pdf.so.5:_ZN13QPdfLinkModel15documentChangedEv
libQt5Pdf.so.5:_ZN13QPdfLinkModel15onStatusChangedEN12QPdfDocument6StatusE
libQt5Pdf.so.5:_ZN13QPdfLinkModel16staticMetaObjectE
libQt5Pdf.so.5:_ZN13QPdfLinkModel7setPageEi
libQt5Pdf.so.5:_ZN13QPdfLinkModelC1EP7QObject
libQt5Pdf.so.5:_ZN13QPdfLinkModelC2EP7QObject
libQt5Pdf.so.5:_ZN13QPdfLinkModelD0Ev
libQt5Pdf.so.5:_ZN13QPdfLinkModelD1Ev
libQt5Pdf.so.5:_ZN13QPdfLinkModelD2Ev
libQt5Pdf.so.5:_ZN13QPdfSelection16staticMetaObjectE
libQt5Pdf.so.5:_ZN13QPdfSelectionC1EOS_
libQt5Pdf.so.5:_ZN13QPdfSelectionC1EP20QPdfSelectionPrivate
libQt5Pdf.so.5:_ZN13QPdfSelectionC1ERK7QString7QVectorI9QPolygonFE6QRectFii
libQt5Pdf.so.5:_ZN13QPdfSelectionC1ERKS_
libQt5Pdf.so.5:_ZN13QPdfSelectionC1Ev
libQt5Pdf.so.5:_ZN13QPdfSelectionC2EOS_
libQt5Pdf.so.5:_ZN13QPdfSelectionC2EP20QPdfSelectionPrivate
libQt5Pdf.so.5:_ZN13QPdfSelectionC2ERK7QString7QVectorI9QPolygonFE6QRectFii
libQt5Pdf.so.5:_ZN13QPdfSelectionC2ERKS_
libQt5Pdf.so.5:_ZN13QPdfSelectionC2Ev
libQt5Pdf.so.5:_ZN13QPdfSelectionD1Ev
libQt5Pdf.so.5:_ZN13QPdfSelectionD2Ev
libQt5Pdf.so.5:_ZN13QPdfSelectionaSERKS_
libQt5Pdf.so.5:_ZN15QPdfDestination16staticMetaObjectE
libQt5Pdf.so.5:_ZN15QPdfDestinationC1EOS_
libQt5Pdf.so.5:_ZN15QPdfDestinationC1EP22QPdfDestinationPrivate
libQt5Pdf.so.5:_ZN15QPdfDestinationC1ERKS_
libQt5Pdf.so.5:_ZN15QPdfDestinationC1Ei7QPointFd
libQt5Pdf.so.5:_ZN15QPdfDestinationC1Ev
libQt5Pdf.so.5:_ZN15QPdfDestinationC2EOS_
libQt5Pdf.so.5:_ZN15QPdfDestinationC2EP22QPdfDestinationPrivate
libQt5Pdf.so.5:_ZN15QPdfDestinationC2ERKS_
libQt5Pdf.so.5:_ZN15QPdfDestinationC2Ei7QPointFd
libQt5Pdf.so.5:_ZN15QPdfDestinationC2Ev
libQt5Pdf.so.5:_ZN15QPdfDestinationD1Ev
libQt5Pdf.so.5:_ZN15QPdfDestinationD2Ev
libQt5Pdf.so.5:_ZN15QPdfDestinationaSERKS_
libQt5Pdf.so.5:_ZN15QPdfSearchModel10timerEventEP11QTimerEvent
libQt5Pdf.so.5:_ZN15QPdfSearchModel10updatePageEi
libQt5Pdf.so.5:_ZN15QPdfSearchModel11qt_metacallEN11QMetaObject4CallEiPPv
libQt5Pdf.so.5:_ZN15QPdfSearchModel11qt_metacastEPKc
libQt5Pdf.so.5:_ZN15QPdfSearchModel11setDocumentEP12QPdfDocument
libQt5Pdf.so.5:_ZN15QPdfSearchModel15documentChangedEv
libQt5Pdf.so.5:_ZN15QPdfSearchModel15setSearchStringE7QString
libQt5Pdf.so.5:_ZN15QPdfSearchModel16staticMetaObjectE
libQt5Pdf.so.5:_ZN15QPdfSearchModel19searchStringChangedEv
libQt5Pdf.so.5:_ZN15QPdfSearchModelC1EP7QObject
libQt5Pdf.so.5:_ZN15QPdfSearchModelC2EP7QObject
libQt5Pdf.so.5:_ZN15QPdfSearchModelD0Ev
libQt5Pdf.so.5:_ZN15QPdfSearchModelD1Ev
libQt5Pdf.so.5:_ZN15QPdfSearchModelD2Ev
libQt5Pdf.so.5:_ZN16QPdfPageRenderer11qt_metacallEN11QMetaObject4CallEiPPv
libQt5Pdf.so.5:_ZN16QPdfPageRenderer11qt_metacastEPKc
libQt5Pdf.so.5:_ZN16QPdfPageRenderer11requestPageEi5QSize25QPdfDocumentRenderOptions
libQt5Pdf.so.5:_ZN16QPdfPageRenderer11setDocumentEP12QPdfDocument
libQt5Pdf.so.5:_ZN16QPdfPageRenderer12pageRenderedEi5QSizeRK6QImage25QPdfDocumentRenderOptionsy
libQt5Pdf.so.5:_ZN16QPdfPageRenderer13setRenderModeENS_10RenderModeE
libQt5Pdf.so.5:_ZN16QPdfPageRenderer15documentChangedEP12QPdfDocument
libQt5Pdf.so.5:_ZN16QPdfPageRenderer16staticMetaObjectE
libQt5Pdf.so.5:_ZN16QPdfPageRenderer17renderModeChangedENS_10RenderModeE
libQt5Pdf.so.5:_ZN16QPdfPageRendererC1EP7QObject
libQt5Pdf.so.5:_ZN16QPdfPageRendererC2EP7QObject
libQt5Pdf.so.5:_ZN16QPdfPageRendererD0Ev
libQt5Pdf.so.5:_ZN16QPdfPageRendererD1Ev
libQt5Pdf.so.5:_ZN16QPdfPageRendererD2Ev
libQt5Pdf.so.5:_ZN16QPdfSearchResult16staticMetaObjectE
libQt5Pdf.so.5:_ZN16QPdfSearchResultC1EP23QPdfSearchResultPrivate
libQt5Pdf.so.5:_ZN16QPdfSearchResultC1Ei7QVectorI6QRectFE7QStringS3_
libQt5Pdf.so.5:_ZN16QPdfSearchResultC1Ev
libQt5Pdf.so.5:_ZN16QPdfSearchResultC2EP23QPdfSearchResultPrivate
libQt5Pdf.so.5:_ZN16QPdfSearchResultC2Ei7QVectorI6QRectFE7QStringS3_
libQt5Pdf.so.5:_ZN16QPdfSearchResultC2Ev
libQt5Pdf.so.5:_ZN17QPdfBookmarkModel11qt_metacallEN11QMetaObject4CallEiPPv
libQt5Pdf.so.5:_ZN17QPdfBookmarkModel11qt_metacastEPKc
libQt5Pdf.so.5:_ZN17QPdfBookmarkModel11setDocumentEP12QPdfDocument
libQt5Pdf.so.5:_ZN17QPdfBookmarkModel15documentChangedEP12QPdfDocument
libQt5Pdf.so.5:_ZN17QPdfBookmarkModel16setStructureModeENS_13StructureModeE
libQt5Pdf.so.5:_ZN17QPdfBookmarkModel16staticMetaObjectE
libQt5Pdf.so.5:_ZN17QPdfBookmarkModel20structureModeChangedENS_13StructureModeE
libQt5Pdf.so.5:_ZN17QPdfBookmarkModelC1EP7QObject
libQt5Pdf.so.5:_ZN17QPdfBookmarkModelC2EP7QObject
libQt5Pdf.so.5:_ZN18QPdfPageNavigation11qt_metacallEN11QMetaObject4CallEiPPv
libQt5Pdf.so.5:_ZN18QPdfPageNavigation11qt_metacastEPKc
libQt5Pdf.so.5:_ZN18QPdfPageNavigation11setDocumentEP12QPdfDocument
libQt5Pdf.so.5:_ZN18QPdfPageNavigation12goToNextPageEv
libQt5Pdf.so.5:_ZN18QPdfPageNavigation14setCurrentPageEi
libQt5Pdf.so.5:_ZN18QPdfPageNavigation15documentChangedEP12QPdfDocument
libQt5Pdf.so.5:_ZN18QPdfPageNavigation16goToPreviousPageEv
libQt5Pdf.so.5:_ZN18QPdfPageNavigation16pageCountChangedEi
libQt5Pdf.so.5:_ZN18QPdfPageNavigation16staticMetaObjectE
libQt5Pdf.so.5:_ZN18QPdfPageNavigation18currentPageChangedEi
libQt5Pdf.so.5:_ZN18QPdfPageNavigation22canGoToNextPageChangedEb
libQt5Pdf.so.5:_ZN18QPdfPageNavigation26canGoToPreviousPageChangedEb
libQt5Pdf.so.5:_ZN18QPdfPageNavigationC1EP7QObject
libQt5Pdf.so.5:_ZN18QPdfPageNavigationC2EP7QObject
libQt5Pdf.so.5:_ZN18QPdfPageNavigationD0Ev
libQt5Pdf.so.5:_ZN18QPdfPageNavigationD1Ev
libQt5Pdf.so.5:_ZN18QPdfPageNavigationD2Ev
libQt5Pdf.so.5:_ZN19QPdfDocumentPrivate10getCharBoxEP17fpdf_textpage_t__di
libQt5Pdf.so.5:_ZN19QPdfDocumentPrivate13checkCompleteEv
libQt5Pdf.so.5:_ZN19QPdfDocumentPrivate13fpdf_GetBlockEPvmPhm
libQt5Pdf.so.5:_ZN19QPdfDocumentPrivate15fpdf_AddSegmentEP17_FX_DOWNLOADHINTSmm
libQt5Pdf.so.5:_ZN19QPdfDocumentPrivate15getCharPositionEP17fpdf_textpage_t__di
libQt5Pdf.so.5:_ZN19QPdfDocumentPrivate15tryLoadDocumentEv
libQt5Pdf.so.5:_ZN19QPdfDocumentPrivate15updateLastErrorEv
libQt5Pdf.so.5:_ZN19QPdfDocumentPrivate16fpdf_IsDataAvailEP13_FX_FILEAVAILmm
libQt5Pdf.so.5:_ZN19QPdfDocumentPrivate17checkPageCompleteEi
libQt5Pdf.so.5:_ZN19QPdfDocumentPrivate33_q_copyFromSequentialSourceDeviceEv
libQt5Pdf.so.5:_ZN19QPdfDocumentPrivate35initiateAsyncLoadWithTotalSizeKnownEy
libQt5Pdf.so.5:_ZN19QPdfDocumentPrivate38_q_tryLoadingWithSizeFromContentHeaderEv
libQt5Pdf.so.5:_ZN19QPdfDocumentPrivate4loadEP9QIODeviceb
libQt5Pdf.so.5:_ZN19QPdfDocumentPrivate5clearEv
libQt5Pdf.so.5:_ZN19QPdfDocumentPrivate7getTextEP17fpdf_textpage_t__ii
libQt5Pdf.so.5:_ZN19QPdfDocumentPrivate7hitTestEi7QPointF
libQt5Pdf.so.5:_ZN19QPdfDocumentPrivate9setStatusEN12QPdfDocument6StatusE
libQt5Pdf.so.5:_ZN19QPdfDocumentPrivateC1Ev
libQt5Pdf.so.5:_ZN19QPdfDocumentPrivateC2Ev
libQt5Pdf.so.5:_ZN19QPdfDocumentPrivateD1Ev
libQt5Pdf.so.5:_ZN19QPdfDocumentPrivateD2Ev
libQt5Pdf.so.5:_ZNK12QPdfDocument10metaObjectEv
libQt5Pdf.so.5:_ZNK12QPdfDocument5errorEv
libQt5Pdf.so.5:_ZNK12QPdfDocument6statusEv
libQt5Pdf.so.5:_ZNK12QPdfDocument8metaDataENS_13MetaDataFieldE
libQt5Pdf.so.5:_ZNK12QPdfDocument8pageSizeEi
libQt5Pdf.so.5:_ZNK12QPdfDocument8passwordEv
libQt5Pdf.so.5:_ZNK12QPdfDocument9pageCountEv
libQt5Pdf.so.5:_ZNK13QPdfLinkModel10metaObjectEv
libQt5Pdf.so.5:_ZNK13QPdfLinkModel4dataERK11QModelIndexi
libQt5Pdf.so.5:_ZNK13QPdfLinkModel4pageEv
libQt5Pdf.so.5:_ZNK13QPdfLinkModel8documentEv
libQt5Pdf.so.5:_ZNK13QPdfLinkModel8rowCountERK11QModelIndex
libQt5Pdf.so.5:_ZNK13QPdfLinkModel9roleNamesEv
libQt5Pdf.so.5:_ZNK13QPdfSelection10startIndexEv
libQt5Pdf.so.5:_ZNK13QPdfSelection15copyToClipboardEN10QClipboard4ModeE
libQt5Pdf.so.5:_ZNK13QPdfSelection17boundingRectangleEv
libQt5Pdf.so.5:_ZNK13QPdfSelection4textEv
libQt5Pdf.so.5:_ZNK13QPdfSelection6boundsEv
libQt5Pdf.so.5:_ZNK13QPdfSelection7isValidEv
libQt5Pdf.so.5:_ZNK13QPdfSelection8endIndexEv
libQt5Pdf.so.5:_ZNK15QPdfDestination4pageEv
libQt5Pdf.so.5:_ZNK15QPdfDestination4zoomEv
libQt5Pdf.so.5:_ZNK15QPdfDestination7isValidEv
libQt5Pdf.so.5:_ZNK15QPdfDestination8locationEv
libQt5Pdf.so.5:_ZNK15QPdfSearchModel10metaObjectEv
libQt5Pdf.so.5:_ZNK15QPdfSearchModel12searchStringEv
libQt5Pdf.so.5:_ZNK15QPdfSearchModel13resultAtIndexEi
libQt5Pdf.so.5:_ZNK15QPdfSearchModel13resultsOnPageEi
libQt5Pdf.so.5:_ZNK15QPdfSearchModel4dataERK11QModelIndexi
libQt5Pdf.so.5:_ZNK15QPdfSearchModel8documentEv
libQt5Pdf.so.5:_ZNK15QPdfSearchModel8rowCountERK11QModelIndex
libQt5Pdf.so.5:_ZNK15QPdfSearchModel9roleNamesEv
libQt5Pdf.so.5:_ZNK16QPdfPageRenderer10metaObjectEv
libQt5Pdf.so.5:_ZNK16QPdfPageRenderer10renderModeEv
libQt5Pdf.so.5:_ZNK16QPdfPageRenderer8documentEv
libQt5Pdf.so.5:_ZNK16QPdfSearchResult10rectanglesEv
libQt5Pdf.so.5:_ZNK16QPdfSearchResult12contextAfterEv
libQt5Pdf.so.5:_ZNK16QPdfSearchResult13contextBeforeEv
libQt5Pdf.so.5:_ZNK17QPdfBookmarkModel10metaObjectEv
libQt5Pdf.so.5:_ZNK17QPdfBookmarkModel11columnCountERK11QModelIndex
libQt5Pdf.so.5:_ZNK17QPdfBookmarkModel13structureModeEv
libQt5Pdf.so.5:_ZNK17QPdfBookmarkModel4dataERK11QModelIndexi
libQt5Pdf.so.5:_ZNK17QPdfBookmarkModel5indexEiiRK11QModelIndex
libQt5Pdf.so.5:_ZNK17QPdfBookmarkModel6parentERK11QModelIndex
libQt5Pdf.so.5:_ZNK17QPdfBookmarkModel8documentEv
libQt5Pdf.so.5:_ZNK17QPdfBookmarkModel8rowCountERK11QModelIndex
libQt5Pdf.so.5:_ZNK17QPdfBookmarkModel9roleNamesEv
libQt5Pdf.so.5:_ZNK18QPdfPageNavigation10metaObjectEv
libQt5Pdf.so.5:_ZNK18QPdfPageNavigation11currentPageEv
libQt5Pdf.so.5:_ZNK18QPdfPageNavigation15canGoToNextPageEv
libQt5Pdf.so.5:_ZNK18QPdfPageNavigation19canGoToPreviousPageEv
libQt5Pdf.so.5:_ZNK18QPdfPageNavigation8documentEv
libQt5Pdf.so.5:_ZNK18QPdfPageNavigation9pageCountEv
libQt5Pdf.so.5:_ZTI12QPdfDocument
libQt5Pdf.so.5:_ZTI13QPdfLinkModel
libQt5Pdf.so.5:_ZTI15QPdfSearchModel
libQt5Pdf.so.5:_ZTI16QPdfPageRenderer
libQt5Pdf.so.5:_ZTI17QPdfBookmarkModel
libQt5Pdf.so.5:_ZTI18QPdfPageNavigation
libQt5Pdf.so.5:_ZTS12QPdfDocument
libQt5Pdf.so.5:_ZTS13QPdfLinkModel
libQt5Pdf.so.5:_ZTS15QPdfSearchModel
libQt5Pdf.so.5:_ZTS16QPdfPageRenderer
libQt5Pdf.so.5:_ZTS17QPdfBookmarkModel
libQt5Pdf.so.5:_ZTS18QPdfPageNavigation
libQt5Pdf.so.5:_ZTV12QPdfDocument
libQt5Pdf.so.5:_ZTV13QPdfLinkModel
libQt5Pdf.so.5:_ZTV15QPdfSearchModel
libQt5Pdf.so.5:_ZTV16QPdfPageRenderer
libQt5Pdf.so.5:_ZTV17QPdfBookmarkModel
libQt5Pdf.so.5:_ZTV18QPdfPageNavigation
libQt5Pdf.so.5:_Zls6QDebugRK15QPdfDestination
libQt5Pdf.so.5:_Zls6QDebugRK16QPdfSearchResult
libQt5PdfWidgets.so.5:_ZN8QPdfView10paintEventEP11QPaintEvent
libQt5PdfWidgets.so.5:_ZN8QPdfView11qt_metacallEN11QMetaObject4CallEiPPv
libQt5PdfWidgets.so.5:_ZN8QPdfView11qt_metacastEPKc
libQt5PdfWidgets.so.5:_ZN8QPdfView11resizeEventEP12QResizeEvent
libQt5PdfWidgets.so.5:_ZN8QPdfView11setDocumentEP12QPdfDocument
libQt5PdfWidgets.so.5:_ZN8QPdfView11setPageModeENS_8PageModeE
libQt5PdfWidgets.so.5:_ZN8QPdfView11setZoomModeENS_8ZoomModeE
libQt5PdfWidgets.so.5:_ZN8QPdfView13setZoomFactorEd
libQt5PdfWidgets.so.5:_ZN8QPdfView14setPageSpacingEi
libQt5PdfWidgets.so.5:_ZN8QPdfView15documentChangedEP12QPdfDocument
libQt5PdfWidgets.so.5:_ZN8QPdfView15pageModeChangedENS_8PageModeE
libQt5PdfWidgets.so.5:_ZN8QPdfView15zoomModeChangedENS_8ZoomModeE
libQt5PdfWidgets.so.5:_ZN8QPdfView16scrollContentsByEii
libQt5PdfWidgets.so.5:_ZN8QPdfView16staticMetaObjectE
libQt5PdfWidgets.so.5:_ZN8QPdfView17zoomFactorChangedEd
libQt5PdfWidgets.so.5:_ZN8QPdfView18pageSpacingChangedEi
libQt5PdfWidgets.so.5:_ZN8QPdfView18setDocumentMarginsE8QMargins
libQt5PdfWidgets.so.5:_ZN8QPdfView22documentMarginsChangedE8QMargins
libQt5PdfWidgets.so.5:_ZN8QPdfViewC1EP7QWidget
libQt5PdfWidgets.so.5:_ZN8QPdfViewC1ER15QPdfViewPrivateP7QWidget
libQt5PdfWidgets.so.5:_ZN8QPdfViewC2EP7QWidget
libQt5PdfWidgets.so.5:_ZN8QPdfViewC2ER15QPdfViewPrivateP7QWidget
libQt5PdfWidgets.so.5:_ZN8QPdfViewD0Ev
libQt5PdfWidgets.so.5:_ZN8QPdfViewD1Ev
libQt5PdfWidgets.so.5:_ZN8QPdfViewD2Ev
libQt5PdfWidgets.so.5:_ZNK8QPdfView10metaObjectEv
libQt5PdfWidgets.so.5:_ZNK8QPdfView10zoomFactorEv
libQt5PdfWidgets.so.5:_ZNK8QPdfView11pageSpacingEv
libQt5PdfWidgets.so.5:_ZNK8QPdfView14pageNavigationEv
libQt5PdfWidgets.so.5:_ZNK8QPdfView15documentMarginsEv
libQt5PdfWidgets.so.5:_ZNK8QPdfView8documentEv
libQt5PdfWidgets.so.5:_ZNK8QPdfView8pageModeEv
libQt5PdfWidgets.so.5:_ZNK8QPdfView8zoomModeEv
libQt5PdfWidgets.so.5:_ZTI8QPdfView
libQt5PdfWidgets.so.5:_ZTS8QPdfView
libQt5PdfWidgets.so.5:_ZTV8QPdfView
libQt5PdfWidgets.so.5:_ZThn16_N8QPdfViewD0Ev
libQt5PdfWidgets.so.5:_ZThn16_N8QPdfViewD1Ev
libpdfplugin.so:qt_plugin_instance
libpdfplugin.so:qt_plugin_query_metadata
libqpdf.so:qt_plugin_instance
libqpdf.so:qt_plugin_query_metadata
