librustc_driver-f8caf2bfd7396df8.so:LLVMRustStringWriteImpl
librustc_driver-f8caf2bfd7396df8.so:_RINvCsiN8jfhUhbz9_21rustc_data_structures7outlineNCINvMs3_NtNtCshF5AtUv7kVK_18rustc_query_system9dep_graph10serializedINtBU_12EncoderStateNtNtCsbnIUe8x9cNz_12rustc_middle9dep_graph8DepsTypeE6recordNCNvBQ_11encode_node0E0uEB2g_
librustc_driver-f8caf2bfd7396df8.so:_RINvCsiN8jfhUhbz9_21rustc_data_structures7outlineNCINvMs3_NtNtCshF5AtUv7kVK_18rustc_query_system9dep_graph10serializedINtBU_12EncoderStateNtNtCsbnIUe8x9cNz_12rustc_middle9dep_graph8DepsTypeE6recordNCNvBQ_11encode_node0Es_0uEB2g_
librustc_driver-f8caf2bfd7396df8.so:_RINvCsiN8jfhUhbz9_21rustc_data_structures7outlineNCINvMs3_NtNtCshF5AtUv7kVK_18rustc_query_system9dep_graph10serializedINtBU_12EncoderStateNtNtCsbnIUe8x9cNz_12rustc_middle9dep_graph8DepsTypeE6recordNCNvBQ_20encode_promoted_node0E0uECs2ERWbPTlodK_16rustc_query_impl
librustc_driver-f8caf2bfd7396df8.so:_RINvCsiN8jfhUhbz9_21rustc_data_structures7outlineNCINvMs3_NtNtCshF5AtUv7kVK_18rustc_query_system9dep_graph10serializedINtBU_12EncoderStateNtNtCsbnIUe8x9cNz_12rustc_middle9dep_graph8DepsTypeE6recordNCNvBQ_20encode_promoted_node0Es_0uECs2ERWbPTlodK_16rustc_query_impl
librustc_driver-f8caf2bfd7396df8.so:_RINvCsiN8jfhUhbz9_21rustc_data_structures7outlineNCINvMs3_NtNtCshF5AtUv7kVK_18rustc_query_system9dep_graph5graphINtBU_12DepGraphDataNtNtCsbnIUe8x9cNz_12rustc_middle9dep_graph8DepsTypeE52assert_dep_node_not_yet_allocated_in_current_sessionNtNtCs19MuVdBY7V6_5alloc6string6StringNCINvMs1_BU_B1M_9with_taskNtNtNtB2a_2ty7context6TyCtxtNtNtCsjdyqsEEf0cE_10rustc_span6symbol6SymbolINtCsjcIbwyOWlC2_17rustc_codegen_ssa13ModuleCodegenNtCseuJrGsAzkDK_18rustc_codegen_llvm10ModuleLlvmEE0E0uEB6R_
librustc_driver-f8caf2bfd7396df8.so:_RINvCsiN8jfhUhbz9_21rustc_data_structures7outlineNCINvMs3_NtNtCshF5AtUv7kVK_18rustc_query_system9dep_graph5graphINtBU_12DepGraphDataNtNtCsbnIUe8x9cNz_12rustc_middle9dep_graph8DepsTypeE52assert_dep_node_not_yet_allocated_in_current_sessionNtNtCs19MuVdBY7V6_5alloc6string6StringNCINvMs1_BU_B1M_9with_taskNtNtNtB2a_2ty7context6TyCtxtRNtNtCsjj3dQwFOuTb_3std4path4PathuE0E0uECskmy2rFhdDOz_14rustc_metadata
librustc_driver-f8caf2bfd7396df8.so:_RINvCsiN8jfhUhbz9_21rustc_data_structures7outlineNCINvMs3_NtNtCshF5AtUv7kVK_18rustc_query_system9dep_graph5graphINtBU_12DepGraphDataNtNtCsbnIUe8x9cNz_12rustc_middle9dep_graph8DepsTypeE52assert_dep_node_not_yet_allocated_in_current_sessionNtNtCs19MuVdBY7V6_5alloc6string6StringNCINvMs1_BU_B1M_9with_taskTNtNtCs2ERWbPTlodK_16rustc_query_impl8plumbing9QueryCtxtINtB4V_13DynamicConfigINtNtB2_9vec_cache8VecCacheNtCs6whg2ier8G0_12rustc_hir_id7OwnerIdINtNtNtB2a_5query5erase6ErasedAhj8_ENtBU_12DepNodeIndexEKb0_KB84_KB84_EEB6x_B79_E0E0uEB4V_
librustc_driver-f8caf2bfd7396df8.so:_RINvCsiN8jfhUhbz9_21rustc_data_structures7outlineNCINvMs3_NtNtCshF5AtUv7kVK_18rustc_query_system9dep_graph5graphINtBU_12DepGraphDataNtNtCsbnIUe8x9cNz_12rustc_middle9dep_graph8DepsTypeE52assert_dep_node_not_yet_allocated_in_current_sessionNtNtCs19MuVdBY7V6_5alloc6string6StringNCINvMs1_BU_B1M_9with_taskTNtNtCs2ERWbPTlodK_16rustc_query_impl8plumbing9QueryCtxtINtB4V_13DynamicConfigINtNtB2_9vec_cache8VecCacheNtNtCsjdyqsEEf0cE_10rustc_span6def_id10LocalDefIdINtNtNtB2a_5query5erase6ErasedAhj0_ENtBU_12DepNodeIndexEKb0_KB8f_KB8f_EEB6x_B7k_E0E0uEB4V_
librustc_driver-f8caf2bfd7396df8.so:_RINvCsiN8jfhUhbz9_21rustc_data_structures7outlineNCINvMs3_NtNtCshF5AtUv7kVK_18rustc_query_system9dep_graph5graphINtBU_12DepGraphDataNtNtCsbnIUe8x9cNz_12rustc_middle9dep_graph8DepsTypeE52assert_dep_node_not_yet_allocated_in_current_sessionNtNtCs19MuVdBY7V6_5alloc6string6StringNCINvMs1_BU_B1M_9with_taskTNtNtCs2ERWbPTlodK_16rustc_query_impl8plumbing9QueryCtxtINtB4V_13DynamicConfigINtNtB2_9vec_cache8VecCacheNtNtCsjdyqsEEf0cE_10rustc_span6def_id10LocalDefIdINtNtNtB2a_5query5erase6ErasedAhj10_ENtBU_12DepNodeIndexEKb0_KB8g_KB8g_EEB6x_B7k_E0E0uEB4V_
librustc_driver-f8caf2bfd7396df8.so:_RINvCsiN8jfhUhbz9_21rustc_data_structures7outlineNCINvMs3_NtNtCshF5AtUv7kVK_18rustc_query_system9dep_graph5graphINtBU_12DepGraphDataNtNtCsbnIUe8x9cNz_12rustc_middle9dep_graph8DepsTypeE52assert_dep_node_not_yet_allocated_in_current_sessionNtNtCs19MuVdBY7V6_5alloc6string6StringNCINvMs1_BU_B1M_9with_taskTNtNtCs2ERWbPTlodK_16rustc_query_impl8plumbing9QueryCtxtINtB4V_13DynamicConfigINtNtB2_9vec_cache8VecCacheNtNtCsjdyqsEEf0cE_10rustc_span6def_id10LocalDefIdINtNtNtB2a_5query5erase6ErasedAhj18_ENtBU_12DepNodeIndexEKb0_KB8g_KB8g_EEB6x_B7k_E0E0uEB4V_
librustc_driver-f8caf2bfd7396df8.so:_RINvCsiN8jfhUhbz9_21rustc_data_structures7outlineNCINvMs3_NtNtCshF5AtUv7kVK_18rustc_query_system9dep_graph5graphINtBU_12DepGraphDataNtNtCsbnIUe8x9cNz_12rustc_middle9dep_graph8DepsTypeE52assert_dep_node_not_yet_allocated_in_current_sessionNtNtCs19MuVdBY7V6_5alloc6string6StringNCINvMs1_BU_B1M_9with_taskTNtNtCs2ERWbPTlodK_16rustc_query_impl8plumbing9QueryCtxtINtB4V_13DynamicConfigINtNtB2_9vec_cache8VecCacheNtNtCsjdyqsEEf0cE_10rustc_span6def_id10LocalDefIdINtNtNtB2a_5query5erase6ErasedAhj1_ENtBU_12DepNodeIndexEKb0_KB8f_KB8f_EEB6x_B7k_E0E0uEB4V_
librustc_driver-f8caf2bfd7396df8.so:_RINvCsiN8jfhUhbz9_21rustc_data_structures7outlineNCINvMs3_NtNtCshF5AtUv7kVK_18rustc_query_system9dep_graph5graphINtBU_12DepGraphDataNtNtCsbnIUe8x9cNz_12rustc_middle9dep_graph8DepsTypeE52assert_dep_node_not_yet_allocated_in_current_sessionNtNtCs19MuVdBY7V6_5alloc6string6StringNCINvMs1_BU_B1M_9with_taskTNtNtCs2ERWbPTlodK_16rustc_query_impl8plumbing9QueryCtxtINtB4V_13DynamicConfigINtNtB2_9vec_cache8VecCacheNtNtCsjdyqsEEf0cE_10rustc_span6def_id10LocalDefIdINtNtNtB2a_5query5erase6ErasedAhj1_ENtBU_12DepNodeIndexEKb1_Kb0_KB8j_EEB6x_B7k_E0E0uEB4V_
librustc_driver-f8caf2bfd7396df8.so:_RINvCsiN8jfhUhbz9_21rustc_data_structures7outlineNCINvMs3_NtNtCshF5AtUv7kVK_18rustc_query_system9dep_graph5graphINtBU_12DepGraphDataNtNtCsbnIUe8x9cNz_12rustc_middle9dep_graph8DepsTypeE52assert_dep_node_not_yet_allocated_in_current_sessionNtNtCs19MuVdBY7V6_5alloc6string6StringNCINvMs1_BU_B1M_9with_taskTNtNtCs2ERWbPTlodK_16rustc_query_impl8plumbing9QueryCtxtINtB4V_13DynamicConfigINtNtB2_9vec_cache8VecCacheNtNtCsjdyqsEEf0cE_10rustc_span6def_id10LocalDefIdINtNtNtB2a_5query5erase6ErasedAhj38_ENtBU_12DepNodeIndexEKb0_KB8g_KB8g_EEB6x_B7k_E0E0uEB4V_
librustc_driver-f8caf2bfd7396df8.so:_RINvCsiN8jfhUhbz9_21rustc_data_structures7outlineNCINvMs3_NtNtCshF5AtUv7kVK_18rustc_query_system9dep_graph5graphINtBU_12DepGraphDataNtNtCsbnIUe8x9cNz_12rustc_middle9dep_graph8DepsTypeE52assert_dep_node_not_yet_allocated_in_current_sessionNtNtCs19MuVdBY7V6_5alloc6string6StringNCINvMs1_BU_B1M_9with_taskTNtNtCs2ERWbPTlodK_16rustc_query_impl8plumbing9QueryCtxtINtB4V_13DynamicConfigINtNtB2_9vec_cache8VecCacheNtNtCsjdyqsEEf0cE_10rustc_span6def_id10LocalDefIdINtNtNtB2a_5query5erase6ErasedAhj4_ENtBU_12DepNodeIndexEKb0_KB8f_KB8f_EEB6x_B7k_E0E0uEB4V_
librustc_driver-f8caf2bfd7396df8.so:_RINvCsiN8jfhUhbz9_21rustc_data_structures7outlineNCINvMs3_NtNtCshF5AtUv7kVK_18rustc_query_system9dep_graph5graphINtBU_12DepGraphDataNtNtCsbnIUe8x9cNz_12rustc_middle9dep_graph8DepsTypeE52assert_dep_node_not_yet_allocated_in_current_sessionNtNtCs19MuVdBY7V6_5alloc6string6StringNCINvMs1_BU_B1M_9with_taskTNtNtCs2ERWbPTlodK_16rustc_query_impl8plumbing9QueryCtxtINtB4V_13DynamicConfigINtNtB2_9vec_cache8VecCacheNtNtCsjdyqsEEf0cE_10rustc_span6def_id10LocalDefIdINtNtNtB2a_5query5erase6ErasedAhj8_ENtBU_12DepNodeIndexEKb0_KB8f_KB8f_EEB6x_B7k_E0E0uEB4V_
librustc_driver-f8caf2bfd7396df8.so:_RINvCsiN8jfhUhbz9_21rustc_data_structures7outlineNCINvMs3_NtNtCshF5AtUv7kVK_18rustc_query_system9dep_graph5graphINtBU_12DepGraphDataNtNtCsbnIUe8x9cNz_12rustc_middle9dep_graph8DepsTypeE52assert_dep_node_not_yet_allocated_in_current_sessionNtNtCs19MuVdBY7V6_5alloc6string6StringNCINvMs1_BU_B1M_9with_taskTNtNtCs2ERWbPTlodK_16rustc_query_impl8plumbing9QueryCtxtINtB4V_13DynamicConfigINtNtB2_9vec_cache8VecCacheNtNtCsjdyqsEEf0cE_10rustc_span6def_id8CrateNumINtNtNtB2a_5query5erase6ErasedAhj10_ENtBU_12DepNodeIndexEKb0_KB8d_KB8d_EEB6x_B7h_E0E0uEB4V_
librustc_driver-f8caf2bfd7396df8.so:_RINvCsiN8jfhUhbz9_21rustc_data_structures7outlineNCINvMs3_NtNtCshF5AtUv7kVK_18rustc_query_system9dep_graph5graphINtBU_12DepGraphDataNtNtCsbnIUe8x9cNz_12rustc_middle9dep_graph8DepsTypeE52assert_dep_node_not_yet_allocated_in_current_sessionNtNtCs19MuVdBY7V6_5alloc6string6StringNCINvMs1_BU_B1M_9with_taskTNtNtCs2ERWbPTlodK_16rustc_query_impl8plumbing9QueryCtxtINtB4V_13DynamicConfigINtNtB2_9vec_cache8VecCacheNtNtCsjdyqsEEf0cE_10rustc_span6def_id8CrateNumINtNtNtB2a_5query5erase6ErasedAhj18_ENtBU_12DepNodeIndexEKb0_KB8d_KB8d_EEB6x_B7h_E0E0uEB4V_
librustc_driver-f8caf2bfd7396df8.so:_RINvCsiN8jfhUhbz9_21rustc_data_structures7outlineNCINvMs3_NtNtCshF5AtUv7kVK_18rustc_query_system9dep_graph5graphINtBU_12DepGraphDataNtNtCsbnIUe8x9cNz_12rustc_middle9dep_graph8DepsTypeE52assert_dep_node_not_yet_allocated_in_current_sessionNtNtCs19MuVdBY7V6_5alloc6string6StringNCINvMs1_BU_B1M_9with_taskTNtNtCs2ERWbPTlodK_16rustc_query_impl8plumbing9QueryCtxtINtB4V_13DynamicConfigINtNtB2_9vec_cache8VecCacheNtNtCsjdyqsEEf0cE_10rustc_span6def_id8CrateNumINtNtNtB2a_5query5erase6ErasedAhj1_ENtBU_12DepNodeIndexEKb0_KB8c_KB8c_EEB6x_B7h_E0E0uEB4V_
librustc_driver-f8caf2bfd7396df8.so:_RINvCsiN8jfhUhbz9_21rustc_data_structures7outlineNCINvMs3_NtNtCshF5AtUv7kVK_18rustc_query_system9dep_graph5graphINtBU_12DepGraphDataNtNtCsbnIUe8x9cNz_12rustc_middle9dep_graph8DepsTypeE52assert_dep_node_not_yet_allocated_in_current_sessionNtNtCs19MuVdBY7V6_5alloc6string6StringNCINvMs1_BU_B1M_9with_taskTNtNtCs2ERWbPTlodK_16rustc_query_impl8plumbing9QueryCtxtINtB4V_13DynamicConfigINtNtB2_9vec_cache8VecCacheNtNtCsjdyqsEEf0cE_10rustc_span6def_id8CrateNumINtNtNtB2a_5query5erase6ErasedAhj4_ENtBU_12DepNodeIndexEKb0_KB8c_KB8c_EEB6x_B7h_E0E0uEB4V_
librustc_driver-f8caf2bfd7396df8.so:_RINvCsiN8jfhUhbz9_21rustc_data_structures7outlineNCINvMs3_NtNtCshF5AtUv7kVK_18rustc_query_system9dep_graph5graphINtBU_12DepGraphDataNtNtCsbnIUe8x9cNz_12rustc_middle9dep_graph8DepsTypeE52assert_dep_node_not_yet_allocated_in_current_sessionNtNtCs19MuVdBY7V6_5alloc6string6StringNCINvMs1_BU_B1M_9with_taskTNtNtCs2ERWbPTlodK_16rustc_query_impl8plumbing9QueryCtxtINtB4V_13DynamicConfigINtNtB2_9vec_cache8VecCacheNtNtCsjdyqsEEf0cE_10rustc_span6def_id8CrateNumINtNtNtB2a_5query5erase6ErasedAhj8_ENtBU_12DepNodeIndexEKb0_KB8c_KB8c_EEB6x_B7h_E0E0uEB4V_
librustc_driver-f8caf2bfd7396df8.so:_RINvCsiN8jfhUhbz9_21rustc_data_structures7outlineNCINvMs3_NtNtCshF5AtUv7kVK_18rustc_query_system9dep_graph5graphINtBU_12DepGraphDataNtNtCsbnIUe8x9cNz_12rustc_middle9dep_graph8DepsTypeE52assert_dep_node_not_yet_allocated_in_current_sessionNtNtCs19MuVdBY7V6_5alloc6string6StringNCINvMs1_BU_B1M_9with_taskTNtNtCs2ERWbPTlodK_16rustc_query_impl8plumbing9QueryCtxtINtB4V_13DynamicConfigINtNtNtBY_5query6caches10DefIdCacheINtNtNtB2a_5query5erase6ErasedAhj0_EEKb0_KB7h_KB7h_EENtNtCsjdyqsEEf0cE_10rustc_span6def_id5DefIdB6F_E0E0uEB4V_
librustc_driver-f8caf2bfd7396df8.so:_RINvCsiN8jfhUhbz9_21rustc_data_structures7outlineNCINvMs3_NtNtCshF5AtUv7kVK_18rustc_query_system9dep_graph5graphINtBU_12DepGraphDataNtNtCsbnIUe8x9cNz_12rustc_middle9dep_graph8DepsTypeE52assert_dep_node_not_yet_allocated_in_current_sessionNtNtCs19MuVdBY7V6_5alloc6string6StringNCINvMs1_BU_B1M_9with_taskTNtNtCs2ERWbPTlodK_16rustc_query_impl8plumbing9QueryCtxtINtB4V_13DynamicConfigINtNtNtBY_5query6caches10DefIdCacheINtNtNtB2a_5query5erase6ErasedAhj10_EEKb0_KB7i_KB7i_EENtNtCsjdyqsEEf0cE_10rustc_span6def_id5DefIdB6F_E0E0uEB4V_
librustc_driver-f8caf2bfd7396df8.so:_RINvCsiN8jfhUhbz9_21rustc_data_structures7outlineNCINvMs3_NtNtCshF5AtUv7kVK_18rustc_query_system9dep_graph5graphINtBU_12DepGraphDataNtNtCsbnIUe8x9cNz_12rustc_middle9dep_graph8DepsTypeE52assert_dep_node_not_yet_allocated_in_current_sessionNtNtCs19MuVdBY7V6_5alloc6string6StringNCINvMs1_BU_B1M_9with_taskTNtNtCs2ERWbPTlodK_16rustc_query_impl8plumbing9QueryCtxtINtB4V_13DynamicConfigINtNtNtBY_5query6caches10DefIdCacheINtNtNtB2a_5query5erase6ErasedAhj14_EEKb0_KB7i_KB7i_EENtNtCsjdyqsEEf0cE_10rustc_span6def_id5DefIdB6F_E0E0uEB4V_
librustc_driver-f8caf2bfd7396df8.so:_RINvCsiN8jfhUhbz9_21rustc_data_structures7outlineNCINvMs3_NtNtCshF5AtUv7kVK_18rustc_query_system9dep_graph5graphINtBU_12DepGraphDataNtNtCsbnIUe8x9cNz_12rustc_middle9dep_graph8DepsTypeE52assert_dep_node_not_yet_allocated_in_current_sessionNtNtCs19MuVdBY7V6_5alloc6string6StringNCINvMs1_BU_B1M_9with_taskTNtNtCs2ERWbPTlodK_16rustc_query_impl8plumbing9QueryCtxtINtB4V_13DynamicConfigINtNtNtBY_5query6caches10DefIdCacheINtNtNtB2a_5query5erase6ErasedAhj18_EEKb0_KB7i_KB7i_EENtNtCsjdyqsEEf0cE_10rustc_span6def_id5DefIdB6F_E0E0uEB4V_
librustc_driver-f8caf2bfd7396df8.so:_RINvCsiN8jfhUhbz9_21rustc_data_structures7outlineNCINvMs3_NtNtCshF5AtUv7kVK_18rustc_query_system9dep_graph5graphINtBU_12DepGraphDataNtNtCsbnIUe8x9cNz_12rustc_middle9dep_graph8DepsTypeE52assert_dep_node_not_yet_allocated_in_current_sessionNtNtCs19MuVdBY7V6_5alloc6string6StringNCINvMs1_BU_B1M_9with_taskTNtNtCs2ERWbPTlodK_16rustc_query_impl8plumbing9QueryCtxtINtB4V_13DynamicConfigINtNtNtBY_5query6caches10DefIdCacheINtNtNtB2a_5query5erase6ErasedAhj1_EEKb0_KB7h_KB7h_EENtNtCsjdyqsEEf0cE_10rustc_span6def_id5DefIdB6F_E0E0uEB4V_
librustc_driver-f8caf2bfd7396df8.so:_RINvCsiN8jfhUhbz9_21rustc_data_structures7outlineNCINvMs3_NtNtCshF5AtUv7kVK_18rustc_query_system9dep_graph5graphINtBU_12DepGraphDataNtNtCsbnIUe8x9cNz_12rustc_middle9dep_graph8DepsTypeE52assert_dep_node_not_yet_allocated_in_current_sessionNtNtCs19MuVdBY7V6_5alloc6string6StringNCINvMs1_BU_B1M_9with_taskTNtNtCs2ERWbPTlodK_16rustc_query_impl8plumbing9QueryCtxtINtB4V_13DynamicConfigINtNtNtBY_5query6caches10DefIdCacheINtNtNtB2a_5query5erase6ErasedAhj1c_EEKb0_KB7i_KB7i_EENtNtCsjdyqsEEf0cE_10rustc_span6def_id5DefIdB6F_E0E0uEB4V_
librustc_driver-f8caf2bfd7396df8.so:_RINvCsiN8jfhUhbz9_21rustc_data_structures7outlineNCINvMs3_NtNtCshF5AtUv7kVK_18rustc_query_system9dep_graph5graphINtBU_12DepGraphDataNtNtCsbnIUe8x9cNz_12rustc_middle9dep_graph8DepsTypeE52assert_dep_node_not_yet_allocated_in_current_sessionNtNtCs19MuVdBY7V6_5alloc6string6StringNCINvMs1_BU_B1M_9with_taskTNtNtCs2ERWbPTlodK_16rustc_query_impl8plumbing9QueryCtxtINtB4V_13DynamicConfigINtNtNtBY_5query6caches10DefIdCacheINtNtNtB2a_5query5erase6ErasedAhj20_EEKb0_KB7i_KB7i_EENtNtCsjdyqsEEf0cE_10rustc_span6def_id5DefIdB6F_E0E0uEB4V_
librustc_driver-f8caf2bfd7396df8.so:_RINvCsiN8jfhUhbz9_21rustc_data_structures7outlineNCINvMs3_NtNtCshF5AtUv7kVK_18rustc_query_system9dep_graph5graphINtBU_12DepGraphDataNtNtCsbnIUe8x9cNz_12rustc_middle9dep_graph8DepsTypeE52assert_dep_node_not_yet_allocated_in_current_sessionNtNtCs19MuVdBY7V6_5alloc6string6StringNCINvMs1_BU_B1M_9with_taskTNtNtCs2ERWbPTlodK_16rustc_query_impl8plumbing9QueryCtxtINtB4V_13DynamicConfigINtNtNtBY_5query6caches10DefIdCacheINtNtNtB2a_5query5erase6ErasedAhj2_EEKb0_KB7h_KB7h_EENtNtCsjdyqsEEf0cE_10rustc_span6def_id5DefIdB6F_E0E0uEB4V_
librustc_driver-f8caf2bfd7396df8.so:_RINvCsiN8jfhUhbz9_21rustc_data_structures7outlineNCINvMs3_NtNtCshF5AtUv7kVK_18rustc_query_system9dep_graph5graphINtBU_12DepGraphDataNtNtCsbnIUe8x9cNz_12rustc_middle9dep_graph8DepsTypeE52assert_dep_node_not_yet_allocated_in_current_sessionNtNtCs19MuVdBY7V6_5alloc6string6StringNCINvMs1_BU_B1M_9with_taskTNtNtCs2ERWbPTlodK_16rustc_query_impl8plumbing9QueryCtxtINtB4V_13DynamicConfigINtNtNtBY_5query6caches10DefIdCacheINtNtNtB2a_5query5erase6ErasedAhj3_EEKb0_KB7h_KB7h_EENtNtCsjdyqsEEf0cE_10rustc_span6def_id5DefIdB6F_E0E0uEB4V_
librustc_driver-f8caf2bfd7396df8.so:_RINvCsiN8jfhUhbz9_21rustc_data_structures7outlineNCINvMs3_NtNtCshF5AtUv7kVK_18rustc_query_system9dep_graph5graphINtBU_12DepGraphDataNtNtCsbnIUe8x9cNz_12rustc_middle9dep_graph8DepsTypeE52assert_dep_node_not_yet_allocated_in_current_sessionNtNtCs19MuVdBY7V6_5alloc6string6StringNCINvMs1_BU_B1M_9with_taskTNtNtCs2ERWbPTlodK_16rustc_query_impl8plumbing9QueryCtxtINtB4V_13DynamicConfigINtNtNtBY_5query6caches10DefIdCacheINtNtNtB2a_5query5erase6ErasedAhj4_EEKb0_KB7h_KB7h_EENtNtCsjdyqsEEf0cE_10rustc_span6def_id5DefIdB6F_E0E0uEB4V_
librustc_driver-f8caf2bfd7396df8.so:_RINvCsiN8jfhUhbz9_21rustc_data_structures7outlineNCINvMs3_NtNtCshF5AtUv7kVK_18rustc_query_system9dep_graph5graphINtBU_12DepGraphDataNtNtCsbnIUe8x9cNz_12rustc_middle9dep_graph8DepsTypeE52assert_dep_node_not_yet_allocated_in_current_sessionNtNtCs19MuVdBY7V6_5alloc6string6StringNCINvMs1_BU_B1M_9with_taskTNtNtCs2ERWbPTlodK_16rustc_query_impl8plumbing9QueryCtxtINtB4V_13DynamicConfigINtNtNtBY_5query6caches10DefIdCacheINtNtNtB2a_5query5erase6ErasedAhj8_EEKb0_KB7h_KB7h_EENtNtCsjdyqsEEf0cE_10rustc_span6def_id5DefIdB6F_E0E0uEB4V_
librustc_driver-f8caf2bfd7396df8.so:_RINvCsiN8jfhUhbz9_21rustc_data_structures7outlineNCINvMs3_NtNtCshF5AtUv7kVK_18rustc_query_system9dep_graph5graphINtBU_12DepGraphDataNtNtCsbnIUe8x9cNz_12rustc_middle9dep_graph8DepsTypeE52assert_dep_node_not_yet_allocated_in_current_sessionNtNtCs19MuVdBY7V6_5alloc6string6StringNCINvMs1_BU_B1M_9with_taskTNtNtCs2ERWbPTlodK_16rustc_query_impl8plumbing9QueryCtxtINtB4V_13DynamicConfigINtNtNtBY_5query6caches10DefIdCacheINtNtNtB2a_5query5erase6ErasedAhjc_EEKb0_KB7h_KB7h_EENtNtCsjdyqsEEf0cE_10rustc_span6def_id5DefIdB6F_E0E0uEB4V_
librustc_driver-f8caf2bfd7396df8.so:_RINvCsiN8jfhUhbz9_21rustc_data_structures7outlineNCINvMs3_NtNtCshF5AtUv7kVK_18rustc_query_system9dep_graph5graphINtBU_12DepGraphDataNtNtCsbnIUe8x9cNz_12rustc_middle9dep_graph8DepsTypeE52assert_dep_node_not_yet_allocated_in_current_sessionNtNtCs19MuVdBY7V6_5alloc6string6StringNCINvMs1_BU_B1M_9with_taskTNtNtCs2ERWbPTlodK_16rustc_query_impl8plumbing9QueryCtxtINtB4V_13DynamicConfigINtNtNtBY_5query6caches11SingleCacheINtNtNtB2a_5query5erase6ErasedAhj0_EEKb0_KB7i_KB7i_EEuB6G_E0E0uEB4V_
librustc_driver-f8caf2bfd7396df8.so:_RINvCsiN8jfhUhbz9_21rustc_data_structures7outlineNCINvMs3_NtNtCshF5AtUv7kVK_18rustc_query_system9dep_graph5graphINtBU_12DepGraphDataNtNtCsbnIUe8x9cNz_12rustc_middle9dep_graph8DepsTypeE52assert_dep_node_not_yet_allocated_in_current_sessionNtNtCs19MuVdBY7V6_5alloc6string6StringNCINvMs1_BU_B1M_9with_taskTNtNtCs2ERWbPTlodK_16rustc_query_impl8plumbing9QueryCtxtINtB4V_13DynamicConfigINtNtNtBY_5query6caches11SingleCacheINtNtNtB2a_5query5erase6ErasedAhj10_EEKb0_KB7j_KB7j_EEuB6G_E0E0uEB4V_
librustc_driver-f8caf2bfd7396df8.so:_RINvCsiN8jfhUhbz9_21rustc_data_structures7outlineNCINvMs3_NtNtCshF5AtUv7kVK_18rustc_query_system9dep_graph5graphINtBU_12DepGraphDataNtNtCsbnIUe8x9cNz_12rustc_middle9dep_graph8DepsTypeE52assert_dep_node_not_yet_allocated_in_current_sessionNtNtCs19MuVdBY7V6_5alloc6string6StringNCINvMs1_BU_B1M_9with_taskTNtNtCs2ERWbPTlodK_16rustc_query_impl8plumbing9QueryCtxtINtB4V_13DynamicConfigINtNtNtBY_5query6caches11SingleCacheINtNtNtB2a_5query5erase6ErasedAhj18_EEKb0_KB7j_KB7j_EEuB6G_E0E0uEB4V_
librustc_driver-f8caf2bfd7396df8.so:_RINvCsiN8jfhUhbz9_21rustc_data_structures7outlineNCINvMs3_NtNtCshF5AtUv7kVK_18rustc_query_system9dep_graph5graphINtBU_12DepGraphDataNtNtCsbnIUe8x9cNz_12rustc_middle9dep_graph8DepsTypeE52assert_dep_node_not_yet_allocated_in_current_sessionNtNtCs19MuVdBY7V6_5alloc6string6StringNCINvMs1_BU_B1M_9with_taskTNtNtCs2ERWbPTlodK_16rustc_query_impl8plumbing9QueryCtxtINtB4V_13DynamicConfigINtNtNtBY_5query6caches11SingleCacheINtNtNtB2a_5query5erase6ErasedAhj1_EEKb0_KB7i_KB7i_EEuB6G_E0E0uEB4V_
librustc_driver-f8caf2bfd7396df8.so:_RINvCsiN8jfhUhbz9_21rustc_data_structures7outlineNCINvMs3_NtNtCshF5AtUv7kVK_18rustc_query_system9dep_graph5graphINtBU_12DepGraphDataNtNtCsbnIUe8x9cNz_12rustc_middle9dep_graph8DepsTypeE52assert_dep_node_not_yet_allocated_in_current_sessionNtNtCs19MuVdBY7V6_5alloc6string6StringNCINvMs1_BU_B1M_9with_taskTNtNtCs2ERWbPTlodK_16rustc_query_impl8plumbing9QueryCtxtINtB4V_13DynamicConfigINtNtNtBY_5query6caches11SingleCacheINtNtNtB2a_5query5erase6ErasedAhj20_EEKb0_KB7j_KB7j_EEuB6G_E0E0uEB4V_
librustc_driver-f8caf2bfd7396df8.so:_RINvCsiN8jfhUhbz9_21rustc_data_structures7outlineNCINvMs3_NtNtCshF5AtUv7kVK_18rustc_query_system9dep_graph5graphINtBU_12DepGraphDataNtNtCsbnIUe8x9cNz_12rustc_middle9dep_graph8DepsTypeE52assert_dep_node_not_yet_allocated_in_current_sessionNtNtCs19MuVdBY7V6_5alloc6string6StringNCINvMs1_BU_B1M_9with_taskTNtNtCs2ERWbPTlodK_16rustc_query_impl8plumbing9QueryCtxtINtB4V_13DynamicConfigINtNtNtBY_5query6caches11SingleCacheINtNtNtB2a_5query5erase6ErasedAhj4_EEKb0_KB7i_KB7i_EEuB6G_E0E0uEB4V_
librustc_driver-f8caf2bfd7396df8.so:_RINvCsiN8jfhUhbz9_21rustc_data_structures7outlineNCINvMs3_NtNtCshF5AtUv7kVK_18rustc_query_system9dep_graph5graphINtBU_12DepGraphDataNtNtCsbnIUe8x9cNz_12rustc_middle9dep_graph8DepsTypeE52assert_dep_node_not_yet_allocated_in_current_sessionNtNtCs19MuVdBY7V6_5alloc6string6StringNCINvMs1_BU_B1M_9with_taskTNtNtCs2ERWbPTlodK_16rustc_query_impl8plumbing9QueryCtxtINtB4V_13DynamicConfigINtNtNtBY_5query6caches11SingleCacheINtNtNtB2a_5query5erase6ErasedAhj8_EEKb0_KB7i_KB7i_EEuB6G_E0E0uEB4V_
librustc_driver-f8caf2bfd7396df8.so:_RINvCsiN8jfhUhbz9_21rustc_data_structures7outlineNCINvMs3_NtNtCshF5AtUv7kVK_18rustc_query_system9dep_graph5graphINtBU_12DepGraphDataNtNtCsbnIUe8x9cNz_12rustc_middle9dep_graph8DepsTypeE52assert_dep_node_not_yet_allocated_in_current_sessionNtNtCs19MuVdBY7V6_5alloc6string6StringNCINvMs1_BU_B1M_9with_taskTNtNtCs2ERWbPTlodK_16rustc_query_impl8plumbing9QueryCtxtINtB4V_13DynamicConfigINtNtNtBY_5query6caches11SingleCacheINtNtNtB2a_5query5erase6ErasedAhjc_EEKb0_KB7i_KB7i_EEuB6G_E0E0uEB4V_
librustc_driver-f8caf2bfd7396df8.so:_RINvCsiN8jfhUhbz9_21rustc_data_structures7outlineNCINvMs3_NtNtCshF5AtUv7kVK_18rustc_query_system9dep_graph5graphINtBU_12DepGraphDataNtNtCsbnIUe8x9cNz_12rustc_middle9dep_graph8DepsTypeE52assert_dep_node_not_yet_allocated_in_current_sessionNtNtCs19MuVdBY7V6_5alloc6string6StringNCINvMs1_BU_B1M_9with_taskTNtNtCs2ERWbPTlodK_16rustc_query_impl8plumbing9QueryCtxtINtB4V_13DynamicConfigINtNtNtBY_5query6caches12DefaultCacheINtNtB2a_2ty20PseudoCanonicalInputINtNtCs2t38KIHyE4j_13rustc_type_ir9predicate8TraitRefNtNtB6K_7context6TyCtxtEEINtNtNtB2a_5query5erase6ErasedAhj10_EEKb0_KB98_KB98_EEB6H_B8v_E0E0uEB4V_
librustc_driver-f8caf2bfd7396df8.so:_RINvCsiN8jfhUhbz9_21rustc_data_structures7outlineNCINvMs3_NtNtCshF5AtUv7kVK_18rustc_query_system9dep_graph5graphINtBU_12DepGraphDataNtNtCsbnIUe8x9cNz_12rustc_middle9dep_graph8DepsTypeE52assert_dep_node_not_yet_allocated_in_current_sessionNtNtCs19MuVdBY7V6_5alloc6string6StringNCINvMs1_BU_B1M_9with_taskTNtNtCs2ERWbPTlodK_16rustc_query_impl8plumbing9QueryCtxtINtB4V_13DynamicConfigINtNtNtBY_5query6caches12DefaultCacheINtNtB2a_2ty20PseudoCanonicalInputNtB6K_2TyEINtNtNtB2a_5query5erase6ErasedAhj10_EEKb0_Kb1_KB82_EEB6H_B7p_E0E0uEB4V_
librustc_driver-f8caf2bfd7396df8.so:_RINvCsiN8jfhUhbz9_21rustc_data_structures7outlineNCINvMs3_NtNtCshF5AtUv7kVK_18rustc_query_system9dep_graph5graphINtBU_12DepGraphDataNtNtCsbnIUe8x9cNz_12rustc_middle9dep_graph8DepsTypeE52assert_dep_node_not_yet_allocated_in_current_sessionNtNtCs19MuVdBY7V6_5alloc6string6StringNCINvMs1_BU_B1M_9with_taskTNtNtCs2ERWbPTlodK_16rustc_query_impl8plumbing9QueryCtxtINtB4V_13DynamicConfigINtNtNtBY_5query6caches12DefaultCacheINtNtB2a_2ty20PseudoCanonicalInputNtB6K_2TyEINtNtNtB2a_5query5erase6ErasedAhj1_EEKb0_KB81_KB81_EEB6H_B7p_E0E0uEB4V_
librustc_driver-f8caf2bfd7396df8.so:_RINvCsiN8jfhUhbz9_21rustc_data_structures7outlineNCINvMs3_NtNtCshF5AtUv7kVK_18rustc_query_system9dep_graph5graphINtBU_12DepGraphDataNtNtCsbnIUe8x9cNz_12rustc_middle9dep_graph8DepsTypeE52assert_dep_node_not_yet_allocated_in_current_sessionNtNtCs19MuVdBY7V6_5alloc6string6StringNCINvMs1_BU_B1M_9with_taskTNtNtCs2ERWbPTlodK_16rustc_query_impl8plumbing9QueryCtxtINtB4V_13DynamicConfigINtNtNtBY_5query6caches12DefaultCacheINtNtB2a_2ty20PseudoCanonicalInputNtB6K_2TyEINtNtNtB2a_5query5erase6ErasedAhj8_EEKb0_KB81_KB81_EEB6H_B7p_E0E0uEB4V_
librustc_driver-f8caf2bfd7396df8.so:_RINvCsiN8jfhUhbz9_21rustc_data_structures7outlineNCINvMs3_NtNtCshF5AtUv7kVK_18rustc_query_system9dep_graph5graphINtBU_12DepGraphDataNtNtCsbnIUe8x9cNz_12rustc_middle9dep_graph8DepsTypeE52assert_dep_node_not_yet_allocated_in_current_sessionNtNtCs19MuVdBY7V6_5alloc6string6StringNCINvMs1_BU_B1M_9with_taskTNtNtCs2ERWbPTlodK_16rustc_query_impl8plumbing9QueryCtxtINtB4V_13DynamicConfigINtNtNtBY_5query6caches12DefaultCacheINtNtB2a_2ty20PseudoCanonicalInputNtNtB6K_12generic_args10GenericArgEINtNtNtB2a_5query5erase6ErasedAhj8_EEKb0_KB8q_KB8q_EEB6H_B7O_E0E0uEB4V_
librustc_driver-f8caf2bfd7396df8.so:_RINvCsiN8jfhUhbz9_21rustc_data_structures7outlineNCINvMs3_NtNtCshF5AtUv7kVK_18rustc_query_system9dep_graph5graphINtBU_12DepGraphDataNtNtCsbnIUe8x9cNz_12rustc_middle9dep_graph8DepsTypeE52assert_dep_node_not_yet_allocated_in_current_sessionNtNtCs19MuVdBY7V6_5alloc6string6StringNCINvMs1_BU_B1M_9with_taskTNtNtCs2ERWbPTlodK_16rustc_query_impl8plumbing9QueryCtxtINtB4V_13DynamicConfigINtNtNtBY_5query6caches12DefaultCacheINtNtB2a_2ty20PseudoCanonicalInputNtNtNtB2a_3mir9interpret8GlobalIdEINtNtNtB2a_5query5erase6ErasedAhj10_EEKb0_KB8q_KB8q_EEB6H_B7N_E0E0uEB4V_
librustc_driver-f8caf2bfd7396df8.so:_RINvCsiN8jfhUhbz9_21rustc_data_structures7outlineNCINvMs3_NtNtCshF5AtUv7kVK_18rustc_query_system9dep_graph5graphINtBU_12DepGraphDataNtNtCsbnIUe8x9cNz_12rustc_middle9dep_graph8DepsTypeE52assert_dep_node_not_yet_allocated_in_current_sessionNtNtCs19MuVdBY7V6_5alloc6string6StringNCINvMs1_BU_B1M_9with_taskTNtNtCs2ERWbPTlodK_16rustc_query_impl8plumbing9QueryCtxtINtB4V_13DynamicConfigINtNtNtBY_5query6caches12DefaultCacheINtNtB2a_2ty20PseudoCanonicalInputNtNtNtB2a_3mir9interpret8GlobalIdEINtNtNtB2a_5query5erase6ErasedAhj18_EEKb0_KB8q_KB8q_EEB6H_B7N_E0E0uEB4V_
librustc_driver-f8caf2bfd7396df8.so:_RINvCsiN8jfhUhbz9_21rustc_data_structures7outlineNCINvMs3_NtNtCshF5AtUv7kVK_18rustc_query_system9dep_graph5graphINtBU_12DepGraphDataNtNtCsbnIUe8x9cNz_12rustc_middle9dep_graph8DepsTypeE52assert_dep_node_not_yet_allocated_in_current_sessionNtNtCs19MuVdBY7V6_5alloc6string6StringNCINvMs1_BU_B1M_9with_taskTNtNtCs2ERWbPTlodK_16rustc_query_impl8plumbing9QueryCtxtINtB4V_13DynamicConfigINtNtNtBY_5query6caches12DefaultCacheINtNtB2a_2ty20PseudoCanonicalInputNtNtNtB2a_3mir9interpret8GlobalIdEINtNtNtB2a_5query5erase6ErasedAhj18_EEKb0_Kb1_KB8q_EEB6H_B7N_E0E0uEB4V_
librustc_driver-f8caf2bfd7396df8.so:_RINvCsiN8jfhUhbz9_21rustc_data_structures7outlineNCINvMs3_NtNtCshF5AtUv7kVK_18rustc_query_system9dep_graph5graphINtBU_12DepGraphDataNtNtCsbnIUe8x9cNz_12rustc_middle9dep_graph8DepsTypeE52assert_dep_node_not_yet_allocated_in_current_sessionNtNtCs19MuVdBY7V6_5alloc6string6StringNCINvMs1_BU_B1M_9with_taskTNtNtCs2ERWbPTlodK_16rustc_query_impl8plumbing9QueryCtxtINtB4V_13DynamicConfigINtNtNtBY_5query6caches12DefaultCacheINtNtB2a_2ty20PseudoCanonicalInputTINtNtCs2t38KIHyE4j_13rustc_type_ir6binder6BinderNtNtB6K_7context6TyCtxtINtNtB7l_7ty_kind5FnSigB82_EERINtNtB6K_4list7RawListuNtB6K_2TyEEEINtNtNtB2a_5query5erase6ErasedAhj10_EEKb0_KBa5_KBa5_EEB6H_B9s_E0E0uEB4V_
librustc_driver-f8caf2bfd7396df8.so:_RINvCsiN8jfhUhbz9_21rustc_data_structures7outlineNCINvMs3_NtNtCshF5AtUv7kVK_18rustc_query_system9dep_graph5graphINtBU_12DepGraphDataNtNtCsbnIUe8x9cNz_12rustc_middle9dep_graph8DepsTypeE52assert_dep_node_not_yet_allocated_in_current_sessionNtNtCs19MuVdBY7V6_5alloc6string6StringNCINvMs1_BU_B1M_9with_taskTNtNtCs2ERWbPTlodK_16rustc_query_impl8plumbing9QueryCtxtINtB4V_13DynamicConfigINtNtNtBY_5query6caches12DefaultCacheINtNtB2a_2ty20PseudoCanonicalInputTNtB6K_2TyNtNtNtCs3WhD79dQ5JG_9rustc_abi6layout2ty10VariantIdxEEINtNtNtB2a_5query5erase6ErasedAhj11_EEKb0_KB8U_KB8U_EEB6H_B8h_E0E0uEB4V_
librustc_driver-f8caf2bfd7396df8.so:_RINvCsiN8jfhUhbz9_21rustc_data_structures7outlineNCINvMs3_NtNtCshF5AtUv7kVK_18rustc_query_system9dep_graph5graphINtBU_12DepGraphDataNtNtCsbnIUe8x9cNz_12rustc_middle9dep_graph8DepsTypeE52assert_dep_node_not_yet_allocated_in_current_sessionNtNtCs19MuVdBY7V6_5alloc6string6StringNCINvMs1_BU_B1M_9with_taskTNtNtCs2ERWbPTlodK_16rustc_query_impl8plumbing9QueryCtxtINtB4V_13DynamicConfigINtNtNtBY_5query6caches12DefaultCacheINtNtB2a_2ty20PseudoCanonicalInputTNtNtB6K_8instance8InstanceRINtNtB6K_4list7RawListuNtB6K_2TyEEEINtNtNtB2a_5query5erase6ErasedAhj10_EEKb0_KB8T_KB8T_EEB6H_B8g_E0E0uEB4V_
librustc_driver-f8caf2bfd7396df8.so:_RINvCsiN8jfhUhbz9_21rustc_data_structures7outlineNCINvMs3_NtNtCshF5AtUv7kVK_18rustc_query_system9dep_graph5graphINtBU_12DepGraphDataNtNtCsbnIUe8x9cNz_12rustc_middle9dep_graph8DepsTypeE52assert_dep_node_not_yet_allocated_in_current_sessionNtNtCs19MuVdBY7V6_5alloc6string6StringNCINvMs1_BU_B1M_9with_taskTNtNtCs2ERWbPTlodK_16rustc_query_impl8plumbing9QueryCtxtINtB4V_13DynamicConfigINtNtNtBY_5query6caches12DefaultCacheINtNtB2a_2ty20PseudoCanonicalInputTNtNtCsjdyqsEEf0cE_10rustc_span6def_id5DefIdRINtNtB6K_4list7RawListuNtNtB6K_12generic_args10GenericArgEEEINtNtNtB2a_5query5erase6ErasedAhj20_EEKb0_KB9z_KB9z_EEB6H_B8W_E0E0uEB4V_
librustc_driver-f8caf2bfd7396df8.so:_RINvCsiN8jfhUhbz9_21rustc_data_structures7outlineNCINvMs3_NtNtCshF5AtUv7kVK_18rustc_query_system9dep_graph5graphINtBU_12DepGraphDataNtNtCsbnIUe8x9cNz_12rustc_middle9dep_graph8DepsTypeE52assert_dep_node_not_yet_allocated_in_current_sessionNtNtCs19MuVdBY7V6_5alloc6string6StringNCINvMs1_BU_B1M_9with_taskTNtNtCs2ERWbPTlodK_16rustc_query_impl8plumbing9QueryCtxtINtB4V_13DynamicConfigINtNtNtBY_5query6caches12DefaultCacheINtNtCs2t38KIHyE4j_13rustc_type_ir11fast_reject14SimplifiedTypeNtNtCsjdyqsEEf0cE_10rustc_span6def_id5DefIdEINtNtNtB2a_5query5erase6ErasedAhj10_EEKb0_KB93_KB93_EEB6H_B8q_E0E0uEB4V_
librustc_driver-f8caf2bfd7396df8.so:_RINvCsiN8jfhUhbz9_21rustc_data_structures7outlineNCINvMs3_NtNtCshF5AtUv7kVK_18rustc_query_system9dep_graph5graphINtBU_12DepGraphDataNtNtCsbnIUe8x9cNz_12rustc_middle9dep_graph8DepsTypeE52assert_dep_node_not_yet_allocated_in_current_sessionNtNtCs19MuVdBY7V6_5alloc6string6StringNCINvMs1_BU_B1M_9with_taskTNtNtCs2ERWbPTlodK_16rustc_query_impl8plumbing9QueryCtxtINtB4V_13DynamicConfigINtNtNtBY_5query6caches12DefaultCacheINtNtCs2t38KIHyE4j_13rustc_type_ir9canonical19CanonicalQueryInputNtNtNtB2a_2ty7context6TyCtxtINtB7O_11ParamEnvAndINtNtB6M_9predicate9AliasTermB7K_EEEINtNtNtB2a_5query5erase6ErasedAhj8_EEKb0_KB9I_KB9I_EEB6H_B96_E0E0uEB4V_
librustc_driver-f8caf2bfd7396df8.so:_RINvCsiN8jfhUhbz9_21rustc_data_structures7outlineNCINvMs3_NtNtCshF5AtUv7kVK_18rustc_query_system9dep_graph5graphINtBU_12DepGraphDataNtNtCsbnIUe8x9cNz_12rustc_middle9dep_graph8DepsTypeE52assert_dep_node_not_yet_allocated_in_current_sessionNtNtCs19MuVdBY7V6_5alloc6string6StringNCINvMs1_BU_B1M_9with_taskTNtNtCs2ERWbPTlodK_16rustc_query_impl8plumbing9QueryCtxtINtB4V_13DynamicConfigINtNtNtBY_5query6caches12DefaultCacheINtNtCs2t38KIHyE4j_13rustc_type_ir9canonical19CanonicalQueryInputNtNtNtB2a_2ty7context6TyCtxtINtB7O_11ParamEnvAndINtNtNtNtB2a_6traits5query7type_op9NormalizeINtNtB6M_6binder6BinderB7K_INtNtB6M_7ty_kind5FnSigB7K_EEEEEINtNtNtB2a_5query5erase6ErasedAhj8_EEKb0_KBaN_KBaN_EEB6H_Bab_E0E0uEB4V_
librustc_driver-f8caf2bfd7396df8.so:_RINvCsiN8jfhUhbz9_21rustc_data_structures7outlineNCINvMs3_NtNtCshF5AtUv7kVK_18rustc_query_system9dep_graph5graphINtBU_12DepGraphDataNtNtCsbnIUe8x9cNz_12rustc_middle9dep_graph8DepsTypeE52assert_dep_node_not_yet_allocated_in_current_sessionNtNtCs19MuVdBY7V6_5alloc6string6StringNCINvMs1_BU_B1M_9with_taskTNtNtCs2ERWbPTlodK_16rustc_query_impl8plumbing9QueryCtxtINtB4V_13DynamicConfigINtNtNtBY_5query6caches12DefaultCacheINtNtCs2t38KIHyE4j_13rustc_type_ir9canonical19CanonicalQueryInputNtNtNtB2a_2ty7context6TyCtxtINtB7O_11ParamEnvAndINtNtNtNtB2a_6traits5query7type_op9NormalizeINtNtB6M_7ty_kind5FnSigB7K_EEEEINtNtNtB2a_5query5erase6ErasedAhj8_EEKb0_KBal_KBal_EEB6H_B9J_E0E0uEB4V_
librustc_driver-f8caf2bfd7396df8.so:_RINvCsiN8jfhUhbz9_21rustc_data_structures7outlineNCINvMs3_NtNtCshF5AtUv7kVK_18rustc_query_system9dep_graph5graphINtBU_12DepGraphDataNtNtCsbnIUe8x9cNz_12rustc_middle9dep_graph8DepsTypeE52assert_dep_node_not_yet_allocated_in_current_sessionNtNtCs19MuVdBY7V6_5alloc6string6StringNCINvMs1_BU_B1M_9with_taskTNtNtCs2ERWbPTlodK_16rustc_query_impl8plumbing9QueryCtxtINtB4V_13DynamicConfigINtNtNtBY_5query6caches12DefaultCacheINtNtCs2t38KIHyE4j_13rustc_type_ir9canonical19CanonicalQueryInputNtNtNtB2a_2ty7context6TyCtxtINtB7O_11ParamEnvAndINtNtNtNtB2a_6traits5query7type_op9NormalizeNtB7O_2TyEEEINtNtNtB2a_5query5erase6ErasedAhj8_EEKb0_KBa2_KBa2_EEB6H_B9q_E0E0uEB4V_
librustc_driver-f8caf2bfd7396df8.so:_RINvCsiN8jfhUhbz9_21rustc_data_structures7outlineNCINvMs3_NtNtCshF5AtUv7kVK_18rustc_query_system9dep_graph5graphINtBU_12DepGraphDataNtNtCsbnIUe8x9cNz_12rustc_middle9dep_graph8DepsTypeE52assert_dep_node_not_yet_allocated_in_current_sessionNtNtCs19MuVdBY7V6_5alloc6string6StringNCINvMs1_BU_B1M_9with_taskTNtNtCs2ERWbPTlodK_16rustc_query_impl8plumbing9QueryCtxtINtB4V_13DynamicConfigINtNtNtBY_5query6caches12DefaultCacheINtNtCs2t38KIHyE4j_13rustc_type_ir9canonical19CanonicalQueryInputNtNtNtB2a_2ty7context6TyCtxtINtB7O_11ParamEnvAndINtNtNtNtB2a_6traits5query7type_op9NormalizeNtNtB7O_9predicate6ClauseEEEINtNtNtB2a_5query5erase6ErasedAhj8_EEKb0_KBai_KBai_EEB6H_B9G_E0E0uEB4V_
librustc_driver-f8caf2bfd7396df8.so:_RINvCsiN8jfhUhbz9_21rustc_data_structures7outlineNCINvMs3_NtNtCshF5AtUv7kVK_18rustc_query_system9dep_graph5graphINtBU_12DepGraphDataNtNtCsbnIUe8x9cNz_12rustc_middle9dep_graph8DepsTypeE52assert_dep_node_not_yet_allocated_in_current_sessionNtNtCs19MuVdBY7V6_5alloc6string6StringNCINvMs1_BU_B1M_9with_taskTNtNtCs2ERWbPTlodK_16rustc_query_impl8plumbing9QueryCtxtINtB4V_13DynamicConfigINtNtNtBY_5query6caches12DefaultCacheINtNtCs2t38KIHyE4j_13rustc_type_ir9canonical19CanonicalQueryInputNtNtNtB2a_2ty7context6TyCtxtINtB7O_11ParamEnvAndNtNtB7O_9predicate9PredicateEEINtNtNtB2a_5query5erase6ErasedAhj2_EEKb0_KB9C_KB9C_EEB6H_B90_E0E0uEB4V_
librustc_driver-f8caf2bfd7396df8.so:_RINvCsiN8jfhUhbz9_21rustc_data_structures7outlineNCINvMs3_NtNtCshF5AtUv7kVK_18rustc_query_system9dep_graph5graphINtBU_12DepGraphDataNtNtCsbnIUe8x9cNz_12rustc_middle9dep_graph8DepsTypeE52assert_dep_node_not_yet_allocated_in_current_sessionNtNtCs19MuVdBY7V6_5alloc6string6StringNCINvMs1_BU_B1M_9with_taskTNtNtCs2ERWbPTlodK_16rustc_query_impl8plumbing9QueryCtxtINtB4V_13DynamicConfigINtNtNtBY_5query6caches12DefaultCacheINtNtCs2t38KIHyE4j_13rustc_type_ir9canonical19CanonicalQueryInputNtNtNtB2a_2ty7context6TyCtxtINtB7O_11ParamEnvAndNtNtNtB2a_6traits5query20MethodAutoderefStepsEEINtNtNtB2a_5query5erase6ErasedAhj20_EEKb0_KB9U_KB9U_EEB6H_B9h_E0E0uEB4V_
librustc_driver-f8caf2bfd7396df8.so:_RINvCsiN8jfhUhbz9_21rustc_data_structures7outlineNCINvMs3_NtNtCshF5AtUv7kVK_18rustc_query_system9dep_graph5graphINtBU_12DepGraphDataNtNtCsbnIUe8x9cNz_12rustc_middle9dep_graph8DepsTypeE52assert_dep_node_not_yet_allocated_in_current_sessionNtNtCs19MuVdBY7V6_5alloc6string6StringNCINvMs1_BU_B1M_9with_taskTNtNtCs2ERWbPTlodK_16rustc_query_impl8plumbing9QueryCtxtINtB4V_13DynamicConfigINtNtNtBY_5query6caches12DefaultCacheINtNtCs2t38KIHyE4j_13rustc_type_ir9canonical19CanonicalQueryInputNtNtNtB2a_2ty7context6TyCtxtINtB7O_11ParamEnvAndNtNtNtNtB2a_6traits5query7type_op14DropckOutlivesEEINtNtNtB2a_5query5erase6ErasedAhj8_EEKb0_KB9X_KB9X_EEB6H_B9l_E0E0uEB4V_
librustc_driver-f8caf2bfd7396df8.so:_RINvCsiN8jfhUhbz9_21rustc_data_structures7outlineNCINvMs3_NtNtCshF5AtUv7kVK_18rustc_query_system9dep_graph5graphINtBU_12DepGraphDataNtNtCsbnIUe8x9cNz_12rustc_middle9dep_graph8DepsTypeE52assert_dep_node_not_yet_allocated_in_current_sessionNtNtCs19MuVdBY7V6_5alloc6string6StringNCINvMs1_BU_B1M_9with_taskTNtNtCs2ERWbPTlodK_16rustc_query_impl8plumbing9QueryCtxtINtB4V_13DynamicConfigINtNtNtBY_5query6caches12DefaultCacheINtNtCs2t38KIHyE4j_13rustc_type_ir9canonical19CanonicalQueryInputNtNtNtB2a_2ty7context6TyCtxtINtB7O_11ParamEnvAndNtNtNtNtB2a_6traits5query7type_op14ProvePredicateEEINtNtNtB2a_5query5erase6ErasedAhj8_EEKb0_KB9X_KB9X_EEB6H_B9l_E0E0uEB4V_
librustc_driver-f8caf2bfd7396df8.so:_RINvCsiN8jfhUhbz9_21rustc_data_structures7outlineNCINvMs3_NtNtCshF5AtUv7kVK_18rustc_query_system9dep_graph5graphINtBU_12DepGraphDataNtNtCsbnIUe8x9cNz_12rustc_middle9dep_graph8DepsTypeE52assert_dep_node_not_yet_allocated_in_current_sessionNtNtCs19MuVdBY7V6_5alloc6string6StringNCINvMs1_BU_B1M_9with_taskTNtNtCs2ERWbPTlodK_16rustc_query_impl8plumbing9QueryCtxtINtB4V_13DynamicConfigINtNtNtBY_5query6caches12DefaultCacheINtNtCs2t38KIHyE4j_13rustc_type_ir9canonical19CanonicalQueryInputNtNtNtB2a_2ty7context6TyCtxtINtB7O_11ParamEnvAndNtNtNtNtB2a_6traits5query7type_op15AscribeUserTypeEEINtNtNtB2a_5query5erase6ErasedAhj8_EEKb0_KB9Y_KB9Y_EEB6H_B9m_E0E0uEB4V_
librustc_driver-f8caf2bfd7396df8.so:_RINvCsiN8jfhUhbz9_21rustc_data_structures7outlineNCINvMs3_NtNtCshF5AtUv7kVK_18rustc_query_system9dep_graph5graphINtBU_12DepGraphDataNtNtCsbnIUe8x9cNz_12rustc_middle9dep_graph8DepsTypeE52assert_dep_node_not_yet_allocated_in_current_sessionNtNtCs19MuVdBY7V6_5alloc6string6StringNCINvMs1_BU_B1M_9with_taskTNtNtCs2ERWbPTlodK_16rustc_query_impl8plumbing9QueryCtxtINtB4V_13DynamicConfigINtNtNtBY_5query6caches12DefaultCacheINtNtCs2t38KIHyE4j_13rustc_type_ir9canonical19CanonicalQueryInputNtNtNtB2a_2ty7context6TyCtxtINtNtB6M_5solve10QueryInputB7K_NtNtB7O_9predicate9PredicateEEINtNtNtB2a_5query5erase6ErasedAhj30_EEKb0_KB9O_KB9O_EEB6H_B9b_E0E0uEB4V_
librustc_driver-f8caf2bfd7396df8.so:_RINvCsiN8jfhUhbz9_21rustc_data_structures7outlineNCINvMs3_NtNtCshF5AtUv7kVK_18rustc_query_system9dep_graph5graphINtBU_12DepGraphDataNtNtCsbnIUe8x9cNz_12rustc_middle9dep_graph8DepsTypeE52assert_dep_node_not_yet_allocated_in_current_sessionNtNtCs19MuVdBY7V6_5alloc6string6StringNCINvMs1_BU_B1M_9with_taskTNtNtCs2ERWbPTlodK_16rustc_query_impl8plumbing9QueryCtxtINtB4V_13DynamicConfigINtNtNtBY_5query6caches12DefaultCacheINtNtCs2t38KIHyE4j_13rustc_type_ir9predicate8TraitRefNtNtNtB2a_2ty7context6TyCtxtEINtNtNtB2a_5query5erase6ErasedAhj10_EEKb0_KB8E_KB8E_EEB6H_B81_E0E0uEB4V_
librustc_driver-f8caf2bfd7396df8.so:_RINvCsiN8jfhUhbz9_21rustc_data_structures7outlineNCINvMs3_NtNtCshF5AtUv7kVK_18rustc_query_system9dep_graph5graphINtBU_12DepGraphDataNtNtCsbnIUe8x9cNz_12rustc_middle9dep_graph8DepsTypeE52assert_dep_node_not_yet_allocated_in_current_sessionNtNtCs19MuVdBY7V6_5alloc6string6StringNCINvMs1_BU_B1M_9with_taskTNtNtCs2ERWbPTlodK_16rustc_query_impl8plumbing9QueryCtxtINtB4V_13DynamicConfigINtNtNtBY_5query6caches12DefaultCacheINtNtCs2t38KIHyE4j_13rustc_type_ir9predicate8TraitRefNtNtNtB2a_2ty7context6TyCtxtEINtNtNtB2a_5query5erase6ErasedAhj8_EEKb0_KB8D_KB8D_EEB6H_B81_E0E0uEB4V_
librustc_driver-f8caf2bfd7396df8.so:_RINvCsiN8jfhUhbz9_21rustc_data_structures7outlineNCINvMs3_NtNtCshF5AtUv7kVK_18rustc_query_system9dep_graph5graphINtBU_12DepGraphDataNtNtCsbnIUe8x9cNz_12rustc_middle9dep_graph8DepsTypeE52assert_dep_node_not_yet_allocated_in_current_sessionNtNtCs19MuVdBY7V6_5alloc6string6StringNCINvMs1_BU_B1M_9with_taskTNtNtCs2ERWbPTlodK_16rustc_query_impl8plumbing9QueryCtxtINtB4V_13DynamicConfigINtNtNtBY_5query6caches12DefaultCacheINtNtCs9WsFjTlRn02_4core6option6OptionNtNtCsjdyqsEEf0cE_10rustc_span6symbol6SymbolEINtNtNtB2a_5query5erase6ErasedAhj0_EEKb0_KB8E_KB8E_EEB6H_B82_E0E0uEB4V_
librustc_driver-f8caf2bfd7396df8.so:_RINvCsiN8jfhUhbz9_21rustc_data_structures7outlineNCINvMs3_NtNtCshF5AtUv7kVK_18rustc_query_system9dep_graph5graphINtBU_12DepGraphDataNtNtCsbnIUe8x9cNz_12rustc_middle9dep_graph8DepsTypeE52assert_dep_node_not_yet_allocated_in_current_sessionNtNtCs19MuVdBY7V6_5alloc6string6StringNCINvMs1_BU_B1M_9with_taskTNtNtCs2ERWbPTlodK_16rustc_query_impl8plumbing9QueryCtxtINtB4V_13DynamicConfigINtNtNtBY_5query6caches12DefaultCacheNtNtB2a_2ty2TyINtNtNtB2a_5query5erase6ErasedAhj10_EEKb0_KB7y_KB7y_EEB6H_B6V_E0E0uEB4V_
librustc_driver-f8caf2bfd7396df8.so:_RINvCsiN8jfhUhbz9_21rustc_data_structures7outlineNCINvMs3_NtNtCshF5AtUv7kVK_18rustc_query_system9dep_graph5graphINtBU_12DepGraphDataNtNtCsbnIUe8x9cNz_12rustc_middle9dep_graph8DepsTypeE52assert_dep_node_not_yet_allocated_in_current_sessionNtNtCs19MuVdBY7V6_5alloc6string6StringNCINvMs1_BU_B1M_9with_taskTNtNtCs2ERWbPTlodK_16rustc_query_impl8plumbing9QueryCtxtINtB4V_13DynamicConfigINtNtNtBY_5query6caches12DefaultCacheNtNtB2a_2ty2TyINtNtNtB2a_5query5erase6ErasedAhj1_EEKb0_KB7x_KB7x_EEB6H_B6V_E0E0uEB4V_
librustc_driver-f8caf2bfd7396df8.so:_RINvCsiN8jfhUhbz9_21rustc_data_structures7outlineNCINvMs3_NtNtCshF5AtUv7kVK_18rustc_query_system9dep_graph5graphINtBU_12DepGraphDataNtNtCsbnIUe8x9cNz_12rustc_middle9dep_graph8DepsTypeE52assert_dep_node_not_yet_allocated_in_current_sessionNtNtCs19MuVdBY7V6_5alloc6string6StringNCINvMs1_BU_B1M_9with_taskTNtNtCs2ERWbPTlodK_16rustc_query_impl8plumbing9QueryCtxtINtB4V_13DynamicConfigINtNtNtBY_5query6caches12DefaultCacheNtNtB2a_2ty2TyINtNtNtB2a_5query5erase6ErasedAhj1_EEKb1_Kb0_KB7B_EEB6H_B6V_E0E0uEB4V_
librustc_driver-f8caf2bfd7396df8.so:_RINvCsiN8jfhUhbz9_21rustc_data_structures7outlineNCINvMs3_NtNtCshF5AtUv7kVK_18rustc_query_system9dep_graph5graphINtBU_12DepGraphDataNtNtCsbnIUe8x9cNz_12rustc_middle9dep_graph8DepsTypeE52assert_dep_node_not_yet_allocated_in_current_sessionNtNtCs19MuVdBY7V6_5alloc6string6StringNCINvMs1_BU_B1M_9with_taskTNtNtCs2ERWbPTlodK_16rustc_query_impl8plumbing9QueryCtxtINtB4V_13DynamicConfigINtNtNtBY_5query6caches12DefaultCacheNtNtB2a_2ty2TyINtNtNtB2a_5query5erase6ErasedAhj8_EEKb1_Kb0_KB7B_EEB6H_B6V_E0E0uEB4V_
librustc_driver-f8caf2bfd7396df8.so:_RINvCsiN8jfhUhbz9_21rustc_data_structures7outlineNCINvMs3_NtNtCshF5AtUv7kVK_18rustc_query_system9dep_graph5graphINtBU_12DepGraphDataNtNtCsbnIUe8x9cNz_12rustc_middle9dep_graph8DepsTypeE52assert_dep_node_not_yet_allocated_in_current_sessionNtNtCs19MuVdBY7V6_5alloc6string6StringNCINvMs1_BU_B1M_9with_taskTNtNtCs2ERWbPTlodK_16rustc_query_impl8plumbing9QueryCtxtINtB4V_13DynamicConfigINtNtNtBY_5query6caches12DefaultCacheNtNtCsjdyqsEEf0cE_10rustc_span6def_id13LocalModDefIdINtNtNtB2a_5query5erase6ErasedAhj0_EEKb0_KB89_KB89_EEB6H_B7x_E0E0uEB4V_
librustc_driver-f8caf2bfd7396df8.so:_RINvCsiN8jfhUhbz9_21rustc_data_structures7outlineNCINvMs3_NtNtCshF5AtUv7kVK_18rustc_query_system9dep_graph5graphINtBU_12DepGraphDataNtNtCsbnIUe8x9cNz_12rustc_middle9dep_graph8DepsTypeE52assert_dep_node_not_yet_allocated_in_current_sessionNtNtCs19MuVdBY7V6_5alloc6string6StringNCINvMs1_BU_B1M_9with_taskTNtNtCs2ERWbPTlodK_16rustc_query_impl8plumbing9QueryCtxtINtB4V_13DynamicConfigINtNtNtBY_5query6caches12DefaultCacheNtNtCsjdyqsEEf0cE_10rustc_span6def_id13LocalModDefIdINtNtNtB2a_5query5erase6ErasedAhj8_EEKb0_KB89_KB89_EEB6H_B7x_E0E0uEB4V_
librustc_driver-f8caf2bfd7396df8.so:_RINvCsiN8jfhUhbz9_21rustc_data_structures7outlineNCINvMs3_NtNtCshF5AtUv7kVK_18rustc_query_system9dep_graph5graphINtBU_12DepGraphDataNtNtCsbnIUe8x9cNz_12rustc_middle9dep_graph8DepsTypeE52assert_dep_node_not_yet_allocated_in_current_sessionNtNtCs19MuVdBY7V6_5alloc6string6StringNCINvMs1_BU_B1M_9with_taskTNtNtCs2ERWbPTlodK_16rustc_query_impl8plumbing9QueryCtxtINtB4V_13DynamicConfigINtNtNtBY_5query6caches12DefaultCacheNtNtCsjdyqsEEf0cE_10rustc_span6symbol6SymbolINtNtNtB2a_5query5erase6ErasedAhj8_EEKb0_KB81_KB81_EEB6H_B7p_E0E0uEB4V_
librustc_driver-f8caf2bfd7396df8.so:_RINvCsiN8jfhUhbz9_21rustc_data_structures7outlineNCINvMs3_NtNtCshF5AtUv7kVK_18rustc_query_system9dep_graph5graphINtBU_12DepGraphDataNtNtCsbnIUe8x9cNz_12rustc_middle9dep_graph8DepsTypeE52assert_dep_node_not_yet_allocated_in_current_sessionNtNtCs19MuVdBY7V6_5alloc6string6StringNCINvMs1_BU_B1M_9with_taskTNtNtCs2ERWbPTlodK_16rustc_query_impl8plumbing9QueryCtxtINtB4V_13DynamicConfigINtNtNtBY_5query6caches12DefaultCacheNtNtNtB2a_2ty6consts5ConstINtNtNtB2a_5query5erase6ErasedAhj18_EEKb0_KB7K_KB7K_EEB6H_B77_E0E0uEB4V_
librustc_driver-f8caf2bfd7396df8.so:_RINvCsiN8jfhUhbz9_21rustc_data_structures7outlineNCINvMs3_NtNtCshF5AtUv7kVK_18rustc_query_system9dep_graph5graphINtBU_12DepGraphDataNtNtCsbnIUe8x9cNz_12rustc_middle9dep_graph8DepsTypeE52assert_dep_node_not_yet_allocated_in_current_sessionNtNtCs19MuVdBY7V6_5alloc6string6StringNCINvMs1_BU_B1M_9with_taskTNtNtCs2ERWbPTlodK_16rustc_query_impl8plumbing9QueryCtxtINtB4V_13DynamicConfigINtNtNtBY_5query6caches12DefaultCacheNtNtNtB2a_2ty8instance12InstanceKindINtNtNtB2a_5query5erase6ErasedAhj10_EEKb0_KB7U_KB7U_EEB6H_B7h_E0E0uEB4V_
librustc_driver-f8caf2bfd7396df8.so:_RINvCsiN8jfhUhbz9_21rustc_data_structures7outlineNCINvMs3_NtNtCshF5AtUv7kVK_18rustc_query_system9dep_graph5graphINtBU_12DepGraphDataNtNtCsbnIUe8x9cNz_12rustc_middle9dep_graph8DepsTypeE52assert_dep_node_not_yet_allocated_in_current_sessionNtNtCs19MuVdBY7V6_5alloc6string6StringNCINvMs1_BU_B1M_9with_taskTNtNtCs2ERWbPTlodK_16rustc_query_impl8plumbing9QueryCtxtINtB4V_13DynamicConfigINtNtNtBY_5query6caches12DefaultCacheNtNtNtB2a_2ty8instance12InstanceKindINtNtNtB2a_5query5erase6ErasedAhj8_EEKb0_KB7T_KB7T_EEB6H_B7h_E0E0uEB4V_
librustc_driver-f8caf2bfd7396df8.so:_RINvCsiN8jfhUhbz9_21rustc_data_structures7outlineNCINvMs3_NtNtCshF5AtUv7kVK_18rustc_query_system9dep_graph5graphINtBU_12DepGraphDataNtNtCsbnIUe8x9cNz_12rustc_middle9dep_graph8DepsTypeE52assert_dep_node_not_yet_allocated_in_current_sessionNtNtCs19MuVdBY7V6_5alloc6string6StringNCINvMs1_BU_B1M_9with_taskTNtNtCs2ERWbPTlodK_16rustc_query_impl8plumbing9QueryCtxtINtB4V_13DynamicConfigINtNtNtBY_5query6caches12DefaultCacheNtNtNtB2a_2ty8instance8InstanceINtNtNtB2a_5query5erase6ErasedAhj0_EEKb0_KB7O_KB7O_EEB6H_B7c_E0E0uEB4V_
librustc_driver-f8caf2bfd7396df8.so:_RINvCsiN8jfhUhbz9_21rustc_data_structures7outlineNCINvMs3_NtNtCshF5AtUv7kVK_18rustc_query_system9dep_graph5graphINtBU_12DepGraphDataNtNtCsbnIUe8x9cNz_12rustc_middle9dep_graph8DepsTypeE52assert_dep_node_not_yet_allocated_in_current_sessionNtNtCs19MuVdBY7V6_5alloc6string6StringNCINvMs1_BU_B1M_9with_taskTNtNtCs2ERWbPTlodK_16rustc_query_impl8plumbing9QueryCtxtINtB4V_13DynamicConfigINtNtNtBY_5query6caches12DefaultCacheNtNtNtB2a_2ty8instance8InstanceINtNtNtB2a_5query5erase6ErasedAhj10_EEKb0_KB7P_KB7P_EEB6H_B7c_E0E0uEB4V_
librustc_driver-f8caf2bfd7396df8.so:_RINvCsiN8jfhUhbz9_21rustc_data_structures7outlineNCINvMs3_NtNtCshF5AtUv7kVK_18rustc_query_system9dep_graph5graphINtBU_12DepGraphDataNtNtCsbnIUe8x9cNz_12rustc_middle9dep_graph8DepsTypeE52assert_dep_node_not_yet_allocated_in_current_sessionNtNtCs19MuVdBY7V6_5alloc6string6StringNCINvMs1_BU_B1M_9with_taskTNtNtCs2ERWbPTlodK_16rustc_query_impl8plumbing9QueryCtxtINtB4V_13DynamicConfigINtNtNtBY_5query6caches12DefaultCacheNtNtNtB2a_2ty8instance8InstanceINtNtNtB2a_5query5erase6ErasedAhj8_EEKb0_KB7O_KB7O_EEB6H_B7c_E0E0uEB4V_
librustc_driver-f8caf2bfd7396df8.so:_RINvCsiN8jfhUhbz9_21rustc_data_structures7outlineNCINvMs3_NtNtCshF5AtUv7kVK_18rustc_query_system9dep_graph5graphINtBU_12DepGraphDataNtNtCsbnIUe8x9cNz_12rustc_middle9dep_graph8DepsTypeE52assert_dep_node_not_yet_allocated_in_current_sessionNtNtCs19MuVdBY7V6_5alloc6string6StringNCINvMs1_BU_B1M_9with_taskTNtNtCs2ERWbPTlodK_16rustc_query_impl8plumbing9QueryCtxtINtB4V_13DynamicConfigINtNtNtBY_5query6caches12DefaultCacheNtNtNtB2a_3mir9interpret15LitToConstInputINtNtNtB2a_5query5erase6ErasedAhj8_EEKb0_KB7Y_KB7Y_EEB6H_B7m_E0E0uEB4V_
librustc_driver-f8caf2bfd7396df8.so:_RINvCsiN8jfhUhbz9_21rustc_data_structures7outlineNCINvMs3_NtNtCshF5AtUv7kVK_18rustc_query_system9dep_graph5graphINtBU_12DepGraphDataNtNtCsbnIUe8x9cNz_12rustc_middle9dep_graph8DepsTypeE52assert_dep_node_not_yet_allocated_in_current_sessionNtNtCs19MuVdBY7V6_5alloc6string6StringNCINvMs1_BU_B1M_9with_taskTNtNtCs2ERWbPTlodK_16rustc_query_impl8plumbing9QueryCtxtINtB4V_13DynamicConfigINtNtNtBY_5query6caches12DefaultCacheNtNtNtNtB2a_2ty6consts7valtree5ValueINtNtNtB2a_5query5erase6ErasedAhj18_EEKb0_KB7U_KB7U_EEB6H_B7h_E0E0uEB4V_
librustc_driver-f8caf2bfd7396df8.so:_RINvCsiN8jfhUhbz9_21rustc_data_structures7outlineNCINvMs3_NtNtCshF5AtUv7kVK_18rustc_query_system9dep_graph5graphINtBU_12DepGraphDataNtNtCsbnIUe8x9cNz_12rustc_middle9dep_graph8DepsTypeE52assert_dep_node_not_yet_allocated_in_current_sessionNtNtCs19MuVdBY7V6_5alloc6string6StringNCINvMs1_BU_B1M_9with_taskTNtNtCs2ERWbPTlodK_16rustc_query_impl8plumbing9QueryCtxtINtB4V_13DynamicConfigINtNtNtBY_5query6caches12DefaultCacheRINtNtNtB2a_2ty4list7RawListNtB6L_8TypeInfoNtNtB6N_9predicate6ClauseEINtNtNtB2a_5query5erase6ErasedAhj8_EEKb0_KB8q_KB8q_EEB6H_B7O_E0E0uEB4V_
librustc_driver-f8caf2bfd7396df8.so:_RINvCsiN8jfhUhbz9_21rustc_data_structures7outlineNCINvMs3_NtNtCshF5AtUv7kVK_18rustc_query_system9dep_graph5graphINtBU_12DepGraphDataNtNtCsbnIUe8x9cNz_12rustc_middle9dep_graph8DepsTypeE52assert_dep_node_not_yet_allocated_in_current_sessionNtNtCs19MuVdBY7V6_5alloc6string6StringNCINvMs1_BU_B1M_9with_taskTNtNtCs2ERWbPTlodK_16rustc_query_impl8plumbing9QueryCtxtINtB4V_13DynamicConfigINtNtNtBY_5query6caches12DefaultCacheRINtNtNtB2a_2ty4list7RawListuNtNtB6N_12generic_args10GenericArgEINtNtNtB2a_5query5erase6ErasedAhj4_EEKb0_KB8l_KB8l_EEB6H_B7J_E0E0uEB4V_
librustc_driver-f8caf2bfd7396df8.so:_RINvCsiN8jfhUhbz9_21rustc_data_structures7outlineNCINvMs3_NtNtCshF5AtUv7kVK_18rustc_query_system9dep_graph5graphINtBU_12DepGraphDataNtNtCsbnIUe8x9cNz_12rustc_middle9dep_graph8DepsTypeE52assert_dep_node_not_yet_allocated_in_current_sessionNtNtCs19MuVdBY7V6_5alloc6string6StringNCINvMs1_BU_B1M_9with_taskTNtNtCs2ERWbPTlodK_16rustc_query_impl8plumbing9QueryCtxtINtB4V_13DynamicConfigINtNtNtBY_5query6caches12DefaultCacheRNtNtNtCsjj3dQwFOuTb_3std3ffi6os_str5OsStrINtNtNtB2a_5query5erase6ErasedAhj10_EEKb0_KB80_KB80_EEB6H_B7n_E0E0uEB4V_
librustc_driver-f8caf2bfd7396df8.so:_RINvCsiN8jfhUhbz9_21rustc_data_structures7outlineNCINvMs3_NtNtCshF5AtUv7kVK_18rustc_query_system9dep_graph5graphINtBU_12DepGraphDataNtNtCsbnIUe8x9cNz_12rustc_middle9dep_graph8DepsTypeE52assert_dep_node_not_yet_allocated_in_current_sessionNtNtCs19MuVdBY7V6_5alloc6string6StringNCINvMs1_BU_B1M_9with_taskTNtNtCs2ERWbPTlodK_16rustc_query_impl8plumbing9QueryCtxtINtB4V_13DynamicConfigINtNtNtBY_5query6caches12DefaultCacheTINtNtCs2t38KIHyE4j_13rustc_type_ir9canonical19CanonicalQueryInputNtNtNtB2a_2ty7context6TyCtxtINtB7P_11ParamEnvAndNtNtNtNtB2a_6traits5query7type_op21ImpliedOutlivesBoundsEEbEINtNtNtB2a_5query5erase6ErasedAhj8_EEKb0_KBa7_KBa7_EEB6H_B9v_E0E0uEB4V_
librustc_driver-f8caf2bfd7396df8.so:_RINvCsiN8jfhUhbz9_21rustc_data_structures7outlineNCINvMs3_NtNtCshF5AtUv7kVK_18rustc_query_system9dep_graph5graphINtBU_12DepGraphDataNtNtCsbnIUe8x9cNz_12rustc_middle9dep_graph8DepsTypeE52assert_dep_node_not_yet_allocated_in_current_sessionNtNtCs19MuVdBY7V6_5alloc6string6StringNCINvMs1_BU_B1M_9with_taskTNtNtCs2ERWbPTlodK_16rustc_query_impl8plumbing9QueryCtxtINtB4V_13DynamicConfigINtNtNtBY_5query6caches12DefaultCacheTNtNtB2a_2ty2TyB6I_EINtNtNtB2a_5query5erase6ErasedAhj10_EEKb0_KB7E_KB7E_EEB6H_B71_E0E0uEB4V_
librustc_driver-f8caf2bfd7396df8.so:_RINvCsiN8jfhUhbz9_21rustc_data_structures7outlineNCINvMs3_NtNtCshF5AtUv7kVK_18rustc_query_system9dep_graph5graphINtBU_12DepGraphDataNtNtCsbnIUe8x9cNz_12rustc_middle9dep_graph8DepsTypeE52assert_dep_node_not_yet_allocated_in_current_sessionNtNtCs19MuVdBY7V6_5alloc6string6StringNCINvMs1_BU_B1M_9with_taskTNtNtCs2ERWbPTlodK_16rustc_query_impl8plumbing9QueryCtxtINtB4V_13DynamicConfigINtNtNtBY_5query6caches12DefaultCacheTNtNtB2a_2ty2TyINtNtCs9WsFjTlRn02_4core6option6OptionINtNtCs2t38KIHyE4j_13rustc_type_ir9predicate19ExistentialTraitRefNtNtB6K_7context6TyCtxtEEEINtNtNtB2a_5query5erase6ErasedAhj8_EEKb0_KB9D_KB9D_EEB6H_B91_E0E0uEB4V_
librustc_driver-f8caf2bfd7396df8.so:_RINvCsiN8jfhUhbz9_21rustc_data_structures7outlineNCINvMs3_NtNtCshF5AtUv7kVK_18rustc_query_system9dep_graph5graphINtBU_12DepGraphDataNtNtCsbnIUe8x9cNz_12rustc_middle9dep_graph8DepsTypeE52assert_dep_node_not_yet_allocated_in_current_sessionNtNtCs19MuVdBY7V6_5alloc6string6StringNCINvMs1_BU_B1M_9with_taskTNtNtCs2ERWbPTlodK_16rustc_query_impl8plumbing9QueryCtxtINtB4V_13DynamicConfigINtNtNtBY_5query6caches12DefaultCacheTNtNtCsjdyqsEEf0cE_10rustc_span6def_id10LocalDefIdB6I_NtNtB6M_6symbol5IdentEINtNtNtB2a_5query5erase6ErasedAhj10_EEKb0_KB8y_KB8y_EEB6H_B7V_E0E0uEB4V_
librustc_driver-f8caf2bfd7396df8.so:_RINvCsiN8jfhUhbz9_21rustc_data_structures7outlineNCINvMs3_NtNtCshF5AtUv7kVK_18rustc_query_system9dep_graph5graphINtBU_12DepGraphDataNtNtCsbnIUe8x9cNz_12rustc_middle9dep_graph8DepsTypeE52assert_dep_node_not_yet_allocated_in_current_sessionNtNtCs19MuVdBY7V6_5alloc6string6StringNCINvMs1_BU_B1M_9with_taskTNtNtCs2ERWbPTlodK_16rustc_query_impl8plumbing9QueryCtxtINtB4V_13DynamicConfigINtNtNtBY_5query6caches12DefaultCacheTNtNtCsjdyqsEEf0cE_10rustc_span6def_id5DefIdB6I_EINtNtNtB2a_5query5erase6ErasedAhj1_EEKb0_KB86_KB86_EEB6H_B7u_E0E0uEB4V_
librustc_driver-f8caf2bfd7396df8.so:_RINvCsiN8jfhUhbz9_21rustc_data_structures7outlineNCINvMs3_NtNtCshF5AtUv7kVK_18rustc_query_system9dep_graph5graphINtBU_12DepGraphDataNtNtCsbnIUe8x9cNz_12rustc_middle9dep_graph8DepsTypeE52assert_dep_node_not_yet_allocated_in_current_sessionNtNtCs19MuVdBY7V6_5alloc6string6StringNCINvMs1_BU_B1M_9with_taskTNtNtCs2ERWbPTlodK_16rustc_query_impl8plumbing9QueryCtxtINtB4V_13DynamicConfigINtNtNtBY_5query6caches12DefaultCacheTNtNtCsjdyqsEEf0cE_10rustc_span6def_id5DefIdNtNtB6M_6symbol5IdentEINtNtNtB2a_5query5erase6ErasedAhj10_EEKb0_KB8o_KB8o_EEB6H_B7L_E0E0uEB4V_
librustc_driver-f8caf2bfd7396df8.so:_RINvCsiN8jfhUhbz9_21rustc_data_structures7outlineNCINvMs3_NtNtCshF5AtUv7kVK_18rustc_query_system9dep_graph5graphINtBU_12DepGraphDataNtNtCsbnIUe8x9cNz_12rustc_middle9dep_graph8DepsTypeE52assert_dep_node_not_yet_allocated_in_current_sessionNtNtCs19MuVdBY7V6_5alloc6string6StringNCINvMs1_BU_B1M_9with_taskTNtNtCs2ERWbPTlodK_16rustc_query_impl8plumbing9QueryCtxtINtB4V_13DynamicConfigINtNtNtBY_5query6caches12DefaultCacheTNtNtCsjdyqsEEf0cE_10rustc_span6def_id5DefIdNtNtCs2t38KIHyE4j_13rustc_type_ir5solve14SizedTraitKindEINtNtNtB2a_5query5erase6ErasedAhj8_EEKb0_KB8V_KB8V_EEB6H_B8j_E0E0uEB4V_
librustc_driver-f8caf2bfd7396df8.so:_RINvCsiN8jfhUhbz9_21rustc_data_structures7outlineNCINvMs3_NtNtCshF5AtUv7kVK_18rustc_query_system9dep_graph5graphINtBU_12DepGraphDataNtNtCsbnIUe8x9cNz_12rustc_middle9dep_graph8DepsTypeE52assert_dep_node_not_yet_allocated_in_current_sessionNtNtCs19MuVdBY7V6_5alloc6string6StringNCINvMs1_BU_B1M_9with_taskTNtNtCs2ERWbPTlodK_16rustc_query_impl8plumbing9QueryCtxtINtB4V_13DynamicConfigINtNtNtBY_5query6caches12DefaultCacheTNtNtCsjdyqsEEf0cE_10rustc_span6def_id5DefIdRINtNtNtB2a_2ty4list7RawListuNtNtB7v_12generic_args10GenericArgEEINtNtNtB2a_5query5erase6ErasedAhj1_EEKb0_KB94_KB94_EEB6H_B8s_E0E0uEB4V_
librustc_driver-f8caf2bfd7396df8.so:_RINvCsiN8jfhUhbz9_21rustc_data_structures7outlineNCINvMs3_NtNtCshF5AtUv7kVK_18rustc_query_system9dep_graph5graphINtBU_12DepGraphDataNtNtCsbnIUe8x9cNz_12rustc_middle9dep_graph8DepsTypeE52assert_dep_node_not_yet_allocated_in_current_sessionNtNtCs19MuVdBY7V6_5alloc6string6StringNCINvMs1_BU_B1M_9with_taskTNtNtCs2ERWbPTlodK_16rustc_query_impl8plumbing9QueryCtxtINtB4V_13DynamicConfigINtNtNtBY_5query6caches12DefaultCacheTNtNtCsjdyqsEEf0cE_10rustc_span6def_id8CrateNumINtNtCs2t38KIHyE4j_13rustc_type_ir11fast_reject14SimplifiedTypeNtB6K_5DefIdEEINtNtNtB2a_5query5erase6ErasedAhj10_EEKb0_KB9k_KB9k_EEB6H_B8H_E0E0uEB4V_
librustc_driver-f8caf2bfd7396df8.so:_RINvCsiN8jfhUhbz9_21rustc_data_structures7outlineNCINvMs3_NtNtCshF5AtUv7kVK_18rustc_query_system9dep_graph5graphINtBU_12DepGraphDataNtNtCsbnIUe8x9cNz_12rustc_middle9dep_graph8DepsTypeE52assert_dep_node_not_yet_allocated_in_current_sessionNtNtCs19MuVdBY7V6_5alloc6string6StringNCINvMs1_BU_B1M_9with_taskTNtNtCs2ERWbPTlodK_16rustc_query_impl8plumbing9QueryCtxtINtB4V_13DynamicConfigINtNtNtBY_5query6caches12DefaultCacheTNtNtCsjdyqsEEf0cE_10rustc_span6def_id8CrateNumNtB6K_5DefIdEINtNtNtB2a_5query5erase6ErasedAhj10_EEKb0_KB8i_KB8i_EEB6H_B7F_E0E0uEB4V_
librustc_driver-f8caf2bfd7396df8.so:_RINvCsiN8jfhUhbz9_21rustc_data_structures7outlineNCINvMs3_NtNtCshF5AtUv7kVK_18rustc_query_system9dep_graph5graphINtBU_12DepGraphDataNtNtCsbnIUe8x9cNz_12rustc_middle9dep_graph8DepsTypeE52assert_dep_node_not_yet_allocated_in_current_sessionNtNtCs19MuVdBY7V6_5alloc6string6StringNCINvMs1_BU_B1M_9with_taskTNtNtCs2ERWbPTlodK_16rustc_query_impl8plumbing9QueryCtxtINtB4V_13DynamicConfigINtNtNtBY_5query6caches12DefaultCacheTNtNtNtB2a_2ty6layout19ValidityRequirementINtB6M_20PseudoCanonicalInputNtB6M_2TyEEINtNtNtB2a_5query5erase6ErasedAhj10_EEKb0_KB8E_KB8E_EEB6H_B81_E0E0uEB4V_
librustc_driver-f8caf2bfd7396df8.so:_RINvCsiN8jfhUhbz9_21rustc_data_structures7outlineNCINvMs3_NtNtCshF5AtUv7kVK_18rustc_query_system9dep_graph5graphINtBU_12DepGraphDataNtNtCsbnIUe8x9cNz_12rustc_middle9dep_graph8DepsTypeE52assert_dep_node_not_yet_allocated_in_current_sessionNtNtCs19MuVdBY7V6_5alloc6string6StringNCINvMs1_BU_B1M_9with_taskTNtNtCs2ERWbPTlodK_16rustc_query_impl8plumbing9QueryCtxtINtB4V_13DynamicConfigINtNtNtBY_5query6caches12DefaultCacheTNtNtNtB2a_2ty8instance8InstanceNtNtNtB2a_3mir4mono14CollectionModeEINtNtNtB2a_5query5erase6ErasedAhj20_EEKb0_KB8q_KB8q_EEB6H_B7N_E0E0uEB4V_
librustc_driver-f8caf2bfd7396df8.so:_RINvCsiN8jfhUhbz9_21rustc_data_structures7outlineNCINvMs3_NtNtCshF5AtUv7kVK_18rustc_query_system9dep_graph5graphINtBU_12DepGraphDataNtNtCsbnIUe8x9cNz_12rustc_middle9dep_graph8DepsTypeE52assert_dep_node_not_yet_allocated_in_current_sessionNtNtCs19MuVdBY7V6_5alloc6string6StringNCINvMs1_BU_B1M_9with_taskTNtNtCs2ERWbPTlodK_16rustc_query_impl8plumbing9QueryCtxtINtB4V_13DynamicConfigINtNtNtBY_5query6caches12DefaultCacheTNtNtNtB2a_2ty9predicate9PredicateNtNtB2a_6traits13WellFormedLocEINtNtNtB2a_5query5erase6ErasedAhj8_EEKb0_KB8m_KB8m_EEB6H_B7K_E0E0uEB4V_
librustc_driver-f8caf2bfd7396df8.so:_RINvCsiN8jfhUhbz9_21rustc_data_structures7outlineNCINvNtNtCshF5AtUv7kVK_18rustc_query_system5query8plumbing14wait_for_queryINtCs2ERWbPTlodK_16rustc_query_impl13DynamicConfigINtNtB2_9vec_cache8VecCacheNtCs6whg2ier8G0_12rustc_hir_id7OwnerIdINtNtNtCsbnIUe8x9cNz_12rustc_middle5query5erase6ErasedAhj8_ENtNtNtBU_9dep_graph5graph12DepNodeIndexEKb0_KB5r_KB5r_ENtNtB20_8plumbing9QueryCtxtE0zEB20_
librustc_driver-f8caf2bfd7396df8.so:_RINvCsiN8jfhUhbz9_21rustc_data_structures7outlineNCINvNtNtCshF5AtUv7kVK_18rustc_query_system5query8plumbing14wait_for_queryINtCs2ERWbPTlodK_16rustc_query_impl13DynamicConfigINtNtB2_9vec_cache8VecCacheNtNtCsjdyqsEEf0cE_10rustc_span6def_id10LocalDefIdINtNtNtCsbnIUe8x9cNz_12rustc_middle5query5erase6ErasedAhj0_ENtNtNtBU_9dep_graph5graph12DepNodeIndexEKb0_KB5C_KB5C_ENtNtB20_8plumbing9QueryCtxtE0zEB20_
librustc_driver-f8caf2bfd7396df8.so:_RINvCsiN8jfhUhbz9_21rustc_data_structures7outlineNCINvNtNtCshF5AtUv7kVK_18rustc_query_system5query8plumbing14wait_for_queryINtCs2ERWbPTlodK_16rustc_query_impl13DynamicConfigINtNtB2_9vec_cache8VecCacheNtNtCsjdyqsEEf0cE_10rustc_span6def_id10LocalDefIdINtNtNtCsbnIUe8x9cNz_12rustc_middle5query5erase6ErasedAhj10_ENtNtNtBU_9dep_graph5graph12DepNodeIndexEKb0_KB5D_KB5D_ENtNtB20_8plumbing9QueryCtxtE0zEB20_
librustc_driver-f8caf2bfd7396df8.so:_RINvCsiN8jfhUhbz9_21rustc_data_structures7outlineNCINvNtNtCshF5AtUv7kVK_18rustc_query_system5query8plumbing14wait_for_queryINtCs2ERWbPTlodK_16rustc_query_impl13DynamicConfigINtNtB2_9vec_cache8VecCacheNtNtCsjdyqsEEf0cE_10rustc_span6def_id10LocalDefIdINtNtNtCsbnIUe8x9cNz_12rustc_middle5query5erase6ErasedAhj18_ENtNtNtBU_9dep_graph5graph12DepNodeIndexEKb0_KB5D_KB5D_ENtNtB20_8plumbing9QueryCtxtE0zEB20_
librustc_driver-f8caf2bfd7396df8.so:_RINvCsiN8jfhUhbz9_21rustc_data_structures7outlineNCINvNtNtCshF5AtUv7kVK_18rustc_query_system5query8plumbing14wait_for_queryINtCs2ERWbPTlodK_16rustc_query_impl13DynamicConfigINtNtB2_9vec_cache8VecCacheNtNtCsjdyqsEEf0cE_10rustc_span6def_id10LocalDefIdINtNtNtCsbnIUe8x9cNz_12rustc_middle5query5erase6ErasedAhj1_ENtNtNtBU_9dep_graph5graph12DepNodeIndexEKb0_KB5C_KB5C_ENtNtB20_8plumbing9QueryCtxtE0zEB20_
librustc_driver-f8caf2bfd7396df8.so:_RINvCsiN8jfhUhbz9_21rustc_data_structures7outlineNCINvNtNtCshF5AtUv7kVK_18rustc_query_system5query8plumbing14wait_for_queryINtCs2ERWbPTlodK_16rustc_query_impl13DynamicConfigINtNtB2_9vec_cache8VecCacheNtNtCsjdyqsEEf0cE_10rustc_span6def_id10LocalDefIdINtNtNtCsbnIUe8x9cNz_12rustc_middle5query5erase6ErasedAhj1_ENtNtNtBU_9dep_graph5graph12DepNodeIndexEKb1_Kb0_KB5G_ENtNtB20_8plumbing9QueryCtxtE0zEB20_
librustc_driver-f8caf2bfd7396df8.so:_RINvCsiN8jfhUhbz9_21rustc_data_structures7outlineNCINvNtNtCshF5AtUv7kVK_18rustc_query_system5query8plumbing14wait_for_queryINtCs2ERWbPTlodK_16rustc_query_impl13DynamicConfigINtNtB2_9vec_cache8VecCacheNtNtCsjdyqsEEf0cE_10rustc_span6def_id10LocalDefIdINtNtNtCsbnIUe8x9cNz_12rustc_middle5query5erase6ErasedAhj38_ENtNtNtBU_9dep_graph5graph12DepNodeIndexEKb0_KB5D_KB5D_ENtNtB20_8plumbing9QueryCtxtE0zEB20_
librustc_driver-f8caf2bfd7396df8.so:_RINvCsiN8jfhUhbz9_21rustc_data_structures7outlineNCINvNtNtCshF5AtUv7kVK_18rustc_query_system5query8plumbing14wait_for_queryINtCs2ERWbPTlodK_16rustc_query_impl13DynamicConfigINtNtB2_9vec_cache8VecCacheNtNtCsjdyqsEEf0cE_10rustc_span6def_id10LocalDefIdINtNtNtCsbnIUe8x9cNz_12rustc_middle5query5erase6ErasedAhj4_ENtNtNtBU_9dep_graph5graph12DepNodeIndexEKb0_KB5C_KB5C_ENtNtB20_8plumbing9QueryCtxtE0zEB20_
librustc_driver-f8caf2bfd7396df8.so:_RINvCsiN8jfhUhbz9_21rustc_data_structures7outlineNCINvNtNtCshF5AtUv7kVK_18rustc_query_system5query8plumbing14wait_for_queryINtCs2ERWbPTlodK_16rustc_query_impl13DynamicConfigINtNtB2_9vec_cache8VecCacheNtNtCsjdyqsEEf0cE_10rustc_span6def_id10LocalDefIdINtNtNtCsbnIUe8x9cNz_12rustc_middle5query5erase6ErasedAhj8_ENtNtNtBU_9dep_graph5graph12DepNodeIndexEKb0_KB5C_KB5C_ENtNtB20_8plumbing9QueryCtxtE0zEB20_
librustc_driver-f8caf2bfd7396df8.so:_RINvCsiN8jfhUhbz9_21rustc_data_structures7outlineNCINvNtNtCshF5AtUv7kVK_18rustc_query_system5query8plumbing14wait_for_queryINtCs2ERWbPTlodK_16rustc_query_impl13DynamicConfigINtNtB2_9vec_cache8VecCacheNtNtCsjdyqsEEf0cE_10rustc_span6def_id8CrateNumINtNtNtCsbnIUe8x9cNz_12rustc_middle5query5erase6ErasedAhj10_ENtNtNtBU_9dep_graph5graph12DepNodeIndexEKb0_KB5A_KB5A_ENtNtB20_8plumbing9QueryCtxtE0zEB20_
librustc_driver-f8caf2bfd7396df8.so:_RINvCsiN8jfhUhbz9_21rustc_data_structures7outlineNCINvNtNtCshF5AtUv7kVK_18rustc_query_system5query8plumbing14wait_for_queryINtCs2ERWbPTlodK_16rustc_query_impl13DynamicConfigINtNtB2_9vec_cache8VecCacheNtNtCsjdyqsEEf0cE_10rustc_span6def_id8CrateNumINtNtNtCsbnIUe8x9cNz_12rustc_middle5query5erase6ErasedAhj18_ENtNtNtBU_9dep_graph5graph12DepNodeIndexEKb0_KB5A_KB5A_ENtNtB20_8plumbing9QueryCtxtE0zEB20_
librustc_driver-f8caf2bfd7396df8.so:_RINvCsiN8jfhUhbz9_21rustc_data_structures7outlineNCINvNtNtCshF5AtUv7kVK_18rustc_query_system5query8plumbing14wait_for_queryINtCs2ERWbPTlodK_16rustc_query_impl13DynamicConfigINtNtB2_9vec_cache8VecCacheNtNtCsjdyqsEEf0cE_10rustc_span6def_id8CrateNumINtNtNtCsbnIUe8x9cNz_12rustc_middle5query5erase6ErasedAhj1_ENtNtNtBU_9dep_graph5graph12DepNodeIndexEKb0_KB5z_KB5z_ENtNtB20_8plumbing9QueryCtxtE0zEB20_
librustc_driver-f8caf2bfd7396df8.so:_RINvCsiN8jfhUhbz9_21rustc_data_structures7outlineNCINvNtNtCshF5AtUv7kVK_18rustc_query_system5query8plumbing14wait_for_queryINtCs2ERWbPTlodK_16rustc_query_impl13DynamicConfigINtNtB2_9vec_cache8VecCacheNtNtCsjdyqsEEf0cE_10rustc_span6def_id8CrateNumINtNtNtCsbnIUe8x9cNz_12rustc_middle5query5erase6ErasedAhj4_ENtNtNtBU_9dep_graph5graph12DepNodeIndexEKb0_KB5z_KB5z_ENtNtB20_8plumbing9QueryCtxtE0zEB20_
librustc_driver-f8caf2bfd7396df8.so:_RINvCsiN8jfhUhbz9_21rustc_data_structures7outlineNCINvNtNtCshF5AtUv7kVK_18rustc_query_system5query8plumbing14wait_for_queryINtCs2ERWbPTlodK_16rustc_query_impl13DynamicConfigINtNtB2_9vec_cache8VecCacheNtNtCsjdyqsEEf0cE_10rustc_span6def_id8CrateNumINtNtNtCsbnIUe8x9cNz_12rustc_middle5query5erase6ErasedAhj8_ENtNtNtBU_9dep_graph5graph12DepNodeIndexEKb0_KB5z_KB5z_ENtNtB20_8plumbing9QueryCtxtE0zEB20_
librustc_driver-f8caf2bfd7396df8.so:_RINvCsiN8jfhUhbz9_21rustc_data_structures7outlineNCINvNtNtCshF5AtUv7kVK_18rustc_query_system5query8plumbing14wait_for_queryINtCs2ERWbPTlodK_16rustc_query_impl13DynamicConfigINtNtBS_6caches10DefIdCacheINtNtNtCsbnIUe8x9cNz_12rustc_middle5query5erase6ErasedAhj0_EEKb0_KB4c_KB4c_ENtNtB20_8plumbing9QueryCtxtE0zEB20_
librustc_driver-f8caf2bfd7396df8.so:_RINvCsiN8jfhUhbz9_21rustc_data_structures7outlineNCINvNtNtCshF5AtUv7kVK_18rustc_query_system5query8plumbing14wait_for_queryINtCs2ERWbPTlodK_16rustc_query_impl13DynamicConfigINtNtBS_6caches10DefIdCacheINtNtNtCsbnIUe8x9cNz_12rustc_middle5query5erase6ErasedAhj10_EEKb0_KB4d_KB4d_ENtNtB20_8plumbing9QueryCtxtE0zEB20_
librustc_driver-f8caf2bfd7396df8.so:_RINvCsiN8jfhUhbz9_21rustc_data_structures7outlineNCINvNtNtCshF5AtUv7kVK_18rustc_query_system5query8plumbing14wait_for_queryINtCs2ERWbPTlodK_16rustc_query_impl13DynamicConfigINtNtBS_6caches10DefIdCacheINtNtNtCsbnIUe8x9cNz_12rustc_middle5query5erase6ErasedAhj14_EEKb0_KB4d_KB4d_ENtNtB20_8plumbing9QueryCtxtE0zEB20_
librustc_driver-f8caf2bfd7396df8.so:_RINvCsiN8jfhUhbz9_21rustc_data_structures7outlineNCINvNtNtCshF5AtUv7kVK_18rustc_query_system5query8plumbing14wait_for_queryINtCs2ERWbPTlodK_16rustc_query_impl13DynamicConfigINtNtBS_6caches10DefIdCacheINtNtNtCsbnIUe8x9cNz_12rustc_middle5query5erase6ErasedAhj18_EEKb0_KB4d_KB4d_ENtNtB20_8plumbing9QueryCtxtE0zEB20_
librustc_driver-f8caf2bfd7396df8.so:_RINvCsiN8jfhUhbz9_21rustc_data_structures7outlineNCINvNtNtCshF5AtUv7kVK_18rustc_query_system5query8plumbing14wait_for_queryINtCs2ERWbPTlodK_16rustc_query_impl13DynamicConfigINtNtBS_6caches10DefIdCacheINtNtNtCsbnIUe8x9cNz_12rustc_middle5query5erase6ErasedAhj1_EEKb0_KB4c_KB4c_ENtNtB20_8plumbing9QueryCtxtE0zEB20_
librustc_driver-f8caf2bfd7396df8.so:_RINvCsiN8jfhUhbz9_21rustc_data_structures7outlineNCINvNtNtCshF5AtUv7kVK_18rustc_query_system5query8plumbing14wait_for_queryINtCs2ERWbPTlodK_16rustc_query_impl13DynamicConfigINtNtBS_6caches10DefIdCacheINtNtNtCsbnIUe8x9cNz_12rustc_middle5query5erase6ErasedAhj1c_EEKb0_KB4d_KB4d_ENtNtB20_8plumbing9QueryCtxtE0zEB20_
librustc_driver-f8caf2bfd7396df8.so:_RINvCsiN8jfhUhbz9_21rustc_data_structures7outlineNCINvNtNtCshF5AtUv7kVK_18rustc_query_system5query8plumbing14wait_for_queryINtCs2ERWbPTlodK_16rustc_query_impl13DynamicConfigINtNtBS_6caches10DefIdCacheINtNtNtCsbnIUe8x9cNz_12rustc_middle5query5erase6ErasedAhj20_EEKb0_KB4d_KB4d_ENtNtB20_8plumbing9QueryCtxtE0zEB20_
librustc_driver-f8caf2bfd7396df8.so:_RINvCsiN8jfhUhbz9_21rustc_data_structures7outlineNCINvNtNtCshF5AtUv7kVK_18rustc_query_system5query8plumbing14wait_for_queryINtCs2ERWbPTlodK_16rustc_query_impl13DynamicConfigINtNtBS_6caches10DefIdCacheINtNtNtCsbnIUe8x9cNz_12rustc_middle5query5erase6ErasedAhj2_EEKb0_KB4c_KB4c_ENtNtB20_8plumbing9QueryCtxtE0zEB20_
librustc_driver-f8caf2bfd7396df8.so:_RINvCsiN8jfhUhbz9_21rustc_data_structures7outlineNCINvNtNtCshF5AtUv7kVK_18rustc_query_system5query8plumbing14wait_for_queryINtCs2ERWbPTlodK_16rustc_query_impl13DynamicConfigINtNtBS_6caches10DefIdCacheINtNtNtCsbnIUe8x9cNz_12rustc_middle5query5erase6ErasedAhj3_EEKb0_KB4c_KB4c_ENtNtB20_8plumbing9QueryCtxtE0zEB20_
librustc_driver-f8caf2bfd7396df8.so:_RINvCsiN8jfhUhbz9_21rustc_data_structures7outlineNCINvNtNtCshF5AtUv7kVK_18rustc_query_system5query8plumbing14wait_for_queryINtCs2ERWbPTlodK_16rustc_query_impl13DynamicConfigINtNtBS_6caches10DefIdCacheINtNtNtCsbnIUe8x9cNz_12rustc_middle5query5erase6ErasedAhj4_EEKb0_KB4c_KB4c_ENtNtB20_8plumbing9QueryCtxtE0zEB20_
librustc_driver-f8caf2bfd7396df8.so:_RINvCsiN8jfhUhbz9_21rustc_data_structures7outlineNCINvNtNtCshF5AtUv7kVK_18rustc_query_system5query8plumbing14wait_for_queryINtCs2ERWbPTlodK_16rustc_query_impl13DynamicConfigINtNtBS_6caches10DefIdCacheINtNtNtCsbnIUe8x9cNz_12rustc_middle5query5erase6ErasedAhj8_EEKb0_KB4c_KB4c_ENtNtB20_8plumbing9QueryCtxtE0zEB20_
librustc_driver-f8caf2bfd7396df8.so:_RINvCsiN8jfhUhbz9_21rustc_data_structures7outlineNCINvNtNtCshF5AtUv7kVK_18rustc_query_system5query8plumbing14wait_for_queryINtCs2ERWbPTlodK_16rustc_query_impl13DynamicConfigINtNtBS_6caches10DefIdCacheINtNtNtCsbnIUe8x9cNz_12rustc_middle5query5erase6ErasedAhjc_EEKb0_KB4c_KB4c_ENtNtB20_8plumbing9QueryCtxtE0zEB20_
librustc_driver-f8caf2bfd7396df8.so:_RINvCsiN8jfhUhbz9_21rustc_data_structures7outlineNCINvNtNtCshF5AtUv7kVK_18rustc_query_system5query8plumbing14wait_for_queryINtCs2ERWbPTlodK_16rustc_query_impl13DynamicConfigINtNtBS_6caches11SingleCacheINtNtNtCsbnIUe8x9cNz_12rustc_middle5query5erase6ErasedAhj0_EEKb0_KB4d_KB4d_ENtNtB20_8plumbing9QueryCtxtE0zEB20_
librustc_driver-f8caf2bfd7396df8.so:_RINvCsiN8jfhUhbz9_21rustc_data_structures7outlineNCINvNtNtCshF5AtUv7kVK_18rustc_query_system5query8plumbing14wait_for_queryINtCs2ERWbPTlodK_16rustc_query_impl13DynamicConfigINtNtBS_6caches11SingleCacheINtNtNtCsbnIUe8x9cNz_12rustc_middle5query5erase6ErasedAhj10_EEKb0_KB4e_KB4e_ENtNtB20_8plumbing9QueryCtxtE0zEB20_
librustc_driver-f8caf2bfd7396df8.so:_RINvCsiN8jfhUhbz9_21rustc_data_structures7outlineNCINvNtNtCshF5AtUv7kVK_18rustc_query_system5query8plumbing14wait_for_queryINtCs2ERWbPTlodK_16rustc_query_impl13DynamicConfigINtNtBS_6caches11SingleCacheINtNtNtCsbnIUe8x9cNz_12rustc_middle5query5erase6ErasedAhj18_EEKb0_KB4e_KB4e_ENtNtB20_8plumbing9QueryCtxtE0zEB20_
librustc_driver-f8caf2bfd7396df8.so:_RINvCsiN8jfhUhbz9_21rustc_data_structures7outlineNCINvNtNtCshF5AtUv7kVK_18rustc_query_system5query8plumbing14wait_for_queryINtCs2ERWbPTlodK_16rustc_query_impl13DynamicConfigINtNtBS_6caches11SingleCacheINtNtNtCsbnIUe8x9cNz_12rustc_middle5query5erase6ErasedAhj1_EEKb0_KB4d_KB4d_ENtNtB20_8plumbing9QueryCtxtE0zEB20_
librustc_driver-f8caf2bfd7396df8.so:_RINvCsiN8jfhUhbz9_21rustc_data_structures7outlineNCINvNtNtCshF5AtUv7kVK_18rustc_query_system5query8plumbing14wait_for_queryINtCs2ERWbPTlodK_16rustc_query_impl13DynamicConfigINtNtBS_6caches11SingleCacheINtNtNtCsbnIUe8x9cNz_12rustc_middle5query5erase6ErasedAhj20_EEKb0_KB4e_KB4e_ENtNtB20_8plumbing9QueryCtxtE0zEB20_
librustc_driver-f8caf2bfd7396df8.so:_RINvCsiN8jfhUhbz9_21rustc_data_structures7outlineNCINvNtNtCshF5AtUv7kVK_18rustc_query_system5query8plumbing14wait_for_queryINtCs2ERWbPTlodK_16rustc_query_impl13DynamicConfigINtNtBS_6caches11SingleCacheINtNtNtCsbnIUe8x9cNz_12rustc_middle5query5erase6ErasedAhj4_EEKb0_KB4d_KB4d_ENtNtB20_8plumbing9QueryCtxtE0zEB20_
librustc_driver-f8caf2bfd7396df8.so:_RINvCsiN8jfhUhbz9_21rustc_data_structures7outlineNCINvNtNtCshF5AtUv7kVK_18rustc_query_system5query8plumbing14wait_for_queryINtCs2ERWbPTlodK_16rustc_query_impl13DynamicConfigINtNtBS_6caches11SingleCacheINtNtNtCsbnIUe8x9cNz_12rustc_middle5query5erase6ErasedAhj8_EEKb0_KB4d_KB4d_ENtNtB20_8plumbing9QueryCtxtE0zEB20_
librustc_driver-f8caf2bfd7396df8.so:_RINvCsiN8jfhUhbz9_21rustc_data_structures7outlineNCINvNtNtCshF5AtUv7kVK_18rustc_query_system5query8plumbing14wait_for_queryINtCs2ERWbPTlodK_16rustc_query_impl13DynamicConfigINtNtBS_6caches11SingleCacheINtNtNtCsbnIUe8x9cNz_12rustc_middle5query5erase6ErasedAhjc_EEKb0_KB4d_KB4d_ENtNtB20_8plumbing9QueryCtxtE0zEB20_
librustc_driver-f8caf2bfd7396df8.so:_RINvCsiN8jfhUhbz9_21rustc_data_structures7outlineNCINvNtNtCshF5AtUv7kVK_18rustc_query_system5query8plumbing14wait_for_queryINtCs2ERWbPTlodK_16rustc_query_impl13DynamicConfigINtNtBS_6caches12DefaultCacheINtNtCs2t38KIHyE4j_13rustc_type_ir11fast_reject14SimplifiedTypeNtNtCsjdyqsEEf0cE_10rustc_span6def_id5DefIdEINtNtNtCsbnIUe8x9cNz_12rustc_middle5query5erase6ErasedAhj10_EEKb0_KB5Y_KB5Y_ENtNtB20_8plumbing9QueryCtxtE0zEB20_
librustc_driver-f8caf2bfd7396df8.so:_RINvCsiN8jfhUhbz9_21rustc_data_structures7outlineNCINvNtNtCshF5AtUv7kVK_18rustc_query_system5query8plumbing14wait_for_queryINtCs2ERWbPTlodK_16rustc_query_impl13DynamicConfigINtNtBS_6caches12DefaultCacheINtNtCs2t38KIHyE4j_13rustc_type_ir9canonical19CanonicalQueryInputNtNtNtCsbnIUe8x9cNz_12rustc_middle2ty7context6TyCtxtINtB4l_11ParamEnvAndINtNtB3j_9predicate9AliasTermB4h_EEEINtNtNtB4n_5query5erase6ErasedAhj8_EEKb0_KB6D_KB6D_ENtNtB20_8plumbing9QueryCtxtE0zEB20_
librustc_driver-f8caf2bfd7396df8.so:_RINvCsiN8jfhUhbz9_21rustc_data_structures7outlineNCINvNtNtCshF5AtUv7kVK_18rustc_query_system5query8plumbing14wait_for_queryINtCs2ERWbPTlodK_16rustc_query_impl13DynamicConfigINtNtBS_6caches12DefaultCacheINtNtCs2t38KIHyE4j_13rustc_type_ir9canonical19CanonicalQueryInputNtNtNtCsbnIUe8x9cNz_12rustc_middle2ty7context6TyCtxtINtB4l_11ParamEnvAndINtNtNtNtB4n_6traits5query7type_op9NormalizeINtNtB3j_6binder6BinderB4h_INtNtB3j_7ty_kind5FnSigB4h_EEEEEINtNtNtB4n_5query5erase6ErasedAhj8_EEKb0_KB7I_KB7I_ENtNtB20_8plumbing9QueryCtxtE0zEB20_
librustc_driver-f8caf2bfd7396df8.so:_RINvCsiN8jfhUhbz9_21rustc_data_structures7outlineNCINvNtNtCshF5AtUv7kVK_18rustc_query_system5query8plumbing14wait_for_queryINtCs2ERWbPTlodK_16rustc_query_impl13DynamicConfigINtNtBS_6caches12DefaultCacheINtNtCs2t38KIHyE4j_13rustc_type_ir9canonical19CanonicalQueryInputNtNtNtCsbnIUe8x9cNz_12rustc_middle2ty7context6TyCtxtINtB4l_11ParamEnvAndINtNtNtNtB4n_6traits5query7type_op9NormalizeINtNtB3j_7ty_kind5FnSigB4h_EEEEINtNtNtB4n_5query5erase6ErasedAhj8_EEKb0_KB7g_KB7g_ENtNtB20_8plumbing9QueryCtxtE0zEB20_
librustc_driver-f8caf2bfd7396df8.so:_RINvCsiN8jfhUhbz9_21rustc_data_structures7outlineNCINvNtNtCshF5AtUv7kVK_18rustc_query_system5query8plumbing14wait_for_queryINtCs2ERWbPTlodK_16rustc_query_impl13DynamicConfigINtNtBS_6caches12DefaultCacheINtNtCs2t38KIHyE4j_13rustc_type_ir9canonical19CanonicalQueryInputNtNtNtCsbnIUe8x9cNz_12rustc_middle2ty7context6TyCtxtINtB4l_11ParamEnvAndINtNtNtNtB4n_6traits5query7type_op9NormalizeNtB4l_2TyEEEINtNtNtB4n_5query5erase6ErasedAhj8_EEKb0_KB6X_KB6X_ENtNtB20_8plumbing9QueryCtxtE0zEB20_
librustc_driver-f8caf2bfd7396df8.so:_RINvCsiN8jfhUhbz9_21rustc_data_structures7outlineNCINvNtNtCshF5AtUv7kVK_18rustc_query_system5query8plumbing14wait_for_queryINtCs2ERWbPTlodK_16rustc_query_impl13DynamicConfigINtNtBS_6caches12DefaultCacheINtNtCs2t38KIHyE4j_13rustc_type_ir9canonical19CanonicalQueryInputNtNtNtCsbnIUe8x9cNz_12rustc_middle2ty7context6TyCtxtINtB4l_11ParamEnvAndINtNtNtNtB4n_6traits5query7type_op9NormalizeNtNtB4l_9predicate6ClauseEEEINtNtNtB4n_5query5erase6ErasedAhj8_EEKb0_KB7d_KB7d_ENtNtB20_8plumbing9QueryCtxtE0zEB20_
librustc_driver-f8caf2bfd7396df8.so:_RINvCsiN8jfhUhbz9_21rustc_data_structures7outlineNCINvNtNtCshF5AtUv7kVK_18rustc_query_system5query8plumbing14wait_for_queryINtCs2ERWbPTlodK_16rustc_query_impl13DynamicConfigINtNtBS_6caches12DefaultCacheINtNtCs2t38KIHyE4j_13rustc_type_ir9canonical19CanonicalQueryInputNtNtNtCsbnIUe8x9cNz_12rustc_middle2ty7context6TyCtxtINtB4l_11ParamEnvAndNtNtB4l_9predicate9PredicateEEINtNtNtB4n_5query5erase6ErasedAhj2_EEKb0_KB6x_KB6x_ENtNtB20_8plumbing9QueryCtxtE0zEB20_
librustc_driver-f8caf2bfd7396df8.so:_RINvCsiN8jfhUhbz9_21rustc_data_structures7outlineNCINvNtNtCshF5AtUv7kVK_18rustc_query_system5query8plumbing14wait_for_queryINtCs2ERWbPTlodK_16rustc_query_impl13DynamicConfigINtNtBS_6caches12DefaultCacheINtNtCs2t38KIHyE4j_13rustc_type_ir9canonical19CanonicalQueryInputNtNtNtCsbnIUe8x9cNz_12rustc_middle2ty7context6TyCtxtINtB4l_11ParamEnvAndNtNtNtB4n_6traits5query20MethodAutoderefStepsEEINtNtNtB4n_5query5erase6ErasedAhj20_EEKb0_KB6P_KB6P_ENtNtB20_8plumbing9QueryCtxtE0zEB20_
librustc_driver-f8caf2bfd7396df8.so:_RINvCsiN8jfhUhbz9_21rustc_data_structures7outlineNCINvNtNtCshF5AtUv7kVK_18rustc_query_system5query8plumbing14wait_for_queryINtCs2ERWbPTlodK_16rustc_query_impl13DynamicConfigINtNtBS_6caches12DefaultCacheINtNtCs2t38KIHyE4j_13rustc_type_ir9canonical19CanonicalQueryInputNtNtNtCsbnIUe8x9cNz_12rustc_middle2ty7context6TyCtxtINtB4l_11ParamEnvAndNtNtNtNtB4n_6traits5query7type_op14DropckOutlivesEEINtNtNtB4n_5query5erase6ErasedAhj8_EEKb0_KB6S_KB6S_ENtNtB20_8plumbing9QueryCtxtE0zEB20_
librustc_driver-f8caf2bfd7396df8.so:_RINvCsiN8jfhUhbz9_21rustc_data_structures7outlineNCINvNtNtCshF5AtUv7kVK_18rustc_query_system5query8plumbing14wait_for_queryINtCs2ERWbPTlodK_16rustc_query_impl13DynamicConfigINtNtBS_6caches12DefaultCacheINtNtCs2t38KIHyE4j_13rustc_type_ir9canonical19CanonicalQueryInputNtNtNtCsbnIUe8x9cNz_12rustc_middle2ty7context6TyCtxtINtB4l_11ParamEnvAndNtNtNtNtB4n_6traits5query7type_op14ProvePredicateEEINtNtNtB4n_5query5erase6ErasedAhj8_EEKb0_KB6S_KB6S_ENtNtB20_8plumbing9QueryCtxtE0zEB20_
librustc_driver-f8caf2bfd7396df8.so:_RINvCsiN8jfhUhbz9_21rustc_data_structures7outlineNCINvNtNtCshF5AtUv7kVK_18rustc_query_system5query8plumbing14wait_for_queryINtCs2ERWbPTlodK_16rustc_query_impl13DynamicConfigINtNtBS_6caches12DefaultCacheINtNtCs2t38KIHyE4j_13rustc_type_ir9canonical19CanonicalQueryInputNtNtNtCsbnIUe8x9cNz_12rustc_middle2ty7context6TyCtxtINtB4l_11ParamEnvAndNtNtNtNtB4n_6traits5query7type_op15AscribeUserTypeEEINtNtNtB4n_5query5erase6ErasedAhj8_EEKb0_KB6T_KB6T_ENtNtB20_8plumbing9QueryCtxtE0zEB20_
librustc_driver-f8caf2bfd7396df8.so:_RINvCsiN8jfhUhbz9_21rustc_data_structures7outlineNCINvNtNtCshF5AtUv7kVK_18rustc_query_system5query8plumbing14wait_for_queryINtCs2ERWbPTlodK_16rustc_query_impl13DynamicConfigINtNtBS_6caches12DefaultCacheINtNtCs2t38KIHyE4j_13rustc_type_ir9canonical19CanonicalQueryInputNtNtNtCsbnIUe8x9cNz_12rustc_middle2ty7context6TyCtxtINtNtB3j_5solve10QueryInputB4h_NtNtB4l_9predicate9PredicateEEINtNtNtB4n_5query5erase6ErasedAhj30_EEKb0_KB6J_KB6J_ENtNtB20_8plumbing9QueryCtxtE0zEB20_
librustc_driver-f8caf2bfd7396df8.so:_RINvCsiN8jfhUhbz9_21rustc_data_structures7outlineNCINvNtNtCshF5AtUv7kVK_18rustc_query_system5query8plumbing14wait_for_queryINtCs2ERWbPTlodK_16rustc_query_impl13DynamicConfigINtNtBS_6caches12DefaultCacheINtNtCs2t38KIHyE4j_13rustc_type_ir9predicate8TraitRefNtNtNtCsbnIUe8x9cNz_12rustc_middle2ty7context6TyCtxtEINtNtNtB4b_5query5erase6ErasedAhj10_EEKb0_KB5z_KB5z_ENtNtB20_8plumbing9QueryCtxtE0zEB20_
librustc_driver-f8caf2bfd7396df8.so:_RINvCsiN8jfhUhbz9_21rustc_data_structures7outlineNCINvNtNtCshF5AtUv7kVK_18rustc_query_system5query8plumbing14wait_for_queryINtCs2ERWbPTlodK_16rustc_query_impl13DynamicConfigINtNtBS_6caches12DefaultCacheINtNtCs2t38KIHyE4j_13rustc_type_ir9predicate8TraitRefNtNtNtCsbnIUe8x9cNz_12rustc_middle2ty7context6TyCtxtEINtNtNtB4b_5query5erase6ErasedAhj8_EEKb0_KB5y_KB5y_ENtNtB20_8plumbing9QueryCtxtE0zEB20_
librustc_driver-f8caf2bfd7396df8.so:_RINvCsiN8jfhUhbz9_21rustc_data_structures7outlineNCINvNtNtCshF5AtUv7kVK_18rustc_query_system5query8plumbing14wait_for_queryINtCs2ERWbPTlodK_16rustc_query_impl13DynamicConfigINtNtBS_6caches12DefaultCacheINtNtCs9WsFjTlRn02_4core6option6OptionNtNtCsjdyqsEEf0cE_10rustc_span6symbol6SymbolEINtNtNtCsbnIUe8x9cNz_12rustc_middle5query5erase6ErasedAhj0_EEKb0_KB5z_KB5z_ENtNtB20_8plumbing9QueryCtxtE0zEB20_
librustc_driver-f8caf2bfd7396df8.so:_RINvCsiN8jfhUhbz9_21rustc_data_structures7outlineNCINvNtNtCshF5AtUv7kVK_18rustc_query_system5query8plumbing14wait_for_queryINtCs2ERWbPTlodK_16rustc_query_impl13DynamicConfigINtNtBS_6caches12DefaultCacheINtNtCsbnIUe8x9cNz_12rustc_middle2ty20PseudoCanonicalInputINtNtCs2t38KIHyE4j_13rustc_type_ir9predicate8TraitRefNtNtB3h_7context6TyCtxtEEINtNtNtB3j_5query5erase6ErasedAhj10_EEKb0_KB63_KB63_ENtNtB20_8plumbing9QueryCtxtE0zEB20_
librustc_driver-f8caf2bfd7396df8.so:_RINvCsiN8jfhUhbz9_21rustc_data_structures7outlineNCINvNtNtCshF5AtUv7kVK_18rustc_query_system5query8plumbing14wait_for_queryINtCs2ERWbPTlodK_16rustc_query_impl13DynamicConfigINtNtBS_6caches12DefaultCacheINtNtCsbnIUe8x9cNz_12rustc_middle2ty20PseudoCanonicalInputNtB3h_2TyEINtNtNtB3j_5query5erase6ErasedAhj10_EEKb0_Kb1_KB4X_ENtNtB20_8plumbing9QueryCtxtE0zEB20_
librustc_driver-f8caf2bfd7396df8.so:_RINvCsiN8jfhUhbz9_21rustc_data_structures7outlineNCINvNtNtCshF5AtUv7kVK_18rustc_query_system5query8plumbing14wait_for_queryINtCs2ERWbPTlodK_16rustc_query_impl13DynamicConfigINtNtBS_6caches12DefaultCacheINtNtCsbnIUe8x9cNz_12rustc_middle2ty20PseudoCanonicalInputNtB3h_2TyEINtNtNtB3j_5query5erase6ErasedAhj1_EEKb0_KB4W_KB4W_ENtNtB20_8plumbing9QueryCtxtE0zEB20_
librustc_driver-f8caf2bfd7396df8.so:_RINvCsiN8jfhUhbz9_21rustc_data_structures7outlineNCINvNtNtCshF5AtUv7kVK_18rustc_query_system5query8plumbing14wait_for_queryINtCs2ERWbPTlodK_16rustc_query_impl13DynamicConfigINtNtBS_6caches12DefaultCacheINtNtCsbnIUe8x9cNz_12rustc_middle2ty20PseudoCanonicalInputNtB3h_2TyEINtNtNtB3j_5query5erase6ErasedAhj8_EEKb0_KB4W_KB4W_ENtNtB20_8plumbing9QueryCtxtE0zEB20_
librustc_driver-f8caf2bfd7396df8.so:_RINvCsiN8jfhUhbz9_21rustc_data_structures7outlineNCINvNtNtCshF5AtUv7kVK_18rustc_query_system5query8plumbing14wait_for_queryINtCs2ERWbPTlodK_16rustc_query_impl13DynamicConfigINtNtBS_6caches12DefaultCacheINtNtCsbnIUe8x9cNz_12rustc_middle2ty20PseudoCanonicalInputNtNtB3h_12generic_args10GenericArgEINtNtNtB3j_5query5erase6ErasedAhj8_EEKb0_KB5l_KB5l_ENtNtB20_8plumbing9QueryCtxtE0zEB20_
librustc_driver-f8caf2bfd7396df8.so:_RINvCsiN8jfhUhbz9_21rustc_data_structures7outlineNCINvNtNtCshF5AtUv7kVK_18rustc_query_system5query8plumbing14wait_for_queryINtCs2ERWbPTlodK_16rustc_query_impl13DynamicConfigINtNtBS_6caches12DefaultCacheINtNtCsbnIUe8x9cNz_12rustc_middle2ty20PseudoCanonicalInputNtNtNtB3j_3mir9interpret8GlobalIdEINtNtNtB3j_5query5erase6ErasedAhj10_EEKb0_KB5l_KB5l_ENtNtB20_8plumbing9QueryCtxtE0zEB20_
librustc_driver-f8caf2bfd7396df8.so:_RINvCsiN8jfhUhbz9_21rustc_data_structures7outlineNCINvNtNtCshF5AtUv7kVK_18rustc_query_system5query8plumbing14wait_for_queryINtCs2ERWbPTlodK_16rustc_query_impl13DynamicConfigINtNtBS_6caches12DefaultCacheINtNtCsbnIUe8x9cNz_12rustc_middle2ty20PseudoCanonicalInputNtNtNtB3j_3mir9interpret8GlobalIdEINtNtNtB3j_5query5erase6ErasedAhj18_EEKb0_KB5l_KB5l_ENtNtB20_8plumbing9QueryCtxtE0zEB20_
librustc_driver-f8caf2bfd7396df8.so:_RINvCsiN8jfhUhbz9_21rustc_data_structures7outlineNCINvNtNtCshF5AtUv7kVK_18rustc_query_system5query8plumbing14wait_for_queryINtCs2ERWbPTlodK_16rustc_query_impl13DynamicConfigINtNtBS_6caches12DefaultCacheINtNtCsbnIUe8x9cNz_12rustc_middle2ty20PseudoCanonicalInputNtNtNtB3j_3mir9interpret8GlobalIdEINtNtNtB3j_5query5erase6ErasedAhj18_EEKb0_Kb1_KB5l_ENtNtB20_8plumbing9QueryCtxtE0zEB20_
librustc_driver-f8caf2bfd7396df8.so:_RINvCsiN8jfhUhbz9_21rustc_data_structures7outlineNCINvNtNtCshF5AtUv7kVK_18rustc_query_system5query8plumbing14wait_for_queryINtCs2ERWbPTlodK_16rustc_query_impl13DynamicConfigINtNtBS_6caches12DefaultCacheINtNtCsbnIUe8x9cNz_12rustc_middle2ty20PseudoCanonicalInputTINtNtCs2t38KIHyE4j_13rustc_type_ir6binder6BinderNtNtB3h_7context6TyCtxtINtNtB4g_7ty_kind5FnSigB4X_EERINtNtB3h_4list7RawListuNtB3h_2TyEEEINtNtNtB3j_5query5erase6ErasedAhj10_EEKb0_KB70_KB70_ENtNtB20_8plumbing9QueryCtxtE0zEB20_
librustc_driver-f8caf2bfd7396df8.so:_RINvCsiN8jfhUhbz9_21rustc_data_structures7outlineNCINvNtNtCshF5AtUv7kVK_18rustc_query_system5query8plumbing14wait_for_queryINtCs2ERWbPTlodK_16rustc_query_impl13DynamicConfigINtNtBS_6caches12DefaultCacheINtNtCsbnIUe8x9cNz_12rustc_middle2ty20PseudoCanonicalInputTNtB3h_2TyNtNtNtCs3WhD79dQ5JG_9rustc_abi6layout2ty10VariantIdxEEINtNtNtB3j_5query5erase6ErasedAhj11_EEKb0_KB5P_KB5P_ENtNtB20_8plumbing9QueryCtxtE0zEB20_
librustc_driver-f8caf2bfd7396df8.so:_RINvCsiN8jfhUhbz9_21rustc_data_structures7outlineNCINvNtNtCshF5AtUv7kVK_18rustc_query_system5query8plumbing14wait_for_queryINtCs2ERWbPTlodK_16rustc_query_impl13DynamicConfigINtNtBS_6caches12DefaultCacheINtNtCsbnIUe8x9cNz_12rustc_middle2ty20PseudoCanonicalInputTNtNtB3h_8instance8InstanceRINtNtB3h_4list7RawListuNtB3h_2TyEEEINtNtNtB3j_5query5erase6ErasedAhj10_EEKb0_KB5O_KB5O_ENtNtB20_8plumbing9QueryCtxtE0zEB20_
librustc_driver-f8caf2bfd7396df8.so:_RINvCsiN8jfhUhbz9_21rustc_data_structures7outlineNCINvNtNtCshF5AtUv7kVK_18rustc_query_system5query8plumbing14wait_for_queryINtCs2ERWbPTlodK_16rustc_query_impl13DynamicConfigINtNtBS_6caches12DefaultCacheINtNtCsbnIUe8x9cNz_12rustc_middle2ty20PseudoCanonicalInputTNtNtCsjdyqsEEf0cE_10rustc_span6def_id5DefIdRINtNtB3h_4list7RawListuNtNtB3h_12generic_args10GenericArgEEEINtNtNtB3j_5query5erase6ErasedAhj20_EEKb0_KB6u_KB6u_ENtNtB20_8plumbing9QueryCtxtE0zEB20_
librustc_driver-f8caf2bfd7396df8.so:_RINvCsiN8jfhUhbz9_21rustc_data_structures7outlineNCINvNtNtCshF5AtUv7kVK_18rustc_query_system5query8plumbing14wait_for_queryINtCs2ERWbPTlodK_16rustc_query_impl13DynamicConfigINtNtBS_6caches12DefaultCacheNtNtCsbnIUe8x9cNz_12rustc_middle2ty2TyINtNtNtB3i_5query5erase6ErasedAhj10_EEKb0_KB4t_KB4t_ENtNtB20_8plumbing9QueryCtxtE0zEB20_
librustc_driver-f8caf2bfd7396df8.so:_RINvCsiN8jfhUhbz9_21rustc_data_structures7outlineNCINvNtNtCshF5AtUv7kVK_18rustc_query_system5query8plumbing14wait_for_queryINtCs2ERWbPTlodK_16rustc_query_impl13DynamicConfigINtNtBS_6caches12DefaultCacheNtNtCsbnIUe8x9cNz_12rustc_middle2ty2TyINtNtNtB3i_5query5erase6ErasedAhj1_EEKb0_KB4s_KB4s_ENtNtB20_8plumbing9QueryCtxtE0zEB20_
librustc_driver-f8caf2bfd7396df8.so:_RINvCsiN8jfhUhbz9_21rustc_data_structures7outlineNCINvNtNtCshF5AtUv7kVK_18rustc_query_system5query8plumbing14wait_for_queryINtCs2ERWbPTlodK_16rustc_query_impl13DynamicConfigINtNtBS_6caches12DefaultCacheNtNtCsbnIUe8x9cNz_12rustc_middle2ty2TyINtNtNtB3i_5query5erase6ErasedAhj1_EEKb1_Kb0_KB4w_ENtNtB20_8plumbing9QueryCtxtE0zEB20_
librustc_driver-f8caf2bfd7396df8.so:_RINvCsiN8jfhUhbz9_21rustc_data_structures7outlineNCINvNtNtCshF5AtUv7kVK_18rustc_query_system5query8plumbing14wait_for_queryINtCs2ERWbPTlodK_16rustc_query_impl13DynamicConfigINtNtBS_6caches12DefaultCacheNtNtCsbnIUe8x9cNz_12rustc_middle2ty2TyINtNtNtB3i_5query5erase6ErasedAhj8_EEKb1_Kb0_KB4w_ENtNtB20_8plumbing9QueryCtxtE0zEB20_
librustc_driver-f8caf2bfd7396df8.so:_RINvCsiN8jfhUhbz9_21rustc_data_structures7outlineNCINvNtNtCshF5AtUv7kVK_18rustc_query_system5query8plumbing14wait_for_queryINtCs2ERWbPTlodK_16rustc_query_impl13DynamicConfigINtNtBS_6caches12DefaultCacheNtNtCsjdyqsEEf0cE_10rustc_span6def_id13LocalModDefIdINtNtNtCsbnIUe8x9cNz_12rustc_middle5query5erase6ErasedAhj0_EEKb0_KB54_KB54_ENtNtB20_8plumbing9QueryCtxtE0zEB20_
librustc_driver-f8caf2bfd7396df8.so:_RINvCsiN8jfhUhbz9_21rustc_data_structures7outlineNCINvNtNtCshF5AtUv7kVK_18rustc_query_system5query8plumbing14wait_for_queryINtCs2ERWbPTlodK_16rustc_query_impl13DynamicConfigINtNtBS_6caches12DefaultCacheNtNtCsjdyqsEEf0cE_10rustc_span6def_id13LocalModDefIdINtNtNtCsbnIUe8x9cNz_12rustc_middle5query5erase6ErasedAhj8_EEKb0_KB54_KB54_ENtNtB20_8plumbing9QueryCtxtE0zEB20_
librustc_driver-f8caf2bfd7396df8.so:_RINvCsiN8jfhUhbz9_21rustc_data_structures7outlineNCINvNtNtCshF5AtUv7kVK_18rustc_query_system5query8plumbing14wait_for_queryINtCs2ERWbPTlodK_16rustc_query_impl13DynamicConfigINtNtBS_6caches12DefaultCacheNtNtCsjdyqsEEf0cE_10rustc_span6symbol6SymbolINtNtNtCsbnIUe8x9cNz_12rustc_middle5query5erase6ErasedAhj8_EEKb0_KB4W_KB4W_ENtNtB20_8plumbing9QueryCtxtE0zEB20_
librustc_driver-f8caf2bfd7396df8.so:_RINvCsiN8jfhUhbz9_21rustc_data_structures7outlineNCINvNtNtCshF5AtUv7kVK_18rustc_query_system5query8plumbing14wait_for_queryINtCs2ERWbPTlodK_16rustc_query_impl13DynamicConfigINtNtBS_6caches12DefaultCacheNtNtNtCsbnIUe8x9cNz_12rustc_middle2ty6consts5ConstINtNtNtB3k_5query5erase6ErasedAhj18_EEKb0_KB4F_KB4F_ENtNtB20_8plumbing9QueryCtxtE0zEB20_
librustc_driver-f8caf2bfd7396df8.so:_RINvCsiN8jfhUhbz9_21rustc_data_structures7outlineNCINvNtNtCshF5AtUv7kVK_18rustc_query_system5query8plumbing14wait_for_queryINtCs2ERWbPTlodK_16rustc_query_impl13DynamicConfigINtNtBS_6caches12DefaultCacheNtNtNtCsbnIUe8x9cNz_12rustc_middle2ty8instance12InstanceKindINtNtNtB3k_5query5erase6ErasedAhj10_EEKb0_KB4P_KB4P_ENtNtB20_8plumbing9QueryCtxtE0zEB20_
librustc_driver-f8caf2bfd7396df8.so:_RINvCsiN8jfhUhbz9_21rustc_data_structures7outlineNCINvNtNtCshF5AtUv7kVK_18rustc_query_system5query8plumbing14wait_for_queryINtCs2ERWbPTlodK_16rustc_query_impl13DynamicConfigINtNtBS_6caches12DefaultCacheNtNtNtCsbnIUe8x9cNz_12rustc_middle2ty8instance12InstanceKindINtNtNtB3k_5query5erase6ErasedAhj8_EEKb0_KB4O_KB4O_ENtNtB20_8plumbing9QueryCtxtE0zEB20_
librustc_driver-f8caf2bfd7396df8.so:_RINvCsiN8jfhUhbz9_21rustc_data_structures7outlineNCINvNtNtCshF5AtUv7kVK_18rustc_query_system5query8plumbing14wait_for_queryINtCs2ERWbPTlodK_16rustc_query_impl13DynamicConfigINtNtBS_6caches12DefaultCacheNtNtNtCsbnIUe8x9cNz_12rustc_middle2ty8instance8InstanceINtNtNtB3k_5query5erase6ErasedAhj0_EEKb0_KB4J_KB4J_ENtNtB20_8plumbing9QueryCtxtE0zEB20_
librustc_driver-f8caf2bfd7396df8.so:_RINvCsiN8jfhUhbz9_21rustc_data_structures7outlineNCINvNtNtCshF5AtUv7kVK_18rustc_query_system5query8plumbing14wait_for_queryINtCs2ERWbPTlodK_16rustc_query_impl13DynamicConfigINtNtBS_6caches12DefaultCacheNtNtNtCsbnIUe8x9cNz_12rustc_middle2ty8instance8InstanceINtNtNtB3k_5query5erase6ErasedAhj10_EEKb0_KB4K_KB4K_ENtNtB20_8plumbing9QueryCtxtE0zEB20_
librustc_driver-f8caf2bfd7396df8.so:_RINvCsiN8jfhUhbz9_21rustc_data_structures7outlineNCINvNtNtCshF5AtUv7kVK_18rustc_query_system5query8plumbing14wait_for_queryINtCs2ERWbPTlodK_16rustc_query_impl13DynamicConfigINtNtBS_6caches12DefaultCacheNtNtNtCsbnIUe8x9cNz_12rustc_middle2ty8instance8InstanceINtNtNtB3k_5query5erase6ErasedAhj8_EEKb0_KB4J_KB4J_ENtNtB20_8plumbing9QueryCtxtE0zEB20_
librustc_driver-f8caf2bfd7396df8.so:_RINvCsiN8jfhUhbz9_21rustc_data_structures7outlineNCINvNtNtCshF5AtUv7kVK_18rustc_query_system5query8plumbing14wait_for_queryINtCs2ERWbPTlodK_16rustc_query_impl13DynamicConfigINtNtBS_6caches12DefaultCacheNtNtNtCsbnIUe8x9cNz_12rustc_middle3mir9interpret15LitToConstInputINtNtNtB3k_5query5erase6ErasedAhj8_EEKb0_KB4T_KB4T_ENtNtB20_8plumbing9QueryCtxtE0zEB20_
librustc_driver-f8caf2bfd7396df8.so:_RINvCsiN8jfhUhbz9_21rustc_data_structures7outlineNCINvNtNtCshF5AtUv7kVK_18rustc_query_system5query8plumbing14wait_for_queryINtCs2ERWbPTlodK_16rustc_query_impl13DynamicConfigINtNtBS_6caches12DefaultCacheNtNtNtNtCsbnIUe8x9cNz_12rustc_middle2ty6consts7valtree5ValueINtNtNtB3m_5query5erase6ErasedAhj18_EEKb0_KB4P_KB4P_ENtNtB20_8plumbing9QueryCtxtE0zEB20_
librustc_driver-f8caf2bfd7396df8.so:_RINvCsiN8jfhUhbz9_21rustc_data_structures7outlineNCINvNtNtCshF5AtUv7kVK_18rustc_query_system5query8plumbing14wait_for_queryINtCs2ERWbPTlodK_16rustc_query_impl13DynamicConfigINtNtBS_6caches12DefaultCacheRINtNtNtCsbnIUe8x9cNz_12rustc_middle2ty4list7RawListNtB3i_8TypeInfoNtNtB3k_9predicate6ClauseEINtNtNtB3m_5query5erase6ErasedAhj8_EEKb0_KB5l_KB5l_ENtNtB20_8plumbing9QueryCtxtE0zEB20_
librustc_driver-f8caf2bfd7396df8.so:_RINvCsiN8jfhUhbz9_21rustc_data_structures7outlineNCINvNtNtCshF5AtUv7kVK_18rustc_query_system5query8plumbing14wait_for_queryINtCs2ERWbPTlodK_16rustc_query_impl13DynamicConfigINtNtBS_6caches12DefaultCacheRINtNtNtCsbnIUe8x9cNz_12rustc_middle2ty4list7RawListuNtNtB3k_12generic_args10GenericArgEINtNtNtB3m_5query5erase6ErasedAhj4_EEKb0_KB5g_KB5g_ENtNtB20_8plumbing9QueryCtxtE0zEB20_
librustc_driver-f8caf2bfd7396df8.so:_RINvCsiN8jfhUhbz9_21rustc_data_structures7outlineNCINvNtNtCshF5AtUv7kVK_18rustc_query_system5query8plumbing14wait_for_queryINtCs2ERWbPTlodK_16rustc_query_impl13DynamicConfigINtNtBS_6caches12DefaultCacheRNtNtNtCsjj3dQwFOuTb_3std3ffi6os_str5OsStrINtNtNtCsbnIUe8x9cNz_12rustc_middle5query5erase6ErasedAhj10_EEKb0_KB4V_KB4V_ENtNtB20_8plumbing9QueryCtxtE0zEB20_
librustc_driver-f8caf2bfd7396df8.so:_RINvCsiN8jfhUhbz9_21rustc_data_structures7outlineNCINvNtNtCshF5AtUv7kVK_18rustc_query_system5query8plumbing14wait_for_queryINtCs2ERWbPTlodK_16rustc_query_impl13DynamicConfigINtNtBS_6caches12DefaultCacheTINtNtCs2t38KIHyE4j_13rustc_type_ir9canonical19CanonicalQueryInputNtNtNtCsbnIUe8x9cNz_12rustc_middle2ty7context6TyCtxtINtB4m_11ParamEnvAndNtNtNtNtB4o_6traits5query7type_op21ImpliedOutlivesBoundsEEbEINtNtNtB4o_5query5erase6ErasedAhj8_EEKb0_KB72_KB72_ENtNtB20_8plumbing9QueryCtxtE0zEB20_
librustc_driver-f8caf2bfd7396df8.so:_RINvCsiN8jfhUhbz9_21rustc_data_structures7outlineNCINvNtNtCshF5AtUv7kVK_18rustc_query_system5query8plumbing14wait_for_queryINtCs2ERWbPTlodK_16rustc_query_impl13DynamicConfigINtNtBS_6caches12DefaultCacheTNtNtCsbnIUe8x9cNz_12rustc_middle2ty2TyB3f_EINtNtNtB3j_5query5erase6ErasedAhj10_EEKb0_KB4z_KB4z_ENtNtB20_8plumbing9QueryCtxtE0zEB20_
librustc_driver-f8caf2bfd7396df8.so:_RINvCsiN8jfhUhbz9_21rustc_data_structures7outlineNCINvNtNtCshF5AtUv7kVK_18rustc_query_system5query8plumbing14wait_for_queryINtCs2ERWbPTlodK_16rustc_query_impl13DynamicConfigINtNtBS_6caches12DefaultCacheTNtNtCsbnIUe8x9cNz_12rustc_middle2ty2TyINtNtCs9WsFjTlRn02_4core6option6OptionINtNtCs2t38KIHyE4j_13rustc_type_ir9predicate19ExistentialTraitRefNtNtB3h_7context6TyCtxtEEEINtNtNtB3j_5query5erase6ErasedAhj8_EEKb0_KB6y_KB6y_ENtNtB20_8plumbing9QueryCtxtE0zEB20_
librustc_driver-f8caf2bfd7396df8.so:_RINvCsiN8jfhUhbz9_21rustc_data_structures7outlineNCINvNtNtCshF5AtUv7kVK_18rustc_query_system5query8plumbing14wait_for_queryINtCs2ERWbPTlodK_16rustc_query_impl13DynamicConfigINtNtBS_6caches12DefaultCacheTNtNtCsjdyqsEEf0cE_10rustc_span6def_id10LocalDefIdB3f_NtNtB3j_6symbol5IdentEINtNtNtCsbnIUe8x9cNz_12rustc_middle5query5erase6ErasedAhj10_EEKb0_KB5t_KB5t_ENtNtB20_8plumbing9QueryCtxtE0zEB20_
librustc_driver-f8caf2bfd7396df8.so:_RINvCsiN8jfhUhbz9_21rustc_data_structures7outlineNCINvNtNtCshF5AtUv7kVK_18rustc_query_system5query8plumbing14wait_for_queryINtCs2ERWbPTlodK_16rustc_query_impl13DynamicConfigINtNtBS_6caches12DefaultCacheTNtNtCsjdyqsEEf0cE_10rustc_span6def_id5DefIdB3f_EINtNtNtCsbnIUe8x9cNz_12rustc_middle5query5erase6ErasedAhj1_EEKb0_KB51_KB51_ENtNtB20_8plumbing9QueryCtxtE0zEB20_
librustc_driver-f8caf2bfd7396df8.so:_RINvCsiN8jfhUhbz9_21rustc_data_structures7outlineNCINvNtNtCshF5AtUv7kVK_18rustc_query_system5query8plumbing14wait_for_queryINtCs2ERWbPTlodK_16rustc_query_impl13DynamicConfigINtNtBS_6caches12DefaultCacheTNtNtCsjdyqsEEf0cE_10rustc_span6def_id5DefIdNtNtB3j_6symbol5IdentEINtNtNtCsbnIUe8x9cNz_12rustc_middle5query5erase6ErasedAhj10_EEKb0_KB5j_KB5j_ENtNtB20_8plumbing9QueryCtxtE0zEB20_
librustc_driver-f8caf2bfd7396df8.so:_RINvCsiN8jfhUhbz9_21rustc_data_structures7outlineNCINvNtNtCshF5AtUv7kVK_18rustc_query_system5query8plumbing14wait_for_queryINtCs2ERWbPTlodK_16rustc_query_impl13DynamicConfigINtNtBS_6caches12DefaultCacheTNtNtCsjdyqsEEf0cE_10rustc_span6def_id5DefIdNtNtCs2t38KIHyE4j_13rustc_type_ir5solve14SizedTraitKindEINtNtNtCsbnIUe8x9cNz_12rustc_middle5query5erase6ErasedAhj8_EEKb0_KB5Q_KB5Q_ENtNtB20_8plumbing9QueryCtxtE0zEB20_
librustc_driver-f8caf2bfd7396df8.so:_RINvCsiN8jfhUhbz9_21rustc_data_structures7outlineNCINvNtNtCshF5AtUv7kVK_18rustc_query_system5query8plumbing14wait_for_queryINtCs2ERWbPTlodK_16rustc_query_impl13DynamicConfigINtNtBS_6caches12DefaultCacheTNtNtCsjdyqsEEf0cE_10rustc_span6def_id5DefIdRINtNtNtCsbnIUe8x9cNz_12rustc_middle2ty4list7RawListuNtNtB42_12generic_args10GenericArgEEINtNtNtB44_5query5erase6ErasedAhj1_EEKb0_KB5Z_KB5Z_ENtNtB20_8plumbing9QueryCtxtE0zEB20_
librustc_driver-f8caf2bfd7396df8.so:_RINvCsiN8jfhUhbz9_21rustc_data_structures7outlineNCINvNtNtCshF5AtUv7kVK_18rustc_query_system5query8plumbing14wait_for_queryINtCs2ERWbPTlodK_16rustc_query_impl13DynamicConfigINtNtBS_6caches12DefaultCacheTNtNtCsjdyqsEEf0cE_10rustc_span6def_id8CrateNumINtNtCs2t38KIHyE4j_13rustc_type_ir11fast_reject14SimplifiedTypeNtB3h_5DefIdEEINtNtNtCsbnIUe8x9cNz_12rustc_middle5query5erase6ErasedAhj10_EEKb0_KB6f_KB6f_ENtNtB20_8plumbing9QueryCtxtE0zEB20_
librustc_driver-f8caf2bfd7396df8.so:_RINvCsiN8jfhUhbz9_21rustc_data_structures7outlineNCINvNtNtCshF5AtUv7kVK_18rustc_query_system5query8plumbing14wait_for_queryINtCs2ERWbPTlodK_16rustc_query_impl13DynamicConfigINtNtBS_6caches12DefaultCacheTNtNtCsjdyqsEEf0cE_10rustc_span6def_id8CrateNumNtB3h_5DefIdEINtNtNtCsbnIUe8x9cNz_12rustc_middle5query5erase6ErasedAhj10_EEKb0_KB5d_KB5d_ENtNtB20_8plumbing9QueryCtxtE0zEB20_
librustc_driver-f8caf2bfd7396df8.so:_RINvCsiN8jfhUhbz9_21rustc_data_structures7outlineNCINvNtNtCshF5AtUv7kVK_18rustc_query_system5query8plumbing14wait_for_queryINtCs2ERWbPTlodK_16rustc_query_impl13DynamicConfigINtNtBS_6caches12DefaultCacheTNtNtNtCsbnIUe8x9cNz_12rustc_middle2ty6layout19ValidityRequirementINtB3j_20PseudoCanonicalInputNtB3j_2TyEEINtNtNtB3l_5query5erase6ErasedAhj10_EEKb0_KB5z_KB5z_ENtNtB20_8plumbing9QueryCtxtE0zEB20_
librustc_driver-f8caf2bfd7396df8.so:_RINvCsiN8jfhUhbz9_21rustc_data_structures7outlineNCINvNtNtCshF5AtUv7kVK_18rustc_query_system5query8plumbing14wait_for_queryINtCs2ERWbPTlodK_16rustc_query_impl13DynamicConfigINtNtBS_6caches12DefaultCacheTNtNtNtCsbnIUe8x9cNz_12rustc_middle2ty8instance8InstanceNtNtNtB3l_3mir4mono14CollectionModeEINtNtNtB3l_5query5erase6ErasedAhj20_EEKb0_KB5l_KB5l_ENtNtB20_8plumbing9QueryCtxtE0zEB20_
librustc_driver-f8caf2bfd7396df8.so:_RINvCsiN8jfhUhbz9_21rustc_data_structures7outlineNCINvNtNtCshF5AtUv7kVK_18rustc_query_system5query8plumbing14wait_for_queryINtCs2ERWbPTlodK_16rustc_query_impl13DynamicConfigINtNtBS_6caches12DefaultCacheTNtNtNtCsbnIUe8x9cNz_12rustc_middle2ty9predicate9PredicateNtNtB3l_6traits13WellFormedLocEINtNtNtB3l_5query5erase6ErasedAhj8_EEKb0_KB5h_KB5h_ENtNtB20_8plumbing9QueryCtxtE0zEB20_
librustc_driver-f8caf2bfd7396df8.so:_RINvCsiN8jfhUhbz9_21rustc_data_structures7outlineNCNvMNtNtB2_4sync12worker_localNtBQ_10RegistryId6verifys_0jECsbnIUe8x9cNz_12rustc_middle
librustc_driver-f8caf2bfd7396df8.so:_RINvCsiN8jfhUhbz9_21rustc_data_structures7outlineNCNvMs1_NtB2_9profilingNtBT_11TimingGuard31finish_with_query_invocation_id0uECsbnIUe8x9cNz_12rustc_middle
librustc_driver-f8caf2bfd7396df8.so:_RINvCsiN8jfhUhbz9_21rustc_data_structures7outlineNCNvMs7_NtNtCshF5AtUv7kVK_18rustc_query_system9dep_graph5graphINtBT_15CurrentDepGraphNtNtCsbnIUe8x9cNz_12rustc_middle9dep_graph8DepsTypeE11record_node0uEB2c_
librustc_driver-f8caf2bfd7396df8.so:_RINvCskxUBrOlKEx3_11rustc_arena7outlineNCINvMs6_B2_NtB2_13DroplessArena15alloc_from_iterINtNtCs2Pf1rSX1q4A_9rustc_hir3hir23PreciseCapturingArgKindNtNtCsjdyqsEEf0cE_10rustc_span6symbol6SymbolB2k_EINtNtNtCskmy2rFhdDOz_14rustc_metadata5rmeta7decoder14DecodeIteratorB1o_EE0QSB1o_EB3e_
librustc_driver-f8caf2bfd7396df8.so:_RINvCskxUBrOlKEx3_11rustc_arena7outlineNCINvMs6_B2_NtB2_13DroplessArena15alloc_from_iterINtNtCs9WsFjTlRn02_4core6option6OptionNtNtCsjdyqsEEf0cE_10rustc_span6symbol5IdentEINtNtNtCskmy2rFhdDOz_14rustc_metadata5rmeta7decoder14DecodeIteratorB1o_EE0QSB1o_EB2P_
librustc_driver-f8caf2bfd7396df8.so:_RINvCskxUBrOlKEx3_11rustc_arena7outlineNCINvMs6_B2_NtB2_13DroplessArena15alloc_from_iterINtNtCs9WsFjTlRn02_4core6option6OptionNtNtCsjdyqsEEf0cE_10rustc_span6symbol5IdentEINtNtNtNtB1t_4iter8adapters3map3MapINtNtNtB1t_5slice4iter4IterNtNtCs2Pf1rSX1q4A_9rustc_hir3hir5ParamENCNvMs1_NtNtCsbnIUe8x9cNz_12rustc_middle3hir3mapNtNtNtB4x_2ty7context6TyCtxt21hir_body_param_idents0EE0QSB1o_ECsixhzS6aZg4H_15rustc_interface
librustc_driver-f8caf2bfd7396df8.so:_RINvCskxUBrOlKEx3_11rustc_arena7outlineNCINvMs6_B2_NtB2_13DroplessArena15alloc_from_iterINtNtCsjdyqsEEf0cE_10rustc_span10source_map7SpannedNtNtNtCsbnIUe8x9cNz_12rustc_middle3mir4mono8MonoItemEINtNtNtNtCs9WsFjTlRn02_4core4iter8adapters3map3MapINtNtNtB3d_3ops5range5RangejENCNvXsw_NtNtB2j_2ty5codecSB1o_INtB4t_12RefDecodableNtNtNtB2j_5query13on_disk_cache12CacheDecoderE6decode0EE0QB4K_ECs2ERWbPTlodK_16rustc_query_impl
librustc_driver-f8caf2bfd7396df8.so:_RINvCskxUBrOlKEx3_11rustc_arena7outlineNCINvMs6_B2_NtB2_13DroplessArena15alloc_from_iterINtNtCsjdyqsEEf0cE_10rustc_span10source_map7SpannedNtNtNtCsbnIUe8x9cNz_12rustc_middle3mir4mono8MonoItemENtNtCshohWIpJhPWk_18rustc_monomorphize9collector9MonoItemsE0QSB1o_EB38_
librustc_driver-f8caf2bfd7396df8.so:_RINvCskxUBrOlKEx3_11rustc_arena7outlineNCINvMs6_B2_NtB2_13DroplessArena15alloc_from_iterINtNtNtCshF5AtUv7kVK_18rustc_query_system9dep_graph8dep_node13DepKindStructNtNtNtCsbnIUe8x9cNz_12rustc_middle2ty7context6TyCtxtEAB1o_j143_E0QSB1o_ECs2ERWbPTlodK_16rustc_query_impl
librustc_driver-f8caf2bfd7396df8.so:_RINvCskxUBrOlKEx3_11rustc_arena7outlineNCINvMs6_B2_NtB2_13DroplessArena15alloc_from_iterNtCs2t38KIHyE4j_13rustc_type_ir8VarianceINtNtCs19MuVdBY7V6_5alloc3vec3VecB1o_EE0QSB1o_ECs25h6OjkxBzy_18rustc_hir_analysis
librustc_driver-f8caf2bfd7396df8.so:_RINvCskxUBrOlKEx3_11rustc_arena7outlineNCINvMs6_B2_NtB2_13DroplessArena15alloc_from_iterNtCs2t38KIHyE4j_13rustc_type_ir8VarianceINtNtCs19MuVdBY7V6_5alloc3vec3VecB1o_EE0QSB1o_ECs2ERWbPTlodK_16rustc_query_impl
librustc_driver-f8caf2bfd7396df8.so:_RINvCskxUBrOlKEx3_11rustc_arena7outlineNCINvMs6_B2_NtB2_13DroplessArena15alloc_from_iterNtCs2t38KIHyE4j_13rustc_type_ir8VarianceINtNtNtCskmy2rFhdDOz_14rustc_metadata5rmeta7decoder14DecodeIteratorB1o_EE0QSB1o_EB29_
librustc_driver-f8caf2bfd7396df8.so:_RINvCskxUBrOlKEx3_11rustc_arena7outlineNCINvMs6_B2_NtB2_13DroplessArena15alloc_from_iterNtNtCs2Pf1rSX1q4A_9rustc_hir10lang_items8LangItemINtNtNtCskmy2rFhdDOz_14rustc_metadata5rmeta7decoder14DecodeIteratorB1o_EE0QSB1o_EB2i_
librustc_driver-f8caf2bfd7396df8.so:_RINvCskxUBrOlKEx3_11rustc_arena7outlineNCINvMs6_B2_NtB2_13DroplessArena15alloc_from_iterNtNtCs2Pf1rSX1q4A_9rustc_hir3hir10GenericArgAB1o_j0_E0QSB1o_ECsigzjtJzPjJb_18rustc_ast_lowering
librustc_driver-f8caf2bfd7396df8.so:_RINvCskxUBrOlKEx3_11rustc_arena7outlineNCINvMs6_B2_NtB2_13DroplessArena15alloc_from_iterNtNtCs2Pf1rSX1q4A_9rustc_hir3hir10GenericArgINtCslDCsxSJG9GM_8smallvec8SmallVecAB1o_j4_EE0QSB1o_ECsigzjtJzPjJb_18rustc_ast_lowering
librustc_driver-f8caf2bfd7396df8.so:_RINvCskxUBrOlKEx3_11rustc_arena7outlineNCINvMs6_B2_NtB2_13DroplessArena15alloc_from_iterNtNtCs2Pf1rSX1q4A_9rustc_hir3hir11PathSegmentAB1o_j1_E0QSB1o_ECsigzjtJzPjJb_18rustc_ast_lowering
librustc_driver-f8caf2bfd7396df8.so:_RINvCskxUBrOlKEx3_11rustc_arena7outlineNCINvMs6_B2_NtB2_13DroplessArena15alloc_from_iterNtNtCs2Pf1rSX1q4A_9rustc_hir3hir11PathSegmentINtNtNtNtCs9WsFjTlRn02_4core4iter7sources4once4OnceB1o_EE0QSB1o_ECsigzjtJzPjJb_18rustc_ast_lowering
librustc_driver-f8caf2bfd7396df8.so:_RINvCskxUBrOlKEx3_11rustc_arena7outlineNCINvMs6_B2_NtB2_13DroplessArena15alloc_from_iterNtNtCs2Pf1rSX1q4A_9rustc_hir3hir12GenericBoundAB1o_j1_E0QSB1o_ECsigzjtJzPjJb_18rustc_ast_lowering
librustc_driver-f8caf2bfd7396df8.so:_RINvCskxUBrOlKEx3_11rustc_arena7outlineNCINvMs6_B2_NtB2_13DroplessArena15alloc_from_iterNtNtCs2Pf1rSX1q4A_9rustc_hir3hir12GenericBoundINtNtNtNtCs9WsFjTlRn02_4core4iter8adapters3map3MapINtNtNtB2h_5slice4iter4IterNtNtCs3XpY8PowsPH_9rustc_ast3ast12GenericBoundENCNvMs1_CsigzjtJzPjJb_18rustc_ast_loweringNtB4g_15LoweringContext22lower_param_bounds_mut0EE0QSB1o_EB4g_
librustc_driver-f8caf2bfd7396df8.so:_RINvCskxUBrOlKEx3_11rustc_arena7outlineNCINvMs6_B2_NtB2_13DroplessArena15alloc_from_iterNtNtCs2Pf1rSX1q4A_9rustc_hir3hir12GenericParamINtCslDCsxSJG9GM_8smallvec8SmallVecAB1o_j4_EE0QSB1o_ECsigzjtJzPjJb_18rustc_ast_lowering
librustc_driver-f8caf2bfd7396df8.so:_RINvCskxUBrOlKEx3_11rustc_arena7outlineNCINvMs6_B2_NtB2_13DroplessArena15alloc_from_iterNtNtCs2Pf1rSX1q4A_9rustc_hir3hir12GenericParamINtNtNtNtCs9WsFjTlRn02_4core4iter8adapters3map3MapINtNtNtB2h_5slice4iter4IterNtNtCs3XpY8PowsPH_9rustc_ast3ast12GenericParamENCNvMs1_CsigzjtJzPjJb_18rustc_ast_loweringNtB4g_15LoweringContext24lower_generic_params_mut0EE0QSB1o_EB4g_
librustc_driver-f8caf2bfd7396df8.so:_RINvCskxUBrOlKEx3_11rustc_arena7outlineNCINvMs6_B2_NtB2_13DroplessArena15alloc_from_iterNtNtCs2Pf1rSX1q4A_9rustc_hir3hir12GenericParamINtNtNtNtCs9WsFjTlRn02_4core4iter8adapters5chain5ChainINtNtB2d_3map3MapINtNtNtB2h_5slice4iter4IterNtNtCs3XpY8PowsPH_9rustc_ast3ast12GenericParamENCNvMs1_CsigzjtJzPjJb_18rustc_ast_loweringNtB4B_15LoweringContext24lower_generic_params_mut0EINtNtNtCs19MuVdBY7V6_5alloc3vec9into_iter8IntoIterB1o_EEE0QSB1o_EB4B_
librustc_driver-f8caf2bfd7396df8.so:_RINvCskxUBrOlKEx3_11rustc_arena7outlineNCINvMs6_B2_NtB2_13DroplessArena15alloc_from_iterNtNtCs2Pf1rSX1q4A_9rustc_hir3hir12PolyTraitRefAB1o_j1_E0QSB1o_ECsigzjtJzPjJb_18rustc_ast_lowering
librustc_driver-f8caf2bfd7396df8.so:_RINvCskxUBrOlKEx3_11rustc_arena7outlineNCINvMs6_B2_NtB2_13DroplessArena15alloc_from_iterNtNtCs2Pf1rSX1q4A_9rustc_hir3hir14WherePredicateINtCslDCsxSJG9GM_8smallvec8SmallVecAB1o_j4_EE0QSB1o_ECsigzjtJzPjJb_18rustc_ast_lowering
librustc_driver-f8caf2bfd7396df8.so:_RINvCskxUBrOlKEx3_11rustc_arena7outlineNCINvMs6_B2_NtB2_13DroplessArena15alloc_from_iterNtNtCs2Pf1rSX1q4A_9rustc_hir3hir19AssocItemConstraintAB1o_j0_E0QSB1o_ECsigzjtJzPjJb_18rustc_ast_lowering
librustc_driver-f8caf2bfd7396df8.so:_RINvCskxUBrOlKEx3_11rustc_arena7outlineNCINvMs6_B2_NtB2_13DroplessArena15alloc_from_iterNtNtCs2Pf1rSX1q4A_9rustc_hir3hir19AssocItemConstraintAB1o_j1_E0QSB1o_ECsigzjtJzPjJb_18rustc_ast_lowering
librustc_driver-f8caf2bfd7396df8.so:_RINvCskxUBrOlKEx3_11rustc_arena7outlineNCINvMs6_B2_NtB2_13DroplessArena15alloc_from_iterNtNtCs2Pf1rSX1q4A_9rustc_hir3hir2TyAB1o_j1_E0QSB1o_ECsigzjtJzPjJb_18rustc_ast_lowering
librustc_driver-f8caf2bfd7396df8.so:_RINvCskxUBrOlKEx3_11rustc_arena7outlineNCINvMs6_B2_NtB2_13DroplessArena15alloc_from_iterNtNtCs2Pf1rSX1q4A_9rustc_hir3hir3ArmAB1o_j1_E0QSB1o_ECsigzjtJzPjJb_18rustc_ast_lowering
librustc_driver-f8caf2bfd7396df8.so:_RINvCskxUBrOlKEx3_11rustc_arena7outlineNCINvMs6_B2_NtB2_13DroplessArena15alloc_from_iterNtNtCs2Pf1rSX1q4A_9rustc_hir3hir3ArmAB1o_j2_E0QSB1o_ECsigzjtJzPjJb_18rustc_ast_lowering
librustc_driver-f8caf2bfd7396df8.so:_RINvCskxUBrOlKEx3_11rustc_arena7outlineNCINvMs6_B2_NtB2_13DroplessArena15alloc_from_iterNtNtCs2Pf1rSX1q4A_9rustc_hir3hir3PatINtNtCs19MuVdBY7V6_5alloc3vec3VecB1o_EE0QSB1o_ECsigzjtJzPjJb_18rustc_ast_lowering
librustc_driver-f8caf2bfd7396df8.so:_RINvCskxUBrOlKEx3_11rustc_arena7outlineNCINvMs6_B2_NtB2_13DroplessArena15alloc_from_iterNtNtCs2Pf1rSX1q4A_9rustc_hir3hir4ExprAB1o_j1_E0QSB1o_ECsigzjtJzPjJb_18rustc_ast_lowering
librustc_driver-f8caf2bfd7396df8.so:_RINvCskxUBrOlKEx3_11rustc_arena7outlineNCINvMs6_B2_NtB2_13DroplessArena15alloc_from_iterNtNtCs2Pf1rSX1q4A_9rustc_hir3hir4ExprAB1o_j2_E0QSB1o_ECsigzjtJzPjJb_18rustc_ast_lowering
librustc_driver-f8caf2bfd7396df8.so:_RINvCskxUBrOlKEx3_11rustc_arena7outlineNCINvMs6_B2_NtB2_13DroplessArena15alloc_from_iterNtNtCs2Pf1rSX1q4A_9rustc_hir3hir4ExprINtNtCs19MuVdBY7V6_5alloc3vec3VecB1o_EE0QSB1o_ECsigzjtJzPjJb_18rustc_ast_lowering
librustc_driver-f8caf2bfd7396df8.so:_RINvCskxUBrOlKEx3_11rustc_arena7outlineNCINvMs6_B2_NtB2_13DroplessArena15alloc_from_iterNtNtCs2Pf1rSX1q4A_9rustc_hir3hir4StmtAB1o_j1_E0QSB1o_ECsigzjtJzPjJb_18rustc_ast_lowering
librustc_driver-f8caf2bfd7396df8.so:_RINvCskxUBrOlKEx3_11rustc_arena7outlineNCINvMs6_B2_NtB2_13DroplessArena15alloc_from_iterNtNtCs2Pf1rSX1q4A_9rustc_hir3hir4StmtAB1o_j2_E0QSB1o_ECsigzjtJzPjJb_18rustc_ast_lowering
librustc_driver-f8caf2bfd7396df8.so:_RINvCskxUBrOlKEx3_11rustc_arena7outlineNCINvMs6_B2_NtB2_13DroplessArena15alloc_from_iterNtNtCs2Pf1rSX1q4A_9rustc_hir3hir4StmtINtCslDCsxSJG9GM_8smallvec8SmallVecAB1o_j8_EE0QSB1o_ECsigzjtJzPjJb_18rustc_ast_lowering
librustc_driver-f8caf2bfd7396df8.so:_RINvCskxUBrOlKEx3_11rustc_arena7outlineNCINvMs6_B2_NtB2_13DroplessArena15alloc_from_iterNtNtCs2Pf1rSX1q4A_9rustc_hir3hir4StmtINtNtCs19MuVdBY7V6_5alloc3vec3VecB1o_EE0QSB1o_ECsigzjtJzPjJb_18rustc_ast_lowering
librustc_driver-f8caf2bfd7396df8.so:_RINvCskxUBrOlKEx3_11rustc_arena7outlineNCINvMs6_B2_NtB2_13DroplessArena15alloc_from_iterNtNtCs2Pf1rSX1q4A_9rustc_hir3hir4StmtINtNtNtCs9WsFjTlRn02_4core5array4iter8IntoIterB1o_Kj1_EE0QSB1o_ECsigzjtJzPjJb_18rustc_ast_lowering
librustc_driver-f8caf2bfd7396df8.so:_RINvCskxUBrOlKEx3_11rustc_arena7outlineNCINvMs6_B2_NtB2_13DroplessArena15alloc_from_iterNtNtCs2Pf1rSX1q4A_9rustc_hir3hir4StmtINtNtNtNtCs9WsFjTlRn02_4core4iter8adapters5chain5ChainINtNtNtB26_7sources4once4OnceB1o_EINtNtNtCs19MuVdBY7V6_5alloc3vec9into_iter8IntoIterB1o_EEE0QSB1o_ECsigzjtJzPjJb_18rustc_ast_lowering
librustc_driver-f8caf2bfd7396df8.so:_RINvCskxUBrOlKEx3_11rustc_arena7outlineNCINvMs6_B2_NtB2_13DroplessArena15alloc_from_iterNtNtCs2Pf1rSX1q4A_9rustc_hir3hir5ParamAB1o_j1_E0QSB1o_ECsigzjtJzPjJb_18rustc_ast_lowering
librustc_driver-f8caf2bfd7396df8.so:_RINvCskxUBrOlKEx3_11rustc_arena7outlineNCINvMs6_B2_NtB2_13DroplessArena15alloc_from_iterNtNtCs2Pf1rSX1q4A_9rustc_hir3hir5ParamINtNtCs19MuVdBY7V6_5alloc3vec3VecB1o_EE0QSB1o_ECsigzjtJzPjJb_18rustc_ast_lowering
librustc_driver-f8caf2bfd7396df8.so:_RINvCskxUBrOlKEx3_11rustc_arena7outlineNCINvMs6_B2_NtB2_13DroplessArena15alloc_from_iterNtNtCs2Pf1rSX1q4A_9rustc_hir3hir8PatFieldAB1o_j1_E0QSB1o_ECsigzjtJzPjJb_18rustc_ast_lowering
librustc_driver-f8caf2bfd7396df8.so:_RINvCskxUBrOlKEx3_11rustc_arena7outlineNCINvMs6_B2_NtB2_13DroplessArena15alloc_from_iterNtNtCsbnIUe8x9cNz_12rustc_middle2ty2TyINtNtNtNtCs9WsFjTlRn02_4core4iter8adapters5chain5ChainINtNtB25_6cloned6ClonedINtNtNtB29_5slice4iter4IterB1o_EEINtNtNtB27_7sources4once4OnceB1o_EEE0QSB1o_ECs25h6OjkxBzy_18rustc_hir_analysis
librustc_driver-f8caf2bfd7396df8.so:_RINvCskxUBrOlKEx3_11rustc_arena7outlineNCINvMs6_B2_NtB2_13DroplessArena15alloc_from_iterNtNtCsjdyqsEEf0cE_10rustc_span13span_encoding4SpanINtNtCs19MuVdBY7V6_5alloc3vec3VecB1o_EE0QSB1o_ECs2ERWbPTlodK_16rustc_query_impl
librustc_driver-f8caf2bfd7396df8.so:_RINvCskxUBrOlKEx3_11rustc_arena7outlineNCINvMs6_B2_NtB2_13DroplessArena15alloc_from_iterNtNtCsjdyqsEEf0cE_10rustc_span13span_encoding4SpanINtNtCs19MuVdBY7V6_5alloc3vec3VecB1o_EE0QSB1o_ECskmy2rFhdDOz_14rustc_metadata
librustc_driver-f8caf2bfd7396df8.so:_RINvCskxUBrOlKEx3_11rustc_arena7outlineNCINvMs6_B2_NtB2_13DroplessArena15alloc_from_iterNtNtCsjdyqsEEf0cE_10rustc_span6def_id5DefIdINtNtCs19MuVdBY7V6_5alloc3vec3VecB1o_EE0QSB1o_ECs2ERWbPTlodK_16rustc_query_impl
librustc_driver-f8caf2bfd7396df8.so:_RINvCskxUBrOlKEx3_11rustc_arena7outlineNCINvMs6_B2_NtB2_13DroplessArena15alloc_from_iterNtNtCsjdyqsEEf0cE_10rustc_span6def_id5DefIdINtNtNtCs42Kw8IjNYDo_8indexmap3set4iter8IntoIterB1o_EE0QSB1o_ECs6JcOuld5fNS_12rustc_passes
librustc_driver-f8caf2bfd7396df8.so:_RINvCskxUBrOlKEx3_11rustc_arena7outlineNCINvMs6_B2_NtB2_13DroplessArena15alloc_from_iterNtNtCsjdyqsEEf0cE_10rustc_span6def_id5DefIdINtNtNtCskmy2rFhdDOz_14rustc_metadata5rmeta7decoder14DecodeIteratorB1o_EE0QSB1o_EB2c_
librustc_driver-f8caf2bfd7396df8.so:_RINvCskxUBrOlKEx3_11rustc_arena7outlineNCINvMs6_B2_NtB2_13DroplessArena15alloc_from_iterNtNtCsjdyqsEEf0cE_10rustc_span6def_id5DefIdINtNtNtNtCs9WsFjTlRn02_4core4iter8adapters10filter_map9FilterMapINtNtB2a_6filter6FilterINtNtB2a_3map3MapIB3v_INtNtNtB2e_5slice4iter4IterTINtNtB2e_6option6OptionNtNtB1s_6symbol6SymbolENtNtNtCsbnIUe8x9cNz_12rustc_middle2ty5assoc9AssocItemEENCNvMNtNtCsiN8jfhUhbz9_21rustc_data_structures10sorted_map9index_mapINtB60_19SortedIndexMultiMapmB4i_B52_E4iter0ENCNvMs1_B54_NtB54_10AssocItems19in_definition_order0ENCNvNtNtCscglkemFQPVF_21rustc_trait_selection6traits6vtable35own_existential_vtable_entries_iter0ENCB8D_s_0EE0QSB1o_EB8J_
librustc_driver-f8caf2bfd7396df8.so:_RINvCskxUBrOlKEx3_11rustc_arena7outlineNCINvMs6_B2_NtB2_13DroplessArena15alloc_from_iterNtNtCsjdyqsEEf0cE_10rustc_span6def_id5DefIdINtNtNtNtCs9WsFjTlRn02_4core4iter8adapters3map3MapINtNtNtCskmy2rFhdDOz_14rustc_metadata5rmeta7decoder14DecodeIteratorNtB1q_8DefIndexENCNvMsk_B2W_NtNtB30_7creader16CrateMetadataRef10get_traits0EE0QSB1o_EB30_
librustc_driver-f8caf2bfd7396df8.so:_RINvCskxUBrOlKEx3_11rustc_arena7outlineNCINvMs6_B2_NtB2_13DroplessArena15alloc_from_iterNtNtCsjdyqsEEf0cE_10rustc_span6def_id5DefIdINtNtNtNtCs9WsFjTlRn02_4core4iter8adapters3map3MapINtNtNtCskmy2rFhdDOz_14rustc_metadata5rmeta7decoder14DecodeIteratorNtB1q_8DefIndexENCNvMsk_B2W_NtNtB30_7creader16CrateMetadataRef20get_exportable_items0EE0QSB1o_EB30_
librustc_driver-f8caf2bfd7396df8.so:_RINvCskxUBrOlKEx3_11rustc_arena7outlineNCINvMs6_B2_NtB2_13DroplessArena15alloc_from_iterNtNtCsjdyqsEEf0cE_10rustc_span6def_id5DefIdINtNtNtNtCs9WsFjTlRn02_4core4iter8adapters3map3MapINtNtNtCskmy2rFhdDOz_14rustc_metadata5rmeta7decoder14DecodeIteratorNtB1q_8DefIndexENCNvMsk_B2W_NtNtB30_7creader16CrateMetadataRef36get_associated_item_or_field_def_idss_0EE0QSB1o_EB30_
librustc_driver-f8caf2bfd7396df8.so:_RINvCskxUBrOlKEx3_11rustc_arena7outlineNCINvMs6_B2_NtB2_13DroplessArena15alloc_from_iterNtNtCsjdyqsEEf0cE_10rustc_span6def_id5DefIdINtNtNtNtCs9WsFjTlRn02_4core4iter8adapters7flatten7FlatMapINtNtNtCs42Kw8IjNYDo_8indexmap3map4iter6ValuesTmNtB1q_8DefIndexEINtNtCskmy2rFhdDOz_14rustc_metadata5rmeta9LazyArrayTB3N_INtNtB2e_6option6OptionINtNtCs2t38KIHyE4j_13rustc_type_ir11fast_reject14SimplifiedTypeB1o_EEEEEINtNtB2a_3map3MapINtNtB46_7decoder14DecodeIteratorB4S_ENCNCNvMsk_B6O_NtNtB48_7creader16CrateMetadataRef15get_trait_impls00ENCB7r_0EE0QSB1o_EB48_
librustc_driver-f8caf2bfd7396df8.so:_RINvCskxUBrOlKEx3_11rustc_arena7outlineNCINvMs6_B2_NtB2_13DroplessArena15alloc_from_iterNtNtCsjdyqsEEf0cE_10rustc_span6def_id8CrateNumINtNtNtCs42Kw8IjNYDo_8indexmap3set4iter8IntoIterB1o_EE0QSB1o_ECskmy2rFhdDOz_14rustc_metadata
librustc_driver-f8caf2bfd7396df8.so:_RINvCskxUBrOlKEx3_11rustc_arena7outlineNCINvMs6_B2_NtB2_13DroplessArena15alloc_from_iterNtNtNtCsbnIUe8x9cNz_12rustc_middle2ty6consts5ConstINtNtCs19MuVdBY7V6_5alloc3vec3VecB1o_EE0QSB1o_ECsdcGL4HoWj4W_14rustc_ty_utils
librustc_driver-f8caf2bfd7396df8.so:_RINvCskxUBrOlKEx3_11rustc_arena7outlineNCINvMs6_B2_NtB2_13DroplessArena15alloc_from_iterNtNtNtCsbnIUe8x9cNz_12rustc_middle2ty6vtable9VtblEntryINtNtCs19MuVdBY7V6_5alloc3vec3VecB1o_EE0QSB1o_ECscglkemFQPVF_21rustc_trait_selection
librustc_driver-f8caf2bfd7396df8.so:_RINvCskxUBrOlKEx3_11rustc_arena7outlineNCINvMs6_B2_NtB2_13DroplessArena15alloc_from_iterNtNtNtCsbnIUe8x9cNz_12rustc_middle6middle19deduced_param_attrs17DeducedParamAttrsINtNtNtCskmy2rFhdDOz_14rustc_metadata5rmeta7decoder14DecodeIteratorB1o_EE0QSB1o_EB2O_
librustc_driver-f8caf2bfd7396df8.so:_RINvCskxUBrOlKEx3_11rustc_arena7outlineNCINvMs6_B2_NtB2_13DroplessArena15alloc_from_iterTINtNtCs2t38KIHyE4j_13rustc_type_ir6binder6BinderNtNtNtCsbnIUe8x9cNz_12rustc_middle2ty7context6TyCtxtINtNtB1u_9predicate8TraitRefB2b_EENtNtCsjdyqsEEf0cE_10rustc_span13span_encoding4SpanEINtNtNtCskmy2rFhdDOz_14rustc_metadata5rmeta7decoder14DecodeIteratorB1o_EE0QSB1o_EB4v_
librustc_driver-f8caf2bfd7396df8.so:_RINvCskxUBrOlKEx3_11rustc_arena7outlineNCINvMs6_B2_NtB2_13DroplessArena15alloc_from_iterTINtNtCs2t38KIHyE4j_13rustc_type_ir6binder6BinderNtNtNtCsbnIUe8x9cNz_12rustc_middle2ty7context6TyCtxtINtNtB1u_9predicate8TraitRefB2b_EENtNtCsjdyqsEEf0cE_10rustc_span13span_encoding4SpanEINtNtNtNtCs9WsFjTlRn02_4core4iter8adapters3map3MapINtNtNtB4x_3ops5range5RangejENCNvXsv_NtB2f_5codecSB1o_INtB5N_12RefDecodableNtNtNtCskmy2rFhdDOz_14rustc_metadata5rmeta7decoder13DecodeContextE6decode0EE0QB5Z_EB6v_
librustc_driver-f8caf2bfd7396df8.so:_RINvCskxUBrOlKEx3_11rustc_arena7outlineNCINvMs6_B2_NtB2_13DroplessArena15alloc_from_iterTNtNtCs2Pf1rSX1q4A_9rustc_hir3hir16InlineAsmOperandNtNtCsjdyqsEEf0cE_10rustc_span13span_encoding4SpanEINtNtCs19MuVdBY7V6_5alloc3vec3VecB1o_EE0QSB1o_ECsigzjtJzPjJb_18rustc_ast_lowering
librustc_driver-f8caf2bfd7396df8.so:_RINvCskxUBrOlKEx3_11rustc_arena7outlineNCINvMs6_B2_NtB2_13DroplessArena15alloc_from_iterTNtNtCsbnIUe8x9cNz_12rustc_middle2ty2TyNtNtCsjdyqsEEf0cE_10rustc_span13span_encoding4SpanEINtNtCs19MuVdBY7V6_5alloc3vec3VecB1o_EE0QSB1o_ECsdcGL4HoWj4W_14rustc_ty_utils
librustc_driver-f8caf2bfd7396df8.so:_RINvCskxUBrOlKEx3_11rustc_arena7outlineNCINvMs6_B2_NtB2_13DroplessArena15alloc_from_iterTNtNtCsbnIUe8x9cNz_12rustc_middle2ty2TyNtNtCsjdyqsEEf0cE_10rustc_span13span_encoding4SpanEINtNtCsgBJFQX5MxRK_9itertools11zip_eq_impl5ZipEqINtNtNtNtCs9WsFjTlRn02_4core4iter8adapters6copied6CopiedINtNtNtB3L_5slice4iter4IterB1p_EEINtNtB3H_5chain5ChainINtNtB3H_3map3MapIB4x_NtNtCs2Pf1rSX1q4A_9rustc_hir3hir2TyENCNvNtCsdcGL4HoWj4W_14rustc_ty_utils14implied_bounds12fn_sig_spans0EINtNtNtB3J_7sources4once4OnceB21_EEEE0QSB1o_EB6q_
librustc_driver-f8caf2bfd7396df8.so:_RINvCskxUBrOlKEx3_11rustc_arena7outlineNCINvMs6_B2_NtB2_13DroplessArena15alloc_from_iterTNtNtCsbnIUe8x9cNz_12rustc_middle2ty2TyNtNtCsjdyqsEEf0cE_10rustc_span13span_encoding4SpanEINtNtNtCskmy2rFhdDOz_14rustc_metadata5rmeta7decoder14DecodeIteratorB1o_EE0QSB1o_EB2X_
librustc_driver-f8caf2bfd7396df8.so:_RINvCskxUBrOlKEx3_11rustc_arena7outlineNCINvMs6_B2_NtB2_13DroplessArena15alloc_from_iterTNtNtCsbnIUe8x9cNz_12rustc_middle2ty2TyNtNtCsjdyqsEEf0cE_10rustc_span13span_encoding4SpanEINtNtNtNtCs9WsFjTlRn02_4core4iter8adapters5chain5ChainINtNtCs2t38KIHyE4j_13rustc_type_ir6binder22IterInstantiatedCopiedNtNtB1r_7context6TyCtxtRSB1o_EINtNtB2V_6copied6CopiedINtNtNtB2Z_5slice4iter4IterB1o_EEEE0QB59_ECsdcGL4HoWj4W_14rustc_ty_utils
librustc_driver-f8caf2bfd7396df8.so:_RINvCskxUBrOlKEx3_11rustc_arena7outlineNCINvMs6_B2_NtB2_13DroplessArena15alloc_from_iterTNtNtCsjdyqsEEf0cE_10rustc_span6def_id5DefIdRINtNtNtCsbnIUe8x9cNz_12rustc_middle2ty4list7RawListuNtNtB2c_12generic_args10GenericArgEEINtNtNtNtCs9WsFjTlRn02_4core4iter8adapters6copied6CopiedINtNtNtCs42Kw8IjNYDo_8indexmap3set4iter4IterB1o_EEE0QSB1o_ECs3pEzLKeUfxb_19rustc_mir_transform
librustc_driver-f8caf2bfd7396df8.so:_RINvCskxUBrOlKEx3_11rustc_arena7outlineNCINvMs6_B2_NtB2_13DroplessArena15alloc_from_iterTNtNtCsjdyqsEEf0cE_10rustc_span6symbol6SymbolB1p_EINtNtNtCskmy2rFhdDOz_14rustc_metadata5rmeta7decoder14DecodeIteratorB1o_EE0QSB1o_EB2j_
librustc_driver-f8caf2bfd7396df8.so:_RINvCskxUBrOlKEx3_11rustc_arena7outlineNCINvMs6_B2_NtB2_13DroplessArena15alloc_from_iterTNtNtNtCsbnIUe8x9cNz_12rustc_middle2ty9predicate6ClauseNtNtCsjdyqsEEf0cE_10rustc_span13span_encoding4SpanEINtNtCs19MuVdBY7V6_5alloc3vec3VecB1o_EE0QSB1o_ECs25h6OjkxBzy_18rustc_hir_analysis
librustc_driver-f8caf2bfd7396df8.so:_RINvCskxUBrOlKEx3_11rustc_arena7outlineNCINvMs6_B2_NtB2_13DroplessArena15alloc_from_iterTNtNtNtCsbnIUe8x9cNz_12rustc_middle2ty9predicate6ClauseNtNtCsjdyqsEEf0cE_10rustc_span13span_encoding4SpanEINtNtCs2t38KIHyE4j_13rustc_type_ir6binder22IterInstantiatedCopiedNtNtB1t_7context6TyCtxtRSB1o_EE0QB4x_ECs25h6OjkxBzy_18rustc_hir_analysis
librustc_driver-f8caf2bfd7396df8.so:_RINvCskxUBrOlKEx3_11rustc_arena7outlineNCINvMs6_B2_NtB2_13DroplessArena15alloc_from_iterTNtNtNtCsbnIUe8x9cNz_12rustc_middle2ty9predicate6ClauseNtNtCsjdyqsEEf0cE_10rustc_span13span_encoding4SpanEINtNtNtCskmy2rFhdDOz_14rustc_metadata5rmeta7decoder14DecodeIteratorB1o_EE0QSB1o_EB3d_
librustc_driver-f8caf2bfd7396df8.so:_RINvCskxUBrOlKEx3_11rustc_arena7outlineNCINvMs6_B2_NtB2_13DroplessArena15alloc_from_iterTNtNtNtCsbnIUe8x9cNz_12rustc_middle2ty9predicate6ClauseNtNtCsjdyqsEEf0cE_10rustc_span13span_encoding4SpanEINtNtNtNtCs9WsFjTlRn02_4core4iter8adapters3map3MapINtNtNtB3f_3ops5range5RangejENCNvXsu_NtB1t_5codecSB1o_INtB4v_12RefDecodableNtNtNtB1v_5query13on_disk_cache12CacheDecoderE6decode0EE0QB4H_ECs2ERWbPTlodK_16rustc_query_impl
librustc_driver-f8caf2bfd7396df8.so:_RINvCskxUBrOlKEx3_11rustc_arena7outlineNCINvMs6_B2_NtB2_13DroplessArena15alloc_from_iterTNtNtNtCsbnIUe8x9cNz_12rustc_middle2ty9predicate6ClauseNtNtCsjdyqsEEf0cE_10rustc_span13span_encoding4SpanEINtNtNtNtCs9WsFjTlRn02_4core4iter8adapters3map3MapINtNtNtB3f_3ops5range5RangejENCNvXsu_NtB1t_5codecSB1o_INtB4v_12RefDecodableNtNtNtCskmy2rFhdDOz_14rustc_metadata5rmeta7decoder13DecodeContextE6decode0EE0QB4H_EB5d_
librustc_driver-f8caf2bfd7396df8.so:_RINvCskxUBrOlKEx3_11rustc_arena7outlineNCINvMs6_B2_NtB2_13DroplessArena15alloc_from_iterTNtNtNtCsbnIUe8x9cNz_12rustc_middle2ty9predicate6ClauseNtNtCsjdyqsEEf0cE_10rustc_span13span_encoding4SpanEINtNtNtNtCs9WsFjTlRn02_4core4iter8adapters5chain5ChainINtNtB3b_6copied6CopiedINtNtNtB3f_5slice4iter4IterB1o_EEIB37_INtNtB3f_6option8IntoIterB1o_EINtNtNtCs19MuVdBY7V6_5alloc3vec9into_iter8IntoIterB1o_EEEE0QSB1o_ECs25h6OjkxBzy_18rustc_hir_analysis
librustc_driver-f8caf2bfd7396df8.so:_RINvCskxUBrOlKEx3_11rustc_arena7outlineNCINvMs6_B2_NtB2_13DroplessArena15alloc_from_iterTNtNtNtCsbnIUe8x9cNz_12rustc_middle2ty9predicate6ClauseNtNtCsjdyqsEEf0cE_10rustc_span13span_encoding4SpanEINtNtNtNtCs9WsFjTlRn02_4core4iter8adapters5chain5ChainINtNtB3b_6copied6CopiedINtNtNtB3f_5slice4iter4IterB1o_EEINtNtNtB3d_7sources4once4OnceB1o_EEE0QSB1o_ECs25h6OjkxBzy_18rustc_hir_analysis
librustc_driver-f8caf2bfd7396df8.so:_RINvCskxUBrOlKEx3_11rustc_arena7outlineNCINvMs6_B2_NtB2_13DroplessArena15alloc_from_iterTNtNtNtCsbnIUe8x9cNz_12rustc_middle2ty9predicate6ClauseNtNtCsjdyqsEEf0cE_10rustc_span13span_encoding4SpanEINtNtNtNtCs9WsFjTlRn02_4core4iter8adapters5chain5ChainINtNtNtCs19MuVdBY7V6_5alloc3vec9into_iter8IntoIterB1o_EB3Y_EE0QSB1o_ECs25h6OjkxBzy_18rustc_hir_analysis
librustc_driver-f8caf2bfd7396df8.so:_RINvCskxUBrOlKEx3_11rustc_arena7outlineNCINvMs6_B2_NtB2_13DroplessArena15alloc_from_iterTNtNtNtCsbnIUe8x9cNz_12rustc_middle3mir6consts10ConstValueNtNtB1v_2ty2TyEINtNtCs19MuVdBY7V6_5alloc3vec3VecB1o_EE0QSB1o_ECs70IT0j5QNpU_16rustc_const_eval
librustc_driver-f8caf2bfd7396df8.so:_RINvCskxUBrOlKEx3_11rustc_arena7outlineNCINvMs6_B2_NtB2_13DroplessArena15alloc_from_iterTNtNtNtCsbnIUe8x9cNz_12rustc_middle6middle16exported_symbols14ExportedSymbolNtB1r_16SymbolExportInfoEINtNtCs19MuVdBY7V6_5alloc3vec3VecB1o_EE0QSB1o_ECs2ERWbPTlodK_16rustc_query_impl
librustc_driver-f8caf2bfd7396df8.so:_RINvCskxUBrOlKEx3_11rustc_arena7outlineNCINvMs6_B2_NtB2_13DroplessArena15alloc_from_iterTNtNtNtCsbnIUe8x9cNz_12rustc_middle6middle16exported_symbols14ExportedSymbolNtB1r_16SymbolExportInfoEINtNtCs19MuVdBY7V6_5alloc3vec3VecB1o_EE0QSB1o_ECsjcIbwyOWlC2_17rustc_codegen_ssa
librustc_driver-f8caf2bfd7396df8.so:_RINvCskxUBrOlKEx3_11rustc_arena7outlineNCINvMs6_B2_NtB2_13DroplessArena15alloc_from_iterTNtNtNtCsbnIUe8x9cNz_12rustc_middle6middle16exported_symbols14ExportedSymbolNtB1r_16SymbolExportInfoEINtNtNtCskmy2rFhdDOz_14rustc_metadata5rmeta7decoder14DecodeIteratorB1o_EE0QSB1o_EB38_
librustc_driver-f8caf2bfd7396df8.so:_RINvMNtCs4INYiD1ez8Y_15rustc_serialize6opaqueNtB3_11FileEncoder19panic_invalid_writeKj10_ECskmy2rFhdDOz_14rustc_metadata
librustc_driver-f8caf2bfd7396df8.so:_RINvMNtCs4INYiD1ez8Y_15rustc_serialize6opaqueNtB3_11FileEncoder19panic_invalid_writeKj13_ECsbnIUe8x9cNz_12rustc_middle
librustc_driver-f8caf2bfd7396df8.so:_RINvMNtCs4INYiD1ez8Y_15rustc_serialize6opaqueNtB3_11FileEncoder19panic_invalid_writeKj1_ECsjdyqsEEf0cE_10rustc_span
librustc_driver-f8caf2bfd7396df8.so:_RINvMNtCs4INYiD1ez8Y_15rustc_serialize6opaqueNtB3_11FileEncoder19panic_invalid_writeKj2_ECsbnIUe8x9cNz_12rustc_middle
librustc_driver-f8caf2bfd7396df8.so:_RINvMNtCs4INYiD1ez8Y_15rustc_serialize6opaqueNtB3_11FileEncoder19panic_invalid_writeKj5_ECsjdyqsEEf0cE_10rustc_span
librustc_driver-f8caf2bfd7396df8.so:_RINvMNtCs4INYiD1ez8Y_15rustc_serialize6opaqueNtB3_11FileEncoder19panic_invalid_writeKj8_ECsbnIUe8x9cNz_12rustc_middle
librustc_driver-f8caf2bfd7396df8.so:_RINvMNtCs4INYiD1ez8Y_15rustc_serialize6opaqueNtB3_11FileEncoder19panic_invalid_writeKja_EB5_
librustc_driver-f8caf2bfd7396df8.so:_RINvMNtCs9WsFjTlRn02_4core3stre18trim_start_matchesReECsdQXj5kOXdfq_14rustc_demangle
librustc_driver-f8caf2bfd7396df8.so:_RINvMNtCs9WsFjTlRn02_4core5sliceSh11copy_withinINtNtNtB5_3ops5range14RangeInclusivejEECsbW7JIls3BXH_11miniz_oxide
librustc_driver-f8caf2bfd7396df8.so:_RINvMNtCs9WsFjTlRn02_4core6optionINtB3_6OptionRINtNtB5_4cell4CellhEE3zipBI_ECsbW7JIls3BXH_11miniz_oxide
librustc_driver-f8caf2bfd7396df8.so:_RINvMNtCs9WsFjTlRn02_4core6optionINtB3_6OptionTRINtNtB5_4cell4CellhEBJ_EE3zipBJ_ECsbW7JIls3BXH_11miniz_oxide
librustc_driver-f8caf2bfd7396df8.so:_RINvMNtCsgVad3wcXifX_17rustc_stable_hash6sip128NtB3_12SipHasher12826short_write_process_bufferKj1_ECsjdyqsEEf0cE_10rustc_span
librustc_driver-f8caf2bfd7396df8.so:_RINvMNtCsgVad3wcXifX_17rustc_stable_hash6sip128NtB3_12SipHasher12826short_write_process_bufferKj2_ECsdEUoebXq6qL_12rustc_errors
librustc_driver-f8caf2bfd7396df8.so:_RINvMNtCsgVad3wcXifX_17rustc_stable_hash6sip128NtB3_12SipHasher12826short_write_process_bufferKj4_ECs2Pf1rSX1q4A_9rustc_hir
librustc_driver-f8caf2bfd7396df8.so:_RINvMNtCsgVad3wcXifX_17rustc_stable_hash6sip128NtB3_12SipHasher12826short_write_process_bufferKj4_ECsdEUoebXq6qL_12rustc_errors
librustc_driver-f8caf2bfd7396df8.so:_RINvMNtCsgVad3wcXifX_17rustc_stable_hash6sip128NtB3_12SipHasher12826short_write_process_bufferKj8_ECsjdyqsEEf0cE_10rustc_span
librustc_driver-f8caf2bfd7396df8.so:_RINvMNtNtCs2FHJYmCldx7_14regex_automata4util4iterNtB3_8Searcher30handle_overlapping_empty_matchNCNvXs6_NtNtB7_4meta5regexNtB1D_11FindMatchesNtNtNtNtCs9WsFjTlRn02_4core4iter6traits8iterator8Iterator4next0EB7_
librustc_driver-f8caf2bfd7396df8.so:_RINvMNtNtCs2FHJYmCldx7_14regex_automata4util4iterNtB3_8Searcher30handle_overlapping_empty_matchNCNvXs9_NtNtB7_4meta5regexNtB1D_15CapturesMatchesNtNtNtNtCs9WsFjTlRn02_4core4iter6traits8iterator8Iterator4next0ECs5CCFvyG5imu_18rustc_mir_dataflow
librustc_driver-f8caf2bfd7396df8.so:_RINvMNtNtCs2FHJYmCldx7_14regex_automata4util4iterNtB3_8Searcher30handle_overlapping_empty_matchNCNvXs9_NtNtB7_4meta5regexNtB1D_15CapturesMatchesNtNtNtNtCs9WsFjTlRn02_4core4iter6traits8iterator8Iterator4next0ECsjcIbwyOWlC2_17rustc_codegen_ssa
librustc_driver-f8caf2bfd7396df8.so:_RINvMNtNtCs4INYiD1ez8Y_15rustc_serialize6opaque11mem_encoderNtB3_10MemEncoder19panic_invalid_writeKj26_ECsbnIUe8x9cNz_12rustc_middle
librustc_driver-f8caf2bfd7396df8.so:_RINvMNtNtCs4INYiD1ez8Y_15rustc_serialize6opaque11mem_encoderNtB3_10MemEncoder19panic_invalid_writeKj4_ECsbnIUe8x9cNz_12rustc_middle
librustc_driver-f8caf2bfd7396df8.so:_RINvMNtNtCs4INYiD1ez8Y_15rustc_serialize6opaque11mem_encoderNtB3_10MemEncoder19panic_invalid_writeKj5_ECsbnIUe8x9cNz_12rustc_middle
librustc_driver-f8caf2bfd7396df8.so:_RINvMNtNtCs4INYiD1ez8Y_15rustc_serialize6opaque11mem_encoderNtB3_10MemEncoder19panic_invalid_writeKja_EB7_
librustc_driver-f8caf2bfd7396df8.so:_RINvMNtNtNtCs19MuVdBY7V6_5alloc11collections5btree4nodeINtB3_8LeafNodeyNtNtNtCsl0orcaMmsPI_5gimli4read6abbrev12AbbreviationE3newNtNtB9_5alloc6GlobalEB1d_
librustc_driver-f8caf2bfd7396df8.so:_RINvMs0_NtCsiN8jfhUhbz9_21rustc_data_structures17obligation_forestINtB6_16ObligationForestNtNtNtCscglkemFQPVF_21rustc_trait_selection6traits7fulfill26PendingPredicateObligationE19process_obligationsNtB1s_16FulfillProcessorEB1w_
librustc_driver-f8caf2bfd7396df8.so:_RINvMs0_NtCsiN8jfhUhbz9_21rustc_data_structures17obligation_forestINtB6_16ObligationForestNtNtNtCscglkemFQPVF_21rustc_trait_selection6traits7fulfill26PendingPredicateObligationE19process_obligationsNtNvXs0_B1s_INtB1s_18FulfillmentContextpEINtNtNtCs1rNb7bG4Xia_11rustc_infer6traits6engine11TraitEnginepE40drain_stalled_obligations_for_coroutines14DrainProcessorEB1w_
librustc_driver-f8caf2bfd7396df8.so:_RINvMs0_NtCsiN8jfhUhbz9_21rustc_data_structures17obligation_forestINtB6_16ObligationForestNtNtNtCscglkemFQPVF_21rustc_trait_selection6traits7fulfill26PendingPredicateObligationE8compressNCINvB2_19process_obligationsNtB1s_16FulfillProcessorEs_0EB1w_
librustc_driver-f8caf2bfd7396df8.so:_RINvMs0_NtCsiN8jfhUhbz9_21rustc_data_structures17obligation_forestINtB6_16ObligationForestNtNtNtCscglkemFQPVF_21rustc_trait_selection6traits7fulfill26PendingPredicateObligationE8compressNCINvB2_19process_obligationsNtNvXs0_B1s_INtB1s_18FulfillmentContextpEINtNtNtCs1rNb7bG4Xia_11rustc_infer6traits6engine11TraitEnginepE40drain_stalled_obligations_for_coroutines14DrainProcessorEs_0EB1w_
librustc_driver-f8caf2bfd7396df8.so:_RINvMs0_NtCsiN8jfhUhbz9_21rustc_data_structures17obligation_forestINtB6_16ObligationForestNtNtNtCscglkemFQPVF_21rustc_trait_selection6traits7fulfill26PendingPredicateObligationE8compressNCINvB2_9to_errorsNtB1u_20FulfillmentErrorCodeEs0_0EB1w_
librustc_driver-f8caf2bfd7396df8.so:_RINvMs0_NtNtNtCs19MuVdBY7V6_5alloc11collections5btree6searchINtNtB8_4node7NodeRefNtNtBZ_6marker3MutyNtNtNtCsl0orcaMmsPI_5gimli4read6abbrev12AbbreviationNtB1j_14LeafOrInternalE14find_key_indexyEB1G_
librustc_driver-f8caf2bfd7396df8.so:_RINvMs0_NtNtNtCs19MuVdBY7V6_5alloc11collections5btree6searchINtNtB8_4node7NodeRefNtNtBZ_6marker5ImmutyNtNtNtCsl0orcaMmsPI_5gimli4read6abbrev12AbbreviationNtB1j_14LeafOrInternalE14find_key_indexyEB1I_
librustc_driver-f8caf2bfd7396df8.so:_RINvMs1_NtNtNtCs7PfduyvR0eU_4jiff3fmt8friendly7printerNtB6_11SpanPrinter33print_span_designators_fractionalINtBa_11StdFmtWriteQNtNtCs9WsFjTlRn02_4core3fmt9FormatterEEBc_
librustc_driver-f8caf2bfd7396df8.so:_RINvMs1_NtNtNtCs7PfduyvR0eU_4jiff3fmt8friendly7printerNtB6_11SpanPrinter33print_span_designators_fractionalQNtNtCs19MuVdBY7V6_5alloc6string6StringEBc_
librustc_driver-f8caf2bfd7396df8.so:_RINvMs2_NtNtCshF5AtUv7kVK_18rustc_query_system5query3jobNtB6_10QueryJobId18find_dep_kind_rootNtB8_18QueryStackDeferredECs2ERWbPTlodK_16rustc_query_impl
librustc_driver-f8caf2bfd7396df8.so:_RINvMs5_NtNtCs9WsFjTlRn02_4core3fmt8buildersNtB6_9DebugList7entriesRNtNtNtCsl0orcaMmsPI_5gimli4read6abbrev22AttributeSpecificationINtNtNtBa_5slice4iter4IterB14_EEB1a_
librustc_driver-f8caf2bfd7396df8.so:_RINvMs5_NtNtCs9WsFjTlRn02_4core3fmt8buildersNtB6_9DebugList7entriesRhINtNtNtBa_5slice4iter4IterhEECsdQXj5kOXdfq_14rustc_demangle
librustc_driver-f8caf2bfd7396df8.so:_RINvMs5_NtNtCsjj3dQwFOuTb_3std2io5errorNtB6_5Error3newNtNtCs19MuVdBY7V6_5alloc6string13FromUtf8ErrorECsjcIbwyOWlC2_17rustc_codegen_ssa
librustc_driver-f8caf2bfd7396df8.so:_RINvMs5_NtNtCsjj3dQwFOuTb_3std2io5errorNtB6_5Error3newNtNtCs19MuVdBY7V6_5alloc6string6StringECs3puhVoiwLfp_12rustc_target
librustc_driver-f8caf2bfd7396df8.so:_RINvMs5_NtNtCsjj3dQwFOuTb_3std2io5errorNtB6_5Error3newNtNtCs2PCeG7bh8hN_10serde_json5error5ErrorEBU_
librustc_driver-f8caf2bfd7396df8.so:_RINvMs5_NtNtCsjj3dQwFOuTb_3std2io5errorNtB6_5Error3newNtNtCs8X3GuICiXk8_9getrandom5error5ErrorEBU_
librustc_driver-f8caf2bfd7396df8.so:_RINvMs5_NtNtCsjj3dQwFOuTb_3std2io5errorNtB6_5Error3newNtNtCs8ammuZywLgZ_9getrandom5error5ErrorEBU_
librustc_driver-f8caf2bfd7396df8.so:_RINvMs5_NtNtCsjj3dQwFOuTb_3std2io5errorNtB6_5Error3newNtNtCsa957EFATzsL_9rand_core5error5ErrorEBU_
librustc_driver-f8caf2bfd7396df8.so:_RINvMs5_NtNtCsjj3dQwFOuTb_3std2io5errorNtB6_5Error3newNtNtCsbN1j9mUE01_6flate23mem13CompressErrorEBU_
librustc_driver-f8caf2bfd7396df8.so:_RINvMs5_NtNtCsjj3dQwFOuTb_3std2io5errorNtB6_5Error3newNtNtCsbN1j9mUE01_6flate23mem15DecompressErrorEBU_
librustc_driver-f8caf2bfd7396df8.so:_RINvMs5_NtNtCsjj3dQwFOuTb_3std2io5errorNtB6_5Error3newNtNtCscsgnU1wG59o_8tempfile5error9PathErrorEBU_
librustc_driver-f8caf2bfd7396df8.so:_RINvMs5_NtNtCsjj3dQwFOuTb_3std2io5errorNtB6_5Error3newNtNtCsgpGnDZvU7dE_6ruzstd13frame_decoder17FrameDecoderErrorECsf21fn2YBgpG_6object
librustc_driver-f8caf2bfd7396df8.so:_RINvMs5_NtNtCsjj3dQwFOuTb_3std2io5errorNtB6_5Error3newNtNtCsiwa6XAY8u2U_6object4read5ErrorECsjcIbwyOWlC2_17rustc_codegen_ssa
librustc_driver-f8caf2bfd7396df8.so:_RINvMs5_NtNtCsjj3dQwFOuTb_3std2io5errorNtB6_5Error3newNtNtNtCs9WsFjTlRn02_4core3num5error15TryFromIntErrorEBa_
librustc_driver-f8caf2bfd7396df8.so:_RINvMs5_NtNtCsjj3dQwFOuTb_3std2io5errorNtB6_5Error3newNtNtNtCsdHGkdpaNODo_3nix5errno6consts5ErrnoECsjPrUCvPy4Dt_5ctrlc
librustc_driver-f8caf2bfd7396df8.so:_RINvMs5_NtNtCsjj3dQwFOuTb_3std2io5errorNtB6_5Error3newReEBa_
librustc_driver-f8caf2bfd7396df8.so:_RINvMs6_NtCs3vuWhofJlp6_9hashbrown3rawINtB6_8RawTableTINtNtCs19MuVdBY7V6_5alloc3vec3VechENtNtCs5wH0AbOeNic_6thorin7strings19PackageStringOffsetEE14reserve_rehashNCINvNtB8_3map11make_hasherBQ_B1p_NtNtCs5ZbyQrskofZ_8foldhash4fast11RandomStateE0EB1t_
librustc_driver-f8caf2bfd7396df8.so:_RINvMs6_NtCs3vuWhofJlp6_9hashbrown3rawINtB6_8RawTableTINtNtCs2t38KIHyE4j_13rustc_type_ir11fast_reject14SimplifiedTypeNtNtCsjdyqsEEf0cE_10rustc_span6def_id5DefIdEINtNtNtCshF5AtUv7kVK_18rustc_query_system5query8plumbing11QueryResultNtB2E_18QueryStackDeferredEEE14reserve_rehashNCINvB2C_17try_execute_queryINtCs2ERWbPTlodK_16rustc_query_impl13DynamicConfigINtNtB2E_6caches12DefaultCacheBQ_INtNtNtCsbnIUe8x9cNz_12rustc_middle5query5erase6ErasedAhj10_EEKb0_KB7d_KB7d_ENtNtB4U_8plumbing9QueryCtxtKB7d_E0EB4U_
librustc_driver-f8caf2bfd7396df8.so:_RINvMs6_NtCs3vuWhofJlp6_9hashbrown3rawINtB6_8RawTableTINtNtCs2t38KIHyE4j_13rustc_type_ir11fast_reject14SimplifiedTypeNtNtCsjdyqsEEf0cE_10rustc_span6def_id5DefIdEINtNtNtCshF5AtUv7kVK_18rustc_query_system5query8plumbing11QueryResultNtB2E_18QueryStackDeferredEEE14reserve_rehashNCINvB2C_17try_execute_queryINtCs2ERWbPTlodK_16rustc_query_impl13DynamicConfigINtNtB2E_6caches12DefaultCacheBQ_INtNtNtCsbnIUe8x9cNz_12rustc_middle5query5erase6ErasedAhj10_EEKb0_KB7d_KB7d_ENtNtB4U_8plumbing9QueryCtxtKb1_E0EB4U_
librustc_driver-f8caf2bfd7396df8.so:_RINvMs6_NtCs3vuWhofJlp6_9hashbrown3rawINtB6_8RawTableTINtNtCs2t38KIHyE4j_13rustc_type_ir11fast_reject14SimplifiedTypeNtNtCsjdyqsEEf0cE_10rustc_span6def_id5DefIdETINtNtNtCsbnIUe8x9cNz_12rustc_middle5query5erase6ErasedAhj10_ENtNtNtCshF5AtUv7kVK_18rustc_query_system9dep_graph5graph12DepNodeIndexEEE14reserve_rehashNCINvNtCsiN8jfhUhbz9_21rustc_data_structures7sharded11table_entryBQ_B2z_BQ_Es_0ECs2ERWbPTlodK_16rustc_query_impl
librustc_driver-f8caf2bfd7396df8.so:_RINvMs6_NtCs3vuWhofJlp6_9hashbrown3rawINtB6_8RawTableTINtNtCs2t38KIHyE4j_13rustc_type_ir9canonical19CanonicalQueryInputNtNtNtCsbnIUe8x9cNz_12rustc_middle2ty7context6TyCtxtINtB1X_11ParamEnvAndINtNtBV_9predicate9AliasTermB1T_EEEINtNtNtCshF5AtUv7kVK_18rustc_query_system5query8plumbing11QueryResultNtB3H_18QueryStackDeferredEEE14reserve_rehashNCINvB3F_17try_execute_queryINtCs2ERWbPTlodK_16rustc_query_impl13DynamicConfigINtNtB3H_6caches12DefaultCacheBQ_INtNtNtB1Z_5query5erase6ErasedAhj8_EEKb0_KB7R_KB7R_ENtNtB5X_8plumbing9QueryCtxtKB7R_E0EB5X_
librustc_driver-f8caf2bfd7396df8.so:_RINvMs6_NtCs3vuWhofJlp6_9hashbrown3rawINtB6_8RawTableTINtNtCs2t38KIHyE4j_13rustc_type_ir9canonical19CanonicalQueryInputNtNtNtCsbnIUe8x9cNz_12rustc_middle2ty7context6TyCtxtINtB1X_11ParamEnvAndINtNtBV_9predicate9AliasTermB1T_EEEINtNtNtCshF5AtUv7kVK_18rustc_query_system5query8plumbing11QueryResultNtB3H_18QueryStackDeferredEEE14reserve_rehashNCINvB3F_17try_execute_queryINtCs2ERWbPTlodK_16rustc_query_impl13DynamicConfigINtNtB3H_6caches12DefaultCacheBQ_INtNtNtB1Z_5query5erase6ErasedAhj8_EEKb0_KB7R_KB7R_ENtNtB5X_8plumbing9QueryCtxtKb1_E0EB5X_
librustc_driver-f8caf2bfd7396df8.so:_RINvMs6_NtCs3vuWhofJlp6_9hashbrown3rawINtB6_8RawTableTINtNtCs2t38KIHyE4j_13rustc_type_ir9canonical19CanonicalQueryInputNtNtNtCsbnIUe8x9cNz_12rustc_middle2ty7context6TyCtxtINtB1X_11ParamEnvAndINtNtBV_9predicate9AliasTermB1T_EEETINtNtNtB1Z_5query5erase6ErasedAhj8_ENtNtNtCshF5AtUv7kVK_18rustc_query_system9dep_graph5graph12DepNodeIndexEEE14reserve_rehashNCINvNtCsiN8jfhUhbz9_21rustc_data_structures7sharded11table_entryBQ_B3C_BQ_Es_0ECs2ERWbPTlodK_16rustc_query_impl
librustc_driver-f8caf2bfd7396df8.so:_RINvMs6_NtCs3vuWhofJlp6_9hashbrown3rawINtB6_8RawTableTINtNtCs2t38KIHyE4j_13rustc_type_ir9canonical19CanonicalQueryInputNtNtNtCsbnIUe8x9cNz_12rustc_middle2ty7context6TyCtxtINtB1X_11ParamEnvAndINtNtNtNtB1Z_6traits5query7type_op9NormalizeINtNtBV_6binder6BinderB1T_INtNtBV_7ty_kind5FnSigB1T_EEEEEINtNtNtCshF5AtUv7kVK_18rustc_query_system5query8plumbing11QueryResultNtB4L_18QueryStackDeferredEEE14reserve_rehashNCINvB4J_17try_execute_queryINtCs2ERWbPTlodK_16rustc_query_impl13DynamicConfigINtNtB4L_6caches12DefaultCacheBQ_INtNtNtB1Z_5query5erase6ErasedAhj8_EEKb0_KB8V_KB8V_ENtNtB71_8plumbing9QueryCtxtKB8V_E0EB71_
librustc_driver-f8caf2bfd7396df8.so:_RINvMs6_NtCs3vuWhofJlp6_9hashbrown3rawINtB6_8RawTableTINtNtCs2t38KIHyE4j_13rustc_type_ir9canonical19CanonicalQueryInputNtNtNtCsbnIUe8x9cNz_12rustc_middle2ty7context6TyCtxtINtB1X_11ParamEnvAndINtNtNtNtB1Z_6traits5query7type_op9NormalizeINtNtBV_6binder6BinderB1T_INtNtBV_7ty_kind5FnSigB1T_EEEEEINtNtNtCshF5AtUv7kVK_18rustc_query_system5query8plumbing11QueryResultNtB4L_18QueryStackDeferredEEE14reserve_rehashNCINvB4J_17try_execute_queryINtCs2ERWbPTlodK_16rustc_query_impl13DynamicConfigINtNtB4L_6caches12DefaultCacheBQ_INtNtNtB1Z_5query5erase6ErasedAhj8_EEKb0_KB8V_KB8V_ENtNtB71_8plumbing9QueryCtxtKb1_E0EB71_
librustc_driver-f8caf2bfd7396df8.so:_RINvMs6_NtCs3vuWhofJlp6_9hashbrown3rawINtB6_8RawTableTINtNtCs2t38KIHyE4j_13rustc_type_ir9canonical19CanonicalQueryInputNtNtNtCsbnIUe8x9cNz_12rustc_middle2ty7context6TyCtxtINtB1X_11ParamEnvAndINtNtNtNtB1Z_6traits5query7type_op9NormalizeINtNtBV_6binder6BinderB1T_INtNtBV_7ty_kind5FnSigB1T_EEEEETINtNtNtB1Z_5query5erase6ErasedAhj8_ENtNtNtCshF5AtUv7kVK_18rustc_query_system9dep_graph5graph12DepNodeIndexEEE14reserve_rehashNCINvNtCsiN8jfhUhbz9_21rustc_data_structures7sharded11table_entryBQ_B4G_BQ_Es_0ECs2ERWbPTlodK_16rustc_query_impl
librustc_driver-f8caf2bfd7396df8.so:_RINvMs6_NtCs3vuWhofJlp6_9hashbrown3rawINtB6_8RawTableTINtNtCs2t38KIHyE4j_13rustc_type_ir9canonical19CanonicalQueryInputNtNtNtCsbnIUe8x9cNz_12rustc_middle2ty7context6TyCtxtINtB1X_11ParamEnvAndINtNtNtNtB1Z_6traits5query7type_op9NormalizeINtNtBV_7ty_kind5FnSigB1T_EEEEINtNtNtCshF5AtUv7kVK_18rustc_query_system5query8plumbing11QueryResultNtB4k_18QueryStackDeferredEEE14reserve_rehashNCINvB4i_17try_execute_queryINtCs2ERWbPTlodK_16rustc_query_impl13DynamicConfigINtNtB4k_6caches12DefaultCacheBQ_INtNtNtB1Z_5query5erase6ErasedAhj8_EEKb0_KB8u_KB8u_ENtNtB6A_8plumbing9QueryCtxtKB8u_E0EB6A_
librustc_driver-f8caf2bfd7396df8.so:_RINvMs6_NtCs3vuWhofJlp6_9hashbrown3rawINtB6_8RawTableTINtNtCs2t38KIHyE4j_13rustc_type_ir9canonical19CanonicalQueryInputNtNtNtCsbnIUe8x9cNz_12rustc_middle2ty7context6TyCtxtINtB1X_11ParamEnvAndINtNtNtNtB1Z_6traits5query7type_op9NormalizeINtNtBV_7ty_kind5FnSigB1T_EEEEINtNtNtCshF5AtUv7kVK_18rustc_query_system5query8plumbing11QueryResultNtB4k_18QueryStackDeferredEEE14reserve_rehashNCINvB4i_17try_execute_queryINtCs2ERWbPTlodK_16rustc_query_impl13DynamicConfigINtNtB4k_6caches12DefaultCacheBQ_INtNtNtB1Z_5query5erase6ErasedAhj8_EEKb0_KB8u_KB8u_ENtNtB6A_8plumbing9QueryCtxtKb1_E0EB6A_
librustc_driver-f8caf2bfd7396df8.so:_RINvMs6_NtCs3vuWhofJlp6_9hashbrown3rawINtB6_8RawTableTINtNtCs2t38KIHyE4j_13rustc_type_ir9canonical19CanonicalQueryInputNtNtNtCsbnIUe8x9cNz_12rustc_middle2ty7context6TyCtxtINtB1X_11ParamEnvAndINtNtNtNtB1Z_6traits5query7type_op9NormalizeINtNtBV_7ty_kind5FnSigB1T_EEEETINtNtNtB1Z_5query5erase6ErasedAhj8_ENtNtNtCshF5AtUv7kVK_18rustc_query_system9dep_graph5graph12DepNodeIndexEEE14reserve_rehashNCINvNtCsiN8jfhUhbz9_21rustc_data_structures7sharded11table_entryBQ_B4f_BQ_Es_0ECs2ERWbPTlodK_16rustc_query_impl
librustc_driver-f8caf2bfd7396df8.so:_RINvMs6_NtCs3vuWhofJlp6_9hashbrown3rawINtB6_8RawTableTINtNtCs2t38KIHyE4j_13rustc_type_ir9canonical19CanonicalQueryInputNtNtNtCsbnIUe8x9cNz_12rustc_middle2ty7context6TyCtxtINtB1X_11ParamEnvAndINtNtNtNtB1Z_6traits5query7type_op9NormalizeNtB1X_2TyEEEINtNtNtCshF5AtUv7kVK_18rustc_query_system5query8plumbing11QueryResultNtB42_18QueryStackDeferredEEE14reserve_rehashNCINvB40_17try_execute_queryINtCs2ERWbPTlodK_16rustc_query_impl13DynamicConfigINtNtB42_6caches12DefaultCacheBQ_INtNtNtB1Z_5query5erase6ErasedAhj8_EEKb0_KB8c_KB8c_ENtNtB6i_8plumbing9QueryCtxtKB8c_E0EB6i_
librustc_driver-f8caf2bfd7396df8.so:_RINvMs6_NtCs3vuWhofJlp6_9hashbrown3rawINtB6_8RawTableTINtNtCs2t38KIHyE4j_13rustc_type_ir9canonical19CanonicalQueryInputNtNtNtCsbnIUe8x9cNz_12rustc_middle2ty7context6TyCtxtINtB1X_11ParamEnvAndINtNtNtNtB1Z_6traits5query7type_op9NormalizeNtB1X_2TyEEEINtNtNtCshF5AtUv7kVK_18rustc_query_system5query8plumbing11QueryResultNtB42_18QueryStackDeferredEEE14reserve_rehashNCINvB40_17try_execute_queryINtCs2ERWbPTlodK_16rustc_query_impl13DynamicConfigINtNtB42_6caches12DefaultCacheBQ_INtNtNtB1Z_5query5erase6ErasedAhj8_EEKb0_KB8c_KB8c_ENtNtB6i_8plumbing9QueryCtxtKb1_E0EB6i_
librustc_driver-f8caf2bfd7396df8.so:_RINvMs6_NtCs3vuWhofJlp6_9hashbrown3rawINtB6_8RawTableTINtNtCs2t38KIHyE4j_13rustc_type_ir9canonical19CanonicalQueryInputNtNtNtCsbnIUe8x9cNz_12rustc_middle2ty7context6TyCtxtINtB1X_11ParamEnvAndINtNtNtNtB1Z_6traits5query7type_op9NormalizeNtB1X_2TyEEETINtNtNtB1Z_5query5erase6ErasedAhj8_ENtNtNtCshF5AtUv7kVK_18rustc_query_system9dep_graph5graph12DepNodeIndexEEE14reserve_rehashNCINvNtCsiN8jfhUhbz9_21rustc_data_structures7sharded11table_entryBQ_B3X_BQ_Es_0ECs2ERWbPTlodK_16rustc_query_impl
librustc_driver-f8caf2bfd7396df8.so:_RINvMs6_NtCs3vuWhofJlp6_9hashbrown3rawINtB6_8RawTableTINtNtCs2t38KIHyE4j_13rustc_type_ir9canonical19CanonicalQueryInputNtNtNtCsbnIUe8x9cNz_12rustc_middle2ty7context6TyCtxtINtB1X_11ParamEnvAndINtNtNtNtB1Z_6traits5query7type_op9NormalizeNtNtB1X_9predicate6ClauseEEEINtNtNtCshF5AtUv7kVK_18rustc_query_system5query8plumbing11QueryResultNtB4i_18QueryStackDeferredEEE14reserve_rehashNCINvB4g_17try_execute_queryINtCs2ERWbPTlodK_16rustc_query_impl13DynamicConfigINtNtB4i_6caches12DefaultCacheBQ_INtNtNtB1Z_5query5erase6ErasedAhj8_EEKb0_KB8s_KB8s_ENtNtB6y_8plumbing9QueryCtxtKB8s_E0EB6y_
librustc_driver-f8caf2bfd7396df8.so:_RINvMs6_NtCs3vuWhofJlp6_9hashbrown3rawINtB6_8RawTableTINtNtCs2t38KIHyE4j_13rustc_type_ir9canonical19CanonicalQueryInputNtNtNtCsbnIUe8x9cNz_12rustc_middle2ty7context6TyCtxtINtB1X_11ParamEnvAndINtNtNtNtB1Z_6traits5query7type_op9NormalizeNtNtB1X_9predicate6ClauseEEEINtNtNtCshF5AtUv7kVK_18rustc_query_system5query8plumbing11QueryResultNtB4i_18QueryStackDeferredEEE14reserve_rehashNCINvB4g_17try_execute_queryINtCs2ERWbPTlodK_16rustc_query_impl13DynamicConfigINtNtB4i_6caches12DefaultCacheBQ_INtNtNtB1Z_5query5erase6ErasedAhj8_EEKb0_KB8s_KB8s_ENtNtB6y_8plumbing9QueryCtxtKb1_E0EB6y_
librustc_driver-f8caf2bfd7396df8.so:_RINvMs6_NtCs3vuWhofJlp6_9hashbrown3rawINtB6_8RawTableTINtNtCs2t38KIHyE4j_13rustc_type_ir9canonical19CanonicalQueryInputNtNtNtCsbnIUe8x9cNz_12rustc_middle2ty7context6TyCtxtINtB1X_11ParamEnvAndINtNtNtNtB1Z_6traits5query7type_op9NormalizeNtNtB1X_9predicate6ClauseEEETINtNtNtB1Z_5query5erase6ErasedAhj8_ENtNtNtCshF5AtUv7kVK_18rustc_query_system9dep_graph5graph12DepNodeIndexEEE14reserve_rehashNCINvNtCsiN8jfhUhbz9_21rustc_data_structures7sharded11table_entryBQ_B4d_BQ_Es_0ECs2ERWbPTlodK_16rustc_query_impl
librustc_driver-f8caf2bfd7396df8.so:_RINvMs6_NtCs3vuWhofJlp6_9hashbrown3rawINtB6_8RawTableTINtNtCs2t38KIHyE4j_13rustc_type_ir9canonical19CanonicalQueryInputNtNtNtCsbnIUe8x9cNz_12rustc_middle2ty7context6TyCtxtINtB1X_11ParamEnvAndNtNtB1X_9predicate9PredicateEEINtNtNtCshF5AtUv7kVK_18rustc_query_system5query8plumbing11QueryResultNtB3C_18QueryStackDeferredEEE14reserve_rehashNCINvB3A_17try_execute_queryINtCs2ERWbPTlodK_16rustc_query_impl13DynamicConfigINtNtB3C_6caches12DefaultCacheBQ_INtNtNtB1Z_5query5erase6ErasedAhj2_EEKb0_KB7M_KB7M_ENtNtB5S_8plumbing9QueryCtxtKB7M_E0EB5S_
librustc_driver-f8caf2bfd7396df8.so:_RINvMs6_NtCs3vuWhofJlp6_9hashbrown3rawINtB6_8RawTableTINtNtCs2t38KIHyE4j_13rustc_type_ir9canonical19CanonicalQueryInputNtNtNtCsbnIUe8x9cNz_12rustc_middle2ty7context6TyCtxtINtB1X_11ParamEnvAndNtNtB1X_9predicate9PredicateEEINtNtNtCshF5AtUv7kVK_18rustc_query_system5query8plumbing11QueryResultNtB3C_18QueryStackDeferredEEE14reserve_rehashNCINvB3A_17try_execute_queryINtCs2ERWbPTlodK_16rustc_query_impl13DynamicConfigINtNtB3C_6caches12DefaultCacheBQ_INtNtNtB1Z_5query5erase6ErasedAhj2_EEKb0_KB7M_KB7M_ENtNtB5S_8plumbing9QueryCtxtKb1_E0EB5S_
librustc_driver-f8caf2bfd7396df8.so:_RINvMs6_NtCs3vuWhofJlp6_9hashbrown3rawINtB6_8RawTableTINtNtCs2t38KIHyE4j_13rustc_type_ir9canonical19CanonicalQueryInputNtNtNtCsbnIUe8x9cNz_12rustc_middle2ty7context6TyCtxtINtB1X_11ParamEnvAndNtNtB1X_9predicate9PredicateEETINtNtNtB1Z_5query5erase6ErasedAhj2_ENtNtNtCshF5AtUv7kVK_18rustc_query_system9dep_graph5graph12DepNodeIndexEEE14reserve_rehashNCINvNtCsiN8jfhUhbz9_21rustc_data_structures7sharded11table_entryBQ_B3x_BQ_Es_0ECs2ERWbPTlodK_16rustc_query_impl
librustc_driver-f8caf2bfd7396df8.so:_RINvMs6_NtCs3vuWhofJlp6_9hashbrown3rawINtB6_8RawTableTINtNtCs2t38KIHyE4j_13rustc_type_ir9canonical19CanonicalQueryInputNtNtNtCsbnIUe8x9cNz_12rustc_middle2ty7context6TyCtxtINtB1X_11ParamEnvAndNtNtNtB1Z_6traits5query20MethodAutoderefStepsEEINtNtNtCshF5AtUv7kVK_18rustc_query_system5query8plumbing11QueryResultNtB3T_18QueryStackDeferredEEE14reserve_rehashNCINvB3R_17try_execute_queryINtCs2ERWbPTlodK_16rustc_query_impl13DynamicConfigINtNtB3T_6caches12DefaultCacheBQ_INtNtNtB1Z_5query5erase6ErasedAhj20_EEKb0_KB84_KB84_ENtNtB69_8plumbing9QueryCtxtKB84_E0EB69_
librustc_driver-f8caf2bfd7396df8.so:_RINvMs6_NtCs3vuWhofJlp6_9hashbrown3rawINtB6_8RawTableTINtNtCs2t38KIHyE4j_13rustc_type_ir9canonical19CanonicalQueryInputNtNtNtCsbnIUe8x9cNz_12rustc_middle2ty7context6TyCtxtINtB1X_11ParamEnvAndNtNtNtB1Z_6traits5query20MethodAutoderefStepsEEINtNtNtCshF5AtUv7kVK_18rustc_query_system5query8plumbing11QueryResultNtB3T_18QueryStackDeferredEEE14reserve_rehashNCINvB3R_17try_execute_queryINtCs2ERWbPTlodK_16rustc_query_impl13DynamicConfigINtNtB3T_6caches12DefaultCacheBQ_INtNtNtB1Z_5query5erase6ErasedAhj20_EEKb0_KB84_KB84_ENtNtB69_8plumbing9QueryCtxtKb1_E0EB69_
librustc_driver-f8caf2bfd7396df8.so:_RINvMs6_NtCs3vuWhofJlp6_9hashbrown3rawINtB6_8RawTableTINtNtCs2t38KIHyE4j_13rustc_type_ir9canonical19CanonicalQueryInputNtNtNtCsbnIUe8x9cNz_12rustc_middle2ty7context6TyCtxtINtB1X_11ParamEnvAndNtNtNtB1Z_6traits5query20MethodAutoderefStepsEETINtNtNtB1Z_5query5erase6ErasedAhj20_ENtNtNtCshF5AtUv7kVK_18rustc_query_system9dep_graph5graph12DepNodeIndexEEE14reserve_rehashNCINvNtCsiN8jfhUhbz9_21rustc_data_structures7sharded11table_entryBQ_B3O_BQ_Es_0ECs2ERWbPTlodK_16rustc_query_impl
librustc_driver-f8caf2bfd7396df8.so:_RINvMs6_NtCs3vuWhofJlp6_9hashbrown3rawINtB6_8RawTableTINtNtCs2t38KIHyE4j_13rustc_type_ir9canonical19CanonicalQueryInputNtNtNtCsbnIUe8x9cNz_12rustc_middle2ty7context6TyCtxtINtB1X_11ParamEnvAndNtNtNtNtB1Z_6traits5query7type_op14DropckOutlivesEEINtNtNtCshF5AtUv7kVK_18rustc_query_system5query8plumbing11QueryResultNtB3X_18QueryStackDeferredEEE14reserve_rehashNCINvB3V_17try_execute_queryINtCs2ERWbPTlodK_16rustc_query_impl13DynamicConfigINtNtB3X_6caches12DefaultCacheBQ_INtNtNtB1Z_5query5erase6ErasedAhj8_EEKb0_KB87_KB87_ENtNtB6d_8plumbing9QueryCtxtKB87_E0EB6d_
librustc_driver-f8caf2bfd7396df8.so:_RINvMs6_NtCs3vuWhofJlp6_9hashbrown3rawINtB6_8RawTableTINtNtCs2t38KIHyE4j_13rustc_type_ir9canonical19CanonicalQueryInputNtNtNtCsbnIUe8x9cNz_12rustc_middle2ty7context6TyCtxtINtB1X_11ParamEnvAndNtNtNtNtB1Z_6traits5query7type_op14DropckOutlivesEEINtNtNtCshF5AtUv7kVK_18rustc_query_system5query8plumbing11QueryResultNtB3X_18QueryStackDeferredEEE14reserve_rehashNCINvB3V_17try_execute_queryINtCs2ERWbPTlodK_16rustc_query_impl13DynamicConfigINtNtB3X_6caches12DefaultCacheBQ_INtNtNtB1Z_5query5erase6ErasedAhj8_EEKb0_KB87_KB87_ENtNtB6d_8plumbing9QueryCtxtKb1_E0EB6d_
librustc_driver-f8caf2bfd7396df8.so:_RINvMs6_NtCs3vuWhofJlp6_9hashbrown3rawINtB6_8RawTableTINtNtCs2t38KIHyE4j_13rustc_type_ir9canonical19CanonicalQueryInputNtNtNtCsbnIUe8x9cNz_12rustc_middle2ty7context6TyCtxtINtB1X_11ParamEnvAndNtNtNtNtB1Z_6traits5query7type_op14DropckOutlivesEETINtNtNtB1Z_5query5erase6ErasedAhj8_ENtNtNtCshF5AtUv7kVK_18rustc_query_system9dep_graph5graph12DepNodeIndexEEE14reserve_rehashNCINvNtCsiN8jfhUhbz9_21rustc_data_structures7sharded11table_entryBQ_B3S_BQ_Es_0ECs2ERWbPTlodK_16rustc_query_impl
librustc_driver-f8caf2bfd7396df8.so:_RINvMs6_NtCs3vuWhofJlp6_9hashbrown3rawINtB6_8RawTableTINtNtCs2t38KIHyE4j_13rustc_type_ir9canonical19CanonicalQueryInputNtNtNtCsbnIUe8x9cNz_12rustc_middle2ty7context6TyCtxtINtB1X_11ParamEnvAndNtNtNtNtB1Z_6traits5query7type_op14ProvePredicateEEINtNtNtCshF5AtUv7kVK_18rustc_query_system5query8plumbing11QueryResultNtB3X_18QueryStackDeferredEEE14reserve_rehashNCINvB3V_17try_execute_queryINtCs2ERWbPTlodK_16rustc_query_impl13DynamicConfigINtNtB3X_6caches12DefaultCacheBQ_INtNtNtB1Z_5query5erase6ErasedAhj8_EEKb0_KB87_KB87_ENtNtB6d_8plumbing9QueryCtxtKB87_E0EB6d_
librustc_driver-f8caf2bfd7396df8.so:_RINvMs6_NtCs3vuWhofJlp6_9hashbrown3rawINtB6_8RawTableTINtNtCs2t38KIHyE4j_13rustc_type_ir9canonical19CanonicalQueryInputNtNtNtCsbnIUe8x9cNz_12rustc_middle2ty7context6TyCtxtINtB1X_11ParamEnvAndNtNtNtNtB1Z_6traits5query7type_op14ProvePredicateEEINtNtNtCshF5AtUv7kVK_18rustc_query_system5query8plumbing11QueryResultNtB3X_18QueryStackDeferredEEE14reserve_rehashNCINvB3V_17try_execute_queryINtCs2ERWbPTlodK_16rustc_query_impl13DynamicConfigINtNtB3X_6caches12DefaultCacheBQ_INtNtNtB1Z_5query5erase6ErasedAhj8_EEKb0_KB87_KB87_ENtNtB6d_8plumbing9QueryCtxtKb1_E0EB6d_
librustc_driver-f8caf2bfd7396df8.so:_RINvMs6_NtCs3vuWhofJlp6_9hashbrown3rawINtB6_8RawTableTINtNtCs2t38KIHyE4j_13rustc_type_ir9canonical19CanonicalQueryInputNtNtNtCsbnIUe8x9cNz_12rustc_middle2ty7context6TyCtxtINtB1X_11ParamEnvAndNtNtNtNtB1Z_6traits5query7type_op14ProvePredicateEETINtNtNtB1Z_5query5erase6ErasedAhj8_ENtNtNtCshF5AtUv7kVK_18rustc_query_system9dep_graph5graph12DepNodeIndexEEE14reserve_rehashNCINvNtCsiN8jfhUhbz9_21rustc_data_structures7sharded11table_entryBQ_B3S_BQ_Es_0ECs2ERWbPTlodK_16rustc_query_impl
librustc_driver-f8caf2bfd7396df8.so:_RINvMs6_NtCs3vuWhofJlp6_9hashbrown3rawINtB6_8RawTableTINtNtCs2t38KIHyE4j_13rustc_type_ir9canonical19CanonicalQueryInputNtNtNtCsbnIUe8x9cNz_12rustc_middle2ty7context6TyCtxtINtB1X_11ParamEnvAndNtNtNtNtB1Z_6traits5query7type_op15AscribeUserTypeEEINtNtNtCshF5AtUv7kVK_18rustc_query_system5query8plumbing11QueryResultNtB3Y_18QueryStackDeferredEEE14reserve_rehashNCINvB3W_17try_execute_queryINtCs2ERWbPTlodK_16rustc_query_impl13DynamicConfigINtNtB3Y_6caches12DefaultCacheBQ_INtNtNtB1Z_5query5erase6ErasedAhj8_EEKb0_KB88_KB88_ENtNtB6e_8plumbing9QueryCtxtKB88_E0EB6e_
librustc_driver-f8caf2bfd7396df8.so:_RINvMs6_NtCs3vuWhofJlp6_9hashbrown3rawINtB6_8RawTableTINtNtCs2t38KIHyE4j_13rustc_type_ir9canonical19CanonicalQueryInputNtNtNtCsbnIUe8x9cNz_12rustc_middle2ty7context6TyCtxtINtB1X_11ParamEnvAndNtNtNtNtB1Z_6traits5query7type_op15AscribeUserTypeEEINtNtNtCshF5AtUv7kVK_18rustc_query_system5query8plumbing11QueryResultNtB3Y_18QueryStackDeferredEEE14reserve_rehashNCINvB3W_17try_execute_queryINtCs2ERWbPTlodK_16rustc_query_impl13DynamicConfigINtNtB3Y_6caches12DefaultCacheBQ_INtNtNtB1Z_5query5erase6ErasedAhj8_EEKb0_KB88_KB88_ENtNtB6e_8plumbing9QueryCtxtKb1_E0EB6e_
librustc_driver-f8caf2bfd7396df8.so:_RINvMs6_NtCs3vuWhofJlp6_9hashbrown3rawINtB6_8RawTableTINtNtCs2t38KIHyE4j_13rustc_type_ir9canonical19CanonicalQueryInputNtNtNtCsbnIUe8x9cNz_12rustc_middle2ty7context6TyCtxtINtB1X_11ParamEnvAndNtNtNtNtB1Z_6traits5query7type_op15AscribeUserTypeEETINtNtNtB1Z_5query5erase6ErasedAhj8_ENtNtNtCshF5AtUv7kVK_18rustc_query_system9dep_graph5graph12DepNodeIndexEEE14reserve_rehashNCINvNtCsiN8jfhUhbz9_21rustc_data_structures7sharded11table_entryBQ_B3T_BQ_Es_0ECs2ERWbPTlodK_16rustc_query_impl
librustc_driver-f8caf2bfd7396df8.so:_RINvMs6_NtCs3vuWhofJlp6_9hashbrown3rawINtB6_8RawTableTINtNtCs2t38KIHyE4j_13rustc_type_ir9canonical19CanonicalQueryInputNtNtNtCsbnIUe8x9cNz_12rustc_middle2ty7context6TyCtxtINtNtBV_5solve10QueryInputB1T_NtNtB1X_9predicate9PredicateEEINtNtNtCshF5AtUv7kVK_18rustc_query_system5query8plumbing11QueryResultNtB3M_18QueryStackDeferredEEE14reserve_rehashNCINvB3K_17try_execute_queryINtCs2ERWbPTlodK_16rustc_query_impl13DynamicConfigINtNtB3M_6caches12DefaultCacheBQ_INtNtNtB1Z_5query5erase6ErasedAhj30_EEKb0_KB7X_KB7X_ENtNtB62_8plumbing9QueryCtxtKB7X_E0EB62_
librustc_driver-f8caf2bfd7396df8.so:_RINvMs6_NtCs3vuWhofJlp6_9hashbrown3rawINtB6_8RawTableTINtNtCs2t38KIHyE4j_13rustc_type_ir9canonical19CanonicalQueryInputNtNtNtCsbnIUe8x9cNz_12rustc_middle2ty7context6TyCtxtINtNtBV_5solve10QueryInputB1T_NtNtB1X_9predicate9PredicateEEINtNtNtCshF5AtUv7kVK_18rustc_query_system5query8plumbing11QueryResultNtB3M_18QueryStackDeferredEEE14reserve_rehashNCINvB3K_17try_execute_queryINtCs2ERWbPTlodK_16rustc_query_impl13DynamicConfigINtNtB3M_6caches12DefaultCacheBQ_INtNtNtB1Z_5query5erase6ErasedAhj30_EEKb0_KB7X_KB7X_ENtNtB62_8plumbing9QueryCtxtKb1_E0EB62_
librustc_driver-f8caf2bfd7396df8.so:_RINvMs6_NtCs3vuWhofJlp6_9hashbrown3rawINtB6_8RawTableTINtNtCs2t38KIHyE4j_13rustc_type_ir9canonical19CanonicalQueryInputNtNtNtCsbnIUe8x9cNz_12rustc_middle2ty7context6TyCtxtINtNtBV_5solve10QueryInputB1T_NtNtB1X_9predicate9PredicateEETINtNtNtB1Z_5query5erase6ErasedAhj30_ENtNtNtCshF5AtUv7kVK_18rustc_query_system9dep_graph5graph12DepNodeIndexEEE14reserve_rehashNCINvNtCsiN8jfhUhbz9_21rustc_data_structures7sharded11table_entryBQ_B3H_BQ_Es_0ECs2ERWbPTlodK_16rustc_query_impl
librustc_driver-f8caf2bfd7396df8.so:_RINvMs6_NtCs3vuWhofJlp6_9hashbrown3rawINtB6_8RawTableTINtNtCs2t38KIHyE4j_13rustc_type_ir9predicate8TraitRefNtNtNtCsbnIUe8x9cNz_12rustc_middle2ty7context6TyCtxtEINtNtNtCshF5AtUv7kVK_18rustc_query_system5query8plumbing11QueryResultNtB2D_18QueryStackDeferredEEE14reserve_rehashNCINvB2B_17try_execute_queryINtCs2ERWbPTlodK_16rustc_query_impl13DynamicConfigINtNtB2D_6caches12DefaultCacheBQ_INtNtNtB1N_5query5erase6ErasedAhj10_EEKb0_KB6O_KB6O_ENtNtB4T_8plumbing9QueryCtxtKB6O_E0EB4T_
librustc_driver-f8caf2bfd7396df8.so:_RINvMs6_NtCs3vuWhofJlp6_9hashbrown3rawINtB6_8RawTableTINtNtCs2t38KIHyE4j_13rustc_type_ir9predicate8TraitRefNtNtNtCsbnIUe8x9cNz_12rustc_middle2ty7context6TyCtxtEINtNtNtCshF5AtUv7kVK_18rustc_query_system5query8plumbing11QueryResultNtB2D_18QueryStackDeferredEEE14reserve_rehashNCINvB2B_17try_execute_queryINtCs2ERWbPTlodK_16rustc_query_impl13DynamicConfigINtNtB2D_6caches12DefaultCacheBQ_INtNtNtB1N_5query5erase6ErasedAhj10_EEKb0_KB6O_KB6O_ENtNtB4T_8plumbing9QueryCtxtKb1_E0EB4T_
librustc_driver-f8caf2bfd7396df8.so:_RINvMs6_NtCs3vuWhofJlp6_9hashbrown3rawINtB6_8RawTableTINtNtCs2t38KIHyE4j_13rustc_type_ir9predicate8TraitRefNtNtNtCsbnIUe8x9cNz_12rustc_middle2ty7context6TyCtxtEINtNtNtCshF5AtUv7kVK_18rustc_query_system5query8plumbing11QueryResultNtB2D_18QueryStackDeferredEEE14reserve_rehashNCINvB2B_17try_execute_queryINtCs2ERWbPTlodK_16rustc_query_impl13DynamicConfigINtNtB2D_6caches12DefaultCacheBQ_INtNtNtB1N_5query5erase6ErasedAhj8_EEKb0_KB6N_KB6N_ENtNtB4T_8plumbing9QueryCtxtKB6N_E0EB4T_
librustc_driver-f8caf2bfd7396df8.so:_RINvMs6_NtCs3vuWhofJlp6_9hashbrown3rawINtB6_8RawTableTINtNtCs2t38KIHyE4j_13rustc_type_ir9predicate8TraitRefNtNtNtCsbnIUe8x9cNz_12rustc_middle2ty7context6TyCtxtEINtNtNtCshF5AtUv7kVK_18rustc_query_system5query8plumbing11QueryResultNtB2D_18QueryStackDeferredEEE14reserve_rehashNCINvB2B_17try_execute_queryINtCs2ERWbPTlodK_16rustc_query_impl13DynamicConfigINtNtB2D_6caches12DefaultCacheBQ_INtNtNtB1N_5query5erase6ErasedAhj8_EEKb0_KB6N_KB6N_ENtNtB4T_8plumbing9QueryCtxtKb1_E0EB4T_
librustc_driver-f8caf2bfd7396df8.so:_RINvMs6_NtCs3vuWhofJlp6_9hashbrown3rawINtB6_8RawTableTINtNtCs2t38KIHyE4j_13rustc_type_ir9predicate8TraitRefNtNtNtCsbnIUe8x9cNz_12rustc_middle2ty7context6TyCtxtETINtNtNtB1N_5query5erase6ErasedAhj10_ENtNtNtCshF5AtUv7kVK_18rustc_query_system9dep_graph5graph12DepNodeIndexEEE14reserve_rehashNCINvNtCsiN8jfhUhbz9_21rustc_data_structures7sharded11table_entryBQ_B2y_BQ_Es_0ECs2ERWbPTlodK_16rustc_query_impl
librustc_driver-f8caf2bfd7396df8.so:_RINvMs6_NtCs3vuWhofJlp6_9hashbrown3rawINtB6_8RawTableTINtNtCs2t38KIHyE4j_13rustc_type_ir9predicate8TraitRefNtNtNtCsbnIUe8x9cNz_12rustc_middle2ty7context6TyCtxtETINtNtNtB1N_5query5erase6ErasedAhj8_ENtNtNtCshF5AtUv7kVK_18rustc_query_system9dep_graph5graph12DepNodeIndexEEE14reserve_rehashNCINvNtCsiN8jfhUhbz9_21rustc_data_structures7sharded11table_entryBQ_B2y_BQ_Es_0ECs2ERWbPTlodK_16rustc_query_impl
librustc_driver-f8caf2bfd7396df8.so:_RINvMs6_NtCs3vuWhofJlp6_9hashbrown3rawINtB6_8RawTableTINtNtCs9WsFjTlRn02_4core6option6OptionNtNtCsjdyqsEEf0cE_10rustc_span6symbol6SymbolEINtNtNtCshF5AtUv7kVK_18rustc_query_system5query8plumbing11QueryResultNtB2g_18QueryStackDeferredEEE14reserve_rehashNCINvB2e_17try_execute_queryINtCs2ERWbPTlodK_16rustc_query_impl13DynamicConfigINtNtB2g_6caches12DefaultCacheBQ_INtNtNtCsbnIUe8x9cNz_12rustc_middle5query5erase6ErasedAhj0_EEKb0_KB6O_KB6O_ENtNtB4w_8plumbing9QueryCtxtKB6O_E0EB4w_
librustc_driver-f8caf2bfd7396df8.so:_RINvMs6_NtCs3vuWhofJlp6_9hashbrown3rawINtB6_8RawTableTINtNtCs9WsFjTlRn02_4core6option6OptionNtNtCsjdyqsEEf0cE_10rustc_span6symbol6SymbolEINtNtNtCshF5AtUv7kVK_18rustc_query_system5query8plumbing11QueryResultNtB2g_18QueryStackDeferredEEE14reserve_rehashNCINvB2e_17try_execute_queryINtCs2ERWbPTlodK_16rustc_query_impl13DynamicConfigINtNtB2g_6caches12DefaultCacheBQ_INtNtNtCsbnIUe8x9cNz_12rustc_middle5query5erase6ErasedAhj0_EEKb0_KB6O_KB6O_ENtNtB4w_8plumbing9QueryCtxtKb1_E0EB4w_
librustc_driver-f8caf2bfd7396df8.so:_RINvMs6_NtCs3vuWhofJlp6_9hashbrown3rawINtB6_8RawTableTINtNtCs9WsFjTlRn02_4core6option6OptionNtNtCsjdyqsEEf0cE_10rustc_span6symbol6SymbolETINtNtNtCsbnIUe8x9cNz_12rustc_middle5query5erase6ErasedAhj0_ENtNtNtCshF5AtUv7kVK_18rustc_query_system9dep_graph5graph12DepNodeIndexEEE14reserve_rehashNCINvNtCsiN8jfhUhbz9_21rustc_data_structures7sharded11table_entryBQ_B2b_BQ_Es_0ECs2ERWbPTlodK_16rustc_query_impl
librustc_driver-f8caf2bfd7396df8.so:_RINvMs6_NtCs3vuWhofJlp6_9hashbrown3rawINtB6_8RawTableTINtNtCsbnIUe8x9cNz_12rustc_middle2ty20PseudoCanonicalInputINtNtCs2t38KIHyE4j_13rustc_type_ir9predicate8TraitRefNtNtBT_7context6TyCtxtEEINtNtNtCshF5AtUv7kVK_18rustc_query_system5query8plumbing11QueryResultNtB36_18QueryStackDeferredEEE14reserve_rehashNCINvB34_17try_execute_queryINtCs2ERWbPTlodK_16rustc_query_impl13DynamicConfigINtNtB36_6caches12DefaultCacheBQ_INtNtNtBV_5query5erase6ErasedAhj10_EEKb0_KB7g_KB7g_ENtNtB5m_8plumbing9QueryCtxtKB7g_E0EB5m_
librustc_driver-f8caf2bfd7396df8.so:_RINvMs6_NtCs3vuWhofJlp6_9hashbrown3rawINtB6_8RawTableTINtNtCsbnIUe8x9cNz_12rustc_middle2ty20PseudoCanonicalInputINtNtCs2t38KIHyE4j_13rustc_type_ir9predicate8TraitRefNtNtBT_7context6TyCtxtEEINtNtNtCshF5AtUv7kVK_18rustc_query_system5query8plumbing11QueryResultNtB36_18QueryStackDeferredEEE14reserve_rehashNCINvB34_17try_execute_queryINtCs2ERWbPTlodK_16rustc_query_impl13DynamicConfigINtNtB36_6caches12DefaultCacheBQ_INtNtNtBV_5query5erase6ErasedAhj10_EEKb0_KB7g_KB7g_ENtNtB5m_8plumbing9QueryCtxtKb1_E0EB5m_
librustc_driver-f8caf2bfd7396df8.so:_RINvMs6_NtCs3vuWhofJlp6_9hashbrown3rawINtB6_8RawTableTINtNtCsbnIUe8x9cNz_12rustc_middle2ty20PseudoCanonicalInputINtNtCs2t38KIHyE4j_13rustc_type_ir9predicate8TraitRefNtNtBT_7context6TyCtxtEETINtNtNtBV_5query5erase6ErasedAhj10_ENtNtNtCshF5AtUv7kVK_18rustc_query_system9dep_graph5graph12DepNodeIndexEEE14reserve_rehashNCINvNtCsiN8jfhUhbz9_21rustc_data_structures7sharded11table_entryBQ_B31_BQ_Es_0ECs2ERWbPTlodK_16rustc_query_impl
librustc_driver-f8caf2bfd7396df8.so:_RINvMs6_NtCs3vuWhofJlp6_9hashbrown3rawINtB6_8RawTableTINtNtCsbnIUe8x9cNz_12rustc_middle2ty20PseudoCanonicalInputNtBT_2TyEINtNtNtCshF5AtUv7kVK_18rustc_query_system5query8plumbing11QueryResultNtB20_18QueryStackDeferredEEE14reserve_rehashNCINvB1Y_17try_execute_queryINtCs2ERWbPTlodK_16rustc_query_impl13DynamicConfigINtNtB20_6caches12DefaultCacheBQ_INtNtNtBV_5query5erase6ErasedAhj10_EEKb0_Kb1_KB6a_ENtNtB4g_8plumbing9QueryCtxtKB6a_E0EB4g_
librustc_driver-f8caf2bfd7396df8.so:_RINvMs6_NtCs3vuWhofJlp6_9hashbrown3rawINtB6_8RawTableTINtNtCsbnIUe8x9cNz_12rustc_middle2ty20PseudoCanonicalInputNtBT_2TyEINtNtNtCshF5AtUv7kVK_18rustc_query_system5query8plumbing11QueryResultNtB20_18QueryStackDeferredEEE14reserve_rehashNCINvB1Y_17try_execute_queryINtCs2ERWbPTlodK_16rustc_query_impl13DynamicConfigINtNtB20_6caches12DefaultCacheBQ_INtNtNtBV_5query5erase6ErasedAhj10_EEKb0_Kb1_KB6a_ENtNtB4g_8plumbing9QueryCtxtKB6e_E0EB4g_
librustc_driver-f8caf2bfd7396df8.so:_RINvMs6_NtCs3vuWhofJlp6_9hashbrown3rawINtB6_8RawTableTINtNtCsbnIUe8x9cNz_12rustc_middle2ty20PseudoCanonicalInputNtBT_2TyEINtNtNtCshF5AtUv7kVK_18rustc_query_system5query8plumbing11QueryResultNtB20_18QueryStackDeferredEEE14reserve_rehashNCINvB1Y_17try_execute_queryINtCs2ERWbPTlodK_16rustc_query_impl13DynamicConfigINtNtB20_6caches12DefaultCacheBQ_INtNtNtBV_5query5erase6ErasedAhj1_EEKb0_KB69_KB69_ENtNtB4g_8plumbing9QueryCtxtKB69_E0EB4g_
librustc_driver-f8caf2bfd7396df8.so:_RINvMs6_NtCs3vuWhofJlp6_9hashbrown3rawINtB6_8RawTableTINtNtCsbnIUe8x9cNz_12rustc_middle2ty20PseudoCanonicalInputNtBT_2TyEINtNtNtCshF5AtUv7kVK_18rustc_query_system5query8plumbing11QueryResultNtB20_18QueryStackDeferredEEE14reserve_rehashNCINvB1Y_17try_execute_queryINtCs2ERWbPTlodK_16rustc_query_impl13DynamicConfigINtNtB20_6caches12DefaultCacheBQ_INtNtNtBV_5query5erase6ErasedAhj1_EEKb0_KB69_KB69_ENtNtB4g_8plumbing9QueryCtxtKb1_E0EB4g_
librustc_driver-f8caf2bfd7396df8.so:_RINvMs6_NtCs3vuWhofJlp6_9hashbrown3rawINtB6_8RawTableTINtNtCsbnIUe8x9cNz_12rustc_middle2ty20PseudoCanonicalInputNtBT_2TyEINtNtNtCshF5AtUv7kVK_18rustc_query_system5query8plumbing11QueryResultNtB20_18QueryStackDeferredEEE14reserve_rehashNCINvB1Y_17try_execute_queryINtCs2ERWbPTlodK_16rustc_query_impl13DynamicConfigINtNtB20_6caches12DefaultCacheBQ_INtNtNtBV_5query5erase6ErasedAhj8_EEKb0_KB69_KB69_ENtNtB4g_8plumbing9QueryCtxtKB69_E0EB4g_
librustc_driver-f8caf2bfd7396df8.so:_RINvMs6_NtCs3vuWhofJlp6_9hashbrown3rawINtB6_8RawTableTINtNtCsbnIUe8x9cNz_12rustc_middle2ty20PseudoCanonicalInputNtBT_2TyEINtNtNtCshF5AtUv7kVK_18rustc_query_system5query8plumbing11QueryResultNtB20_18QueryStackDeferredEEE14reserve_rehashNCINvB1Y_17try_execute_queryINtCs2ERWbPTlodK_16rustc_query_impl13DynamicConfigINtNtB20_6caches12DefaultCacheBQ_INtNtNtBV_5query5erase6ErasedAhj8_EEKb0_KB69_KB69_ENtNtB4g_8plumbing9QueryCtxtKb1_E0EB4g_
librustc_driver-f8caf2bfd7396df8.so:_RINvMs6_NtCs3vuWhofJlp6_9hashbrown3rawINtB6_8RawTableTINtNtCsbnIUe8x9cNz_12rustc_middle2ty20PseudoCanonicalInputNtBT_2TyETINtNtNtBV_5query5erase6ErasedAhj10_ENtNtNtCshF5AtUv7kVK_18rustc_query_system9dep_graph5graph12DepNodeIndexEEE14reserve_rehashNCINvNtCsiN8jfhUhbz9_21rustc_data_structures7sharded11table_entryBQ_B1V_BQ_Es_0ECs2ERWbPTlodK_16rustc_query_impl
librustc_driver-f8caf2bfd7396df8.so:_RINvMs6_NtCs3vuWhofJlp6_9hashbrown3rawINtB6_8RawTableTINtNtCsbnIUe8x9cNz_12rustc_middle2ty20PseudoCanonicalInputNtBT_2TyETINtNtNtBV_5query5erase6ErasedAhj1_ENtNtNtCshF5AtUv7kVK_18rustc_query_system9dep_graph5graph12DepNodeIndexEEE14reserve_rehashNCINvNtCsiN8jfhUhbz9_21rustc_data_structures7sharded11table_entryBQ_B1V_BQ_Es_0ECs2ERWbPTlodK_16rustc_query_impl
librustc_driver-f8caf2bfd7396df8.so:_RINvMs6_NtCs3vuWhofJlp6_9hashbrown3rawINtB6_8RawTableTINtNtCsbnIUe8x9cNz_12rustc_middle2ty20PseudoCanonicalInputNtBT_2TyETINtNtNtBV_5query5erase6ErasedAhj8_ENtNtNtCshF5AtUv7kVK_18rustc_query_system9dep_graph5graph12DepNodeIndexEEE14reserve_rehashNCINvNtCsiN8jfhUhbz9_21rustc_data_structures7sharded11table_entryBQ_B1V_BQ_Es_0ECs2ERWbPTlodK_16rustc_query_impl
librustc_driver-f8caf2bfd7396df8.so:_RINvMs6_NtCs3vuWhofJlp6_9hashbrown3rawINtB6_8RawTableTINtNtCsbnIUe8x9cNz_12rustc_middle2ty20PseudoCanonicalInputNtNtBT_12generic_args10GenericArgEINtNtNtCshF5AtUv7kVK_18rustc_query_system5query8plumbing11QueryResultNtB2p_18QueryStackDeferredEEE14reserve_rehashNCINvB2n_17try_execute_queryINtCs2ERWbPTlodK_16rustc_query_impl13DynamicConfigINtNtB2p_6caches12DefaultCacheBQ_INtNtNtBV_5query5erase6ErasedAhj8_EEKb0_KB6y_KB6y_ENtNtB4F_8plumbing9QueryCtxtKB6y_E0EB4F_
librustc_driver-f8caf2bfd7396df8.so:_RINvMs6_NtCs3vuWhofJlp6_9hashbrown3rawINtB6_8RawTableTINtNtCsbnIUe8x9cNz_12rustc_middle2ty20PseudoCanonicalInputNtNtBT_12generic_args10GenericArgEINtNtNtCshF5AtUv7kVK_18rustc_query_system5query8plumbing11QueryResultNtB2p_18QueryStackDeferredEEE14reserve_rehashNCINvB2n_17try_execute_queryINtCs2ERWbPTlodK_16rustc_query_impl13DynamicConfigINtNtB2p_6caches12DefaultCacheBQ_INtNtNtBV_5query5erase6ErasedAhj8_EEKb0_KB6y_KB6y_ENtNtB4F_8plumbing9QueryCtxtKb1_E0EB4F_
librustc_driver-f8caf2bfd7396df8.so:_RINvMs6_NtCs3vuWhofJlp6_9hashbrown3rawINtB6_8RawTableTINtNtCsbnIUe8x9cNz_12rustc_middle2ty20PseudoCanonicalInputNtNtBT_12generic_args10GenericArgETINtNtNtBV_5query5erase6ErasedAhj8_ENtNtNtCshF5AtUv7kVK_18rustc_query_system9dep_graph5graph12DepNodeIndexEEE14reserve_rehashNCINvNtCsiN8jfhUhbz9_21rustc_data_structures7sharded11table_entryBQ_B2k_BQ_Es_0ECs2ERWbPTlodK_16rustc_query_impl
librustc_driver-f8caf2bfd7396df8.so:_RINvMs6_NtCs3vuWhofJlp6_9hashbrown3rawINtB6_8RawTableTINtNtCsbnIUe8x9cNz_12rustc_middle2ty20PseudoCanonicalInputNtNtNtBV_3mir9interpret8GlobalIdEINtNtNtCshF5AtUv7kVK_18rustc_query_system5query8plumbing11QueryResultNtB2o_18QueryStackDeferredEEE14reserve_rehashNCINvB2m_17try_execute_queryINtCs2ERWbPTlodK_16rustc_query_impl13DynamicConfigINtNtB2o_6caches12DefaultCacheBQ_INtNtNtBV_5query5erase6ErasedAhj10_EEKb0_KB6y_KB6y_ENtNtB4E_8plumbing9QueryCtxtKB6y_E0EB4E_
librustc_driver-f8caf2bfd7396df8.so:_RINvMs6_NtCs3vuWhofJlp6_9hashbrown3rawINtB6_8RawTableTINtNtCsbnIUe8x9cNz_12rustc_middle2ty20PseudoCanonicalInputNtNtNtBV_3mir9interpret8GlobalIdEINtNtNtCshF5AtUv7kVK_18rustc_query_system5query8plumbing11QueryResultNtB2o_18QueryStackDeferredEEE14reserve_rehashNCINvB2m_17try_execute_queryINtCs2ERWbPTlodK_16rustc_query_impl13DynamicConfigINtNtB2o_6caches12DefaultCacheBQ_INtNtNtBV_5query5erase6ErasedAhj10_EEKb0_KB6y_KB6y_ENtNtB4E_8plumbing9QueryCtxtKb1_E0EB4E_
librustc_driver-f8caf2bfd7396df8.so:_RINvMs6_NtCs3vuWhofJlp6_9hashbrown3rawINtB6_8RawTableTINtNtCsbnIUe8x9cNz_12rustc_middle2ty20PseudoCanonicalInputNtNtNtBV_3mir9interpret8GlobalIdEINtNtNtCshF5AtUv7kVK_18rustc_query_system5query8plumbing11QueryResultNtB2o_18QueryStackDeferredEEE14reserve_rehashNCINvB2m_17try_execute_queryINtCs2ERWbPTlodK_16rustc_query_impl13DynamicConfigINtNtB2o_6caches12DefaultCacheBQ_INtNtNtBV_5query5erase6ErasedAhj18_EEKb0_KB6y_KB6y_ENtNtB4E_8plumbing9QueryCtxtKB6y_E0EB4E_
librustc_driver-f8caf2bfd7396df8.so:_RINvMs6_NtCs3vuWhofJlp6_9hashbrown3rawINtB6_8RawTableTINtNtCsbnIUe8x9cNz_12rustc_middle2ty20PseudoCanonicalInputNtNtNtBV_3mir9interpret8GlobalIdEINtNtNtCshF5AtUv7kVK_18rustc_query_system5query8plumbing11QueryResultNtB2o_18QueryStackDeferredEEE14reserve_rehashNCINvB2m_17try_execute_queryINtCs2ERWbPTlodK_16rustc_query_impl13DynamicConfigINtNtB2o_6caches12DefaultCacheBQ_INtNtNtBV_5query5erase6ErasedAhj18_EEKb0_KB6y_KB6y_ENtNtB4E_8plumbing9QueryCtxtKb1_E0EB4E_
librustc_driver-f8caf2bfd7396df8.so:_RINvMs6_NtCs3vuWhofJlp6_9hashbrown3rawINtB6_8RawTableTINtNtCsbnIUe8x9cNz_12rustc_middle2ty20PseudoCanonicalInputNtNtNtBV_3mir9interpret8GlobalIdEINtNtNtCshF5AtUv7kVK_18rustc_query_system5query8plumbing11QueryResultNtB2o_18QueryStackDeferredEEE14reserve_rehashNCINvB2m_17try_execute_queryINtCs2ERWbPTlodK_16rustc_query_impl13DynamicConfigINtNtB2o_6caches12DefaultCacheBQ_INtNtNtBV_5query5erase6ErasedAhj18_EEKb0_Kb1_KB6y_ENtNtB4E_8plumbing9QueryCtxtKB6C_E0EB4E_
librustc_driver-f8caf2bfd7396df8.so:_RINvMs6_NtCs3vuWhofJlp6_9hashbrown3rawINtB6_8RawTableTINtNtCsbnIUe8x9cNz_12rustc_middle2ty20PseudoCanonicalInputNtNtNtBV_3mir9interpret8GlobalIdEINtNtNtCshF5AtUv7kVK_18rustc_query_system5query8plumbing11QueryResultNtB2o_18QueryStackDeferredEEE14reserve_rehashNCINvB2m_17try_execute_queryINtCs2ERWbPTlodK_16rustc_query_impl13DynamicConfigINtNtB2o_6caches12DefaultCacheBQ_INtNtNtBV_5query5erase6ErasedAhj18_EEKb0_Kb1_KB6y_ENtNtB4E_8plumbing9QueryCtxtKB6y_E0EB4E_
librustc_driver-f8caf2bfd7396df8.so:_RINvMs6_NtCs3vuWhofJlp6_9hashbrown3rawINtB6_8RawTableTINtNtCsbnIUe8x9cNz_12rustc_middle2ty20PseudoCanonicalInputNtNtNtBV_3mir9interpret8GlobalIdETINtNtNtBV_5query5erase6ErasedAhj10_ENtNtNtCshF5AtUv7kVK_18rustc_query_system9dep_graph5graph12DepNodeIndexEEE14reserve_rehashNCINvNtCsiN8jfhUhbz9_21rustc_data_structures7sharded11table_entryBQ_B2j_BQ_Es_0ECs2ERWbPTlodK_16rustc_query_impl
librustc_driver-f8caf2bfd7396df8.so:_RINvMs6_NtCs3vuWhofJlp6_9hashbrown3rawINtB6_8RawTableTINtNtCsbnIUe8x9cNz_12rustc_middle2ty20PseudoCanonicalInputNtNtNtBV_3mir9interpret8GlobalIdETINtNtNtBV_5query5erase6ErasedAhj18_ENtNtNtCshF5AtUv7kVK_18rustc_query_system9dep_graph5graph12DepNodeIndexEEE14reserve_rehashNCINvNtCsiN8jfhUhbz9_21rustc_data_structures7sharded11table_entryBQ_B2j_BQ_Es_0ECs2ERWbPTlodK_16rustc_query_impl
librustc_driver-f8caf2bfd7396df8.so:_RINvMs6_NtCs3vuWhofJlp6_9hashbrown3rawINtB6_8RawTableTINtNtCsbnIUe8x9cNz_12rustc_middle2ty20PseudoCanonicalInputTINtNtCs2t38KIHyE4j_13rustc_type_ir6binder6BinderNtNtBT_7context6TyCtxtINtNtB1S_7ty_kind5FnSigB2z_EERINtNtBT_4list7RawListuNtBT_2TyEEEINtNtNtCshF5AtUv7kVK_18rustc_query_system5query8plumbing11QueryResultNtB41_18QueryStackDeferredEEE14reserve_rehashNCINvB3Z_17try_execute_queryINtCs2ERWbPTlodK_16rustc_query_impl13DynamicConfigINtNtB41_6caches12DefaultCacheBQ_INtNtNtBV_5query5erase6ErasedAhj10_EEKb0_KB8b_KB8b_ENtNtB6h_8plumbing9QueryCtxtKB8b_E0EB6h_
librustc_driver-f8caf2bfd7396df8.so:_RINvMs6_NtCs3vuWhofJlp6_9hashbrown3rawINtB6_8RawTableTINtNtCsbnIUe8x9cNz_12rustc_middle2ty20PseudoCanonicalInputTINtNtCs2t38KIHyE4j_13rustc_type_ir6binder6BinderNtNtBT_7context6TyCtxtINtNtB1S_7ty_kind5FnSigB2z_EERINtNtBT_4list7RawListuNtBT_2TyEEEINtNtNtCshF5AtUv7kVK_18rustc_query_system5query8plumbing11QueryResultNtB41_18QueryStackDeferredEEE14reserve_rehashNCINvB3Z_17try_execute_queryINtCs2ERWbPTlodK_16rustc_query_impl13DynamicConfigINtNtB41_6caches12DefaultCacheBQ_INtNtNtBV_5query5erase6ErasedAhj10_EEKb0_KB8b_KB8b_ENtNtB6h_8plumbing9QueryCtxtKb1_E0EB6h_
librustc_driver-f8caf2bfd7396df8.so:_RINvMs6_NtCs3vuWhofJlp6_9hashbrown3rawINtB6_8RawTableTINtNtCsbnIUe8x9cNz_12rustc_middle2ty20PseudoCanonicalInputTINtNtCs2t38KIHyE4j_13rustc_type_ir6binder6BinderNtNtBT_7context6TyCtxtINtNtB1S_7ty_kind5FnSigB2z_EERINtNtBT_4list7RawListuNtBT_2TyEEETINtNtNtBV_5query5erase6ErasedAhj10_ENtNtNtCshF5AtUv7kVK_18rustc_query_system9dep_graph5graph12DepNodeIndexEEE14reserve_rehashNCINvNtCsiN8jfhUhbz9_21rustc_data_structures7sharded11table_entryBQ_B3W_BQ_Es_0ECs2ERWbPTlodK_16rustc_query_impl
librustc_driver-f8caf2bfd7396df8.so:_RINvMs6_NtCs3vuWhofJlp6_9hashbrown3rawINtB6_8RawTableTINtNtCsbnIUe8x9cNz_12rustc_middle2ty20PseudoCanonicalInputTNtBT_2TyNtNtNtCs3WhD79dQ5JG_9rustc_abi6layout2ty10VariantIdxEEINtNtNtCshF5AtUv7kVK_18rustc_query_system5query8plumbing11QueryResultNtB2S_18QueryStackDeferredEEE14reserve_rehashNCINvB2Q_17try_execute_queryINtCs2ERWbPTlodK_16rustc_query_impl13DynamicConfigINtNtB2S_6caches12DefaultCacheBQ_INtNtNtBV_5query5erase6ErasedAhj11_EEKb0_KB72_KB72_ENtNtB58_8plumbing9QueryCtxtKB72_E0EB58_
librustc_driver-f8caf2bfd7396df8.so:_RINvMs6_NtCs3vuWhofJlp6_9hashbrown3rawINtB6_8RawTableTINtNtCsbnIUe8x9cNz_12rustc_middle2ty20PseudoCanonicalInputTNtBT_2TyNtNtNtCs3WhD79dQ5JG_9rustc_abi6layout2ty10VariantIdxEEINtNtNtCshF5AtUv7kVK_18rustc_query_system5query8plumbing11QueryResultNtB2S_18QueryStackDeferredEEE14reserve_rehashNCINvB2Q_17try_execute_queryINtCs2ERWbPTlodK_16rustc_query_impl13DynamicConfigINtNtB2S_6caches12DefaultCacheBQ_INtNtNtBV_5query5erase6ErasedAhj11_EEKb0_KB72_KB72_ENtNtB58_8plumbing9QueryCtxtKb1_E0EB58_
librustc_driver-f8caf2bfd7396df8.so:_RINvMs6_NtCs3vuWhofJlp6_9hashbrown3rawINtB6_8RawTableTINtNtCsbnIUe8x9cNz_12rustc_middle2ty20PseudoCanonicalInputTNtBT_2TyNtNtNtCs3WhD79dQ5JG_9rustc_abi6layout2ty10VariantIdxEETINtNtNtBV_5query5erase6ErasedAhj11_ENtNtNtCshF5AtUv7kVK_18rustc_query_system9dep_graph5graph12DepNodeIndexEEE14reserve_rehashNCINvNtCsiN8jfhUhbz9_21rustc_data_structures7sharded11table_entryBQ_B2N_BQ_Es_0ECs2ERWbPTlodK_16rustc_query_impl
librustc_driver-f8caf2bfd7396df8.so:_RINvMs6_NtCs3vuWhofJlp6_9hashbrown3rawINtB6_8RawTableTINtNtCsbnIUe8x9cNz_12rustc_middle2ty20PseudoCanonicalInputTNtNtBT_8instance8InstanceRINtNtBT_4list7RawListuNtBT_2TyEEEINtNtNtCshF5AtUv7kVK_18rustc_query_system5query8plumbing11QueryResultNtB2P_18QueryStackDeferredEEE14reserve_rehashNCINvB2N_17try_execute_queryINtCs2ERWbPTlodK_16rustc_query_impl13DynamicConfigINtNtB2P_6caches12DefaultCacheBQ_INtNtNtBV_5query5erase6ErasedAhj10_EEKb0_KB6Z_KB6Z_ENtNtB55_8plumbing9QueryCtxtKB6Z_E0EB55_
librustc_driver-f8caf2bfd7396df8.so:_RINvMs6_NtCs3vuWhofJlp6_9hashbrown3rawINtB6_8RawTableTINtNtCsbnIUe8x9cNz_12rustc_middle2ty20PseudoCanonicalInputTNtNtBT_8instance8InstanceRINtNtBT_4list7RawListuNtBT_2TyEEEINtNtNtCshF5AtUv7kVK_18rustc_query_system5query8plumbing11QueryResultNtB2P_18QueryStackDeferredEEE14reserve_rehashNCINvB2N_17try_execute_queryINtCs2ERWbPTlodK_16rustc_query_impl13DynamicConfigINtNtB2P_6caches12DefaultCacheBQ_INtNtNtBV_5query5erase6ErasedAhj10_EEKb0_KB6Z_KB6Z_ENtNtB55_8plumbing9QueryCtxtKb1_E0EB55_
librustc_driver-f8caf2bfd7396df8.so:_RINvMs6_NtCs3vuWhofJlp6_9hashbrown3rawINtB6_8RawTableTINtNtCsbnIUe8x9cNz_12rustc_middle2ty20PseudoCanonicalInputTNtNtBT_8instance8InstanceRINtNtBT_4list7RawListuNtBT_2TyEEETINtNtNtBV_5query5erase6ErasedAhj10_ENtNtNtCshF5AtUv7kVK_18rustc_query_system9dep_graph5graph12DepNodeIndexEEE14reserve_rehashNCINvNtCsiN8jfhUhbz9_21rustc_data_structures7sharded11table_entryBQ_B2K_BQ_Es_0ECs2ERWbPTlodK_16rustc_query_impl
librustc_driver-f8caf2bfd7396df8.so:_RINvMs6_NtCs3vuWhofJlp6_9hashbrown3rawINtB6_8RawTableTINtNtCsbnIUe8x9cNz_12rustc_middle2ty20PseudoCanonicalInputTNtNtCsjdyqsEEf0cE_10rustc_span6def_id5DefIdRINtNtBT_4list7RawListuNtNtBT_12generic_args10GenericArgEEEINtNtNtCshF5AtUv7kVK_18rustc_query_system5query8plumbing11QueryResultNtB3w_18QueryStackDeferredEEE14reserve_rehashNCINvB3u_17try_execute_queryINtCs2ERWbPTlodK_16rustc_query_impl13DynamicConfigINtNtB3w_6caches12DefaultCacheBQ_INtNtNtBV_5query5erase6ErasedAhj20_EEKb0_KB7G_KB7G_ENtNtB5M_8plumbing9QueryCtxtKB7G_E0EB5M_
librustc_driver-f8caf2bfd7396df8.so:_RINvMs6_NtCs3vuWhofJlp6_9hashbrown3rawINtB6_8RawTableTINtNtCsbnIUe8x9cNz_12rustc_middle2ty20PseudoCanonicalInputTNtNtCsjdyqsEEf0cE_10rustc_span6def_id5DefIdRINtNtBT_4list7RawListuNtNtBT_12generic_args10GenericArgEEEINtNtNtCshF5AtUv7kVK_18rustc_query_system5query8plumbing11QueryResultNtB3w_18QueryStackDeferredEEE14reserve_rehashNCINvB3u_17try_execute_queryINtCs2ERWbPTlodK_16rustc_query_impl13DynamicConfigINtNtB3w_6caches12DefaultCacheBQ_INtNtNtBV_5query5erase6ErasedAhj20_EEKb0_KB7G_KB7G_ENtNtB5M_8plumbing9QueryCtxtKb1_E0EB5M_
librustc_driver-f8caf2bfd7396df8.so:_RINvMs6_NtCs3vuWhofJlp6_9hashbrown3rawINtB6_8RawTableTINtNtCsbnIUe8x9cNz_12rustc_middle2ty20PseudoCanonicalInputTNtNtCsjdyqsEEf0cE_10rustc_span6def_id5DefIdRINtNtBT_4list7RawListuNtNtBT_12generic_args10GenericArgEEETINtNtNtBV_5query5erase6ErasedAhj20_ENtNtNtCshF5AtUv7kVK_18rustc_query_system9dep_graph5graph12DepNodeIndexEEE14reserve_rehashNCINvNtCsiN8jfhUhbz9_21rustc_data_structures7sharded11table_entryBQ_B3r_BQ_Es_0ECs2ERWbPTlodK_16rustc_query_impl
librustc_driver-f8caf2bfd7396df8.so:_RINvMs6_NtCs3vuWhofJlp6_9hashbrown3rawINtB6_8RawTableTINtNtNtCsbnIUe8x9cNz_12rustc_middle2ty7context13InternedInSetINtCs3WhD79dQ5JG_9rustc_abi10LayoutDataNtNtNtB1S_6layout2ty8FieldIdxNtB2u_10VariantIdxEEuEE14reserve_rehashNCINvNtCsiN8jfhUhbz9_21rustc_data_structures7sharded11table_entryBQ_uB1P_Es_0EBX_
librustc_driver-f8caf2bfd7396df8.so:_RINvMs6_NtCs3vuWhofJlp6_9hashbrown3rawINtB6_8RawTableTINtNtNtCsbnIUe8x9cNz_12rustc_middle2ty7context13InternedInSetINtNtBV_4list7RawListNtB1S_8TypeInfoNtNtBV_9predicate6ClauseEEuEE14reserve_rehashNCINvNtCsiN8jfhUhbz9_21rustc_data_structures7sharded11table_entryBQ_uSB2p_Es_0EBX_
librustc_driver-f8caf2bfd7396df8.so:_RINvMs6_NtCs3vuWhofJlp6_9hashbrown3rawINtB6_8RawTableTINtNtNtCsbnIUe8x9cNz_12rustc_middle2ty7context13InternedInSetINtNtBV_4list7RawListuINtNtCs2t38KIHyE4j_13rustc_type_ir6binder6BinderNtBT_6TyCtxtINtNtB2g_9predicate20ExistentialPredicateB2X_EEEEuEE14reserve_rehashNCINvNtCsiN8jfhUhbz9_21rustc_data_structures7sharded11table_entryBQ_uSB2b_Es_0EBX_
librustc_driver-f8caf2bfd7396df8.so:_RINvMs6_NtCs3vuWhofJlp6_9hashbrown3rawINtB6_8RawTableTINtNtNtCsbnIUe8x9cNz_12rustc_middle2ty7context13InternedInSetINtNtBV_4list7RawListuINtNtCs2t38KIHyE4j_13rustc_type_ir9canonical16CanonicalVarKindNtBT_6TyCtxtEEEuEE14reserve_rehashNCINvNtCsiN8jfhUhbz9_21rustc_data_structures7sharded11table_entryBQ_uSB2b_Es_0EBX_
librustc_driver-f8caf2bfd7396df8.so:_RINvMs6_NtCs3vuWhofJlp6_9hashbrown3rawINtB6_8RawTableTINtNtNtCsbnIUe8x9cNz_12rustc_middle2ty7context13InternedInSetINtNtBV_4list7RawListuINtNtCs2t38KIHyE4j_13rustc_type_ir9predicate17OutlivesPredicateNtBT_6TyCtxtNtNtBV_12generic_args10GenericArgEEEuEE14reserve_rehashNCINvNtCsiN8jfhUhbz9_21rustc_data_structures7sharded11table_entryBQ_uSB2b_Es_0EBX_
librustc_driver-f8caf2bfd7396df8.so:_RINvMs6_NtCs3vuWhofJlp6_9hashbrown3rawINtB6_8RawTableTINtNtNtCsbnIUe8x9cNz_12rustc_middle2ty7context13InternedInSetINtNtBV_4list7RawListuINtNtNtBX_3mir6syntax14ProjectionElemNtB2g_5LocalNtBV_2TyEEEuEE14reserve_rehashNCINvNtCsiN8jfhUhbz9_21rustc_data_structures7sharded11table_entryBQ_uSB2b_Es_0EBX_
librustc_driver-f8caf2bfd7396df8.so:_RINvMs6_NtCs3vuWhofJlp6_9hashbrown3rawINtB6_8RawTableTINtNtNtCsbnIUe8x9cNz_12rustc_middle2ty7context13InternedInSetINtNtBV_4list7RawListuINtNtNtBX_3mir6syntax14ProjectionElemuuEEEuEE14reserve_rehashNCINvNtCsiN8jfhUhbz9_21rustc_data_structures7sharded11table_entryBQ_uSB2b_Es_0EBX_
librustc_driver-f8caf2bfd7396df8.so:_RINvMs6_NtCs3vuWhofJlp6_9hashbrown3rawINtB6_8RawTableTINtNtNtCsbnIUe8x9cNz_12rustc_middle2ty7context13InternedInSetINtNtBV_4list7RawListuNtBV_2TyEEuEE14reserve_rehashNCINvNtCsiN8jfhUhbz9_21rustc_data_structures7sharded11table_entryBQ_uSB2b_Es_0EBX_
librustc_driver-f8caf2bfd7396df8.so:_RINvMs6_NtCs3vuWhofJlp6_9hashbrown3rawINtB6_8RawTableTINtNtNtCsbnIUe8x9cNz_12rustc_middle2ty7context13InternedInSetINtNtBV_4list7RawListuNtNtBV_12generic_args10GenericArgEEuEE14reserve_rehashNCINvNtCsiN8jfhUhbz9_21rustc_data_structures7sharded11table_entryBQ_uSB2b_Es_0EBX_
librustc_driver-f8caf2bfd7396df8.so:_RINvMs6_NtCs3vuWhofJlp6_9hashbrown3rawINtB6_8RawTableTINtNtNtCsbnIUe8x9cNz_12rustc_middle2ty7context13InternedInSetINtNtBV_4list7RawListuNtNtBV_3sty17BoundVariableKindEEuEE14reserve_rehashNCINvNtCsiN8jfhUhbz9_21rustc_data_structures7sharded11table_entryBQ_uSB2b_Es_0EBX_
librustc_driver-f8caf2bfd7396df8.so:_RINvMs6_NtCs3vuWhofJlp6_9hashbrown3rawINtB6_8RawTableTINtNtNtCsbnIUe8x9cNz_12rustc_middle2ty7context13InternedInSetINtNtBV_4list7RawListuNtNtBV_6consts5ConstEEuEE14reserve_rehashNCINvNtCsiN8jfhUhbz9_21rustc_data_structures7sharded11table_entryBQ_uSB2b_Es_0EBX_
librustc_driver-f8caf2bfd7396df8.so:_RINvMs6_NtCs3vuWhofJlp6_9hashbrown3rawINtB6_8RawTableTINtNtNtCsbnIUe8x9cNz_12rustc_middle2ty7context13InternedInSetINtNtBV_4list7RawListuNtNtBV_7pattern7PatternEEuEE14reserve_rehashNCINvNtCsiN8jfhUhbz9_21rustc_data_structures7sharded11table_entryBQ_uSB2b_Es_0EBX_
librustc_driver-f8caf2bfd7396df8.so:_RINvMs6_NtCs3vuWhofJlp6_9hashbrown3rawINtB6_8RawTableTINtNtNtCsbnIUe8x9cNz_12rustc_middle2ty7context13InternedInSetINtNtBV_4list7RawListuNtNtCsjdyqsEEf0cE_10rustc_span6def_id10LocalDefIdEEuEE14reserve_rehashNCINvNtCsiN8jfhUhbz9_21rustc_data_structures7sharded11table_entryBQ_uSB2b_Es_0EBX_
librustc_driver-f8caf2bfd7396df8.so:_RINvMs6_NtCs3vuWhofJlp6_9hashbrown3rawINtB6_8RawTableTINtNtNtCsbnIUe8x9cNz_12rustc_middle2ty7context13InternedInSetINtNtBV_4list7RawListuNtNtNtCs3WhD79dQ5JG_9rustc_abi6layout2ty8FieldIdxEEuEE14reserve_rehashNCINvNtCsiN8jfhUhbz9_21rustc_data_structures7sharded11table_entryBQ_uSB2b_Es_0EBX_
librustc_driver-f8caf2bfd7396df8.so:_RINvMs6_NtCs3vuWhofJlp6_9hashbrown3rawINtB6_8RawTableTINtNtNtCsbnIUe8x9cNz_12rustc_middle2ty7context13InternedInSetINtNtBV_4list7RawListuRNtNtBV_7closure13CapturedPlaceEEuEE14reserve_rehashNCINvNtCsiN8jfhUhbz9_21rustc_data_structures7sharded11table_entryBQ_uSB2b_Es_0EBX_
librustc_driver-f8caf2bfd7396df8.so:_RINvMs6_NtCs3vuWhofJlp6_9hashbrown3rawINtB6_8RawTableTINtNtNtCsbnIUe8x9cNz_12rustc_middle2ty7context13InternedInSetINtNtBV_4list7RawListuTINtNtCs2t38KIHyE4j_13rustc_type_ir9opaque_ty13OpaqueTypeKeyNtBT_6TyCtxtENtBV_2TyEEEuEE14reserve_rehashNCINvNtCsiN8jfhUhbz9_21rustc_data_structures7sharded11table_entryBQ_uSB2b_Es_0EBX_
librustc_driver-f8caf2bfd7396df8.so:_RINvMs6_NtCs3vuWhofJlp6_9hashbrown3rawINtB6_8RawTableTINtNtNtCsbnIUe8x9cNz_12rustc_middle2ty7context13InternedInSetINtNtCs2t38KIHyE4j_13rustc_type_ir11region_kind10RegionKindNtBT_6TyCtxtEEuEE14reserve_rehashNCINvNtCsiN8jfhUhbz9_21rustc_data_structures7sharded11table_entryBQ_uB1P_Es_0EBX_
librustc_driver-f8caf2bfd7396df8.so:_RINvMs6_NtCs3vuWhofJlp6_9hashbrown3rawINtB6_8RawTableTINtNtNtCsbnIUe8x9cNz_12rustc_middle2ty7context13InternedInSetINtNtCs2t38KIHyE4j_13rustc_type_ir5solve23ExternalConstraintsDataNtBT_6TyCtxtEEuEE14reserve_rehashNCINvNtCsiN8jfhUhbz9_21rustc_data_structures7sharded11table_entryBQ_uB1P_Es_0EBX_
librustc_driver-f8caf2bfd7396df8.so:_RINvMs6_NtCs3vuWhofJlp6_9hashbrown3rawINtB6_8RawTableTINtNtNtCsbnIUe8x9cNz_12rustc_middle2ty7context13InternedInSetINtNtCs2t38KIHyE4j_13rustc_type_ir7pattern11PatternKindNtBT_6TyCtxtEEuEE14reserve_rehashNCINvNtCsiN8jfhUhbz9_21rustc_data_structures7sharded11table_entryBQ_uB1P_Es_0EBX_
librustc_driver-f8caf2bfd7396df8.so:_RINvMs6_NtCs3vuWhofJlp6_9hashbrown3rawINtB6_8RawTableTINtNtNtCsbnIUe8x9cNz_12rustc_middle2ty7context13InternedInSetINtNtCs2t38KIHyE4j_13rustc_type_ir7ty_info18WithCachedTypeInfoINtNtB1U_10const_kind9ConstKindNtBT_6TyCtxtEEEuEE14reserve_rehashNCINvNtCsiN8jfhUhbz9_21rustc_data_structures7sharded11table_entryBQ_uB2P_Es_0EBX_
librustc_driver-f8caf2bfd7396df8.so:_RINvMs6_NtCs3vuWhofJlp6_9hashbrown3rawINtB6_8RawTableTINtNtNtCsbnIUe8x9cNz_12rustc_middle2ty7context13InternedInSetINtNtCs2t38KIHyE4j_13rustc_type_ir7ty_info18WithCachedTypeInfoINtNtB1U_6binder6BinderNtBT_6TyCtxtINtNtB1U_14predicate_kind13PredicateKindB3c_EEEEuEE14reserve_rehashNCINvNtCsiN8jfhUhbz9_21rustc_data_structures7sharded11table_entryBQ_uB2P_Es_0EBX_
librustc_driver-f8caf2bfd7396df8.so:_RINvMs6_NtCs3vuWhofJlp6_9hashbrown3rawINtB6_8RawTableTINtNtNtCsbnIUe8x9cNz_12rustc_middle2ty7context13InternedInSetINtNtCs2t38KIHyE4j_13rustc_type_ir7ty_info18WithCachedTypeInfoINtNtB1U_7ty_kind6TyKindNtBT_6TyCtxtEEEuEE14reserve_rehashNCINvNtCsiN8jfhUhbz9_21rustc_data_structures7sharded11table_entryBQ_uB2P_Es_0EBX_
librustc_driver-f8caf2bfd7396df8.so:_RINvMs6_NtCs3vuWhofJlp6_9hashbrown3rawINtB6_8RawTableTINtNtNtCsbnIUe8x9cNz_12rustc_middle2ty7context13InternedInSetNtNtBV_3adt10AdtDefDataEuEE14reserve_rehashNCINvNtCsiN8jfhUhbz9_21rustc_data_structures7sharded11table_entryBQ_uB1P_Es_0EBX_
librustc_driver-f8caf2bfd7396df8.so:_RINvMs6_NtCs3vuWhofJlp6_9hashbrown3rawINtB6_8RawTableTINtNtNtCsbnIUe8x9cNz_12rustc_middle2ty7context13InternedInSetNtNtNtBV_6consts7valtree11ValTreeKindEuEE14reserve_rehashNCINvNtCsiN8jfhUhbz9_21rustc_data_structures7sharded11table_entryBQ_uB1P_Es_0EBX_
librustc_driver-f8caf2bfd7396df8.so:_RINvMs6_NtCs3vuWhofJlp6_9hashbrown3rawINtB6_8RawTableTINtNtNtCsbnIUe8x9cNz_12rustc_middle2ty7context13InternedInSetNtNtNtNtBX_3mir9interpret10allocation10AllocationEuEE14reserve_rehashNCINvNtCsiN8jfhUhbz9_21rustc_data_structures7sharded11table_entryBQ_uB1P_Es_0EBX_
librustc_driver-f8caf2bfd7396df8.so:_RINvMs6_NtCs3vuWhofJlp6_9hashbrown3rawINtB6_8RawTableTNtCs6whg2ier8G0_12rustc_hir_id7OwnerIdINtNtNtCshF5AtUv7kVK_18rustc_query_system5query8plumbing11QueryResultNtB1x_18QueryStackDeferredEEE14reserve_rehashNCINvB1v_17try_execute_queryINtCs2ERWbPTlodK_16rustc_query_impl13DynamicConfigINtNtCsiN8jfhUhbz9_21rustc_data_structures9vec_cache8VecCacheBQ_INtNtNtCsbnIUe8x9cNz_12rustc_middle5query5erase6ErasedAhj8_ENtNtNtB1z_9dep_graph5graph12DepNodeIndexEKb0_KB7e_KB7e_ENtNtB3N_8plumbing9QueryCtxtKB7e_E0EB3N_
librustc_driver-f8caf2bfd7396df8.so:_RINvMs6_NtCs3vuWhofJlp6_9hashbrown3rawINtB6_8RawTableTNtCs6whg2ier8G0_12rustc_hir_id7OwnerIdINtNtNtCshF5AtUv7kVK_18rustc_query_system5query8plumbing11QueryResultNtB1x_18QueryStackDeferredEEE14reserve_rehashNCINvB1v_17try_execute_queryINtCs2ERWbPTlodK_16rustc_query_impl13DynamicConfigINtNtCsiN8jfhUhbz9_21rustc_data_structures9vec_cache8VecCacheBQ_INtNtNtCsbnIUe8x9cNz_12rustc_middle5query5erase6ErasedAhj8_ENtNtNtB1z_9dep_graph5graph12DepNodeIndexEKb0_KB7e_KB7e_ENtNtB3N_8plumbing9QueryCtxtKb1_E0EB3N_
librustc_driver-f8caf2bfd7396df8.so:_RINvMs6_NtCs3vuWhofJlp6_9hashbrown3rawINtB6_8RawTableTNtNtCsbnIUe8x9cNz_12rustc_middle2ty2TyINtNtNtCshF5AtUv7kVK_18rustc_query_system5query8plumbing11QueryResultNtB1x_18QueryStackDeferredEEE14reserve_rehashNCINvB1v_17try_execute_queryINtCs2ERWbPTlodK_16rustc_query_impl13DynamicConfigINtNtB1x_6caches12DefaultCacheBQ_INtNtNtBU_5query5erase6ErasedAhj10_EEKb0_KB5H_KB5H_ENtNtB3N_8plumbing9QueryCtxtKB5H_E0EB3N_
librustc_driver-f8caf2bfd7396df8.so:_RINvMs6_NtCs3vuWhofJlp6_9hashbrown3rawINtB6_8RawTableTNtNtCsbnIUe8x9cNz_12rustc_middle2ty2TyINtNtNtCshF5AtUv7kVK_18rustc_query_system5query8plumbing11QueryResultNtB1x_18QueryStackDeferredEEE14reserve_rehashNCINvB1v_17try_execute_queryINtCs2ERWbPTlodK_16rustc_query_impl13DynamicConfigINtNtB1x_6caches12DefaultCacheBQ_INtNtNtBU_5query5erase6ErasedAhj10_EEKb0_KB5H_KB5H_ENtNtB3N_8plumbing9QueryCtxtKb1_E0EB3N_
librustc_driver-f8caf2bfd7396df8.so:_RINvMs6_NtCs3vuWhofJlp6_9hashbrown3rawINtB6_8RawTableTNtNtCsbnIUe8x9cNz_12rustc_middle2ty2TyINtNtNtCshF5AtUv7kVK_18rustc_query_system5query8plumbing11QueryResultNtB1x_18QueryStackDeferredEEE14reserve_rehashNCINvB1v_17try_execute_queryINtCs2ERWbPTlodK_16rustc_query_impl13DynamicConfigINtNtB1x_6caches12DefaultCacheBQ_INtNtNtBU_5query5erase6ErasedAhj1_EEKb0_KB5G_KB5G_ENtNtB3N_8plumbing9QueryCtxtKB5G_E0EB3N_
librustc_driver-f8caf2bfd7396df8.so:_RINvMs6_NtCs3vuWhofJlp6_9hashbrown3rawINtB6_8RawTableTNtNtCsbnIUe8x9cNz_12rustc_middle2ty2TyINtNtNtCshF5AtUv7kVK_18rustc_query_system5query8plumbing11QueryResultNtB1x_18QueryStackDeferredEEE14reserve_rehashNCINvB1v_17try_execute_queryINtCs2ERWbPTlodK_16rustc_query_impl13DynamicConfigINtNtB1x_6caches12DefaultCacheBQ_INtNtNtBU_5query5erase6ErasedAhj1_EEKb0_KB5G_KB5G_ENtNtB3N_8plumbing9QueryCtxtKb1_E0EB3N_
librustc_driver-f8caf2bfd7396df8.so:_RINvMs6_NtCs3vuWhofJlp6_9hashbrown3rawINtB6_8RawTableTNtNtCsbnIUe8x9cNz_12rustc_middle2ty2TyINtNtNtCshF5AtUv7kVK_18rustc_query_system5query8plumbing11QueryResultNtB1x_18QueryStackDeferredEEE14reserve_rehashNCINvB1v_17try_execute_queryINtCs2ERWbPTlodK_16rustc_query_impl13DynamicConfigINtNtB1x_6caches12DefaultCacheBQ_INtNtNtBU_5query5erase6ErasedAhj1_EEKb1_Kb0_KB5K_ENtNtB3N_8plumbing9QueryCtxtKB5G_E0EB3N_
librustc_driver-f8caf2bfd7396df8.so:_RINvMs6_NtCs3vuWhofJlp6_9hashbrown3rawINtB6_8RawTableTNtNtCsbnIUe8x9cNz_12rustc_middle2ty2TyINtNtNtCshF5AtUv7kVK_18rustc_query_system5query8plumbing11QueryResultNtB1x_18QueryStackDeferredEEE14reserve_rehashNCINvB1v_17try_execute_queryINtCs2ERWbPTlodK_16rustc_query_impl13DynamicConfigINtNtB1x_6caches12DefaultCacheBQ_INtNtNtBU_5query5erase6ErasedAhj1_EEKb1_Kb0_KB5K_ENtNtB3N_8plumbing9QueryCtxtKB5K_E0EB3N_
librustc_driver-f8caf2bfd7396df8.so:_RINvMs6_NtCs3vuWhofJlp6_9hashbrown3rawINtB6_8RawTableTNtNtCsbnIUe8x9cNz_12rustc_middle2ty2TyINtNtNtCshF5AtUv7kVK_18rustc_query_system5query8plumbing11QueryResultNtB1x_18QueryStackDeferredEEE14reserve_rehashNCINvB1v_17try_execute_queryINtCs2ERWbPTlodK_16rustc_query_impl13DynamicConfigINtNtB1x_6caches12DefaultCacheBQ_INtNtNtBU_5query5erase6ErasedAhj8_EEKb1_Kb0_KB5K_ENtNtB3N_8plumbing9QueryCtxtKB5G_E0EB3N_
librustc_driver-f8caf2bfd7396df8.so:_RINvMs6_NtCs3vuWhofJlp6_9hashbrown3rawINtB6_8RawTableTNtNtCsbnIUe8x9cNz_12rustc_middle2ty2TyINtNtNtCshF5AtUv7kVK_18rustc_query_system5query8plumbing11QueryResultNtB1x_18QueryStackDeferredEEE14reserve_rehashNCINvB1v_17try_execute_queryINtCs2ERWbPTlodK_16rustc_query_impl13DynamicConfigINtNtB1x_6caches12DefaultCacheBQ_INtNtNtBU_5query5erase6ErasedAhj8_EEKb1_Kb0_KB5K_ENtNtB3N_8plumbing9QueryCtxtKB5K_E0EB3N_
librustc_driver-f8caf2bfd7396df8.so:_RINvMs6_NtCs3vuWhofJlp6_9hashbrown3rawINtB6_8RawTableTNtNtCsbnIUe8x9cNz_12rustc_middle2ty2TyTINtNtNtBU_5query5erase6ErasedAhj10_ENtNtNtCshF5AtUv7kVK_18rustc_query_system9dep_graph5graph12DepNodeIndexEEE14reserve_rehashNCINvNtCsiN8jfhUhbz9_21rustc_data_structures7sharded11table_entryBQ_B1s_BQ_Es_0ECs2ERWbPTlodK_16rustc_query_impl
librustc_driver-f8caf2bfd7396df8.so:_RINvMs6_NtCs3vuWhofJlp6_9hashbrown3rawINtB6_8RawTableTNtNtCsbnIUe8x9cNz_12rustc_middle2ty2TyTINtNtNtBU_5query5erase6ErasedAhj1_ENtNtNtCshF5AtUv7kVK_18rustc_query_system9dep_graph5graph12DepNodeIndexEEE14reserve_rehashNCINvNtCsiN8jfhUhbz9_21rustc_data_structures7sharded11table_entryBQ_B1s_BQ_Es_0ECs2ERWbPTlodK_16rustc_query_impl
librustc_driver-f8caf2bfd7396df8.so:_RINvMs6_NtCs3vuWhofJlp6_9hashbrown3rawINtB6_8RawTableTNtNtCsbnIUe8x9cNz_12rustc_middle2ty2TyTINtNtNtBU_5query5erase6ErasedAhj8_ENtNtNtCshF5AtUv7kVK_18rustc_query_system9dep_graph5graph12DepNodeIndexEEE14reserve_rehashNCINvNtCsiN8jfhUhbz9_21rustc_data_structures7sharded11table_entryBQ_B1s_BQ_Es_0ECs2ERWbPTlodK_16rustc_query_impl
librustc_driver-f8caf2bfd7396df8.so:_RINvMs6_NtCs3vuWhofJlp6_9hashbrown3rawINtB6_8RawTableTNtNtCsjdyqsEEf0cE_10rustc_span6def_id10LocalDefIdINtNtNtCshF5AtUv7kVK_18rustc_query_system5query8plumbing11QueryResultNtB1I_18QueryStackDeferredEEE14reserve_rehashNCINvB1G_17try_execute_queryINtCs2ERWbPTlodK_16rustc_query_impl13DynamicConfigINtNtCsiN8jfhUhbz9_21rustc_data_structures9vec_cache8VecCacheBQ_INtNtNtCsbnIUe8x9cNz_12rustc_middle5query5erase6ErasedAhj0_ENtNtNtB1K_9dep_graph5graph12DepNodeIndexEKb0_KB7p_KB7p_ENtNtB3Y_8plumbing9QueryCtxtKB7p_E0EB3Y_
librustc_driver-f8caf2bfd7396df8.so:_RINvMs6_NtCs3vuWhofJlp6_9hashbrown3rawINtB6_8RawTableTNtNtCsjdyqsEEf0cE_10rustc_span6def_id10LocalDefIdINtNtNtCshF5AtUv7kVK_18rustc_query_system5query8plumbing11QueryResultNtB1I_18QueryStackDeferredEEE14reserve_rehashNCINvB1G_17try_execute_queryINtCs2ERWbPTlodK_16rustc_query_impl13DynamicConfigINtNtCsiN8jfhUhbz9_21rustc_data_structures9vec_cache8VecCacheBQ_INtNtNtCsbnIUe8x9cNz_12rustc_middle5query5erase6ErasedAhj0_ENtNtNtB1K_9dep_graph5graph12DepNodeIndexEKb0_KB7p_KB7p_ENtNtB3Y_8plumbing9QueryCtxtKb1_E0EB3Y_
librustc_driver-f8caf2bfd7396df8.so:_RINvMs6_NtCs3vuWhofJlp6_9hashbrown3rawINtB6_8RawTableTNtNtCsjdyqsEEf0cE_10rustc_span6def_id10LocalDefIdINtNtNtCshF5AtUv7kVK_18rustc_query_system5query8plumbing11QueryResultNtB1I_18QueryStackDeferredEEE14reserve_rehashNCINvB1G_17try_execute_queryINtCs2ERWbPTlodK_16rustc_query_impl13DynamicConfigINtNtCsiN8jfhUhbz9_21rustc_data_structures9vec_cache8VecCacheBQ_INtNtNtCsbnIUe8x9cNz_12rustc_middle5query5erase6ErasedAhj10_ENtNtNtB1K_9dep_graph5graph12DepNodeIndexEKb0_KB7q_KB7q_ENtNtB3Y_8plumbing9QueryCtxtKB7q_E0EB3Y_
librustc_driver-f8caf2bfd7396df8.so:_RINvMs6_NtCs3vuWhofJlp6_9hashbrown3rawINtB6_8RawTableTNtNtCsjdyqsEEf0cE_10rustc_span6def_id10LocalDefIdINtNtNtCshF5AtUv7kVK_18rustc_query_system5query8plumbing11QueryResultNtB1I_18QueryStackDeferredEEE14reserve_rehashNCINvB1G_17try_execute_queryINtCs2ERWbPTlodK_16rustc_query_impl13DynamicConfigINtNtCsiN8jfhUhbz9_21rustc_data_structures9vec_cache8VecCacheBQ_INtNtNtCsbnIUe8x9cNz_12rustc_middle5query5erase6ErasedAhj10_ENtNtNtB1K_9dep_graph5graph12DepNodeIndexEKb0_KB7q_KB7q_ENtNtB3Y_8plumbing9QueryCtxtKb1_E0EB3Y_
librustc_driver-f8caf2bfd7396df8.so:_RINvMs6_NtCs3vuWhofJlp6_9hashbrown3rawINtB6_8RawTableTNtNtCsjdyqsEEf0cE_10rustc_span6def_id10LocalDefIdINtNtNtCshF5AtUv7kVK_18rustc_query_system5query8plumbing11QueryResultNtB1I_18QueryStackDeferredEEE14reserve_rehashNCINvB1G_17try_execute_queryINtCs2ERWbPTlodK_16rustc_query_impl13DynamicConfigINtNtCsiN8jfhUhbz9_21rustc_data_structures9vec_cache8VecCacheBQ_INtNtNtCsbnIUe8x9cNz_12rustc_middle5query5erase6ErasedAhj18_ENtNtNtB1K_9dep_graph5graph12DepNodeIndexEKb0_KB7q_KB7q_ENtNtB3Y_8plumbing9QueryCtxtKB7q_E0EB3Y_
librustc_driver-f8caf2bfd7396df8.so:_RINvMs6_NtCs3vuWhofJlp6_9hashbrown3rawINtB6_8RawTableTNtNtCsjdyqsEEf0cE_10rustc_span6def_id10LocalDefIdINtNtNtCshF5AtUv7kVK_18rustc_query_system5query8plumbing11QueryResultNtB1I_18QueryStackDeferredEEE14reserve_rehashNCINvB1G_17try_execute_queryINtCs2ERWbPTlodK_16rustc_query_impl13DynamicConfigINtNtCsiN8jfhUhbz9_21rustc_data_structures9vec_cache8VecCacheBQ_INtNtNtCsbnIUe8x9cNz_12rustc_middle5query5erase6ErasedAhj18_ENtNtNtB1K_9dep_graph5graph12DepNodeIndexEKb0_KB7q_KB7q_ENtNtB3Y_8plumbing9QueryCtxtKb1_E0EB3Y_
librustc_driver-f8caf2bfd7396df8.so:_RINvMs6_NtCs3vuWhofJlp6_9hashbrown3rawINtB6_8RawTableTNtNtCsjdyqsEEf0cE_10rustc_span6def_id10LocalDefIdINtNtNtCshF5AtUv7kVK_18rustc_query_system5query8plumbing11QueryResultNtB1I_18QueryStackDeferredEEE14reserve_rehashNCINvB1G_17try_execute_queryINtCs2ERWbPTlodK_16rustc_query_impl13DynamicConfigINtNtCsiN8jfhUhbz9_21rustc_data_structures9vec_cache8VecCacheBQ_INtNtNtCsbnIUe8x9cNz_12rustc_middle5query5erase6ErasedAhj1_ENtNtNtB1K_9dep_graph5graph12DepNodeIndexEKb0_KB7p_KB7p_ENtNtB3Y_8plumbing9QueryCtxtKB7p_E0EB3Y_
librustc_driver-f8caf2bfd7396df8.so:_RINvMs6_NtCs3vuWhofJlp6_9hashbrown3rawINtB6_8RawTableTNtNtCsjdyqsEEf0cE_10rustc_span6def_id10LocalDefIdINtNtNtCshF5AtUv7kVK_18rustc_query_system5query8plumbing11QueryResultNtB1I_18QueryStackDeferredEEE14reserve_rehashNCINvB1G_17try_execute_queryINtCs2ERWbPTlodK_16rustc_query_impl13DynamicConfigINtNtCsiN8jfhUhbz9_21rustc_data_structures9vec_cache8VecCacheBQ_INtNtNtCsbnIUe8x9cNz_12rustc_middle5query5erase6ErasedAhj1_ENtNtNtB1K_9dep_graph5graph12DepNodeIndexEKb0_KB7p_KB7p_ENtNtB3Y_8plumbing9QueryCtxtKb1_E0EB3Y_
librustc_driver-f8caf2bfd7396df8.so:_RINvMs6_NtCs3vuWhofJlp6_9hashbrown3rawINtB6_8RawTableTNtNtCsjdyqsEEf0cE_10rustc_span6def_id10LocalDefIdINtNtNtCshF5AtUv7kVK_18rustc_query_system5query8plumbing11QueryResultNtB1I_18QueryStackDeferredEEE14reserve_rehashNCINvB1G_17try_execute_queryINtCs2ERWbPTlodK_16rustc_query_impl13DynamicConfigINtNtCsiN8jfhUhbz9_21rustc_data_structures9vec_cache8VecCacheBQ_INtNtNtCsbnIUe8x9cNz_12rustc_middle5query5erase6ErasedAhj1_ENtNtNtB1K_9dep_graph5graph12DepNodeIndexEKb1_Kb0_KB7t_ENtNtB3Y_8plumbing9QueryCtxtKB7p_E0EB3Y_
librustc_driver-f8caf2bfd7396df8.so:_RINvMs6_NtCs3vuWhofJlp6_9hashbrown3rawINtB6_8RawTableTNtNtCsjdyqsEEf0cE_10rustc_span6def_id10LocalDefIdINtNtNtCshF5AtUv7kVK_18rustc_query_system5query8plumbing11QueryResultNtB1I_18QueryStackDeferredEEE14reserve_rehashNCINvB1G_17try_execute_queryINtCs2ERWbPTlodK_16rustc_query_impl13DynamicConfigINtNtCsiN8jfhUhbz9_21rustc_data_structures9vec_cache8VecCacheBQ_INtNtNtCsbnIUe8x9cNz_12rustc_middle5query5erase6ErasedAhj1_ENtNtNtB1K_9dep_graph5graph12DepNodeIndexEKb1_Kb0_KB7t_ENtNtB3Y_8plumbing9QueryCtxtKB7t_E0EB3Y_
librustc_driver-f8caf2bfd7396df8.so:_RINvMs6_NtCs3vuWhofJlp6_9hashbrown3rawINtB6_8RawTableTNtNtCsjdyqsEEf0cE_10rustc_span6def_id10LocalDefIdINtNtNtCshF5AtUv7kVK_18rustc_query_system5query8plumbing11QueryResultNtB1I_18QueryStackDeferredEEE14reserve_rehashNCINvB1G_17try_execute_queryINtCs2ERWbPTlodK_16rustc_query_impl13DynamicConfigINtNtCsiN8jfhUhbz9_21rustc_data_structures9vec_cache8VecCacheBQ_INtNtNtCsbnIUe8x9cNz_12rustc_middle5query5erase6ErasedAhj38_ENtNtNtB1K_9dep_graph5graph12DepNodeIndexEKb0_KB7q_KB7q_ENtNtB3Y_8plumbing9QueryCtxtKB7q_E0EB3Y_
librustc_driver-f8caf2bfd7396df8.so:_RINvMs6_NtCs3vuWhofJlp6_9hashbrown3rawINtB6_8RawTableTNtNtCsjdyqsEEf0cE_10rustc_span6def_id10LocalDefIdINtNtNtCshF5AtUv7kVK_18rustc_query_system5query8plumbing11QueryResultNtB1I_18QueryStackDeferredEEE14reserve_rehashNCINvB1G_17try_execute_queryINtCs2ERWbPTlodK_16rustc_query_impl13DynamicConfigINtNtCsiN8jfhUhbz9_21rustc_data_structures9vec_cache8VecCacheBQ_INtNtNtCsbnIUe8x9cNz_12rustc_middle5query5erase6ErasedAhj38_ENtNtNtB1K_9dep_graph5graph12DepNodeIndexEKb0_KB7q_KB7q_ENtNtB3Y_8plumbing9QueryCtxtKb1_E0EB3Y_
librustc_driver-f8caf2bfd7396df8.so:_RINvMs6_NtCs3vuWhofJlp6_9hashbrown3rawINtB6_8RawTableTNtNtCsjdyqsEEf0cE_10rustc_span6def_id10LocalDefIdINtNtNtCshF5AtUv7kVK_18rustc_query_system5query8plumbing11QueryResultNtB1I_18QueryStackDeferredEEE14reserve_rehashNCINvB1G_17try_execute_queryINtCs2ERWbPTlodK_16rustc_query_impl13DynamicConfigINtNtCsiN8jfhUhbz9_21rustc_data_structures9vec_cache8VecCacheBQ_INtNtNtCsbnIUe8x9cNz_12rustc_middle5query5erase6ErasedAhj4_ENtNtNtB1K_9dep_graph5graph12DepNodeIndexEKb0_KB7p_KB7p_ENtNtB3Y_8plumbing9QueryCtxtKB7p_E0EB3Y_
librustc_driver-f8caf2bfd7396df8.so:_RINvMs6_NtCs3vuWhofJlp6_9hashbrown3rawINtB6_8RawTableTNtNtCsjdyqsEEf0cE_10rustc_span6def_id10LocalDefIdINtNtNtCshF5AtUv7kVK_18rustc_query_system5query8plumbing11QueryResultNtB1I_18QueryStackDeferredEEE14reserve_rehashNCINvB1G_17try_execute_queryINtCs2ERWbPTlodK_16rustc_query_impl13DynamicConfigINtNtCsiN8jfhUhbz9_21rustc_data_structures9vec_cache8VecCacheBQ_INtNtNtCsbnIUe8x9cNz_12rustc_middle5query5erase6ErasedAhj4_ENtNtNtB1K_9dep_graph5graph12DepNodeIndexEKb0_KB7p_KB7p_ENtNtB3Y_8plumbing9QueryCtxtKb1_E0EB3Y_
librustc_driver-f8caf2bfd7396df8.so:_RINvMs6_NtCs3vuWhofJlp6_9hashbrown3rawINtB6_8RawTableTNtNtCsjdyqsEEf0cE_10rustc_span6def_id10LocalDefIdINtNtNtCshF5AtUv7kVK_18rustc_query_system5query8plumbing11QueryResultNtB1I_18QueryStackDeferredEEE14reserve_rehashNCINvB1G_17try_execute_queryINtCs2ERWbPTlodK_16rustc_query_impl13DynamicConfigINtNtCsiN8jfhUhbz9_21rustc_data_structures9vec_cache8VecCacheBQ_INtNtNtCsbnIUe8x9cNz_12rustc_middle5query5erase6ErasedAhj8_ENtNtNtB1K_9dep_graph5graph12DepNodeIndexEKb0_KB7p_KB7p_ENtNtB3Y_8plumbing9QueryCtxtKB7p_E0EB3Y_
librustc_driver-f8caf2bfd7396df8.so:_RINvMs6_NtCs3vuWhofJlp6_9hashbrown3rawINtB6_8RawTableTNtNtCsjdyqsEEf0cE_10rustc_span6def_id10LocalDefIdINtNtNtCshF5AtUv7kVK_18rustc_query_system5query8plumbing11QueryResultNtB1I_18QueryStackDeferredEEE14reserve_rehashNCINvB1G_17try_execute_queryINtCs2ERWbPTlodK_16rustc_query_impl13DynamicConfigINtNtCsiN8jfhUhbz9_21rustc_data_structures9vec_cache8VecCacheBQ_INtNtNtCsbnIUe8x9cNz_12rustc_middle5query5erase6ErasedAhj8_ENtNtNtB1K_9dep_graph5graph12DepNodeIndexEKb0_KB7p_KB7p_ENtNtB3Y_8plumbing9QueryCtxtKb1_E0EB3Y_
librustc_driver-f8caf2bfd7396df8.so:_RINvMs6_NtCs3vuWhofJlp6_9hashbrown3rawINtB6_8RawTableTNtNtCsjdyqsEEf0cE_10rustc_span6def_id13LocalModDefIdINtNtNtCshF5AtUv7kVK_18rustc_query_system5query8plumbing11QueryResultNtB1L_18QueryStackDeferredEEE14reserve_rehashNCINvB1J_17try_execute_queryINtCs2ERWbPTlodK_16rustc_query_impl13DynamicConfigINtNtB1L_6caches12DefaultCacheBQ_INtNtNtCsbnIUe8x9cNz_12rustc_middle5query5erase6ErasedAhj0_EEKb0_KB6j_KB6j_ENtNtB41_8plumbing9QueryCtxtKB6j_E0EB41_
librustc_driver-f8caf2bfd7396df8.so:_RINvMs6_NtCs3vuWhofJlp6_9hashbrown3rawINtB6_8RawTableTNtNtCsjdyqsEEf0cE_10rustc_span6def_id13LocalModDefIdINtNtNtCshF5AtUv7kVK_18rustc_query_system5query8plumbing11QueryResultNtB1L_18QueryStackDeferredEEE14reserve_rehashNCINvB1J_17try_execute_queryINtCs2ERWbPTlodK_16rustc_query_impl13DynamicConfigINtNtB1L_6caches12DefaultCacheBQ_INtNtNtCsbnIUe8x9cNz_12rustc_middle5query5erase6ErasedAhj0_EEKb0_KB6j_KB6j_ENtNtB41_8plumbing9QueryCtxtKb1_E0EB41_
librustc_driver-f8caf2bfd7396df8.so:_RINvMs6_NtCs3vuWhofJlp6_9hashbrown3rawINtB6_8RawTableTNtNtCsjdyqsEEf0cE_10rustc_span6def_id13LocalModDefIdINtNtNtCshF5AtUv7kVK_18rustc_query_system5query8plumbing11QueryResultNtB1L_18QueryStackDeferredEEE14reserve_rehashNCINvB1J_17try_execute_queryINtCs2ERWbPTlodK_16rustc_query_impl13DynamicConfigINtNtB1L_6caches12DefaultCacheBQ_INtNtNtCsbnIUe8x9cNz_12rustc_middle5query5erase6ErasedAhj8_EEKb0_KB6j_KB6j_ENtNtB41_8plumbing9QueryCtxtKB6j_E0EB41_
librustc_driver-f8caf2bfd7396df8.so:_RINvMs6_NtCs3vuWhofJlp6_9hashbrown3rawINtB6_8RawTableTNtNtCsjdyqsEEf0cE_10rustc_span6def_id13LocalModDefIdINtNtNtCshF5AtUv7kVK_18rustc_query_system5query8plumbing11QueryResultNtB1L_18QueryStackDeferredEEE14reserve_rehashNCINvB1J_17try_execute_queryINtCs2ERWbPTlodK_16rustc_query_impl13DynamicConfigINtNtB1L_6caches12DefaultCacheBQ_INtNtNtCsbnIUe8x9cNz_12rustc_middle5query5erase6ErasedAhj8_EEKb0_KB6j_KB6j_ENtNtB41_8plumbing9QueryCtxtKb1_E0EB41_
librustc_driver-f8caf2bfd7396df8.so:_RINvMs6_NtCs3vuWhofJlp6_9hashbrown3rawINtB6_8RawTableTNtNtCsjdyqsEEf0cE_10rustc_span6def_id13LocalModDefIdTINtNtNtCsbnIUe8x9cNz_12rustc_middle5query5erase6ErasedAhj0_ENtNtNtCshF5AtUv7kVK_18rustc_query_system9dep_graph5graph12DepNodeIndexEEE14reserve_rehashNCINvNtCsiN8jfhUhbz9_21rustc_data_structures7sharded11table_entryBQ_B1G_BQ_Es_0ECs2ERWbPTlodK_16rustc_query_impl
librustc_driver-f8caf2bfd7396df8.so:_RINvMs6_NtCs3vuWhofJlp6_9hashbrown3rawINtB6_8RawTableTNtNtCsjdyqsEEf0cE_10rustc_span6def_id13LocalModDefIdTINtNtNtCsbnIUe8x9cNz_12rustc_middle5query5erase6ErasedAhj8_ENtNtNtCshF5AtUv7kVK_18rustc_query_system9dep_graph5graph12DepNodeIndexEEE14reserve_rehashNCINvNtCsiN8jfhUhbz9_21rustc_data_structures7sharded11table_entryBQ_B1G_BQ_Es_0ECs2ERWbPTlodK_16rustc_query_impl
librustc_driver-f8caf2bfd7396df8.so:_RINvMs6_NtCs3vuWhofJlp6_9hashbrown3rawINtB6_8RawTableTNtNtCsjdyqsEEf0cE_10rustc_span6def_id5DefIdINtNtNtCshF5AtUv7kVK_18rustc_query_system5query8plumbing11QueryResultNtB1C_18QueryStackDeferredEEE14reserve_rehashNCINvB1A_17try_execute_queryINtCs2ERWbPTlodK_16rustc_query_impl13DynamicConfigINtNtB1C_6caches10DefIdCacheINtNtNtCsbnIUe8x9cNz_12rustc_middle5query5erase6ErasedAhj0_EEKb0_KB65_KB65_ENtNtB3S_8plumbing9QueryCtxtKB65_E0EB3S_
librustc_driver-f8caf2bfd7396df8.so:_RINvMs6_NtCs3vuWhofJlp6_9hashbrown3rawINtB6_8RawTableTNtNtCsjdyqsEEf0cE_10rustc_span6def_id5DefIdINtNtNtCshF5AtUv7kVK_18rustc_query_system5query8plumbing11QueryResultNtB1C_18QueryStackDeferredEEE14reserve_rehashNCINvB1A_17try_execute_queryINtCs2ERWbPTlodK_16rustc_query_impl13DynamicConfigINtNtB1C_6caches10DefIdCacheINtNtNtCsbnIUe8x9cNz_12rustc_middle5query5erase6ErasedAhj0_EEKb0_KB65_KB65_ENtNtB3S_8plumbing9QueryCtxtKb1_E0EB3S_
librustc_driver-f8caf2bfd7396df8.so:_RINvMs6_NtCs3vuWhofJlp6_9hashbrown3rawINtB6_8RawTableTNtNtCsjdyqsEEf0cE_10rustc_span6def_id5DefIdINtNtNtCshF5AtUv7kVK_18rustc_query_system5query8plumbing11QueryResultNtB1C_18QueryStackDeferredEEE14reserve_rehashNCINvB1A_17try_execute_queryINtCs2ERWbPTlodK_16rustc_query_impl13DynamicConfigINtNtB1C_6caches10DefIdCacheINtNtNtCsbnIUe8x9cNz_12rustc_middle5query5erase6ErasedAhj10_EEKb0_KB66_KB66_ENtNtB3S_8plumbing9QueryCtxtKB66_E0EB3S_
librustc_driver-f8caf2bfd7396df8.so:_RINvMs6_NtCs3vuWhofJlp6_9hashbrown3rawINtB6_8RawTableTNtNtCsjdyqsEEf0cE_10rustc_span6def_id5DefIdINtNtNtCshF5AtUv7kVK_18rustc_query_system5query8plumbing11QueryResultNtB1C_18QueryStackDeferredEEE14reserve_rehashNCINvB1A_17try_execute_queryINtCs2ERWbPTlodK_16rustc_query_impl13DynamicConfigINtNtB1C_6caches10DefIdCacheINtNtNtCsbnIUe8x9cNz_12rustc_middle5query5erase6ErasedAhj10_EEKb0_KB66_KB66_ENtNtB3S_8plumbing9QueryCtxtKb1_E0EB3S_
librustc_driver-f8caf2bfd7396df8.so:_RINvMs6_NtCs3vuWhofJlp6_9hashbrown3rawINtB6_8RawTableTNtNtCsjdyqsEEf0cE_10rustc_span6def_id5DefIdINtNtNtCshF5AtUv7kVK_18rustc_query_system5query8plumbing11QueryResultNtB1C_18QueryStackDeferredEEE14reserve_rehashNCINvB1A_17try_execute_queryINtCs2ERWbPTlodK_16rustc_query_impl13DynamicConfigINtNtB1C_6caches10DefIdCacheINtNtNtCsbnIUe8x9cNz_12rustc_middle5query5erase6ErasedAhj14_EEKb0_KB66_KB66_ENtNtB3S_8plumbing9QueryCtxtKB66_E0EB3S_
librustc_driver-f8caf2bfd7396df8.so:_RINvMs6_NtCs3vuWhofJlp6_9hashbrown3rawINtB6_8RawTableTNtNtCsjdyqsEEf0cE_10rustc_span6def_id5DefIdINtNtNtCshF5AtUv7kVK_18rustc_query_system5query8plumbing11QueryResultNtB1C_18QueryStackDeferredEEE14reserve_rehashNCINvB1A_17try_execute_queryINtCs2ERWbPTlodK_16rustc_query_impl13DynamicConfigINtNtB1C_6caches10DefIdCacheINtNtNtCsbnIUe8x9cNz_12rustc_middle5query5erase6ErasedAhj14_EEKb0_KB66_KB66_ENtNtB3S_8plumbing9QueryCtxtKb1_E0EB3S_
librustc_driver-f8caf2bfd7396df8.so:_RINvMs6_NtCs3vuWhofJlp6_9hashbrown3rawINtB6_8RawTableTNtNtCsjdyqsEEf0cE_10rustc_span6def_id5DefIdINtNtNtCshF5AtUv7kVK_18rustc_query_system5query8plumbing11QueryResultNtB1C_18QueryStackDeferredEEE14reserve_rehashNCINvB1A_17try_execute_queryINtCs2ERWbPTlodK_16rustc_query_impl13DynamicConfigINtNtB1C_6caches10DefIdCacheINtNtNtCsbnIUe8x9cNz_12rustc_middle5query5erase6ErasedAhj18_EEKb0_KB66_KB66_ENtNtB3S_8plumbing9QueryCtxtKB66_E0EB3S_
librustc_driver-f8caf2bfd7396df8.so:_RINvMs6_NtCs3vuWhofJlp6_9hashbrown3rawINtB6_8RawTableTNtNtCsjdyqsEEf0cE_10rustc_span6def_id5DefIdINtNtNtCshF5AtUv7kVK_18rustc_query_system5query8plumbing11QueryResultNtB1C_18QueryStackDeferredEEE14reserve_rehashNCINvB1A_17try_execute_queryINtCs2ERWbPTlodK_16rustc_query_impl13DynamicConfigINtNtB1C_6caches10DefIdCacheINtNtNtCsbnIUe8x9cNz_12rustc_middle5query5erase6ErasedAhj18_EEKb0_KB66_KB66_ENtNtB3S_8plumbing9QueryCtxtKb1_E0EB3S_
librustc_driver-f8caf2bfd7396df8.so:_RINvMs6_NtCs3vuWhofJlp6_9hashbrown3rawINtB6_8RawTableTNtNtCsjdyqsEEf0cE_10rustc_span6def_id5DefIdINtNtNtCshF5AtUv7kVK_18rustc_query_system5query8plumbing11QueryResultNtB1C_18QueryStackDeferredEEE14reserve_rehashNCINvB1A_17try_execute_queryINtCs2ERWbPTlodK_16rustc_query_impl13DynamicConfigINtNtB1C_6caches10DefIdCacheINtNtNtCsbnIUe8x9cNz_12rustc_middle5query5erase6ErasedAhj1_EEKb0_KB65_KB65_ENtNtB3S_8plumbing9QueryCtxtKB65_E0EB3S_
librustc_driver-f8caf2bfd7396df8.so:_RINvMs6_NtCs3vuWhofJlp6_9hashbrown3rawINtB6_8RawTableTNtNtCsjdyqsEEf0cE_10rustc_span6def_id5DefIdINtNtNtCshF5AtUv7kVK_18rustc_query_system5query8plumbing11QueryResultNtB1C_18QueryStackDeferredEEE14reserve_rehashNCINvB1A_17try_execute_queryINtCs2ERWbPTlodK_16rustc_query_impl13DynamicConfigINtNtB1C_6caches10DefIdCacheINtNtNtCsbnIUe8x9cNz_12rustc_middle5query5erase6ErasedAhj1_EEKb0_KB65_KB65_ENtNtB3S_8plumbing9QueryCtxtKb1_E0EB3S_
librustc_driver-f8caf2bfd7396df8.so:_RINvMs6_NtCs3vuWhofJlp6_9hashbrown3rawINtB6_8RawTableTNtNtCsjdyqsEEf0cE_10rustc_span6def_id5DefIdINtNtNtCshF5AtUv7kVK_18rustc_query_system5query8plumbing11QueryResultNtB1C_18QueryStackDeferredEEE14reserve_rehashNCINvB1A_17try_execute_queryINtCs2ERWbPTlodK_16rustc_query_impl13DynamicConfigINtNtB1C_6caches10DefIdCacheINtNtNtCsbnIUe8x9cNz_12rustc_middle5query5erase6ErasedAhj1c_EEKb0_KB66_KB66_ENtNtB3S_8plumbing9QueryCtxtKB66_E0EB3S_
librustc_driver-f8caf2bfd7396df8.so:_RINvMs6_NtCs3vuWhofJlp6_9hashbrown3rawINtB6_8RawTableTNtNtCsjdyqsEEf0cE_10rustc_span6def_id5DefIdINtNtNtCshF5AtUv7kVK_18rustc_query_system5query8plumbing11QueryResultNtB1C_18QueryStackDeferredEEE14reserve_rehashNCINvB1A_17try_execute_queryINtCs2ERWbPTlodK_16rustc_query_impl13DynamicConfigINtNtB1C_6caches10DefIdCacheINtNtNtCsbnIUe8x9cNz_12rustc_middle5query5erase6ErasedAhj1c_EEKb0_KB66_KB66_ENtNtB3S_8plumbing9QueryCtxtKb1_E0EB3S_
librustc_driver-f8caf2bfd7396df8.so:_RINvMs6_NtCs3vuWhofJlp6_9hashbrown3rawINtB6_8RawTableTNtNtCsjdyqsEEf0cE_10rustc_span6def_id5DefIdINtNtNtCshF5AtUv7kVK_18rustc_query_system5query8plumbing11QueryResultNtB1C_18QueryStackDeferredEEE14reserve_rehashNCINvB1A_17try_execute_queryINtCs2ERWbPTlodK_16rustc_query_impl13DynamicConfigINtNtB1C_6caches10DefIdCacheINtNtNtCsbnIUe8x9cNz_12rustc_middle5query5erase6ErasedAhj20_EEKb0_KB66_KB66_ENtNtB3S_8plumbing9QueryCtxtKB66_E0EB3S_
librustc_driver-f8caf2bfd7396df8.so:_RINvMs6_NtCs3vuWhofJlp6_9hashbrown3rawINtB6_8RawTableTNtNtCsjdyqsEEf0cE_10rustc_span6def_id5DefIdINtNtNtCshF5AtUv7kVK_18rustc_query_system5query8plumbing11QueryResultNtB1C_18QueryStackDeferredEEE14reserve_rehashNCINvB1A_17try_execute_queryINtCs2ERWbPTlodK_16rustc_query_impl13DynamicConfigINtNtB1C_6caches10DefIdCacheINtNtNtCsbnIUe8x9cNz_12rustc_middle5query5erase6ErasedAhj20_EEKb0_KB66_KB66_ENtNtB3S_8plumbing9QueryCtxtKb1_E0EB3S_
librustc_driver-f8caf2bfd7396df8.so:_RINvMs6_NtCs3vuWhofJlp6_9hashbrown3rawINtB6_8RawTableTNtNtCsjdyqsEEf0cE_10rustc_span6def_id5DefIdINtNtNtCshF5AtUv7kVK_18rustc_query_system5query8plumbing11QueryResultNtB1C_18QueryStackDeferredEEE14reserve_rehashNCINvB1A_17try_execute_queryINtCs2ERWbPTlodK_16rustc_query_impl13DynamicConfigINtNtB1C_6caches10DefIdCacheINtNtNtCsbnIUe8x9cNz_12rustc_middle5query5erase6ErasedAhj2_EEKb0_KB65_KB65_ENtNtB3S_8plumbing9QueryCtxtKB65_E0EB3S_
librustc_driver-f8caf2bfd7396df8.so:_RINvMs6_NtCs3vuWhofJlp6_9hashbrown3rawINtB6_8RawTableTNtNtCsjdyqsEEf0cE_10rustc_span6def_id5DefIdINtNtNtCshF5AtUv7kVK_18rustc_query_system5query8plumbing11QueryResultNtB1C_18QueryStackDeferredEEE14reserve_rehashNCINvB1A_17try_execute_queryINtCs2ERWbPTlodK_16rustc_query_impl13DynamicConfigINtNtB1C_6caches10DefIdCacheINtNtNtCsbnIUe8x9cNz_12rustc_middle5query5erase6ErasedAhj2_EEKb0_KB65_KB65_ENtNtB3S_8plumbing9QueryCtxtKb1_E0EB3S_
librustc_driver-f8caf2bfd7396df8.so:_RINvMs6_NtCs3vuWhofJlp6_9hashbrown3rawINtB6_8RawTableTNtNtCsjdyqsEEf0cE_10rustc_span6def_id5DefIdINtNtNtCshF5AtUv7kVK_18rustc_query_system5query8plumbing11QueryResultNtB1C_18QueryStackDeferredEEE14reserve_rehashNCINvB1A_17try_execute_queryINtCs2ERWbPTlodK_16rustc_query_impl13DynamicConfigINtNtB1C_6caches10DefIdCacheINtNtNtCsbnIUe8x9cNz_12rustc_middle5query5erase6ErasedAhj3_EEKb0_KB65_KB65_ENtNtB3S_8plumbing9QueryCtxtKB65_E0EB3S_
librustc_driver-f8caf2bfd7396df8.so:_RINvMs6_NtCs3vuWhofJlp6_9hashbrown3rawINtB6_8RawTableTNtNtCsjdyqsEEf0cE_10rustc_span6def_id5DefIdINtNtNtCshF5AtUv7kVK_18rustc_query_system5query8plumbing11QueryResultNtB1C_18QueryStackDeferredEEE14reserve_rehashNCINvB1A_17try_execute_queryINtCs2ERWbPTlodK_16rustc_query_impl13DynamicConfigINtNtB1C_6caches10DefIdCacheINtNtNtCsbnIUe8x9cNz_12rustc_middle5query5erase6ErasedAhj3_EEKb0_KB65_KB65_ENtNtB3S_8plumbing9QueryCtxtKb1_E0EB3S_
librustc_driver-f8caf2bfd7396df8.so:_RINvMs6_NtCs3vuWhofJlp6_9hashbrown3rawINtB6_8RawTableTNtNtCsjdyqsEEf0cE_10rustc_span6def_id5DefIdINtNtNtCshF5AtUv7kVK_18rustc_query_system5query8plumbing11QueryResultNtB1C_18QueryStackDeferredEEE14reserve_rehashNCINvB1A_17try_execute_queryINtCs2ERWbPTlodK_16rustc_query_impl13DynamicConfigINtNtB1C_6caches10DefIdCacheINtNtNtCsbnIUe8x9cNz_12rustc_middle5query5erase6ErasedAhj4_EEKb0_KB65_KB65_ENtNtB3S_8plumbing9QueryCtxtKB65_E0EB3S_
librustc_driver-f8caf2bfd7396df8.so:_RINvMs6_NtCs3vuWhofJlp6_9hashbrown3rawINtB6_8RawTableTNtNtCsjdyqsEEf0cE_10rustc_span6def_id5DefIdINtNtNtCshF5AtUv7kVK_18rustc_query_system5query8plumbing11QueryResultNtB1C_18QueryStackDeferredEEE14reserve_rehashNCINvB1A_17try_execute_queryINtCs2ERWbPTlodK_16rustc_query_impl13DynamicConfigINtNtB1C_6caches10DefIdCacheINtNtNtCsbnIUe8x9cNz_12rustc_middle5query5erase6ErasedAhj4_EEKb0_KB65_KB65_ENtNtB3S_8plumbing9QueryCtxtKb1_E0EB3S_
librustc_driver-f8caf2bfd7396df8.so:_RINvMs6_NtCs3vuWhofJlp6_9hashbrown3rawINtB6_8RawTableTNtNtCsjdyqsEEf0cE_10rustc_span6def_id5DefIdINtNtNtCshF5AtUv7kVK_18rustc_query_system5query8plumbing11QueryResultNtB1C_18QueryStackDeferredEEE14reserve_rehashNCINvB1A_17try_execute_queryINtCs2ERWbPTlodK_16rustc_query_impl13DynamicConfigINtNtB1C_6caches10DefIdCacheINtNtNtCsbnIUe8x9cNz_12rustc_middle5query5erase6ErasedAhj8_EEKb0_KB65_KB65_ENtNtB3S_8plumbing9QueryCtxtKB65_E0EB3S_
librustc_driver-f8caf2bfd7396df8.so:_RINvMs6_NtCs3vuWhofJlp6_9hashbrown3rawINtB6_8RawTableTNtNtCsjdyqsEEf0cE_10rustc_span6def_id5DefIdINtNtNtCshF5AtUv7kVK_18rustc_query_system5query8plumbing11QueryResultNtB1C_18QueryStackDeferredEEE14reserve_rehashNCINvB1A_17try_execute_queryINtCs2ERWbPTlodK_16rustc_query_impl13DynamicConfigINtNtB1C_6caches10DefIdCacheINtNtNtCsbnIUe8x9cNz_12rustc_middle5query5erase6ErasedAhj8_EEKb0_KB65_KB65_ENtNtB3S_8plumbing9QueryCtxtKb1_E0EB3S_
librustc_driver-f8caf2bfd7396df8.so:_RINvMs6_NtCs3vuWhofJlp6_9hashbrown3rawINtB6_8RawTableTNtNtCsjdyqsEEf0cE_10rustc_span6def_id5DefIdINtNtNtCshF5AtUv7kVK_18rustc_query_system5query8plumbing11QueryResultNtB1C_18QueryStackDeferredEEE14reserve_rehashNCINvB1A_17try_execute_queryINtCs2ERWbPTlodK_16rustc_query_impl13DynamicConfigINtNtB1C_6caches10DefIdCacheINtNtNtCsbnIUe8x9cNz_12rustc_middle5query5erase6ErasedAhjc_EEKb0_KB65_KB65_ENtNtB3S_8plumbing9QueryCtxtKB65_E0EB3S_
librustc_driver-f8caf2bfd7396df8.so:_RINvMs6_NtCs3vuWhofJlp6_9hashbrown3rawINtB6_8RawTableTNtNtCsjdyqsEEf0cE_10rustc_span6def_id5DefIdINtNtNtCshF5AtUv7kVK_18rustc_query_system5query8plumbing11QueryResultNtB1C_18QueryStackDeferredEEE14reserve_rehashNCINvB1A_17try_execute_queryINtCs2ERWbPTlodK_16rustc_query_impl13DynamicConfigINtNtB1C_6caches10DefIdCacheINtNtNtCsbnIUe8x9cNz_12rustc_middle5query5erase6ErasedAhjc_EEKb0_KB65_KB65_ENtNtB3S_8plumbing9QueryCtxtKb1_E0EB3S_
librustc_driver-f8caf2bfd7396df8.so:_RINvMs6_NtCs3vuWhofJlp6_9hashbrown3rawINtB6_8RawTableTNtNtCsjdyqsEEf0cE_10rustc_span6def_id5DefIdTINtNtNtCsbnIUe8x9cNz_12rustc_middle5query5erase6ErasedAhj0_ENtNtNtCshF5AtUv7kVK_18rustc_query_system9dep_graph5graph12DepNodeIndexEEE14reserve_rehashNCINvNtCsiN8jfhUhbz9_21rustc_data_structures7sharded11table_entryBQ_B1x_BQ_Es_0ECs2ERWbPTlodK_16rustc_query_impl
librustc_driver-f8caf2bfd7396df8.so:_RINvMs6_NtCs3vuWhofJlp6_9hashbrown3rawINtB6_8RawTableTNtNtCsjdyqsEEf0cE_10rustc_span6def_id5DefIdTINtNtNtCsbnIUe8x9cNz_12rustc_middle5query5erase6ErasedAhj10_ENtNtNtCshF5AtUv7kVK_18rustc_query_system9dep_graph5graph12DepNodeIndexEEE14reserve_rehashNCINvNtCsiN8jfhUhbz9_21rustc_data_structures7sharded11table_entryBQ_B1x_BQ_Es_0ECs2ERWbPTlodK_16rustc_query_impl
librustc_driver-f8caf2bfd7396df8.so:_RINvMs6_NtCs3vuWhofJlp6_9hashbrown3rawINtB6_8RawTableTNtNtCsjdyqsEEf0cE_10rustc_span6def_id5DefIdTINtNtNtCsbnIUe8x9cNz_12rustc_middle5query5erase6ErasedAhj10_ENtNtNtCshF5AtUv7kVK_18rustc_query_system9dep_graph5graph12DepNodeIndexEEE14reserve_rehashNCINvNtCsiN8jfhUhbz9_21rustc_data_structures7sharded11table_entryBQ_B1x_BQ_Es_0ECs70IT0j5QNpU_16rustc_const_eval
librustc_driver-f8caf2bfd7396df8.so:_RINvMs6_NtCs3vuWhofJlp6_9hashbrown3rawINtB6_8RawTableTNtNtCsjdyqsEEf0cE_10rustc_span6def_id5DefIdTINtNtNtCsbnIUe8x9cNz_12rustc_middle5query5erase6ErasedAhj10_ENtNtNtCshF5AtUv7kVK_18rustc_query_system9dep_graph5graph12DepNodeIndexEEE14reserve_rehashNCINvNtCsiN8jfhUhbz9_21rustc_data_structures7sharded11table_entryBQ_B1x_BQ_Es_0ECsdcGL4HoWj4W_14rustc_ty_utils
librustc_driver-f8caf2bfd7396df8.so:_RINvMs6_NtCs3vuWhofJlp6_9hashbrown3rawINtB6_8RawTableTNtNtCsjdyqsEEf0cE_10rustc_span6def_id5DefIdTINtNtNtCsbnIUe8x9cNz_12rustc_middle5query5erase6ErasedAhj14_ENtNtNtCshF5AtUv7kVK_18rustc_query_system9dep_graph5graph12DepNodeIndexEEE14reserve_rehashNCINvNtCsiN8jfhUhbz9_21rustc_data_structures7sharded11table_entryBQ_B1x_BQ_Es_0ECs2ERWbPTlodK_16rustc_query_impl
librustc_driver-f8caf2bfd7396df8.so:_RINvMs6_NtCs3vuWhofJlp6_9hashbrown3rawINtB6_8RawTableTNtNtCsjdyqsEEf0cE_10rustc_span6def_id5DefIdTINtNtNtCsbnIUe8x9cNz_12rustc_middle5query5erase6ErasedAhj18_ENtNtNtCshF5AtUv7kVK_18rustc_query_system9dep_graph5graph12DepNodeIndexEEE14reserve_rehashNCINvNtCsiN8jfhUhbz9_21rustc_data_structures7sharded11table_entryBQ_B1x_BQ_Es_0ECs2ERWbPTlodK_16rustc_query_impl
librustc_driver-f8caf2bfd7396df8.so:_RINvMs6_NtCs3vuWhofJlp6_9hashbrown3rawINtB6_8RawTableTNtNtCsjdyqsEEf0cE_10rustc_span6def_id5DefIdTINtNtNtCsbnIUe8x9cNz_12rustc_middle5query5erase6ErasedAhj18_ENtNtNtCshF5AtUv7kVK_18rustc_query_system9dep_graph5graph12DepNodeIndexEEE14reserve_rehashNCINvNtCsiN8jfhUhbz9_21rustc_data_structures7sharded11table_entryBQ_B1x_BQ_Es_0ECs70IT0j5QNpU_16rustc_const_eval
librustc_driver-f8caf2bfd7396df8.so:_RINvMs6_NtCs3vuWhofJlp6_9hashbrown3rawINtB6_8RawTableTNtNtCsjdyqsEEf0cE_10rustc_span6def_id5DefIdTINtNtNtCsbnIUe8x9cNz_12rustc_middle5query5erase6ErasedAhj1_ENtNtNtCshF5AtUv7kVK_18rustc_query_system9dep_graph5graph12DepNodeIndexEEE14reserve_rehashNCINvNtCsiN8jfhUhbz9_21rustc_data_structures7sharded11table_entryBQ_B1x_BQ_Es_0ECs2ERWbPTlodK_16rustc_query_impl
librustc_driver-f8caf2bfd7396df8.so:_RINvMs6_NtCs3vuWhofJlp6_9hashbrown3rawINtB6_8RawTableTNtNtCsjdyqsEEf0cE_10rustc_span6def_id5DefIdTINtNtNtCsbnIUe8x9cNz_12rustc_middle5query5erase6ErasedAhj1_ENtNtNtCshF5AtUv7kVK_18rustc_query_system9dep_graph5graph12DepNodeIndexEEE14reserve_rehashNCINvNtCsiN8jfhUhbz9_21rustc_data_structures7sharded11table_entryBQ_B1x_BQ_Es_0ECs3pEzLKeUfxb_19rustc_mir_transform
librustc_driver-f8caf2bfd7396df8.so:_RINvMs6_NtCs3vuWhofJlp6_9hashbrown3rawINtB6_8RawTableTNtNtCsjdyqsEEf0cE_10rustc_span6def_id5DefIdTINtNtNtCsbnIUe8x9cNz_12rustc_middle5query5erase6ErasedAhj1_ENtNtNtCshF5AtUv7kVK_18rustc_query_system9dep_graph5graph12DepNodeIndexEEE14reserve_rehashNCINvNtCsiN8jfhUhbz9_21rustc_data_structures7sharded11table_entryBQ_B1x_BQ_Es_0ECsdcGL4HoWj4W_14rustc_ty_utils
librustc_driver-f8caf2bfd7396df8.so:_RINvMs6_NtCs3vuWhofJlp6_9hashbrown3rawINtB6_8RawTableTNtNtCsjdyqsEEf0cE_10rustc_span6def_id5DefIdTINtNtNtCsbnIUe8x9cNz_12rustc_middle5query5erase6ErasedAhj1c_ENtNtNtCshF5AtUv7kVK_18rustc_query_system9dep_graph5graph12DepNodeIndexEEE14reserve_rehashNCINvNtCsiN8jfhUhbz9_21rustc_data_structures7sharded11table_entryBQ_B1x_BQ_Es_0ECs2ERWbPTlodK_16rustc_query_impl
librustc_driver-f8caf2bfd7396df8.so:_RINvMs6_NtCs3vuWhofJlp6_9hashbrown3rawINtB6_8RawTableTNtNtCsjdyqsEEf0cE_10rustc_span6def_id5DefIdTINtNtNtCsbnIUe8x9cNz_12rustc_middle5query5erase6ErasedAhj20_ENtNtNtCshF5AtUv7kVK_18rustc_query_system9dep_graph5graph12DepNodeIndexEEE14reserve_rehashNCINvNtCsiN8jfhUhbz9_21rustc_data_structures7sharded11table_entryBQ_B1x_BQ_Es_0ECs2ERWbPTlodK_16rustc_query_impl
librustc_driver-f8caf2bfd7396df8.so:_RINvMs6_NtCs3vuWhofJlp6_9hashbrown3rawINtB6_8RawTableTNtNtCsjdyqsEEf0cE_10rustc_span6def_id5DefIdTINtNtNtCsbnIUe8x9cNz_12rustc_middle5query5erase6ErasedAhj20_ENtNtNtCshF5AtUv7kVK_18rustc_query_system9dep_graph5graph12DepNodeIndexEEE14reserve_rehashNCINvNtCsiN8jfhUhbz9_21rustc_data_structures7sharded11table_entryBQ_B1x_BQ_Es_0ECsdcGL4HoWj4W_14rustc_ty_utils
librustc_driver-f8caf2bfd7396df8.so:_RINvMs6_NtCs3vuWhofJlp6_9hashbrown3rawINtB6_8RawTableTNtNtCsjdyqsEEf0cE_10rustc_span6def_id5DefIdTINtNtNtCsbnIUe8x9cNz_12rustc_middle5query5erase6ErasedAhj2_ENtNtNtCshF5AtUv7kVK_18rustc_query_system9dep_graph5graph12DepNodeIndexEEE14reserve_rehashNCINvNtCsiN8jfhUhbz9_21rustc_data_structures7sharded11table_entryBQ_B1x_BQ_Es_0ECs2ERWbPTlodK_16rustc_query_impl
librustc_driver-f8caf2bfd7396df8.so:_RINvMs6_NtCs3vuWhofJlp6_9hashbrown3rawINtB6_8RawTableTNtNtCsjdyqsEEf0cE_10rustc_span6def_id5DefIdTINtNtNtCsbnIUe8x9cNz_12rustc_middle5query5erase6ErasedAhj2_ENtNtNtCshF5AtUv7kVK_18rustc_query_system9dep_graph5graph12DepNodeIndexEEE14reserve_rehashNCINvNtCsiN8jfhUhbz9_21rustc_data_structures7sharded11table_entryBQ_B1x_BQ_Es_0ECs3pEzLKeUfxb_19rustc_mir_transform
librustc_driver-f8caf2bfd7396df8.so:_RINvMs6_NtCs3vuWhofJlp6_9hashbrown3rawINtB6_8RawTableTNtNtCsjdyqsEEf0cE_10rustc_span6def_id5DefIdTINtNtNtCsbnIUe8x9cNz_12rustc_middle5query5erase6ErasedAhj3_ENtNtNtCshF5AtUv7kVK_18rustc_query_system9dep_graph5graph12DepNodeIndexEEE14reserve_rehashNCINvNtCsiN8jfhUhbz9_21rustc_data_structures7sharded11table_entryBQ_B1x_BQ_Es_0EB1F_
librustc_driver-f8caf2bfd7396df8.so:_RINvMs6_NtCs3vuWhofJlp6_9hashbrown3rawINtB6_8RawTableTNtNtCsjdyqsEEf0cE_10rustc_span6def_id5DefIdTINtNtNtCsbnIUe8x9cNz_12rustc_middle5query5erase6ErasedAhj4_ENtNtNtCshF5AtUv7kVK_18rustc_query_system9dep_graph5graph12DepNodeIndexEEE14reserve_rehashNCINvNtCsiN8jfhUhbz9_21rustc_data_structures7sharded11table_entryBQ_B1x_BQ_Es_0ECs2ERWbPTlodK_16rustc_query_impl
librustc_driver-f8caf2bfd7396df8.so:_RINvMs6_NtCs3vuWhofJlp6_9hashbrown3rawINtB6_8RawTableTNtNtCsjdyqsEEf0cE_10rustc_span6def_id5DefIdTINtNtNtCsbnIUe8x9cNz_12rustc_middle5query5erase6ErasedAhj8_ENtNtNtCshF5AtUv7kVK_18rustc_query_system9dep_graph5graph12DepNodeIndexEEE14reserve_rehashNCINvNtCsiN8jfhUhbz9_21rustc_data_structures7sharded11table_entryBQ_B1x_BQ_Es_0EB1F_
librustc_driver-f8caf2bfd7396df8.so:_RINvMs6_NtCs3vuWhofJlp6_9hashbrown3rawINtB6_8RawTableTNtNtCsjdyqsEEf0cE_10rustc_span6def_id5DefIdTINtNtNtCsbnIUe8x9cNz_12rustc_middle5query5erase6ErasedAhjc_ENtNtNtCshF5AtUv7kVK_18rustc_query_system9dep_graph5graph12DepNodeIndexEEE14reserve_rehashNCINvNtCsiN8jfhUhbz9_21rustc_data_structures7sharded11table_entryBQ_B1x_BQ_Es_0ECs25h6OjkxBzy_18rustc_hir_analysis
librustc_driver-f8caf2bfd7396df8.so:_RINvMs6_NtCs3vuWhofJlp6_9hashbrown3rawINtB6_8RawTableTNtNtCsjdyqsEEf0cE_10rustc_span6def_id5DefIdTINtNtNtCsbnIUe8x9cNz_12rustc_middle5query5erase6ErasedAhjc_ENtNtNtCshF5AtUv7kVK_18rustc_query_system9dep_graph5graph12DepNodeIndexEEE14reserve_rehashNCINvNtCsiN8jfhUhbz9_21rustc_data_structures7sharded11table_entryBQ_B1x_BQ_Es_0ECs2ERWbPTlodK_16rustc_query_impl
librustc_driver-f8caf2bfd7396df8.so:_RINvMs6_NtCs3vuWhofJlp6_9hashbrown3rawINtB6_8RawTableTNtNtCsjdyqsEEf0cE_10rustc_span6def_id5DefIdTINtNtNtCsbnIUe8x9cNz_12rustc_middle5query5erase6ErasedAhjc_ENtNtNtCshF5AtUv7kVK_18rustc_query_system9dep_graph5graph12DepNodeIndexEEE14reserve_rehashNCINvNtCsiN8jfhUhbz9_21rustc_data_structures7sharded11table_entryBQ_B1x_BQ_Es_0ECs70IT0j5QNpU_16rustc_const_eval
librustc_driver-f8caf2bfd7396df8.so:_RINvMs6_NtCs3vuWhofJlp6_9hashbrown3rawINtB6_8RawTableTNtNtCsjdyqsEEf0cE_10rustc_span6def_id5DefIdTINtNtNtCsbnIUe8x9cNz_12rustc_middle5query5erase6ErasedAhjc_ENtNtNtCshF5AtUv7kVK_18rustc_query_system9dep_graph5graph12DepNodeIndexEEE14reserve_rehashNCINvNtCsiN8jfhUhbz9_21rustc_data_structures7sharded11table_entryBQ_B1x_BQ_Es_0ECsdcGL4HoWj4W_14rustc_ty_utils
librustc_driver-f8caf2bfd7396df8.so:_RINvMs6_NtCs3vuWhofJlp6_9hashbrown3rawINtB6_8RawTableTNtNtCsjdyqsEEf0cE_10rustc_span6def_id8CrateNumINtNtNtCshF5AtUv7kVK_18rustc_query_system5query8plumbing11QueryResultNtB1F_18QueryStackDeferredEEE14reserve_rehashNCINvB1D_17try_execute_queryINtCs2ERWbPTlodK_16rustc_query_impl13DynamicConfigINtNtCsiN8jfhUhbz9_21rustc_data_structures9vec_cache8VecCacheBQ_INtNtNtCsbnIUe8x9cNz_12rustc_middle5query5erase6ErasedAhj10_ENtNtNtB1H_9dep_graph5graph12DepNodeIndexEKb0_KB7n_KB7n_ENtNtB3V_8plumbing9QueryCtxtKB7n_E0EB3V_
librustc_driver-f8caf2bfd7396df8.so:_RINvMs6_NtCs3vuWhofJlp6_9hashbrown3rawINtB6_8RawTableTNtNtCsjdyqsEEf0cE_10rustc_span6def_id8CrateNumINtNtNtCshF5AtUv7kVK_18rustc_query_system5query8plumbing11QueryResultNtB1F_18QueryStackDeferredEEE14reserve_rehashNCINvB1D_17try_execute_queryINtCs2ERWbPTlodK_16rustc_query_impl13DynamicConfigINtNtCsiN8jfhUhbz9_21rustc_data_structures9vec_cache8VecCacheBQ_INtNtNtCsbnIUe8x9cNz_12rustc_middle5query5erase6ErasedAhj10_ENtNtNtB1H_9dep_graph5graph12DepNodeIndexEKb0_KB7n_KB7n_ENtNtB3V_8plumbing9QueryCtxtKb1_E0EB3V_
librustc_driver-f8caf2bfd7396df8.so:_RINvMs6_NtCs3vuWhofJlp6_9hashbrown3rawINtB6_8RawTableTNtNtCsjdyqsEEf0cE_10rustc_span6def_id8CrateNumINtNtNtCshF5AtUv7kVK_18rustc_query_system5query8plumbing11QueryResultNtB1F_18QueryStackDeferredEEE14reserve_rehashNCINvB1D_17try_execute_queryINtCs2ERWbPTlodK_16rustc_query_impl13DynamicConfigINtNtCsiN8jfhUhbz9_21rustc_data_structures9vec_cache8VecCacheBQ_INtNtNtCsbnIUe8x9cNz_12rustc_middle5query5erase6ErasedAhj18_ENtNtNtB1H_9dep_graph5graph12DepNodeIndexEKb0_KB7n_KB7n_ENtNtB3V_8plumbing9QueryCtxtKB7n_E0EB3V_
librustc_driver-f8caf2bfd7396df8.so:_RINvMs6_NtCs3vuWhofJlp6_9hashbrown3rawINtB6_8RawTableTNtNtCsjdyqsEEf0cE_10rustc_span6def_id8CrateNumINtNtNtCshF5AtUv7kVK_18rustc_query_system5query8plumbing11QueryResultNtB1F_18QueryStackDeferredEEE14reserve_rehashNCINvB1D_17try_execute_queryINtCs2ERWbPTlodK_16rustc_query_impl13DynamicConfigINtNtCsiN8jfhUhbz9_21rustc_data_structures9vec_cache8VecCacheBQ_INtNtNtCsbnIUe8x9cNz_12rustc_middle5query5erase6ErasedAhj18_ENtNtNtB1H_9dep_graph5graph12DepNodeIndexEKb0_KB7n_KB7n_ENtNtB3V_8plumbing9QueryCtxtKb1_E0EB3V_
librustc_driver-f8caf2bfd7396df8.so:_RINvMs6_NtCs3vuWhofJlp6_9hashbrown3rawINtB6_8RawTableTNtNtCsjdyqsEEf0cE_10rustc_span6def_id8CrateNumINtNtNtCshF5AtUv7kVK_18rustc_query_system5query8plumbing11QueryResultNtB1F_18QueryStackDeferredEEE14reserve_rehashNCINvB1D_17try_execute_queryINtCs2ERWbPTlodK_16rustc_query_impl13DynamicConfigINtNtCsiN8jfhUhbz9_21rustc_data_structures9vec_cache8VecCacheBQ_INtNtNtCsbnIUe8x9cNz_12rustc_middle5query5erase6ErasedAhj1_ENtNtNtB1H_9dep_graph5graph12DepNodeIndexEKb0_KB7m_KB7m_ENtNtB3V_8plumbing9QueryCtxtKB7m_E0EB3V_
librustc_driver-f8caf2bfd7396df8.so:_RINvMs6_NtCs3vuWhofJlp6_9hashbrown3rawINtB6_8RawTableTNtNtCsjdyqsEEf0cE_10rustc_span6def_id8CrateNumINtNtNtCshF5AtUv7kVK_18rustc_query_system5query8plumbing11QueryResultNtB1F_18QueryStackDeferredEEE14reserve_rehashNCINvB1D_17try_execute_queryINtCs2ERWbPTlodK_16rustc_query_impl13DynamicConfigINtNtCsiN8jfhUhbz9_21rustc_data_structures9vec_cache8VecCacheBQ_INtNtNtCsbnIUe8x9cNz_12rustc_middle5query5erase6ErasedAhj1_ENtNtNtB1H_9dep_graph5graph12DepNodeIndexEKb0_KB7m_KB7m_ENtNtB3V_8plumbing9QueryCtxtKb1_E0EB3V_
librustc_driver-f8caf2bfd7396df8.so:_RINvMs6_NtCs3vuWhofJlp6_9hashbrown3rawINtB6_8RawTableTNtNtCsjdyqsEEf0cE_10rustc_span6def_id8CrateNumINtNtNtCshF5AtUv7kVK_18rustc_query_system5query8plumbing11QueryResultNtB1F_18QueryStackDeferredEEE14reserve_rehashNCINvB1D_17try_execute_queryINtCs2ERWbPTlodK_16rustc_query_impl13DynamicConfigINtNtCsiN8jfhUhbz9_21rustc_data_structures9vec_cache8VecCacheBQ_INtNtNtCsbnIUe8x9cNz_12rustc_middle5query5erase6ErasedAhj4_ENtNtNtB1H_9dep_graph5graph12DepNodeIndexEKb0_KB7m_KB7m_ENtNtB3V_8plumbing9QueryCtxtKB7m_E0EB3V_
librustc_driver-f8caf2bfd7396df8.so:_RINvMs6_NtCs3vuWhofJlp6_9hashbrown3rawINtB6_8RawTableTNtNtCsjdyqsEEf0cE_10rustc_span6def_id8CrateNumINtNtNtCshF5AtUv7kVK_18rustc_query_system5query8plumbing11QueryResultNtB1F_18QueryStackDeferredEEE14reserve_rehashNCINvB1D_17try_execute_queryINtCs2ERWbPTlodK_16rustc_query_impl13DynamicConfigINtNtCsiN8jfhUhbz9_21rustc_data_structures9vec_cache8VecCacheBQ_INtNtNtCsbnIUe8x9cNz_12rustc_middle5query5erase6ErasedAhj4_ENtNtNtB1H_9dep_graph5graph12DepNodeIndexEKb0_KB7m_KB7m_ENtNtB3V_8plumbing9QueryCtxtKb1_E0EB3V_
librustc_driver-f8caf2bfd7396df8.so:_RINvMs6_NtCs3vuWhofJlp6_9hashbrown3rawINtB6_8RawTableTNtNtCsjdyqsEEf0cE_10rustc_span6def_id8CrateNumINtNtNtCshF5AtUv7kVK_18rustc_query_system5query8plumbing11QueryResultNtB1F_18QueryStackDeferredEEE14reserve_rehashNCINvB1D_17try_execute_queryINtCs2ERWbPTlodK_16rustc_query_impl13DynamicConfigINtNtCsiN8jfhUhbz9_21rustc_data_structures9vec_cache8VecCacheBQ_INtNtNtCsbnIUe8x9cNz_12rustc_middle5query5erase6ErasedAhj8_ENtNtNtB1H_9dep_graph5graph12DepNodeIndexEKb0_KB7m_KB7m_ENtNtB3V_8plumbing9QueryCtxtKB7m_E0EB3V_
librustc_driver-f8caf2bfd7396df8.so:_RINvMs6_NtCs3vuWhofJlp6_9hashbrown3rawINtB6_8RawTableTNtNtCsjdyqsEEf0cE_10rustc_span6def_id8CrateNumINtNtNtCshF5AtUv7kVK_18rustc_query_system5query8plumbing11QueryResultNtB1F_18QueryStackDeferredEEE14reserve_rehashNCINvB1D_17try_execute_queryINtCs2ERWbPTlodK_16rustc_query_impl13DynamicConfigINtNtCsiN8jfhUhbz9_21rustc_data_structures9vec_cache8VecCacheBQ_INtNtNtCsbnIUe8x9cNz_12rustc_middle5query5erase6ErasedAhj8_ENtNtNtB1H_9dep_graph5graph12DepNodeIndexEKb0_KB7m_KB7m_ENtNtB3V_8plumbing9QueryCtxtKb1_E0EB3V_
librustc_driver-f8caf2bfd7396df8.so:_RINvMs6_NtCs3vuWhofJlp6_9hashbrown3rawINtB6_8RawTableTNtNtCsjdyqsEEf0cE_10rustc_span6symbol6SymbolINtNtNtCshF5AtUv7kVK_18rustc_query_system5query8plumbing11QueryResultNtB1D_18QueryStackDeferredEEE14reserve_rehashNCINvB1B_17try_execute_queryINtCs2ERWbPTlodK_16rustc_query_impl13DynamicConfigINtNtB1D_6caches12DefaultCacheBQ_INtNtNtCsbnIUe8x9cNz_12rustc_middle5query5erase6ErasedAhj8_EEKb0_KB6b_KB6b_ENtNtB3T_8plumbing9QueryCtxtKB6b_E0EB3T_
librustc_driver-f8caf2bfd7396df8.so:_RINvMs6_NtCs3vuWhofJlp6_9hashbrown3rawINtB6_8RawTableTNtNtCsjdyqsEEf0cE_10rustc_span6symbol6SymbolINtNtNtCshF5AtUv7kVK_18rustc_query_system5query8plumbing11QueryResultNtB1D_18QueryStackDeferredEEE14reserve_rehashNCINvB1B_17try_execute_queryINtCs2ERWbPTlodK_16rustc_query_impl13DynamicConfigINtNtB1D_6caches12DefaultCacheBQ_INtNtNtCsbnIUe8x9cNz_12rustc_middle5query5erase6ErasedAhj8_EEKb0_KB6b_KB6b_ENtNtB3T_8plumbing9QueryCtxtKb1_E0EB3T_
librustc_driver-f8caf2bfd7396df8.so:_RINvMs6_NtCs3vuWhofJlp6_9hashbrown3rawINtB6_8RawTableTNtNtCsjdyqsEEf0cE_10rustc_span6symbol6SymbolTINtNtNtCsbnIUe8x9cNz_12rustc_middle5query5erase6ErasedAhj8_ENtNtNtCshF5AtUv7kVK_18rustc_query_system9dep_graph5graph12DepNodeIndexEEE14reserve_rehashNCINvNtCsiN8jfhUhbz9_21rustc_data_structures7sharded11table_entryBQ_B1y_BQ_Es_0ECs2ERWbPTlodK_16rustc_query_impl
librustc_driver-f8caf2bfd7396df8.so:_RINvMs6_NtCs3vuWhofJlp6_9hashbrown3rawINtB6_8RawTableTNtNtNtCsbnIUe8x9cNz_12rustc_middle2ty6consts5ConstINtNtNtCshF5AtUv7kVK_18rustc_query_system5query8plumbing11QueryResultNtB1J_18QueryStackDeferredEEE14reserve_rehashNCINvB1H_17try_execute_queryINtCs2ERWbPTlodK_16rustc_query_impl13DynamicConfigINtNtB1J_6caches12DefaultCacheBQ_INtNtNtBW_5query5erase6ErasedAhj18_EEKb0_KB5T_KB5T_ENtNtB3Z_8plumbing9QueryCtxtKB5T_E0EB3Z_
librustc_driver-f8caf2bfd7396df8.so:_RINvMs6_NtCs3vuWhofJlp6_9hashbrown3rawINtB6_8RawTableTNtNtNtCsbnIUe8x9cNz_12rustc_middle2ty6consts5ConstINtNtNtCshF5AtUv7kVK_18rustc_query_system5query8plumbing11QueryResultNtB1J_18QueryStackDeferredEEE14reserve_rehashNCINvB1H_17try_execute_queryINtCs2ERWbPTlodK_16rustc_query_impl13DynamicConfigINtNtB1J_6caches12DefaultCacheBQ_INtNtNtBW_5query5erase6ErasedAhj18_EEKb0_KB5T_KB5T_ENtNtB3Z_8plumbing9QueryCtxtKb1_E0EB3Z_
librustc_driver-f8caf2bfd7396df8.so:_RINvMs6_NtCs3vuWhofJlp6_9hashbrown3rawINtB6_8RawTableTNtNtNtCsbnIUe8x9cNz_12rustc_middle2ty6consts5ConstTINtNtNtBW_5query5erase6ErasedAhj18_ENtNtNtCshF5AtUv7kVK_18rustc_query_system9dep_graph5graph12DepNodeIndexEEE14reserve_rehashNCINvNtCsiN8jfhUhbz9_21rustc_data_structures7sharded11table_entryBQ_B1E_BQ_Es_0ECs2ERWbPTlodK_16rustc_query_impl
librustc_driver-f8caf2bfd7396df8.so:_RINvMs6_NtCs3vuWhofJlp6_9hashbrown3rawINtB6_8RawTableTNtNtNtCsbnIUe8x9cNz_12rustc_middle2ty8instance12InstanceKindINtNtNtCshF5AtUv7kVK_18rustc_query_system5query8plumbing11QueryResultNtB1T_18QueryStackDeferredEEE14reserve_rehashNCINvB1R_17try_execute_queryINtCs2ERWbPTlodK_16rustc_query_impl13DynamicConfigINtNtB1T_6caches12DefaultCacheBQ_INtNtNtBW_5query5erase6ErasedAhj10_EEKb0_KB63_KB63_ENtNtB49_8plumbing9QueryCtxtKB63_E0EB49_
librustc_driver-f8caf2bfd7396df8.so:_RINvMs6_NtCs3vuWhofJlp6_9hashbrown3rawINtB6_8RawTableTNtNtNtCsbnIUe8x9cNz_12rustc_middle2ty8instance12InstanceKindINtNtNtCshF5AtUv7kVK_18rustc_query_system5query8plumbing11QueryResultNtB1T_18QueryStackDeferredEEE14reserve_rehashNCINvB1R_17try_execute_queryINtCs2ERWbPTlodK_16rustc_query_impl13DynamicConfigINtNtB1T_6caches12DefaultCacheBQ_INtNtNtBW_5query5erase6ErasedAhj10_EEKb0_KB63_KB63_ENtNtB49_8plumbing9QueryCtxtKb1_E0EB49_
librustc_driver-f8caf2bfd7396df8.so:_RINvMs6_NtCs3vuWhofJlp6_9hashbrown3rawINtB6_8RawTableTNtNtNtCsbnIUe8x9cNz_12rustc_middle2ty8instance12InstanceKindINtNtNtCshF5AtUv7kVK_18rustc_query_system5query8plumbing11QueryResultNtB1T_18QueryStackDeferredEEE14reserve_rehashNCINvB1R_17try_execute_queryINtCs2ERWbPTlodK_16rustc_query_impl13DynamicConfigINtNtB1T_6caches12DefaultCacheBQ_INtNtNtBW_5query5erase6ErasedAhj8_EEKb0_KB62_KB62_ENtNtB49_8plumbing9QueryCtxtKB62_E0EB49_
librustc_driver-f8caf2bfd7396df8.so:_RINvMs6_NtCs3vuWhofJlp6_9hashbrown3rawINtB6_8RawTableTNtNtNtCsbnIUe8x9cNz_12rustc_middle2ty8instance12InstanceKindINtNtNtCshF5AtUv7kVK_18rustc_query_system5query8plumbing11QueryResultNtB1T_18QueryStackDeferredEEE14reserve_rehashNCINvB1R_17try_execute_queryINtCs2ERWbPTlodK_16rustc_query_impl13DynamicConfigINtNtB1T_6caches12DefaultCacheBQ_INtNtNtBW_5query5erase6ErasedAhj8_EEKb0_KB62_KB62_ENtNtB49_8plumbing9QueryCtxtKb1_E0EB49_
librustc_driver-f8caf2bfd7396df8.so:_RINvMs6_NtCs3vuWhofJlp6_9hashbrown3rawINtB6_8RawTableTNtNtNtCsbnIUe8x9cNz_12rustc_middle2ty8instance12InstanceKindTINtNtNtBW_5query5erase6ErasedAhj10_ENtNtNtCshF5AtUv7kVK_18rustc_query_system9dep_graph5graph12DepNodeIndexEEE14reserve_rehashNCINvNtCsiN8jfhUhbz9_21rustc_data_structures7sharded11table_entryBQ_B1O_BQ_Es_0ECs2ERWbPTlodK_16rustc_query_impl
librustc_driver-f8caf2bfd7396df8.so:_RINvMs6_NtCs3vuWhofJlp6_9hashbrown3rawINtB6_8RawTableTNtNtNtCsbnIUe8x9cNz_12rustc_middle2ty8instance12InstanceKindTINtNtNtBW_5query5erase6ErasedAhj8_ENtNtNtCshF5AtUv7kVK_18rustc_query_system9dep_graph5graph12DepNodeIndexEEE14reserve_rehashNCINvNtCsiN8jfhUhbz9_21rustc_data_structures7sharded11table_entryBQ_B1O_BQ_Es_0ECs2ERWbPTlodK_16rustc_query_impl
librustc_driver-f8caf2bfd7396df8.so:_RINvMs6_NtCs3vuWhofJlp6_9hashbrown3rawINtB6_8RawTableTNtNtNtCsbnIUe8x9cNz_12rustc_middle2ty8instance8InstanceINtNtNtCshF5AtUv7kVK_18rustc_query_system5query8plumbing11QueryResultNtB1O_18QueryStackDeferredEEE14reserve_rehashNCINvB1M_17try_execute_queryINtCs2ERWbPTlodK_16rustc_query_impl13DynamicConfigINtNtB1O_6caches12DefaultCacheBQ_INtNtNtBW_5query5erase6ErasedAhj0_EEKb0_KB5X_KB5X_ENtNtB44_8plumbing9QueryCtxtKB5X_E0EB44_
librustc_driver-f8caf2bfd7396df8.so:_RINvMs6_NtCs3vuWhofJlp6_9hashbrown3rawINtB6_8RawTableTNtNtNtCsbnIUe8x9cNz_12rustc_middle2ty8instance8InstanceINtNtNtCshF5AtUv7kVK_18rustc_query_system5query8plumbing11QueryResultNtB1O_18QueryStackDeferredEEE14reserve_rehashNCINvB1M_17try_execute_queryINtCs2ERWbPTlodK_16rustc_query_impl13DynamicConfigINtNtB1O_6caches12DefaultCacheBQ_INtNtNtBW_5query5erase6ErasedAhj0_EEKb0_KB5X_KB5X_ENtNtB44_8plumbing9QueryCtxtKb1_E0EB44_
librustc_driver-f8caf2bfd7396df8.so:_RINvMs6_NtCs3vuWhofJlp6_9hashbrown3rawINtB6_8RawTableTNtNtNtCsbnIUe8x9cNz_12rustc_middle2ty8instance8InstanceINtNtNtCshF5AtUv7kVK_18rustc_query_system5query8plumbing11QueryResultNtB1O_18QueryStackDeferredEEE14reserve_rehashNCINvB1M_17try_execute_queryINtCs2ERWbPTlodK_16rustc_query_impl13DynamicConfigINtNtB1O_6caches12DefaultCacheBQ_INtNtNtBW_5query5erase6ErasedAhj10_EEKb0_KB5Y_KB5Y_ENtNtB44_8plumbing9QueryCtxtKB5Y_E0EB44_
librustc_driver-f8caf2bfd7396df8.so:_RINvMs6_NtCs3vuWhofJlp6_9hashbrown3rawINtB6_8RawTableTNtNtNtCsbnIUe8x9cNz_12rustc_middle2ty8instance8InstanceINtNtNtCshF5AtUv7kVK_18rustc_query_system5query8plumbing11QueryResultNtB1O_18QueryStackDeferredEEE14reserve_rehashNCINvB1M_17try_execute_queryINtCs2ERWbPTlodK_16rustc_query_impl13DynamicConfigINtNtB1O_6caches12DefaultCacheBQ_INtNtNtBW_5query5erase6ErasedAhj10_EEKb0_KB5Y_KB5Y_ENtNtB44_8plumbing9QueryCtxtKb1_E0EB44_
librustc_driver-f8caf2bfd7396df8.so:_RINvMs6_NtCs3vuWhofJlp6_9hashbrown3rawINtB6_8RawTableTNtNtNtCsbnIUe8x9cNz_12rustc_middle2ty8instance8InstanceINtNtNtCshF5AtUv7kVK_18rustc_query_system5query8plumbing11QueryResultNtB1O_18QueryStackDeferredEEE14reserve_rehashNCINvB1M_17try_execute_queryINtCs2ERWbPTlodK_16rustc_query_impl13DynamicConfigINtNtB1O_6caches12DefaultCacheBQ_INtNtNtBW_5query5erase6ErasedAhj8_EEKb0_KB5X_KB5X_ENtNtB44_8plumbing9QueryCtxtKB5X_E0EB44_
librustc_driver-f8caf2bfd7396df8.so:_RINvMs6_NtCs3vuWhofJlp6_9hashbrown3rawINtB6_8RawTableTNtNtNtCsbnIUe8x9cNz_12rustc_middle2ty8instance8InstanceINtNtNtCshF5AtUv7kVK_18rustc_query_system5query8plumbing11QueryResultNtB1O_18QueryStackDeferredEEE14reserve_rehashNCINvB1M_17try_execute_queryINtCs2ERWbPTlodK_16rustc_query_impl13DynamicConfigINtNtB1O_6caches12DefaultCacheBQ_INtNtNtBW_5query5erase6ErasedAhj8_EEKb0_KB5X_KB5X_ENtNtB44_8plumbing9QueryCtxtKb1_E0EB44_
librustc_driver-f8caf2bfd7396df8.so:_RINvMs6_NtCs3vuWhofJlp6_9hashbrown3rawINtB6_8RawTableTNtNtNtCsbnIUe8x9cNz_12rustc_middle2ty8instance8InstanceTINtNtNtBW_5query5erase6ErasedAhj0_ENtNtNtCshF5AtUv7kVK_18rustc_query_system9dep_graph5graph12DepNodeIndexEEE14reserve_rehashNCINvNtCsiN8jfhUhbz9_21rustc_data_structures7sharded11table_entryBQ_B1J_BQ_Es_0ECs2ERWbPTlodK_16rustc_query_impl
librustc_driver-f8caf2bfd7396df8.so:_RINvMs6_NtCs3vuWhofJlp6_9hashbrown3rawINtB6_8RawTableTNtNtNtCsbnIUe8x9cNz_12rustc_middle2ty8instance8InstanceTINtNtNtBW_5query5erase6ErasedAhj10_ENtNtNtCshF5AtUv7kVK_18rustc_query_system9dep_graph5graph12DepNodeIndexEEE14reserve_rehashNCINvNtCsiN8jfhUhbz9_21rustc_data_structures7sharded11table_entryBQ_B1J_BQ_Es_0ECs2ERWbPTlodK_16rustc_query_impl
librustc_driver-f8caf2bfd7396df8.so:_RINvMs6_NtCs3vuWhofJlp6_9hashbrown3rawINtB6_8RawTableTNtNtNtCsbnIUe8x9cNz_12rustc_middle2ty8instance8InstanceTINtNtNtBW_5query5erase6ErasedAhj8_ENtNtNtCshF5AtUv7kVK_18rustc_query_system9dep_graph5graph12DepNodeIndexEEE14reserve_rehashNCINvNtCsiN8jfhUhbz9_21rustc_data_structures7sharded11table_entryBQ_B1J_BQ_Es_0ECs2ERWbPTlodK_16rustc_query_impl
librustc_driver-f8caf2bfd7396df8.so:_RINvMs6_NtCs3vuWhofJlp6_9hashbrown3rawINtB6_8RawTableTNtNtNtCsbnIUe8x9cNz_12rustc_middle3mir9interpret15LitToConstInputINtNtNtCshF5AtUv7kVK_18rustc_query_system5query8plumbing11QueryResultNtB1Y_18QueryStackDeferredEEE14reserve_rehashNCINvB1W_17try_execute_queryINtCs2ERWbPTlodK_16rustc_query_impl13DynamicConfigINtNtB1Y_6caches12DefaultCacheBQ_INtNtNtBW_5query5erase6ErasedAhj8_EEKb0_KB67_KB67_ENtNtB4e_8plumbing9QueryCtxtKB67_E0EB4e_
librustc_driver-f8caf2bfd7396df8.so:_RINvMs6_NtCs3vuWhofJlp6_9hashbrown3rawINtB6_8RawTableTNtNtNtCsbnIUe8x9cNz_12rustc_middle3mir9interpret15LitToConstInputINtNtNtCshF5AtUv7kVK_18rustc_query_system5query8plumbing11QueryResultNtB1Y_18QueryStackDeferredEEE14reserve_rehashNCINvB1W_17try_execute_queryINtCs2ERWbPTlodK_16rustc_query_impl13DynamicConfigINtNtB1Y_6caches12DefaultCacheBQ_INtNtNtBW_5query5erase6ErasedAhj8_EEKb0_KB67_KB67_ENtNtB4e_8plumbing9QueryCtxtKb1_E0EB4e_
librustc_driver-f8caf2bfd7396df8.so:_RINvMs6_NtCs3vuWhofJlp6_9hashbrown3rawINtB6_8RawTableTNtNtNtCsbnIUe8x9cNz_12rustc_middle3mir9interpret15LitToConstInputTINtNtNtBW_5query5erase6ErasedAhj8_ENtNtNtCshF5AtUv7kVK_18rustc_query_system9dep_graph5graph12DepNodeIndexEEE14reserve_rehashNCINvNtCsiN8jfhUhbz9_21rustc_data_structures7sharded11table_entryBQ_B1T_BQ_Es_0ECs2ERWbPTlodK_16rustc_query_impl
librustc_driver-f8caf2bfd7396df8.so:_RINvMs6_NtCs3vuWhofJlp6_9hashbrown3rawINtB6_8RawTableTNtNtNtCsbnIUe8x9cNz_12rustc_middle3mir9interpret7AllocIdNtBS_11GlobalAllocEE14reserve_rehashNCINvNtCsiN8jfhUhbz9_21rustc_data_structures7sharded11table_entryBQ_B1K_BQ_Es_0EBW_
librustc_driver-f8caf2bfd7396df8.so:_RINvMs6_NtCs3vuWhofJlp6_9hashbrown3rawINtB6_8RawTableTNtNtNtCshF5AtUv7kVK_18rustc_query_system9dep_graph8dep_node7DepNodeNtNtBU_5graph12DepNodeIndexEE14reserve_rehashNCINvNtCsiN8jfhUhbz9_21rustc_data_structures7sharded11table_entryBQ_B1V_BQ_Es_0ECs2ERWbPTlodK_16rustc_query_impl
librustc_driver-f8caf2bfd7396df8.so:_RINvMs6_NtCs3vuWhofJlp6_9hashbrown3rawINtB6_8RawTableTNtNtNtCshF5AtUv7kVK_18rustc_query_system9dep_graph8dep_node7DepNodeNtNtBU_5graph12DepNodeIndexEE14reserve_rehashNCINvNtCsiN8jfhUhbz9_21rustc_data_structures7sharded11table_entryBQ_B1V_BQ_Es_0ECscglkemFQPVF_21rustc_trait_selection
librustc_driver-f8caf2bfd7396df8.so:_RINvMs6_NtCs3vuWhofJlp6_9hashbrown3rawINtB6_8RawTableTNtNtNtNtCsbnIUe8x9cNz_12rustc_middle2ty6consts7valtree5ValueINtNtNtCshF5AtUv7kVK_18rustc_query_system5query8plumbing11QueryResultNtB1T_18QueryStackDeferredEEE14reserve_rehashNCINvB1R_17try_execute_queryINtCs2ERWbPTlodK_16rustc_query_impl13DynamicConfigINtNtB1T_6caches12DefaultCacheBQ_INtNtNtBY_5query5erase6ErasedAhj18_EEKb0_KB63_KB63_ENtNtB49_8plumbing9QueryCtxtKB63_E0EB49_
librustc_driver-f8caf2bfd7396df8.so:_RINvMs6_NtCs3vuWhofJlp6_9hashbrown3rawINtB6_8RawTableTNtNtNtNtCsbnIUe8x9cNz_12rustc_middle2ty6consts7valtree5ValueINtNtNtCshF5AtUv7kVK_18rustc_query_system5query8plumbing11QueryResultNtB1T_18QueryStackDeferredEEE14reserve_rehashNCINvB1R_17try_execute_queryINtCs2ERWbPTlodK_16rustc_query_impl13DynamicConfigINtNtB1T_6caches12DefaultCacheBQ_INtNtNtBY_5query5erase6ErasedAhj18_EEKb0_KB63_KB63_ENtNtB49_8plumbing9QueryCtxtKb1_E0EB49_
librustc_driver-f8caf2bfd7396df8.so:_RINvMs6_NtCs3vuWhofJlp6_9hashbrown3rawINtB6_8RawTableTNtNtNtNtCsbnIUe8x9cNz_12rustc_middle2ty6consts7valtree5ValueTINtNtNtBY_5query5erase6ErasedAhj18_ENtNtNtCshF5AtUv7kVK_18rustc_query_system9dep_graph5graph12DepNodeIndexEEE14reserve_rehashNCINvNtCsiN8jfhUhbz9_21rustc_data_structures7sharded11table_entryBQ_B1O_BQ_Es_0ECs2ERWbPTlodK_16rustc_query_impl
librustc_driver-f8caf2bfd7396df8.so:_RINvMs6_NtCs3vuWhofJlp6_9hashbrown3rawINtB6_8RawTableTRINtNtNtCsbnIUe8x9cNz_12rustc_middle2ty4list7RawListNtBU_8TypeInfoNtNtBW_9predicate6ClauseEINtNtNtCshF5AtUv7kVK_18rustc_query_system5query8plumbing11QueryResultNtB2o_18QueryStackDeferredEEE14reserve_rehashNCINvB2m_17try_execute_queryINtCs2ERWbPTlodK_16rustc_query_impl13DynamicConfigINtNtB2o_6caches12DefaultCacheBQ_INtNtNtBY_5query5erase6ErasedAhj8_EEKb0_KB6x_KB6x_ENtNtB4E_8plumbing9QueryCtxtKB6x_E0EB4E_
librustc_driver-f8caf2bfd7396df8.so:_RINvMs6_NtCs3vuWhofJlp6_9hashbrown3rawINtB6_8RawTableTRINtNtNtCsbnIUe8x9cNz_12rustc_middle2ty4list7RawListNtBU_8TypeInfoNtNtBW_9predicate6ClauseEINtNtNtCshF5AtUv7kVK_18rustc_query_system5query8plumbing11QueryResultNtB2o_18QueryStackDeferredEEE14reserve_rehashNCINvB2m_17try_execute_queryINtCs2ERWbPTlodK_16rustc_query_impl13DynamicConfigINtNtB2o_6caches12DefaultCacheBQ_INtNtNtBY_5query5erase6ErasedAhj8_EEKb0_KB6x_KB6x_ENtNtB4E_8plumbing9QueryCtxtKb1_E0EB4E_
librustc_driver-f8caf2bfd7396df8.so:_RINvMs6_NtCs3vuWhofJlp6_9hashbrown3rawINtB6_8RawTableTRINtNtNtCsbnIUe8x9cNz_12rustc_middle2ty4list7RawListNtBU_8TypeInfoNtNtBW_9predicate6ClauseETINtNtNtBY_5query5erase6ErasedAhj8_ENtNtNtCshF5AtUv7kVK_18rustc_query_system9dep_graph5graph12DepNodeIndexEEE14reserve_rehashNCINvNtCsiN8jfhUhbz9_21rustc_data_structures7sharded11table_entryBQ_B2j_BQ_Es_0ECs2ERWbPTlodK_16rustc_query_impl
librustc_driver-f8caf2bfd7396df8.so:_RINvMs6_NtCs3vuWhofJlp6_9hashbrown3rawINtB6_8RawTableTRINtNtNtCsbnIUe8x9cNz_12rustc_middle2ty4list7RawListuNtNtBW_12generic_args10GenericArgEINtNtNtCshF5AtUv7kVK_18rustc_query_system5query8plumbing11QueryResultNtB2k_18QueryStackDeferredEEE14reserve_rehashNCINvB2i_17try_execute_queryINtCs2ERWbPTlodK_16rustc_query_impl13DynamicConfigINtNtB2k_6caches12DefaultCacheBQ_INtNtNtBY_5query5erase6ErasedAhj4_EEKb0_KB6t_KB6t_ENtNtB4A_8plumbing9QueryCtxtKB6t_E0EB4A_
librustc_driver-f8caf2bfd7396df8.so:_RINvMs6_NtCs3vuWhofJlp6_9hashbrown3rawINtB6_8RawTableTRINtNtNtCsbnIUe8x9cNz_12rustc_middle2ty4list7RawListuNtNtBW_12generic_args10GenericArgEINtNtNtCshF5AtUv7kVK_18rustc_query_system5query8plumbing11QueryResultNtB2k_18QueryStackDeferredEEE14reserve_rehashNCINvB2i_17try_execute_queryINtCs2ERWbPTlodK_16rustc_query_impl13DynamicConfigINtNtB2k_6caches12DefaultCacheBQ_INtNtNtBY_5query5erase6ErasedAhj4_EEKb0_KB6t_KB6t_ENtNtB4A_8plumbing9QueryCtxtKb1_E0EB4A_
librustc_driver-f8caf2bfd7396df8.so:_RINvMs6_NtCs3vuWhofJlp6_9hashbrown3rawINtB6_8RawTableTRINtNtNtCsbnIUe8x9cNz_12rustc_middle2ty4list7RawListuNtNtBW_12generic_args10GenericArgETINtNtNtBY_5query5erase6ErasedAhj4_ENtNtNtCshF5AtUv7kVK_18rustc_query_system9dep_graph5graph12DepNodeIndexEEE14reserve_rehashNCINvNtCsiN8jfhUhbz9_21rustc_data_structures7sharded11table_entryBQ_B2f_BQ_Es_0ECs2ERWbPTlodK_16rustc_query_impl
librustc_driver-f8caf2bfd7396df8.so:_RINvMs6_NtCs3vuWhofJlp6_9hashbrown3rawINtB6_8RawTableTRNtNtNtCsjj3dQwFOuTb_3std3ffi6os_str5OsStrINtNtNtCshF5AtUv7kVK_18rustc_query_system5query8plumbing11QueryResultNtB1B_18QueryStackDeferredEEE14reserve_rehashNCINvB1z_17try_execute_queryINtCs2ERWbPTlodK_16rustc_query_impl13DynamicConfigINtNtB1B_6caches12DefaultCacheBQ_INtNtNtCsbnIUe8x9cNz_12rustc_middle5query5erase6ErasedAhj10_EEKb0_KB6a_KB6a_ENtNtB3R_8plumbing9QueryCtxtKB6a_E0EB3R_
librustc_driver-f8caf2bfd7396df8.so:_RINvMs6_NtCs3vuWhofJlp6_9hashbrown3rawINtB6_8RawTableTRNtNtNtCsjj3dQwFOuTb_3std3ffi6os_str5OsStrINtNtNtCshF5AtUv7kVK_18rustc_query_system5query8plumbing11QueryResultNtB1B_18QueryStackDeferredEEE14reserve_rehashNCINvB1z_17try_execute_queryINtCs2ERWbPTlodK_16rustc_query_impl13DynamicConfigINtNtB1B_6caches12DefaultCacheBQ_INtNtNtCsbnIUe8x9cNz_12rustc_middle5query5erase6ErasedAhj10_EEKb0_KB6a_KB6a_ENtNtB3R_8plumbing9QueryCtxtKb1_E0EB3R_
librustc_driver-f8caf2bfd7396df8.so:_RINvMs6_NtCs3vuWhofJlp6_9hashbrown3rawINtB6_8RawTableTRNtNtNtCsjj3dQwFOuTb_3std3ffi6os_str5OsStrTINtNtNtCsbnIUe8x9cNz_12rustc_middle5query5erase6ErasedAhj10_ENtNtNtCshF5AtUv7kVK_18rustc_query_system9dep_graph5graph12DepNodeIndexEEE14reserve_rehashNCINvNtCsiN8jfhUhbz9_21rustc_data_structures7sharded11table_entryBQ_B1w_BQ_Es_0ECs2ERWbPTlodK_16rustc_query_impl
librustc_driver-f8caf2bfd7396df8.so:_RINvMs6_NtCs3vuWhofJlp6_9hashbrown3rawINtB6_8RawTableTTINtNtCs2t38KIHyE4j_13rustc_type_ir9canonical19CanonicalQueryInputNtNtNtCsbnIUe8x9cNz_12rustc_middle2ty7context6TyCtxtINtB1Y_11ParamEnvAndNtNtNtNtB20_6traits5query7type_op21ImpliedOutlivesBoundsEEbEINtNtNtCshF5AtUv7kVK_18rustc_query_system5query8plumbing11QueryResultNtB47_18QueryStackDeferredEEE14reserve_rehashNCINvB45_17try_execute_queryINtCs2ERWbPTlodK_16rustc_query_impl13DynamicConfigINtNtB47_6caches12DefaultCacheBQ_INtNtNtB20_5query5erase6ErasedAhj8_EEKb0_KB8h_KB8h_ENtNtB6n_8plumbing9QueryCtxtKB8h_E0EB6n_
librustc_driver-f8caf2bfd7396df8.so:_RINvMs6_NtCs3vuWhofJlp6_9hashbrown3rawINtB6_8RawTableTTINtNtCs2t38KIHyE4j_13rustc_type_ir9canonical19CanonicalQueryInputNtNtNtCsbnIUe8x9cNz_12rustc_middle2ty7context6TyCtxtINtB1Y_11ParamEnvAndNtNtNtNtB20_6traits5query7type_op21ImpliedOutlivesBoundsEEbEINtNtNtCshF5AtUv7kVK_18rustc_query_system5query8plumbing11QueryResultNtB47_18QueryStackDeferredEEE14reserve_rehashNCINvB45_17try_execute_queryINtCs2ERWbPTlodK_16rustc_query_impl13DynamicConfigINtNtB47_6caches12DefaultCacheBQ_INtNtNtB20_5query5erase6ErasedAhj8_EEKb0_KB8h_KB8h_ENtNtB6n_8plumbing9QueryCtxtKb1_E0EB6n_
librustc_driver-f8caf2bfd7396df8.so:_RINvMs6_NtCs3vuWhofJlp6_9hashbrown3rawINtB6_8RawTableTTINtNtCs2t38KIHyE4j_13rustc_type_ir9canonical19CanonicalQueryInputNtNtNtCsbnIUe8x9cNz_12rustc_middle2ty7context6TyCtxtINtB1Y_11ParamEnvAndNtNtNtNtB20_6traits5query7type_op21ImpliedOutlivesBoundsEEbETINtNtNtB20_5query5erase6ErasedAhj8_ENtNtNtCshF5AtUv7kVK_18rustc_query_system9dep_graph5graph12DepNodeIndexEEE14reserve_rehashNCINvNtCsiN8jfhUhbz9_21rustc_data_structures7sharded11table_entryBQ_B42_BQ_Es_0ECs2ERWbPTlodK_16rustc_query_impl
librustc_driver-f8caf2bfd7396df8.so:_RINvMs6_NtCs3vuWhofJlp6_9hashbrown3rawINtB6_8RawTableTTNtNtCsbnIUe8x9cNz_12rustc_middle2ty2TyBR_EINtNtNtCshF5AtUv7kVK_18rustc_query_system5query8plumbing11QueryResultNtB1C_18QueryStackDeferredEEE14reserve_rehashNCINvB1A_17try_execute_queryINtCs2ERWbPTlodK_16rustc_query_impl13DynamicConfigINtNtB1C_6caches12DefaultCacheBQ_INtNtNtBV_5query5erase6ErasedAhj10_EEKb0_KB5M_KB5M_ENtNtB3S_8plumbing9QueryCtxtKB5M_E0EB3S_
librustc_driver-f8caf2bfd7396df8.so:_RINvMs6_NtCs3vuWhofJlp6_9hashbrown3rawINtB6_8RawTableTTNtNtCsbnIUe8x9cNz_12rustc_middle2ty2TyBR_EINtNtNtCshF5AtUv7kVK_18rustc_query_system5query8plumbing11QueryResultNtB1C_18QueryStackDeferredEEE14reserve_rehashNCINvB1A_17try_execute_queryINtCs2ERWbPTlodK_16rustc_query_impl13DynamicConfigINtNtB1C_6caches12DefaultCacheBQ_INtNtNtBV_5query5erase6ErasedAhj10_EEKb0_KB5M_KB5M_ENtNtB3S_8plumbing9QueryCtxtKb1_E0EB3S_
librustc_driver-f8caf2bfd7396df8.so:_RINvMs6_NtCs3vuWhofJlp6_9hashbrown3rawINtB6_8RawTableTTNtNtCsbnIUe8x9cNz_12rustc_middle2ty2TyBR_ETINtNtNtBV_5query5erase6ErasedAhj10_ENtNtNtCshF5AtUv7kVK_18rustc_query_system9dep_graph5graph12DepNodeIndexEEE14reserve_rehashNCINvNtCsiN8jfhUhbz9_21rustc_data_structures7sharded11table_entryBQ_B1x_BQ_Es_0ECs2ERWbPTlodK_16rustc_query_impl
librustc_driver-f8caf2bfd7396df8.so:_RINvMs6_NtCs3vuWhofJlp6_9hashbrown3rawINtB6_8RawTableTTNtNtCsbnIUe8x9cNz_12rustc_middle2ty2TyINtNtCs9WsFjTlRn02_4core6option6OptionINtNtCs2t38KIHyE4j_13rustc_type_ir9predicate19ExistentialTraitRefNtNtBT_7context6TyCtxtEEEINtNtNtCshF5AtUv7kVK_18rustc_query_system5query8plumbing11QueryResultNtB3C_18QueryStackDeferredEEE14reserve_rehashNCINvB3A_17try_execute_queryINtCs2ERWbPTlodK_16rustc_query_impl13DynamicConfigINtNtB3C_6caches12DefaultCacheBQ_INtNtNtBV_5query5erase6ErasedAhj8_EEKb0_KB7L_KB7L_ENtNtB5S_8plumbing9QueryCtxtKB7L_E0EB5S_
librustc_driver-f8caf2bfd7396df8.so:_RINvMs6_NtCs3vuWhofJlp6_9hashbrown3rawINtB6_8RawTableTTNtNtCsbnIUe8x9cNz_12rustc_middle2ty2TyINtNtCs9WsFjTlRn02_4core6option6OptionINtNtCs2t38KIHyE4j_13rustc_type_ir9predicate19ExistentialTraitRefNtNtBT_7context6TyCtxtEEEINtNtNtCshF5AtUv7kVK_18rustc_query_system5query8plumbing11QueryResultNtB3C_18QueryStackDeferredEEE14reserve_rehashNCINvB3A_17try_execute_queryINtCs2ERWbPTlodK_16rustc_query_impl13DynamicConfigINtNtB3C_6caches12DefaultCacheBQ_INtNtNtBV_5query5erase6ErasedAhj8_EEKb0_KB7L_KB7L_ENtNtB5S_8plumbing9QueryCtxtKb1_E0EB5S_
librustc_driver-f8caf2bfd7396df8.so:_RINvMs6_NtCs3vuWhofJlp6_9hashbrown3rawINtB6_8RawTableTTNtNtCsbnIUe8x9cNz_12rustc_middle2ty2TyINtNtCs9WsFjTlRn02_4core6option6OptionINtNtCs2t38KIHyE4j_13rustc_type_ir9predicate19ExistentialTraitRefNtNtBT_7context6TyCtxtEEETINtNtNtBV_5query5erase6ErasedAhj8_ENtNtNtCshF5AtUv7kVK_18rustc_query_system9dep_graph5graph12DepNodeIndexEEE14reserve_rehashNCINvNtCsiN8jfhUhbz9_21rustc_data_structures7sharded11table_entryBQ_B3x_BQ_Es_0ECs2ERWbPTlodK_16rustc_query_impl
librustc_driver-f8caf2bfd7396df8.so:_RINvMs6_NtCs3vuWhofJlp6_9hashbrown3rawINtB6_8RawTableTTNtNtCsjdyqsEEf0cE_10rustc_span6def_id10LocalDefIdBR_NtNtBV_6symbol5IdentEINtNtNtCshF5AtUv7kVK_18rustc_query_system5query8plumbing11QueryResultNtB27_18QueryStackDeferredEEE14reserve_rehashNCINvB25_17try_execute_queryINtCs2ERWbPTlodK_16rustc_query_impl13DynamicConfigINtNtB27_6caches12DefaultCacheBQ_INtNtNtCsbnIUe8x9cNz_12rustc_middle5query5erase6ErasedAhj10_EEKb0_KB6G_KB6G_ENtNtB4n_8plumbing9QueryCtxtKB6G_E0EB4n_
librustc_driver-f8caf2bfd7396df8.so:_RINvMs6_NtCs3vuWhofJlp6_9hashbrown3rawINtB6_8RawTableTTNtNtCsjdyqsEEf0cE_10rustc_span6def_id10LocalDefIdBR_NtNtBV_6symbol5IdentEINtNtNtCshF5AtUv7kVK_18rustc_query_system5query8plumbing11QueryResultNtB27_18QueryStackDeferredEEE14reserve_rehashNCINvB25_17try_execute_queryINtCs2ERWbPTlodK_16rustc_query_impl13DynamicConfigINtNtB27_6caches12DefaultCacheBQ_INtNtNtCsbnIUe8x9cNz_12rustc_middle5query5erase6ErasedAhj10_EEKb0_KB6G_KB6G_ENtNtB4n_8plumbing9QueryCtxtKb1_E0EB4n_
librustc_driver-f8caf2bfd7396df8.so:_RINvMs6_NtCs3vuWhofJlp6_9hashbrown3rawINtB6_8RawTableTTNtNtCsjdyqsEEf0cE_10rustc_span6def_id10LocalDefIdBR_NtNtBV_6symbol5IdentETINtNtNtCsbnIUe8x9cNz_12rustc_middle5query5erase6ErasedAhj10_ENtNtNtCshF5AtUv7kVK_18rustc_query_system9dep_graph5graph12DepNodeIndexEEE14reserve_rehashNCINvNtCsiN8jfhUhbz9_21rustc_data_structures7sharded11table_entryBQ_B22_BQ_Es_0ECs2ERWbPTlodK_16rustc_query_impl
librustc_driver-f8caf2bfd7396df8.so:_RINvMs6_NtCs3vuWhofJlp6_9hashbrown3rawINtB6_8RawTableTTNtNtCsjdyqsEEf0cE_10rustc_span6def_id5DefIdBR_EINtNtNtCshF5AtUv7kVK_18rustc_query_system5query8plumbing11QueryResultNtB1H_18QueryStackDeferredEEE14reserve_rehashNCINvB1F_17try_execute_queryINtCs2ERWbPTlodK_16rustc_query_impl13DynamicConfigINtNtB1H_6caches12DefaultCacheBQ_INtNtNtCsbnIUe8x9cNz_12rustc_middle5query5erase6ErasedAhj1_EEKb0_KB6f_KB6f_ENtNtB3X_8plumbing9QueryCtxtKB6f_E0EB3X_
librustc_driver-f8caf2bfd7396df8.so:_RINvMs6_NtCs3vuWhofJlp6_9hashbrown3rawINtB6_8RawTableTTNtNtCsjdyqsEEf0cE_10rustc_span6def_id5DefIdBR_EINtNtNtCshF5AtUv7kVK_18rustc_query_system5query8plumbing11QueryResultNtB1H_18QueryStackDeferredEEE14reserve_rehashNCINvB1F_17try_execute_queryINtCs2ERWbPTlodK_16rustc_query_impl13DynamicConfigINtNtB1H_6caches12DefaultCacheBQ_INtNtNtCsbnIUe8x9cNz_12rustc_middle5query5erase6ErasedAhj1_EEKb0_KB6f_KB6f_ENtNtB3X_8plumbing9QueryCtxtKb1_E0EB3X_
librustc_driver-f8caf2bfd7396df8.so:_RINvMs6_NtCs3vuWhofJlp6_9hashbrown3rawINtB6_8RawTableTTNtNtCsjdyqsEEf0cE_10rustc_span6def_id5DefIdBR_ETINtNtNtCsbnIUe8x9cNz_12rustc_middle5query5erase6ErasedAhj1_ENtNtNtCshF5AtUv7kVK_18rustc_query_system9dep_graph5graph12DepNodeIndexEEE14reserve_rehashNCINvNtCsiN8jfhUhbz9_21rustc_data_structures7sharded11table_entryBQ_B1C_BQ_Es_0ECs2ERWbPTlodK_16rustc_query_impl
librustc_driver-f8caf2bfd7396df8.so:_RINvMs6_NtCs3vuWhofJlp6_9hashbrown3rawINtB6_8RawTableTTNtNtCsjdyqsEEf0cE_10rustc_span6def_id5DefIdNtNtBV_6symbol5IdentEINtNtNtCshF5AtUv7kVK_18rustc_query_system5query8plumbing11QueryResultNtB1Y_18QueryStackDeferredEEE14reserve_rehashNCINvB1W_17try_execute_queryINtCs2ERWbPTlodK_16rustc_query_impl13DynamicConfigINtNtB1Y_6caches12DefaultCacheBQ_INtNtNtCsbnIUe8x9cNz_12rustc_middle5query5erase6ErasedAhj10_EEKb0_KB6x_KB6x_ENtNtB4e_8plumbing9QueryCtxtKB6x_E0EB4e_
librustc_driver-f8caf2bfd7396df8.so:_RINvMs6_NtCs3vuWhofJlp6_9hashbrown3rawINtB6_8RawTableTTNtNtCsjdyqsEEf0cE_10rustc_span6def_id5DefIdNtNtBV_6symbol5IdentEINtNtNtCshF5AtUv7kVK_18rustc_query_system5query8plumbing11QueryResultNtB1Y_18QueryStackDeferredEEE14reserve_rehashNCINvB1W_17try_execute_queryINtCs2ERWbPTlodK_16rustc_query_impl13DynamicConfigINtNtB1Y_6caches12DefaultCacheBQ_INtNtNtCsbnIUe8x9cNz_12rustc_middle5query5erase6ErasedAhj10_EEKb0_KB6x_KB6x_ENtNtB4e_8plumbing9QueryCtxtKb1_E0EB4e_
librustc_driver-f8caf2bfd7396df8.so:_RINvMs6_NtCs3vuWhofJlp6_9hashbrown3rawINtB6_8RawTableTTNtNtCsjdyqsEEf0cE_10rustc_span6def_id5DefIdNtNtBV_6symbol5IdentETINtNtNtCsbnIUe8x9cNz_12rustc_middle5query5erase6ErasedAhj10_ENtNtNtCshF5AtUv7kVK_18rustc_query_system9dep_graph5graph12DepNodeIndexEEE14reserve_rehashNCINvNtCsiN8jfhUhbz9_21rustc_data_structures7sharded11table_entryBQ_B1T_BQ_Es_0ECs2ERWbPTlodK_16rustc_query_impl
librustc_driver-f8caf2bfd7396df8.so:_RINvMs6_NtCs3vuWhofJlp6_9hashbrown3rawINtB6_8RawTableTTNtNtCsjdyqsEEf0cE_10rustc_span6def_id5DefIdNtNtCs2t38KIHyE4j_13rustc_type_ir5solve14SizedTraitKindEINtNtNtCshF5AtUv7kVK_18rustc_query_system5query8plumbing11QueryResultNtB2x_18QueryStackDeferredEEE14reserve_rehashNCINvB2v_17try_execute_queryINtCs2ERWbPTlodK_16rustc_query_impl13DynamicConfigINtNtB2x_6caches12DefaultCacheBQ_INtNtNtCsbnIUe8x9cNz_12rustc_middle5query5erase6ErasedAhj8_EEKb0_KB75_KB75_ENtNtB4N_8plumbing9QueryCtxtKB75_E0EB4N_
librustc_driver-f8caf2bfd7396df8.so:_RINvMs6_NtCs3vuWhofJlp6_9hashbrown3rawINtB6_8RawTableTTNtNtCsjdyqsEEf0cE_10rustc_span6def_id5DefIdNtNtCs2t38KIHyE4j_13rustc_type_ir5solve14SizedTraitKindEINtNtNtCshF5AtUv7kVK_18rustc_query_system5query8plumbing11QueryResultNtB2x_18QueryStackDeferredEEE14reserve_rehashNCINvB2v_17try_execute_queryINtCs2ERWbPTlodK_16rustc_query_impl13DynamicConfigINtNtB2x_6caches12DefaultCacheBQ_INtNtNtCsbnIUe8x9cNz_12rustc_middle5query5erase6ErasedAhj8_EEKb0_KB75_KB75_ENtNtB4N_8plumbing9QueryCtxtKb1_E0EB4N_
librustc_driver-f8caf2bfd7396df8.so:_RINvMs6_NtCs3vuWhofJlp6_9hashbrown3rawINtB6_8RawTableTTNtNtCsjdyqsEEf0cE_10rustc_span6def_id5DefIdNtNtCs2t38KIHyE4j_13rustc_type_ir5solve14SizedTraitKindETINtNtNtCsbnIUe8x9cNz_12rustc_middle5query5erase6ErasedAhj8_ENtNtNtCshF5AtUv7kVK_18rustc_query_system9dep_graph5graph12DepNodeIndexEEE14reserve_rehashNCINvNtCsiN8jfhUhbz9_21rustc_data_structures7sharded11table_entryBQ_B2s_BQ_Es_0ECs2ERWbPTlodK_16rustc_query_impl
librustc_driver-f8caf2bfd7396df8.so:_RINvMs6_NtCs3vuWhofJlp6_9hashbrown3rawINtB6_8RawTableTTNtNtCsjdyqsEEf0cE_10rustc_span6def_id5DefIdRINtNtNtCsbnIUe8x9cNz_12rustc_middle2ty4list7RawListuNtNtB1E_12generic_args10GenericArgEEINtNtNtCshF5AtUv7kVK_18rustc_query_system5query8plumbing11QueryResultNtB34_18QueryStackDeferredEEE14reserve_rehashNCINvB32_17try_execute_queryINtCs2ERWbPTlodK_16rustc_query_impl13DynamicConfigINtNtB34_6caches12DefaultCacheBQ_INtNtNtB1G_5query5erase6ErasedAhj1_EEKb0_KB7e_KB7e_ENtNtB5k_8plumbing9QueryCtxtKB7e_E0EB5k_
librustc_driver-f8caf2bfd7396df8.so:_RINvMs6_NtCs3vuWhofJlp6_9hashbrown3rawINtB6_8RawTableTTNtNtCsjdyqsEEf0cE_10rustc_span6def_id5DefIdRINtNtNtCsbnIUe8x9cNz_12rustc_middle2ty4list7RawListuNtNtB1E_12generic_args10GenericArgEEINtNtNtCshF5AtUv7kVK_18rustc_query_system5query8plumbing11QueryResultNtB34_18QueryStackDeferredEEE14reserve_rehashNCINvB32_17try_execute_queryINtCs2ERWbPTlodK_16rustc_query_impl13DynamicConfigINtNtB34_6caches12DefaultCacheBQ_INtNtNtB1G_5query5erase6ErasedAhj1_EEKb0_KB7e_KB7e_ENtNtB5k_8plumbing9QueryCtxtKb1_E0EB5k_
librustc_driver-f8caf2bfd7396df8.so:_RINvMs6_NtCs3vuWhofJlp6_9hashbrown3rawINtB6_8RawTableTTNtNtCsjdyqsEEf0cE_10rustc_span6def_id5DefIdRINtNtNtCsbnIUe8x9cNz_12rustc_middle2ty4list7RawListuNtNtB1E_12generic_args10GenericArgEETINtNtNtB1G_5query5erase6ErasedAhj1_ENtNtNtCshF5AtUv7kVK_18rustc_query_system9dep_graph5graph12DepNodeIndexEEE14reserve_rehashNCINvNtCsiN8jfhUhbz9_21rustc_data_structures7sharded11table_entryBQ_B2Z_BQ_Es_0ECs2ERWbPTlodK_16rustc_query_impl
librustc_driver-f8caf2bfd7396df8.so:_RINvMs6_NtCs3vuWhofJlp6_9hashbrown3rawINtB6_8RawTableTTNtNtCsjdyqsEEf0cE_10rustc_span6def_id8CrateNumINtNtCs2t38KIHyE4j_13rustc_type_ir11fast_reject14SimplifiedTypeNtBT_5DefIdEEINtNtNtCshF5AtUv7kVK_18rustc_query_system5query8plumbing11QueryResultNtB2U_18QueryStackDeferredEEE14reserve_rehashNCINvB2S_17try_execute_queryINtCs2ERWbPTlodK_16rustc_query_impl13DynamicConfigINtNtB2U_6caches12DefaultCacheBQ_INtNtNtCsbnIUe8x9cNz_12rustc_middle5query5erase6ErasedAhj10_EEKb0_KB7t_KB7t_ENtNtB5a_8plumbing9QueryCtxtKB7t_E0EB5a_
librustc_driver-f8caf2bfd7396df8.so:_RINvMs6_NtCs3vuWhofJlp6_9hashbrown3rawINtB6_8RawTableTTNtNtCsjdyqsEEf0cE_10rustc_span6def_id8CrateNumINtNtCs2t38KIHyE4j_13rustc_type_ir11fast_reject14SimplifiedTypeNtBT_5DefIdEEINtNtNtCshF5AtUv7kVK_18rustc_query_system5query8plumbing11QueryResultNtB2U_18QueryStackDeferredEEE14reserve_rehashNCINvB2S_17try_execute_queryINtCs2ERWbPTlodK_16rustc_query_impl13DynamicConfigINtNtB2U_6caches12DefaultCacheBQ_INtNtNtCsbnIUe8x9cNz_12rustc_middle5query5erase6ErasedAhj10_EEKb0_KB7t_KB7t_ENtNtB5a_8plumbing9QueryCtxtKb1_E0EB5a_
librustc_driver-f8caf2bfd7396df8.so:_RINvMs6_NtCs3vuWhofJlp6_9hashbrown3rawINtB6_8RawTableTTNtNtCsjdyqsEEf0cE_10rustc_span6def_id8CrateNumINtNtCs2t38KIHyE4j_13rustc_type_ir11fast_reject14SimplifiedTypeNtBT_5DefIdEETINtNtNtCsbnIUe8x9cNz_12rustc_middle5query5erase6ErasedAhj10_ENtNtNtCshF5AtUv7kVK_18rustc_query_system9dep_graph5graph12DepNodeIndexEEE14reserve_rehashNCINvNtCsiN8jfhUhbz9_21rustc_data_structures7sharded11table_entryBQ_B2P_BQ_Es_0ECs2ERWbPTlodK_16rustc_query_impl
librustc_driver-f8caf2bfd7396df8.so:_RINvMs6_NtCs3vuWhofJlp6_9hashbrown3rawINtB6_8RawTableTTNtNtCsjdyqsEEf0cE_10rustc_span6def_id8CrateNumNtBT_5DefIdEINtNtNtCshF5AtUv7kVK_18rustc_query_system5query8plumbing11QueryResultNtB1S_18QueryStackDeferredEEE14reserve_rehashNCINvB1Q_17try_execute_queryINtCs2ERWbPTlodK_16rustc_query_impl13DynamicConfigINtNtB1S_6caches12DefaultCacheBQ_INtNtNtCsbnIUe8x9cNz_12rustc_middle5query5erase6ErasedAhj10_EEKb0_KB6r_KB6r_ENtNtB48_8plumbing9QueryCtxtKB6r_E0EB48_
librustc_driver-f8caf2bfd7396df8.so:_RINvMs6_NtCs3vuWhofJlp6_9hashbrown3rawINtB6_8RawTableTTNtNtCsjdyqsEEf0cE_10rustc_span6def_id8CrateNumNtBT_5DefIdEINtNtNtCshF5AtUv7kVK_18rustc_query_system5query8plumbing11QueryResultNtB1S_18QueryStackDeferredEEE14reserve_rehashNCINvB1Q_17try_execute_queryINtCs2ERWbPTlodK_16rustc_query_impl13DynamicConfigINtNtB1S_6caches12DefaultCacheBQ_INtNtNtCsbnIUe8x9cNz_12rustc_middle5query5erase6ErasedAhj10_EEKb0_KB6r_KB6r_ENtNtB48_8plumbing9QueryCtxtKb1_E0EB48_
librustc_driver-f8caf2bfd7396df8.so:_RINvMs6_NtCs3vuWhofJlp6_9hashbrown3rawINtB6_8RawTableTTNtNtCsjdyqsEEf0cE_10rustc_span6def_id8CrateNumNtBT_5DefIdETINtNtNtCsbnIUe8x9cNz_12rustc_middle5query5erase6ErasedAhj10_ENtNtNtCshF5AtUv7kVK_18rustc_query_system9dep_graph5graph12DepNodeIndexEEE14reserve_rehashNCINvNtCsiN8jfhUhbz9_21rustc_data_structures7sharded11table_entryBQ_B1N_BQ_Es_0ECs2ERWbPTlodK_16rustc_query_impl
librustc_driver-f8caf2bfd7396df8.so:_RINvMs6_NtCs3vuWhofJlp6_9hashbrown3rawINtB6_8RawTableTTNtNtNtCsbnIUe8x9cNz_12rustc_middle2ty6layout19ValidityRequirementINtBV_20PseudoCanonicalInputNtBV_2TyEEINtNtNtCshF5AtUv7kVK_18rustc_query_system5query8plumbing11QueryResultNtB2B_18QueryStackDeferredEEE14reserve_rehashNCINvB2z_17try_execute_queryINtCs2ERWbPTlodK_16rustc_query_impl13DynamicConfigINtNtB2B_6caches12DefaultCacheBQ_INtNtNtBX_5query5erase6ErasedAhj10_EEKb0_KB6L_KB6L_ENtNtB4R_8plumbing9QueryCtxtKB6L_E0EB4R_
librustc_driver-f8caf2bfd7396df8.so:_RINvMs6_NtCs3vuWhofJlp6_9hashbrown3rawINtB6_8RawTableTTNtNtNtCsbnIUe8x9cNz_12rustc_middle2ty6layout19ValidityRequirementINtBV_20PseudoCanonicalInputNtBV_2TyEEINtNtNtCshF5AtUv7kVK_18rustc_query_system5query8plumbing11QueryResultNtB2B_18QueryStackDeferredEEE14reserve_rehashNCINvB2z_17try_execute_queryINtCs2ERWbPTlodK_16rustc_query_impl13DynamicConfigINtNtB2B_6caches12DefaultCacheBQ_INtNtNtBX_5query5erase6ErasedAhj10_EEKb0_KB6L_KB6L_ENtNtB4R_8plumbing9QueryCtxtKb1_E0EB4R_
librustc_driver-f8caf2bfd7396df8.so:_RINvMs6_NtCs3vuWhofJlp6_9hashbrown3rawINtB6_8RawTableTTNtNtNtCsbnIUe8x9cNz_12rustc_middle2ty6layout19ValidityRequirementINtBV_20PseudoCanonicalInputNtBV_2TyEETINtNtNtBX_5query5erase6ErasedAhj10_ENtNtNtCshF5AtUv7kVK_18rustc_query_system9dep_graph5graph12DepNodeIndexEEE14reserve_rehashNCINvNtCsiN8jfhUhbz9_21rustc_data_structures7sharded11table_entryBQ_B2w_BQ_Es_0ECs2ERWbPTlodK_16rustc_query_impl
librustc_driver-f8caf2bfd7396df8.so:_RINvMs6_NtCs3vuWhofJlp6_9hashbrown3rawINtB6_8RawTableTTNtNtNtCsbnIUe8x9cNz_12rustc_middle2ty8instance8InstanceNtNtNtBX_3mir4mono14CollectionModeEINtNtNtCshF5AtUv7kVK_18rustc_query_system5query8plumbing11QueryResultNtB2o_18QueryStackDeferredEEE14reserve_rehashNCINvB2m_17try_execute_queryINtCs2ERWbPTlodK_16rustc_query_impl13DynamicConfigINtNtB2o_6caches12DefaultCacheBQ_INtNtNtBX_5query5erase6ErasedAhj20_EEKb0_KB6y_KB6y_ENtNtB4E_8plumbing9QueryCtxtKB6y_E0EB4E_
librustc_driver-f8caf2bfd7396df8.so:_RINvMs6_NtCs3vuWhofJlp6_9hashbrown3rawINtB6_8RawTableTTNtNtNtCsbnIUe8x9cNz_12rustc_middle2ty8instance8InstanceNtNtNtBX_3mir4mono14CollectionModeEINtNtNtCshF5AtUv7kVK_18rustc_query_system5query8plumbing11QueryResultNtB2o_18QueryStackDeferredEEE14reserve_rehashNCINvB2m_17try_execute_queryINtCs2ERWbPTlodK_16rustc_query_impl13DynamicConfigINtNtB2o_6caches12DefaultCacheBQ_INtNtNtBX_5query5erase6ErasedAhj20_EEKb0_KB6y_KB6y_ENtNtB4E_8plumbing9QueryCtxtKb1_E0EB4E_
librustc_driver-f8caf2bfd7396df8.so:_RINvMs6_NtCs3vuWhofJlp6_9hashbrown3rawINtB6_8RawTableTTNtNtNtCsbnIUe8x9cNz_12rustc_middle2ty8instance8InstanceNtNtNtBX_3mir4mono14CollectionModeETINtNtNtBX_5query5erase6ErasedAhj20_ENtNtNtCshF5AtUv7kVK_18rustc_query_system9dep_graph5graph12DepNodeIndexEEE14reserve_rehashNCINvNtCsiN8jfhUhbz9_21rustc_data_structures7sharded11table_entryBQ_B2j_BQ_Es_0ECs2ERWbPTlodK_16rustc_query_impl
librustc_driver-f8caf2bfd7396df8.so:_RINvMs6_NtCs3vuWhofJlp6_9hashbrown3rawINtB6_8RawTableTTNtNtNtCsbnIUe8x9cNz_12rustc_middle2ty9predicate9PredicateNtNtBX_6traits13WellFormedLocEINtNtNtCshF5AtUv7kVK_18rustc_query_system5query8plumbing11QueryResultNtB2l_18QueryStackDeferredEEE14reserve_rehashNCINvB2j_17try_execute_queryINtCs2ERWbPTlodK_16rustc_query_impl13DynamicConfigINtNtB2l_6caches12DefaultCacheBQ_INtNtNtBX_5query5erase6ErasedAhj8_EEKb0_KB6u_KB6u_ENtNtB4B_8plumbing9QueryCtxtKB6u_E0EB4B_
librustc_driver-f8caf2bfd7396df8.so:_RINvMs6_NtCs3vuWhofJlp6_9hashbrown3rawINtB6_8RawTableTTNtNtNtCsbnIUe8x9cNz_12rustc_middle2ty9predicate9PredicateNtNtBX_6traits13WellFormedLocEINtNtNtCshF5AtUv7kVK_18rustc_query_system5query8plumbing11QueryResultNtB2l_18QueryStackDeferredEEE14reserve_rehashNCINvB2j_17try_execute_queryINtCs2ERWbPTlodK_16rustc_query_impl13DynamicConfigINtNtB2l_6caches12DefaultCacheBQ_INtNtNtBX_5query5erase6ErasedAhj8_EEKb0_KB6u_KB6u_ENtNtB4B_8plumbing9QueryCtxtKb1_E0EB4B_
librustc_driver-f8caf2bfd7396df8.so:_RINvMs6_NtCs3vuWhofJlp6_9hashbrown3rawINtB6_8RawTableTTNtNtNtCsbnIUe8x9cNz_12rustc_middle2ty9predicate9PredicateNtNtBX_6traits13WellFormedLocETINtNtNtBX_5query5erase6ErasedAhj8_ENtNtNtCshF5AtUv7kVK_18rustc_query_system9dep_graph5graph12DepNodeIndexEEE14reserve_rehashNCINvNtCsiN8jfhUhbz9_21rustc_data_structures7sharded11table_entryBQ_B2g_BQ_Es_0ECs2ERWbPTlodK_16rustc_query_impl
librustc_driver-f8caf2bfd7396df8.so:_RINvMs6_NtCs3vuWhofJlp6_9hashbrown3rawINtB6_8RawTableTjNtNtCsf21fn2YBgpG_6object4read10RelocationEE14reserve_rehashNCINvNtB8_3map11make_hasherjBR_NtNtCs5ZbyQrskofZ_8foldhash4fast11RandomStateE0ECs5wH0AbOeNic_6thorin
librustc_driver-f8caf2bfd7396df8.so:_RINvMs6_NtCs3vuWhofJlp6_9hashbrown3rawINtB6_8RawTableTuINtNtNtCshF5AtUv7kVK_18rustc_query_system5query8plumbing11QueryResultNtBW_18QueryStackDeferredEEE14reserve_rehashNCINvBU_17try_execute_queryINtCs2ERWbPTlodK_16rustc_query_impl13DynamicConfigINtNtBW_6caches11SingleCacheINtNtNtCsbnIUe8x9cNz_12rustc_middle5query5erase6ErasedAhj0_EEKb0_KB5n_KB5n_ENtNtB3a_8plumbing9QueryCtxtKB5n_E0EB3a_
librustc_driver-f8caf2bfd7396df8.so:_RINvMs6_NtCs3vuWhofJlp6_9hashbrown3rawINtB6_8RawTableTuINtNtNtCshF5AtUv7kVK_18rustc_query_system5query8plumbing11QueryResultNtBW_18QueryStackDeferredEEE14reserve_rehashNCINvBU_17try_execute_queryINtCs2ERWbPTlodK_16rustc_query_impl13DynamicConfigINtNtBW_6caches11SingleCacheINtNtNtCsbnIUe8x9cNz_12rustc_middle5query5erase6ErasedAhj0_EEKb0_KB5n_KB5n_ENtNtB3a_8plumbing9QueryCtxtKb1_E0EB3a_
librustc_driver-f8caf2bfd7396df8.so:_RINvMs6_NtCs3vuWhofJlp6_9hashbrown3rawINtB6_8RawTableTuINtNtNtCshF5AtUv7kVK_18rustc_query_system5query8plumbing11QueryResultNtBW_18QueryStackDeferredEEE14reserve_rehashNCINvBU_17try_execute_queryINtCs2ERWbPTlodK_16rustc_query_impl13DynamicConfigINtNtBW_6caches11SingleCacheINtNtNtCsbnIUe8x9cNz_12rustc_middle5query5erase6ErasedAhj10_EEKb0_KB5o_KB5o_ENtNtB3a_8plumbing9QueryCtxtKB5o_E0EB3a_
librustc_driver-f8caf2bfd7396df8.so:_RINvMs6_NtCs3vuWhofJlp6_9hashbrown3rawINtB6_8RawTableTuINtNtNtCshF5AtUv7kVK_18rustc_query_system5query8plumbing11QueryResultNtBW_18QueryStackDeferredEEE14reserve_rehashNCINvBU_17try_execute_queryINtCs2ERWbPTlodK_16rustc_query_impl13DynamicConfigINtNtBW_6caches11SingleCacheINtNtNtCsbnIUe8x9cNz_12rustc_middle5query5erase6ErasedAhj10_EEKb0_KB5o_KB5o_ENtNtB3a_8plumbing9QueryCtxtKb1_E0EB3a_
librustc_driver-f8caf2bfd7396df8.so:_RINvMs6_NtCs3vuWhofJlp6_9hashbrown3rawINtB6_8RawTableTuINtNtNtCshF5AtUv7kVK_18rustc_query_system5query8plumbing11QueryResultNtBW_18QueryStackDeferredEEE14reserve_rehashNCINvBU_17try_execute_queryINtCs2ERWbPTlodK_16rustc_query_impl13DynamicConfigINtNtBW_6caches11SingleCacheINtNtNtCsbnIUe8x9cNz_12rustc_middle5query5erase6ErasedAhj18_EEKb0_KB5o_KB5o_ENtNtB3a_8plumbing9QueryCtxtKB5o_E0EB3a_
librustc_driver-f8caf2bfd7396df8.so:_RINvMs6_NtCs3vuWhofJlp6_9hashbrown3rawINtB6_8RawTableTuINtNtNtCshF5AtUv7kVK_18rustc_query_system5query8plumbing11QueryResultNtBW_18QueryStackDeferredEEE14reserve_rehashNCINvBU_17try_execute_queryINtCs2ERWbPTlodK_16rustc_query_impl13DynamicConfigINtNtBW_6caches11SingleCacheINtNtNtCsbnIUe8x9cNz_12rustc_middle5query5erase6ErasedAhj18_EEKb0_KB5o_KB5o_ENtNtB3a_8plumbing9QueryCtxtKb1_E0EB3a_
librustc_driver-f8caf2bfd7396df8.so:_RINvMs6_NtCs3vuWhofJlp6_9hashbrown3rawINtB6_8RawTableTuINtNtNtCshF5AtUv7kVK_18rustc_query_system5query8plumbing11QueryResultNtBW_18QueryStackDeferredEEE14reserve_rehashNCINvBU_17try_execute_queryINtCs2ERWbPTlodK_16rustc_query_impl13DynamicConfigINtNtBW_6caches11SingleCacheINtNtNtCsbnIUe8x9cNz_12rustc_middle5query5erase6ErasedAhj1_EEKb0_KB5n_KB5n_ENtNtB3a_8plumbing9QueryCtxtKB5n_E0EB3a_
librustc_driver-f8caf2bfd7396df8.so:_RINvMs6_NtCs3vuWhofJlp6_9hashbrown3rawINtB6_8RawTableTuINtNtNtCshF5AtUv7kVK_18rustc_query_system5query8plumbing11QueryResultNtBW_18QueryStackDeferredEEE14reserve_rehashNCINvBU_17try_execute_queryINtCs2ERWbPTlodK_16rustc_query_impl13DynamicConfigINtNtBW_6caches11SingleCacheINtNtNtCsbnIUe8x9cNz_12rustc_middle5query5erase6ErasedAhj1_EEKb0_KB5n_KB5n_ENtNtB3a_8plumbing9QueryCtxtKb1_E0EB3a_
librustc_driver-f8caf2bfd7396df8.so:_RINvMs6_NtCs3vuWhofJlp6_9hashbrown3rawINtB6_8RawTableTuINtNtNtCshF5AtUv7kVK_18rustc_query_system5query8plumbing11QueryResultNtBW_18QueryStackDeferredEEE14reserve_rehashNCINvBU_17try_execute_queryINtCs2ERWbPTlodK_16rustc_query_impl13DynamicConfigINtNtBW_6caches11SingleCacheINtNtNtCsbnIUe8x9cNz_12rustc_middle5query5erase6ErasedAhj20_EEKb0_KB5o_KB5o_ENtNtB3a_8plumbing9QueryCtxtKB5o_E0EB3a_
librustc_driver-f8caf2bfd7396df8.so:_RINvMs6_NtCs3vuWhofJlp6_9hashbrown3rawINtB6_8RawTableTuINtNtNtCshF5AtUv7kVK_18rustc_query_system5query8plumbing11QueryResultNtBW_18QueryStackDeferredEEE14reserve_rehashNCINvBU_17try_execute_queryINtCs2ERWbPTlodK_16rustc_query_impl13DynamicConfigINtNtBW_6caches11SingleCacheINtNtNtCsbnIUe8x9cNz_12rustc_middle5query5erase6ErasedAhj20_EEKb0_KB5o_KB5o_ENtNtB3a_8plumbing9QueryCtxtKb1_E0EB3a_
librustc_driver-f8caf2bfd7396df8.so:_RINvMs6_NtCs3vuWhofJlp6_9hashbrown3rawINtB6_8RawTableTuINtNtNtCshF5AtUv7kVK_18rustc_query_system5query8plumbing11QueryResultNtBW_18QueryStackDeferredEEE14reserve_rehashNCINvBU_17try_execute_queryINtCs2ERWbPTlodK_16rustc_query_impl13DynamicConfigINtNtBW_6caches11SingleCacheINtNtNtCsbnIUe8x9cNz_12rustc_middle5query5erase6ErasedAhj4_EEKb0_KB5n_KB5n_ENtNtB3a_8plumbing9QueryCtxtKB5n_E0EB3a_
librustc_driver-f8caf2bfd7396df8.so:_RINvMs6_NtCs3vuWhofJlp6_9hashbrown3rawINtB6_8RawTableTuINtNtNtCshF5AtUv7kVK_18rustc_query_system5query8plumbing11QueryResultNtBW_18QueryStackDeferredEEE14reserve_rehashNCINvBU_17try_execute_queryINtCs2ERWbPTlodK_16rustc_query_impl13DynamicConfigINtNtBW_6caches11SingleCacheINtNtNtCsbnIUe8x9cNz_12rustc_middle5query5erase6ErasedAhj4_EEKb0_KB5n_KB5n_ENtNtB3a_8plumbing9QueryCtxtKb1_E0EB3a_
librustc_driver-f8caf2bfd7396df8.so:_RINvMs6_NtCs3vuWhofJlp6_9hashbrown3rawINtB6_8RawTableTuINtNtNtCshF5AtUv7kVK_18rustc_query_system5query8plumbing11QueryResultNtBW_18QueryStackDeferredEEE14reserve_rehashNCINvBU_17try_execute_queryINtCs2ERWbPTlodK_16rustc_query_impl13DynamicConfigINtNtBW_6caches11SingleCacheINtNtNtCsbnIUe8x9cNz_12rustc_middle5query5erase6ErasedAhj8_EEKb0_KB5n_KB5n_ENtNtB3a_8plumbing9QueryCtxtKB5n_E0EB3a_
librustc_driver-f8caf2bfd7396df8.so:_RINvMs6_NtCs3vuWhofJlp6_9hashbrown3rawINtB6_8RawTableTuINtNtNtCshF5AtUv7kVK_18rustc_query_system5query8plumbing11QueryResultNtBW_18QueryStackDeferredEEE14reserve_rehashNCINvBU_17try_execute_queryINtCs2ERWbPTlodK_16rustc_query_impl13DynamicConfigINtNtBW_6caches11SingleCacheINtNtNtCsbnIUe8x9cNz_12rustc_middle5query5erase6ErasedAhj8_EEKb0_KB5n_KB5n_ENtNtB3a_8plumbing9QueryCtxtKb1_E0EB3a_
librustc_driver-f8caf2bfd7396df8.so:_RINvMs6_NtCs3vuWhofJlp6_9hashbrown3rawINtB6_8RawTableTuINtNtNtCshF5AtUv7kVK_18rustc_query_system5query8plumbing11QueryResultNtBW_18QueryStackDeferredEEE14reserve_rehashNCINvBU_17try_execute_queryINtCs2ERWbPTlodK_16rustc_query_impl13DynamicConfigINtNtBW_6caches11SingleCacheINtNtNtCsbnIUe8x9cNz_12rustc_middle5query5erase6ErasedAhjc_EEKb0_KB5n_KB5n_ENtNtB3a_8plumbing9QueryCtxtKB5n_E0EB3a_
librustc_driver-f8caf2bfd7396df8.so:_RINvMs6_NtCs3vuWhofJlp6_9hashbrown3rawINtB6_8RawTableTuINtNtNtCshF5AtUv7kVK_18rustc_query_system5query8plumbing11QueryResultNtBW_18QueryStackDeferredEEE14reserve_rehashNCINvBU_17try_execute_queryINtCs2ERWbPTlodK_16rustc_query_impl13DynamicConfigINtNtBW_6caches11SingleCacheINtNtNtCsbnIUe8x9cNz_12rustc_middle5query5erase6ErasedAhjc_EEKb0_KB5n_KB5n_ENtNtB3a_8plumbing9QueryCtxtKb1_E0EB3a_
librustc_driver-f8caf2bfd7396df8.so:_RINvMs6_NtCs7DYsST9UVP3_9hashbrown3rawINtB6_8RawTableTINtCscysFJ0OJ8gP_7unicase7UniCaseNtNtCs7zmaawPWeXS_14pulldown_cmark7strings6CowStrENtNtB1r_5parse11FootnoteDefEE14reserve_rehashNCINvNtB8_3map11make_hasherBQ_B2b_NtNtNtCsjj3dQwFOuTb_3std4hash6random11RandomStateE0EB1r_
librustc_driver-f8caf2bfd7396df8.so:_RINvMs6_NtCs7DYsST9UVP3_9hashbrown3rawINtB6_8RawTableTINtCscysFJ0OJ8gP_7unicase7UniCaseNtNtCs7zmaawPWeXS_14pulldown_cmark7strings6CowStrENtNtB1r_5parse7LinkDefEE14reserve_rehashNCINvNtB8_3map11make_hasherBQ_B2b_NtNtNtCsjj3dQwFOuTb_3std4hash6random11RandomStateE0EB1r_
librustc_driver-f8caf2bfd7396df8.so:_RINvMs6_NtCs7DYsST9UVP3_9hashbrown3rawINtB6_8RawTableTINtNtCs19MuVdBY7V6_5alloc3vec3VechENtNtCsf21fn2YBgpG_6object5write8SymbolIdEE14reserve_rehashNCINvNtB8_3map11make_hasherBQ_B1p_NtNtNtCsjj3dQwFOuTb_3std4hash6random11RandomStateE0EB1t_
librustc_driver-f8caf2bfd7396df8.so:_RINvMs6_NtCs7DYsST9UVP3_9hashbrown3rawINtB6_8RawTableTINtNtCs19MuVdBY7V6_5alloc3vec3VechENtNtCsiwa6XAY8u2U_6object5write8SymbolIdEE14reserve_rehashNCINvNtB8_3map11make_hasherBQ_B1p_NtNtNtCsjj3dQwFOuTb_3std4hash6random11RandomStateE0EB1t_
librustc_driver-f8caf2bfd7396df8.so:_RINvMs6_NtCs7DYsST9UVP3_9hashbrown3rawINtB6_8RawTableTINtNtCs19MuVdBY7V6_5alloc4sync3ArceENtNtNtCs2FHJYmCldx7_14regex_automata4util10primitives10SmallIndexEE14reserve_rehashNCINvNtB8_3map11make_hasherBQ_B1q_NtNtNtCsjj3dQwFOuTb_3std4hash6random11RandomStateE0EB1w_
librustc_driver-f8caf2bfd7396df8.so:_RINvMs6_NtCs7DYsST9UVP3_9hashbrown3rawINtB6_8RawTableTINtNtCs1rNb7bG4Xia_11rustc_infer6traits10ObligationNtNtNtCsbnIUe8x9cNz_12rustc_middle2ty9predicate9PredicateEuEE14reserve_rehashNCINvNtB8_3map11make_hasherBQ_uNtCsiHaVk9ZDPzl_10rustc_hash13FxBuildHasherE0ECscglkemFQPVF_21rustc_trait_selection
librustc_driver-f8caf2bfd7396df8.so:_RINvMs6_NtCs7DYsST9UVP3_9hashbrown3rawINtB6_8RawTableTINtNtCs2t38KIHyE4j_13rustc_type_ir14predicate_kind13PredicateKindNtNtNtCsbnIUe8x9cNz_12rustc_middle2ty7context6TyCtxtEjEE14reserve_rehashNCINvNtB8_3map11make_hasherBQ_jNtCsiHaVk9ZDPzl_10rustc_hash13FxBuildHasherE0ECs2ERWbPTlodK_16rustc_query_impl
librustc_driver-f8caf2bfd7396df8.so:_RINvMs6_NtCs7DYsST9UVP3_9hashbrown3rawINtB6_8RawTableTINtNtCs2t38KIHyE4j_13rustc_type_ir14predicate_kind13PredicateKindNtNtNtCsbnIUe8x9cNz_12rustc_middle2ty7context6TyCtxtEjEE14reserve_rehashNCINvNtB8_3map11make_hasherBQ_jNtCsiHaVk9ZDPzl_10rustc_hash13FxBuildHasherE0ECskmy2rFhdDOz_14rustc_metadata
librustc_driver-f8caf2bfd7396df8.so:_RINvMs6_NtCs7DYsST9UVP3_9hashbrown3rawINtB6_8RawTableTINtNtCs2t38KIHyE4j_13rustc_type_ir14predicate_kind13PredicateKindNtNtNtCsbnIUe8x9cNz_12rustc_middle2ty7context6TyCtxtEuEE14reserve_rehashNCINvNtB8_3map11make_hasherBQ_uNtCsiHaVk9ZDPzl_10rustc_hash13FxBuildHasherE0ECs7VwJBT60bpD_16rustc_hir_typeck
librustc_driver-f8caf2bfd7396df8.so:_RINvMs6_NtCs7DYsST9UVP3_9hashbrown3rawINtB6_8RawTableTINtNtCs2t38KIHyE4j_13rustc_type_ir5solve4GoalNtNtNtCsbnIUe8x9cNz_12rustc_middle2ty7context6TyCtxtNtNtB1D_9predicate9PredicateEuEE14reserve_rehashNCINvNtB8_3map11make_hasherBQ_uNtCsiHaVk9ZDPzl_10rustc_hash13FxBuildHasherE0ECscglkemFQPVF_21rustc_trait_selection
librustc_driver-f8caf2bfd7396df8.so:_RINvMs6_NtCs7DYsST9UVP3_9hashbrown3rawINtB6_8RawTableTINtNtCs2t38KIHyE4j_13rustc_type_ir6binder6BinderNtNtNtCsbnIUe8x9cNz_12rustc_middle2ty7context6TyCtxtINtNtBV_14predicate_kind13PredicateKindB1C_EEuEE14reserve_rehashNCINvNtB8_3map11make_hasherBQ_uNtCsiHaVk9ZDPzl_10rustc_hash13FxBuildHasherE0EB1I_
librustc_driver-f8caf2bfd7396df8.so:_RINvMs6_NtCs7DYsST9UVP3_9hashbrown3rawINtB6_8RawTableTINtNtCs2t38KIHyE4j_13rustc_type_ir6binder6BinderNtNtNtCsbnIUe8x9cNz_12rustc_middle2ty7context6TyCtxtINtNtBV_9predicate14TraitPredicateB1C_EEuEE14reserve_rehashNCINvNtB8_3map11make_hasherBQ_uNtCsiHaVk9ZDPzl_10rustc_hash13FxBuildHasherE0ECscglkemFQPVF_21rustc_trait_selection
librustc_driver-f8caf2bfd7396df8.so:_RINvMs6_NtCs7DYsST9UVP3_9hashbrown3rawINtB6_8RawTableTINtNtCs2t38KIHyE4j_13rustc_type_ir6binder6BinderNtNtNtCsbnIUe8x9cNz_12rustc_middle2ty7context6TyCtxtINtNtBV_9predicate19ProjectionPredicateB1C_EEuEE14reserve_rehashNCINvNtB8_3map11make_hasherBQ_uNtCsiHaVk9ZDPzl_10rustc_hash13FxBuildHasherE0ECs25h6OjkxBzy_18rustc_hir_analysis
librustc_driver-f8caf2bfd7396df8.so:_RINvMs6_NtCs7DYsST9UVP3_9hashbrown3rawINtB6_8RawTableTINtNtCs2t38KIHyE4j_13rustc_type_ir6binder6BinderNtNtNtCsbnIUe8x9cNz_12rustc_middle2ty7context6TyCtxtINtNtBV_9predicate8TraitRefB1C_EEuEE14reserve_rehashNCINvNtB8_3map11make_hasherBQ_uNtCsiHaVk9ZDPzl_10rustc_hash13FxBuildHasherE0ECs25h6OjkxBzy_18rustc_hir_analysis
librustc_driver-f8caf2bfd7396df8.so:_RINvMs6_NtCs7DYsST9UVP3_9hashbrown3rawINtB6_8RawTableTINtNtCs2t38KIHyE4j_13rustc_type_ir9canonical19CanonicalQueryInputNtNtNtCsbnIUe8x9cNz_12rustc_middle2ty7context6TyCtxtINtNtBV_5solve10QueryInputB1T_NtNtB1X_9predicate9PredicateEEINtNtCs19MuVdBY7V6_5alloc3vec3VecINtNtBV_12search_graph21ProvisionalCacheEntryB1T_EEEE14reserve_rehashNCINvNtB8_3map11make_hasherBQ_B3H_NtCsiHaVk9ZDPzl_10rustc_hash13FxBuildHasherE0ECscglkemFQPVF_21rustc_trait_selection
librustc_driver-f8caf2bfd7396df8.so:_RINvMs6_NtCs7DYsST9UVP3_9hashbrown3rawINtB6_8RawTableTINtNtCs2t38KIHyE4j_13rustc_type_ir9canonical19CanonicalQueryInputNtNtNtCsbnIUe8x9cNz_12rustc_middle2ty7context6TyCtxtINtNtBV_5solve10QueryInputB1T_NtNtB1X_9predicate9PredicateEEINtNtNtBV_12search_graph12global_cache10CacheEntryB1T_EEE14reserve_rehashNCINvNtB8_3map11make_hasherBQ_B3H_NtCsiHaVk9ZDPzl_10rustc_hash13FxBuildHasherE0ECscglkemFQPVF_21rustc_trait_selection
librustc_driver-f8caf2bfd7396df8.so:_RINvMs6_NtCs7DYsST9UVP3_9hashbrown3rawINtB6_8RawTableTINtNtCs2t38KIHyE4j_13rustc_type_ir9canonical19CanonicalQueryInputNtNtNtCsbnIUe8x9cNz_12rustc_middle2ty7context6TyCtxtINtNtBV_5solve10QueryInputB1T_NtNtB1X_9predicate9PredicateEENtNtBV_12search_graph13PathsToNestedEE14reserve_rehashNCINvNtB8_3map11make_hasherBQ_B3H_NtCsiHaVk9ZDPzl_10rustc_hash13FxBuildHasherE0ECscglkemFQPVF_21rustc_trait_selection
librustc_driver-f8caf2bfd7396df8.so:_RINvMs6_NtCs7DYsST9UVP3_9hashbrown3rawINtB6_8RawTableTINtNtCs2t38KIHyE4j_13rustc_type_ir9predicate17OutlivesPredicateNtNtNtCsbnIUe8x9cNz_12rustc_middle2ty7context6TyCtxtNtNtB1V_12generic_args10GenericArgEuEE14reserve_rehashNCINvNtB8_3map11make_hasherBQ_uNtCsiHaVk9ZDPzl_10rustc_hash13FxBuildHasherE0ECscglkemFQPVF_21rustc_trait_selection
librustc_driver-f8caf2bfd7396df8.so:_RINvMs6_NtCs7DYsST9UVP3_9hashbrown3rawINtB6_8RawTableTINtNtCs2t38KIHyE4j_13rustc_type_ir9predicate8TraitRefNtNtNtCsbnIUe8x9cNz_12rustc_middle2ty7context6TyCtxtEuEE14reserve_rehashNCINvNtB8_3map11make_hasherBQ_uNtCsiHaVk9ZDPzl_10rustc_hash13FxBuildHasherE0ECscglkemFQPVF_21rustc_trait_selection
librustc_driver-f8caf2bfd7396df8.so:_RINvMs6_NtCs7DYsST9UVP3_9hashbrown3rawINtB6_8RawTableTINtNtCs9WsFjTlRn02_4core6option6OptionNtNtCsjdyqsEEf0cE_10rustc_span6symbol6SymbolEuEE14reserve_rehashNCINvNtB8_3map11make_hasherBQ_uNtCsiHaVk9ZDPzl_10rustc_hash13FxBuildHasherE0ECshJoW1joeLxI_13rustc_session
librustc_driver-f8caf2bfd7396df8.so:_RINvMs6_NtCs7DYsST9UVP3_9hashbrown3rawINtB6_8RawTableTINtNtCs9WsFjTlRn02_4core6option6OptionTNtCsjdyqsEEf0cE_10rustc_span18StableSourceFileIdNtB1v_14SourceFileHashEERNtNtNtCseuJrGsAzkDK_18rustc_codegen_llvm4llvm3ffi8MetadataEE14reserve_rehashNCINvNtB8_3map11make_hasherBQ_B2D_NtCsiHaVk9ZDPzl_10rustc_hash13FxBuildHasherE0EB2K_
librustc_driver-f8caf2bfd7396df8.so:_RINvMs6_NtCs7DYsST9UVP3_9hashbrown3rawINtB6_8RawTableTINtNtCsbnIUe8x9cNz_12rustc_middle2ty11ParamEnvAndNtNtBT_9predicate9PredicateEjEE14reserve_rehashNCINvNtB8_3map11make_hasherBQ_jNtCsiHaVk9ZDPzl_10rustc_hash13FxBuildHasherE0ECscglkemFQPVF_21rustc_trait_selection
librustc_driver-f8caf2bfd7396df8.so:_RINvMs6_NtCs7DYsST9UVP3_9hashbrown3rawINtB6_8RawTableTINtNtCsbnIUe8x9cNz_12rustc_middle2ty11ParamEnvAndNtNtBT_9predicate9PredicateEuEE14reserve_rehashNCINvNtB8_3map11make_hasherBQ_uNtCsiHaVk9ZDPzl_10rustc_hash13FxBuildHasherE0ECscglkemFQPVF_21rustc_trait_selection
librustc_driver-f8caf2bfd7396df8.so:_RINvMs6_NtCs7DYsST9UVP3_9hashbrown3rawINtB6_8RawTableTINtNtCscvgEZkTNhgV_16rustc_proc_macro6bridge6MarkedNtNtCsjdyqsEEf0cE_10rustc_span13span_encoding4SpanNtNtBT_6client4SpanEINtNtNtCs9WsFjTlRn02_4core3num7nonzero7NonZeromEEE14reserve_rehashNCINvNtB8_3map11make_hasherBQ_B2N_INtNtB2U_4hash18BuildHasherDefaultNtNtBT_6fxhash8FxHasherEE0ECsjjbouxysk1D_12rustc_expand
librustc_driver-f8caf2bfd7396df8.so:_RINvMs6_NtCs7DYsST9UVP3_9hashbrown3rawINtB6_8RawTableTINtNtCsiN8jfhUhbz9_21rustc_data_structures6intern8InternedNtCsbwev6Zm5f0k_13rustc_resolve15NameBindingDataENtB1O_6ModuleEE14reserve_rehashNCINvNtB8_3map11make_hasherBQ_B2z_NtCsiHaVk9ZDPzl_10rustc_hash13FxBuildHasherE0EB1O_
librustc_driver-f8caf2bfd7396df8.so:_RINvMs6_NtCs7DYsST9UVP3_9hashbrown3rawINtB6_8RawTableTINtNtCsiN8jfhUhbz9_21rustc_data_structures6intern8InternedNtCsbwev6Zm5f0k_13rustc_resolve15NameBindingDataEuEE14reserve_rehashNCINvNtB8_3map11make_hasherBQ_uNtCsiHaVk9ZDPzl_10rustc_hash13FxBuildHasherE0EB1O_
librustc_driver-f8caf2bfd7396df8.so:_RINvMs6_NtCs7DYsST9UVP3_9hashbrown3rawINtB6_8RawTableTINtNtCsiN8jfhUhbz9_21rustc_data_structures6intern8InternedNtNtCsbwev6Zm5f0k_13rustc_resolve7imports10ImportDataENtB1Q_4UsedEE14reserve_rehashNCINvNtB8_3map11make_hasherBQ_B2E_NtCsiHaVk9ZDPzl_10rustc_hash13FxBuildHasherE0EB1Q_
librustc_driver-f8caf2bfd7396df8.so:_RINvMs6_NtCs7DYsST9UVP3_9hashbrown3rawINtB6_8RawTableTNtCs2t38KIHyE4j_13rustc_type_ir13UniverseIndexBQ_EE14reserve_rehashNCINvNtB8_3map11make_hasherBQ_BQ_NtCsiHaVk9ZDPzl_10rustc_hash13FxBuildHasherE0ECs1rNb7bG4Xia_11rustc_infer
librustc_driver-f8caf2bfd7396df8.so:_RINvMs6_NtCs7DYsST9UVP3_9hashbrown3rawINtB6_8RawTableTNtCs68KCCwsAtgG_12rustc_hashes6Hash64mEE14reserve_rehashNCINvNtB8_3map11make_hasherBQ_mINtNtCs9WsFjTlRn02_4core4hash18BuildHasherDefaultNtNtCsiN8jfhUhbz9_21rustc_data_structures6unhash8UnhasherEE0ECsbwev6Zm5f0k_13rustc_resolve
librustc_driver-f8caf2bfd7396df8.so:_RINvMs6_NtCs7DYsST9UVP3_9hashbrown3rawINtB6_8RawTableTNtCs68KCCwsAtgG_12rustc_hashes6Hash64mEE14reserve_rehashNCINvNtB8_3map11make_hasherBQ_mINtNtCs9WsFjTlRn02_4core4hash18BuildHasherDefaultNtNtCsiN8jfhUhbz9_21rustc_data_structures6unhash8UnhasherEE0ECsigzjtJzPjJb_18rustc_ast_lowering
librustc_driver-f8caf2bfd7396df8.so:_RINvMs6_NtCs7DYsST9UVP3_9hashbrown3rawINtB6_8RawTableTNtCs68KCCwsAtgG_12rustc_hashes7Hash128uEE14reserve_rehashNCINvNtB8_3map11make_hasherBQ_uNtCsiHaVk9ZDPzl_10rustc_hash13FxBuildHasherE0ECsdEUoebXq6qL_12rustc_errors
librustc_driver-f8caf2bfd7396df8.so:_RINvMs6_NtCs7DYsST9UVP3_9hashbrown3rawINtB6_8RawTableTNtCs6PgSWbCCKI2_15rustc_lint_defs6LintIduEE14reserve_rehashNCINvNtB8_3map11make_hasherBQ_uNtCsiHaVk9ZDPzl_10rustc_hash13FxBuildHasherE0ECsd1JD1uUqwgV_10rustc_lint
librustc_driver-f8caf2bfd7396df8.so:_RINvMs6_NtCs7DYsST9UVP3_9hashbrown3rawINtB6_8RawTableTNtCs6whg2ier8G0_12rustc_hir_id11ItemLocalIdINtNtCs19MuVdBY7V6_5alloc3vec3VecNtNtCsbnIUe8x9cNz_12rustc_middle2ty2TyEEE14reserve_rehashNCINvNtB8_3map11make_hasherBQ_B1x_NtCsiHaVk9ZDPzl_10rustc_hash13FxBuildHasherE0ECs2ERWbPTlodK_16rustc_query_impl
librustc_driver-f8caf2bfd7396df8.so:_RINvMs6_NtCs7DYsST9UVP3_9hashbrown3rawINtB6_8RawTableTNtCs6whg2ier8G0_12rustc_hir_id11ItemLocalIdINtNtCs19MuVdBY7V6_5alloc3vec3VecNtNtCsbnIUe8x9cNz_12rustc_middle2ty2TyEEE14reserve_rehashNCINvNtB8_3map11make_hasherBQ_B1x_NtCsiHaVk9ZDPzl_10rustc_hash13FxBuildHasherE0ECs7VwJBT60bpD_16rustc_hir_typeck
librustc_driver-f8caf2bfd7396df8.so:_RINvMs6_NtCs7DYsST9UVP3_9hashbrown3rawINtB6_8RawTableTNtCs6whg2ier8G0_12rustc_hir_id11ItemLocalIdINtNtCs19MuVdBY7V6_5alloc3vec3VecNtNtNtCsbnIUe8x9cNz_12rustc_middle2ty10adjustment10AdjustmentEEE14reserve_rehashNCINvNtB8_3map11make_hasherBQ_B1x_NtCsiHaVk9ZDPzl_10rustc_hash13FxBuildHasherE0ECs2ERWbPTlodK_16rustc_query_impl
librustc_driver-f8caf2bfd7396df8.so:_RINvMs6_NtCs7DYsST9UVP3_9hashbrown3rawINtB6_8RawTableTNtCs6whg2ier8G0_12rustc_hir_id11ItemLocalIdINtNtCs19MuVdBY7V6_5alloc3vec3VecNtNtNtCsbnIUe8x9cNz_12rustc_middle2ty10adjustment10AdjustmentEEE14reserve_rehashNCINvNtB8_3map11make_hasherBQ_B1x_NtCsiHaVk9ZDPzl_10rustc_hash13FxBuildHasherE0ECs7VwJBT60bpD_16rustc_hir_typeck
librustc_driver-f8caf2bfd7396df8.so:_RINvMs6_NtCs7DYsST9UVP3_9hashbrown3rawINtB6_8RawTableTNtCs6whg2ier8G0_12rustc_hir_id11ItemLocalIdINtNtCs19MuVdBY7V6_5alloc3vec3VecNtNtNtCsbnIUe8x9cNz_12rustc_middle2ty10adjustment13PatAdjustmentEEE14reserve_rehashNCINvNtB8_3map11make_hasherBQ_B1x_NtCsiHaVk9ZDPzl_10rustc_hash13FxBuildHasherE0ECs2ERWbPTlodK_16rustc_query_impl
librustc_driver-f8caf2bfd7396df8.so:_RINvMs6_NtCs7DYsST9UVP3_9hashbrown3rawINtB6_8RawTableTNtCs6whg2ier8G0_12rustc_hir_id11ItemLocalIdINtNtCs19MuVdBY7V6_5alloc3vec3VecNtNtNtCsbnIUe8x9cNz_12rustc_middle2ty10adjustment13PatAdjustmentEEE14reserve_rehashNCINvNtB8_3map11make_hasherBQ_B1x_NtCsiHaVk9ZDPzl_10rustc_hash13FxBuildHasherE0ECs7VwJBT60bpD_16rustc_hir_typeck
librustc_driver-f8caf2bfd7396df8.so:_RINvMs6_NtCs7DYsST9UVP3_9hashbrown3rawINtB6_8RawTableTNtCs6whg2ier8G0_12rustc_hir_id11ItemLocalIdINtNtCs19MuVdBY7V6_5alloc3vec3VecNtNtNtCsbnIUe8x9cNz_12rustc_middle2ty9predicate6ClauseEEE14reserve_rehashNCINvNtB8_3map11make_hasherBQ_B1x_NtCsiHaVk9ZDPzl_10rustc_hash13FxBuildHasherE0ECs7VwJBT60bpD_16rustc_hir_typeck
librustc_driver-f8caf2bfd7396df8.so:_RINvMs6_NtCs7DYsST9UVP3_9hashbrown3rawINtB6_8RawTableTNtCs6whg2ier8G0_12rustc_hir_id11ItemLocalIdINtNtCs19MuVdBY7V6_5alloc3vec3VecTNtNtCsbnIUe8x9cNz_12rustc_middle2ty2TyNtNtNtCs3WhD79dQ5JG_9rustc_abi6layout2ty10VariantIdxNtB2J_8FieldIdxEEEE14reserve_rehashNCINvNtB8_3map11make_hasherBQ_B1x_NtCsiHaVk9ZDPzl_10rustc_hash13FxBuildHasherE0ECs2ERWbPTlodK_16rustc_query_impl
librustc_driver-f8caf2bfd7396df8.so:_RINvMs6_NtCs7DYsST9UVP3_9hashbrown3rawINtB6_8RawTableTNtCs6whg2ier8G0_12rustc_hir_id11ItemLocalIdINtNtCs19MuVdBY7V6_5alloc3vec3VecTNtNtCsbnIUe8x9cNz_12rustc_middle2ty2TyNtNtNtCs3WhD79dQ5JG_9rustc_abi6layout2ty10VariantIdxNtB2J_8FieldIdxEEEE14reserve_rehashNCINvNtB8_3map11make_hasherBQ_B1x_NtCsiHaVk9ZDPzl_10rustc_hash13FxBuildHasherE0ECs7VwJBT60bpD_16rustc_hir_typeck
librustc_driver-f8caf2bfd7396df8.so:_RINvMs6_NtCs7DYsST9UVP3_9hashbrown3rawINtB6_8RawTableTNtCs6whg2ier8G0_12rustc_hir_id11ItemLocalIdINtNtCs19MuVdBY7V6_5alloc5boxed3BoxSNtNtCs2Pf1rSX1q4A_9rustc_hir3hir14TraitCandidateEEE14reserve_rehashNCINvNtB8_3map11make_hasherBQ_B1x_NtCsiHaVk9ZDPzl_10rustc_hash13FxBuildHasherE0ECsigzjtJzPjJb_18rustc_ast_lowering
librustc_driver-f8caf2bfd7396df8.so:_RINvMs6_NtCs7DYsST9UVP3_9hashbrown3rawINtB6_8RawTableTNtCs6whg2ier8G0_12rustc_hir_id11ItemLocalIdINtNtCs2t38KIHyE4j_13rustc_type_ir7ty_kind5FnSigNtNtNtCsbnIUe8x9cNz_12rustc_middle2ty7context6TyCtxtEEE14reserve_rehashNCINvNtB8_3map11make_hasherBQ_B1x_NtCsiHaVk9ZDPzl_10rustc_hash13FxBuildHasherE0ECs2ERWbPTlodK_16rustc_query_impl
librustc_driver-f8caf2bfd7396df8.so:_RINvMs6_NtCs7DYsST9UVP3_9hashbrown3rawINtB6_8RawTableTNtCs6whg2ier8G0_12rustc_hir_id11ItemLocalIdINtNtCs2t38KIHyE4j_13rustc_type_ir7ty_kind5FnSigNtNtNtCsbnIUe8x9cNz_12rustc_middle2ty7context6TyCtxtEEE14reserve_rehashNCINvNtB8_3map11make_hasherBQ_B1x_NtCsiHaVk9ZDPzl_10rustc_hash13FxBuildHasherE0ECs7VwJBT60bpD_16rustc_hir_typeck
librustc_driver-f8caf2bfd7396df8.so:_RINvMs6_NtCs7DYsST9UVP3_9hashbrown3rawINtB6_8RawTableTNtCs6whg2ier8G0_12rustc_hir_id11ItemLocalIdINtNtCs2t38KIHyE4j_13rustc_type_ir9canonical9CanonicalNtNtNtCsbnIUe8x9cNz_12rustc_middle2ty7context6TyCtxtNtNtB2t_14typeck_results8UserTypeEEE14reserve_rehashNCINvNtB8_3map11make_hasherBQ_B1x_NtCsiHaVk9ZDPzl_10rustc_hash13FxBuildHasherE0ECs2ERWbPTlodK_16rustc_query_impl
librustc_driver-f8caf2bfd7396df8.so:_RINvMs6_NtCs7DYsST9UVP3_9hashbrown3rawINtB6_8RawTableTNtCs6whg2ier8G0_12rustc_hir_id11ItemLocalIdINtNtCs2t38KIHyE4j_13rustc_type_ir9canonical9CanonicalNtNtNtCsbnIUe8x9cNz_12rustc_middle2ty7context6TyCtxtNtNtB2t_14typeck_results8UserTypeEEE14reserve_rehashNCINvNtB8_3map11make_hasherBQ_B1x_NtCsiHaVk9ZDPzl_10rustc_hash13FxBuildHasherE0ECs7VwJBT60bpD_16rustc_hir_typeck
librustc_driver-f8caf2bfd7396df8.so:_RINvMs6_NtCs7DYsST9UVP3_9hashbrown3rawINtB6_8RawTableTNtCs6whg2ier8G0_12rustc_hir_id11ItemLocalIdINtNtCs9WsFjTlRn02_4core6option6OptionNtNtNtCsbnIUe8x9cNz_12rustc_middle6middle6region5ScopeEEE14reserve_rehashNCINvNtB8_3map11make_hasherBQ_B1x_NtCsiHaVk9ZDPzl_10rustc_hash13FxBuildHasherE0EB2f_
librustc_driver-f8caf2bfd7396df8.so:_RINvMs6_NtCs7DYsST9UVP3_9hashbrown3rawINtB6_8RawTableTNtCs6whg2ier8G0_12rustc_hir_id11ItemLocalIdINtNtCs9WsFjTlRn02_4core6result6ResultTNtNtCs2Pf1rSX1q4A_9rustc_hir3def7DefKindNtNtCsjdyqsEEf0cE_10rustc_span6def_id5DefIdENtB2S_15ErrorGuaranteedEEE14reserve_rehashNCINvNtB8_3map11make_hasherBQ_B1x_NtCsiHaVk9ZDPzl_10rustc_hash13FxBuildHasherE0ECs2ERWbPTlodK_16rustc_query_impl
librustc_driver-f8caf2bfd7396df8.so:_RINvMs6_NtCs7DYsST9UVP3_9hashbrown3rawINtB6_8RawTableTNtCs6whg2ier8G0_12rustc_hir_id11ItemLocalIdINtNtCs9WsFjTlRn02_4core6result6ResultTNtNtCs2Pf1rSX1q4A_9rustc_hir3def7DefKindNtNtCsjdyqsEEf0cE_10rustc_span6def_id5DefIdENtB2S_15ErrorGuaranteedEEE14reserve_rehashNCINvNtB8_3map11make_hasherBQ_B1x_NtCsiHaVk9ZDPzl_10rustc_hash13FxBuildHasherE0ECs7VwJBT60bpD_16rustc_hir_typeck
librustc_driver-f8caf2bfd7396df8.so:_RINvMs6_NtCs7DYsST9UVP3_9hashbrown3rawINtB6_8RawTableTNtCs6whg2ier8G0_12rustc_hir_id11ItemLocalIdNtNtCs3XpY8PowsPH_9rustc_ast3ast11BindingModeEE14reserve_rehashNCINvNtB8_3map11make_hasherBQ_B1x_NtCsiHaVk9ZDPzl_10rustc_hash13FxBuildHasherE0ECs2ERWbPTlodK_16rustc_query_impl
librustc_driver-f8caf2bfd7396df8.so:_RINvMs6_NtCs7DYsST9UVP3_9hashbrown3rawINtB6_8RawTableTNtCs6whg2ier8G0_12rustc_hir_id11ItemLocalIdNtNtCs3XpY8PowsPH_9rustc_ast3ast11BindingModeEE14reserve_rehashNCINvNtB8_3map11make_hasherBQ_B1x_NtCsiHaVk9ZDPzl_10rustc_hash13FxBuildHasherE0ECs7VwJBT60bpD_16rustc_hir_typeck
librustc_driver-f8caf2bfd7396df8.so:_RINvMs6_NtCs7DYsST9UVP3_9hashbrown3rawINtB6_8RawTableTNtCs6whg2ier8G0_12rustc_hir_id11ItemLocalIdNtNtCsbnIUe8x9cNz_12rustc_middle2ty2TyEE14reserve_rehashNCINvNtB8_3map11make_hasherBQ_B1x_NtCsiHaVk9ZDPzl_10rustc_hash13FxBuildHasherE0ECs2ERWbPTlodK_16rustc_query_impl
librustc_driver-f8caf2bfd7396df8.so:_RINvMs6_NtCs7DYsST9UVP3_9hashbrown3rawINtB6_8RawTableTNtCs6whg2ier8G0_12rustc_hir_id11ItemLocalIdNtNtCsbnIUe8x9cNz_12rustc_middle2ty2TyEE14reserve_rehashNCINvNtB8_3map11make_hasherBQ_B1x_NtCsiHaVk9ZDPzl_10rustc_hash13FxBuildHasherE0ECs7VwJBT60bpD_16rustc_hir_typeck
librustc_driver-f8caf2bfd7396df8.so:_RINvMs6_NtCs7DYsST9UVP3_9hashbrown3rawINtB6_8RawTableTNtCs6whg2ier8G0_12rustc_hir_id11ItemLocalIdNtNtNtCs3WhD79dQ5JG_9rustc_abi6layout2ty8FieldIdxEE14reserve_rehashNCINvNtB8_3map11make_hasherBQ_B1x_NtCsiHaVk9ZDPzl_10rustc_hash13FxBuildHasherE0ECs2ERWbPTlodK_16rustc_query_impl
librustc_driver-f8caf2bfd7396df8.so:_RINvMs6_NtCs7DYsST9UVP3_9hashbrown3rawINtB6_8RawTableTNtCs6whg2ier8G0_12rustc_hir_id11ItemLocalIdNtNtNtCs3WhD79dQ5JG_9rustc_abi6layout2ty8FieldIdxEE14reserve_rehashNCINvNtB8_3map11make_hasherBQ_B1x_NtCsiHaVk9ZDPzl_10rustc_hash13FxBuildHasherE0ECs7VwJBT60bpD_16rustc_hir_typeck
librustc_driver-f8caf2bfd7396df8.so:_RINvMs6_NtCs7DYsST9UVP3_9hashbrown3rawINtB6_8RawTableTNtCs6whg2ier8G0_12rustc_hir_id11ItemLocalIdNtNtNtCsbnIUe8x9cNz_12rustc_middle2ty14typeck_results27Rust2024IncompatiblePatInfoEE14reserve_rehashNCINvNtB8_3map11make_hasherBQ_B1x_NtCsiHaVk9ZDPzl_10rustc_hash13FxBuildHasherE0ECs2ERWbPTlodK_16rustc_query_impl
librustc_driver-f8caf2bfd7396df8.so:_RINvMs6_NtCs7DYsST9UVP3_9hashbrown3rawINtB6_8RawTableTNtCs6whg2ier8G0_12rustc_hir_id11ItemLocalIdNtNtNtCsbnIUe8x9cNz_12rustc_middle2ty14typeck_results27Rust2024IncompatiblePatInfoEE14reserve_rehashNCINvNtB8_3map11make_hasherBQ_B1x_NtCsiHaVk9ZDPzl_10rustc_hash13FxBuildHasherE0ECs7VwJBT60bpD_16rustc_hir_typeck
librustc_driver-f8caf2bfd7396df8.so:_RINvMs6_NtCs7DYsST9UVP3_9hashbrown3rawINtB6_8RawTableTNtCs6whg2ier8G0_12rustc_hir_id11ItemLocalIdNtNtNtCsbnIUe8x9cNz_12rustc_middle6middle6region5ScopeEE14reserve_rehashNCINvNtB8_3map11make_hasherBQ_B1x_NtCsiHaVk9ZDPzl_10rustc_hash13FxBuildHasherE0ECs25h6OjkxBzy_18rustc_hir_analysis
librustc_driver-f8caf2bfd7396df8.so:_RINvMs6_NtCs7DYsST9UVP3_9hashbrown3rawINtB6_8RawTableTNtCs6whg2ier8G0_12rustc_hir_id11ItemLocalIdRINtNtNtCsbnIUe8x9cNz_12rustc_middle2ty4list7RawListuNtNtB1D_12generic_args10GenericArgEEE14reserve_rehashNCINvNtB8_3map11make_hasherBQ_B1x_NtCsiHaVk9ZDPzl_10rustc_hash13FxBuildHasherE0ECs2ERWbPTlodK_16rustc_query_impl
librustc_driver-f8caf2bfd7396df8.so:_RINvMs6_NtCs7DYsST9UVP3_9hashbrown3rawINtB6_8RawTableTNtCs6whg2ier8G0_12rustc_hir_id11ItemLocalIdRINtNtNtCsbnIUe8x9cNz_12rustc_middle2ty4list7RawListuNtNtB1D_12generic_args10GenericArgEEE14reserve_rehashNCINvNtB8_3map11make_hasherBQ_B1x_NtCsiHaVk9ZDPzl_10rustc_hash13FxBuildHasherE0ECs7VwJBT60bpD_16rustc_hir_typeck
librustc_driver-f8caf2bfd7396df8.so:_RINvMs6_NtCs7DYsST9UVP3_9hashbrown3rawINtB6_8RawTableTNtCs6whg2ier8G0_12rustc_hir_id11ItemLocalIdTNtNtCsjdyqsEEf0cE_10rustc_span13span_encoding4SpanNtNtNtCsbnIUe8x9cNz_12rustc_middle3hir5place5PlaceEEE14reserve_rehashNCINvNtB8_3map11make_hasherBQ_B1x_NtCsiHaVk9ZDPzl_10rustc_hash13FxBuildHasherE0ECs2ERWbPTlodK_16rustc_query_impl
librustc_driver-f8caf2bfd7396df8.so:_RINvMs6_NtCs7DYsST9UVP3_9hashbrown3rawINtB6_8RawTableTNtCs6whg2ier8G0_12rustc_hir_id11ItemLocalIdTNtNtCsjdyqsEEf0cE_10rustc_span13span_encoding4SpanNtNtNtCsbnIUe8x9cNz_12rustc_middle3hir5place5PlaceEEE14reserve_rehashNCINvNtB8_3map11make_hasherBQ_B1x_NtCsiHaVk9ZDPzl_10rustc_hash13FxBuildHasherE0ECs7VwJBT60bpD_16rustc_hir_typeck
librustc_driver-f8caf2bfd7396df8.so:_RINvMs6_NtCs7DYsST9UVP3_9hashbrown3rawINtB6_8RawTableTNtCs6whg2ier8G0_12rustc_hir_id11ItemLocalIduEE14reserve_rehashNCINvNtB8_3map11make_hasherBQ_uNtCsiHaVk9ZDPzl_10rustc_hash13FxBuildHasherE0ECsbnIUe8x9cNz_12rustc_middle
librustc_driver-f8caf2bfd7396df8.so:_RINvMs6_NtCs7DYsST9UVP3_9hashbrown3rawINtB6_8RawTableTNtCs6whg2ier8G0_12rustc_hir_id5HirIduEE14reserve_rehashNCINvNtB8_3map11make_hasherBQ_uNtCsiHaVk9ZDPzl_10rustc_hash13FxBuildHasherE0ECs6JcOuld5fNS_12rustc_passes
librustc_driver-f8caf2bfd7396df8.so:_RINvMs6_NtCs7DYsST9UVP3_9hashbrown3rawINtB6_8RawTableTNtCs6whg2ier8G0_12rustc_hir_id5HirIduEE14reserve_rehashNCINvNtB8_3map11make_hasherBQ_uNtCsiHaVk9ZDPzl_10rustc_hash13FxBuildHasherE0ECsfTLCRcPlsnU_14rustc_borrowck
librustc_driver-f8caf2bfd7396df8.so:_RINvMs6_NtCs7DYsST9UVP3_9hashbrown3rawINtB6_8RawTableTNtCsbwev6Zm5f0k_13rustc_resolve10BindingKeyuEE14reserve_rehashNCINvNtB8_3map11make_hasherBQ_uNtCsiHaVk9ZDPzl_10rustc_hash13FxBuildHasherE0EBS_
librustc_driver-f8caf2bfd7396df8.so:_RINvMs6_NtCs7DYsST9UVP3_9hashbrown3rawINtB6_8RawTableTNtCsesP4bWrh1Dv_16unic_langid_impl18LanguageIdentifierINtNtCs19MuVdBY7V6_5alloc2rc4WeakNtCs6AWFAUTkSqZ_13intl_memoizer16IntlLangMemoizerEEE14reserve_rehashNCINvNtB8_3map11make_hasherBQ_B1I_NtNtNtCsjj3dQwFOuTb_3std4hash6random11RandomStateE0EB2h_
librustc_driver-f8caf2bfd7396df8.so:_RINvMs6_NtCs7DYsST9UVP3_9hashbrown3rawINtB6_8RawTableTNtCsjdyqsEEf0cE_10rustc_span18StableSourceFileIdINtNtCs19MuVdBY7V6_5alloc4sync3ArcNtBS_10SourceFileEEE14reserve_rehashNCINvNtB8_3map11make_hasherBQ_B1C_INtNtCs9WsFjTlRn02_4core4hash18BuildHasherDefaultNtNtCsiN8jfhUhbz9_21rustc_data_structures6unhash8UnhasherEE0EBS_
librustc_driver-f8caf2bfd7396df8.so:_RINvMs6_NtCs7DYsST9UVP3_9hashbrown3rawINtB6_8RawTableTNtCsjdyqsEEf0cE_10rustc_span6AttrIdNtNtCs3XpY8PowsPH_9rustc_ast11tokenstream11ParserRangeEE14reserve_rehashNCINvNtB8_3map11make_hasherBQ_B1p_NtCsiHaVk9ZDPzl_10rustc_hash13FxBuildHasherE0ECsa5VOI9QU9vn_11rustc_parse
librustc_driver-f8caf2bfd7396df8.so:_RINvMs6_NtCs7DYsST9UVP3_9hashbrown3rawINtB6_8RawTableTNtCsjdyqsEEf0cE_10rustc_span6AttrIduEE14reserve_rehashNCINvNtB8_3map11make_hasherBQ_uNtCsiHaVk9ZDPzl_10rustc_hash13FxBuildHasherE0ECs8tAGCjRPvUB_17rustc_incremental
librustc_driver-f8caf2bfd7396df8.so:_RINvMs6_NtCs7DYsST9UVP3_9hashbrown3rawINtB6_8RawTableTNtCsjdyqsEEf0cE_10rustc_span7BytePosmEE14reserve_rehashNCINvNtB8_3map11make_hasherBQ_mNtCsiHaVk9ZDPzl_10rustc_hash13FxBuildHasherE0ECseuJrGsAzkDK_18rustc_codegen_llvm
librustc_driver-f8caf2bfd7396df8.so:_RINvMs6_NtCs7DYsST9UVP3_9hashbrown3rawINtB6_8RawTableTNtNtCs19MuVdBY7V6_5alloc6string6StringBQ_EE14reserve_rehashNCINvNtB8_3map11make_hasherBQ_BQ_NtCsiHaVk9ZDPzl_10rustc_hash13FxBuildHasherE0ECs8tAGCjRPvUB_17rustc_incremental
librustc_driver-f8caf2bfd7396df8.so:_RINvMs6_NtCs7DYsST9UVP3_9hashbrown3rawINtB6_8RawTableTNtNtCs19MuVdBY7V6_5alloc6string6StringBQ_EE14reserve_rehashNCINvNtB8_3map11make_hasherBQ_BQ_NtNtNtCsjj3dQwFOuTb_3std4hash6random11RandomStateE0ECseuJrGsAzkDK_18rustc_codegen_llvm
librustc_driver-f8caf2bfd7396df8.so:_RINvMs6_NtCs7DYsST9UVP3_9hashbrown3rawINtB6_8RawTableTNtNtCs19MuVdBY7V6_5alloc6string6StringINtNtCs9WsFjTlRn02_4core6option6OptionBQ_EEE14reserve_rehashNCINvNtB8_3map11make_hasherBQ_B1s_NtCsiHaVk9ZDPzl_10rustc_hash13FxBuildHasherE0ECs8tAGCjRPvUB_17rustc_incremental
librustc_driver-f8caf2bfd7396df8.so:_RINvMs6_NtCs7DYsST9UVP3_9hashbrown3rawINtB6_8RawTableTNtNtCs19MuVdBY7V6_5alloc6string6StringNtNtCs3puhVoiwLfp_12rustc_target15target_features9StabilityEE14reserve_rehashNCINvNtB8_3map11make_hasherBQ_B1s_NtCsiHaVk9ZDPzl_10rustc_hash13FxBuildHasherE0ECsixhzS6aZg4H_15rustc_interface
librustc_driver-f8caf2bfd7396df8.so:_RINvMs6_NtCs7DYsST9UVP3_9hashbrown3rawINtB6_8RawTableTNtNtCs19MuVdBY7V6_5alloc6string6StringNtNtCscYpAsuBFlON_13fluent_bundle5entry5EntryEE14reserve_rehashNCINvNtB8_3map11make_hasherBQ_B1s_NtCsiHaVk9ZDPzl_10rustc_hash13FxBuildHasherE0ECsdsSyqbQMhWS_20rustc_error_messages
librustc_driver-f8caf2bfd7396df8.so:_RINvMs6_NtCs7DYsST9UVP3_9hashbrown3rawINtB6_8RawTableTNtNtCs19MuVdBY7V6_5alloc6string6StringNtNtCsd1JD1uUqwgV_10rustc_lint7context10TargetLintEE14reserve_rehashNCINvNtB8_3map11make_hasherBQ_B1s_NtCsiHaVk9ZDPzl_10rustc_hash13FxBuildHasherE0EB1w_
librustc_driver-f8caf2bfd7396df8.so:_RINvMs6_NtCs7DYsST9UVP3_9hashbrown3rawINtB6_8RawTableTNtNtCs19MuVdBY7V6_5alloc6string6StringNtNtCsjFFbCeHvL72_9measureme11stringtable8StringIdEE14reserve_rehashNCINvNtB8_3map11make_hasherBQ_B1s_NtCsiHaVk9ZDPzl_10rustc_hash13FxBuildHasherE0ECsiN8jfhUhbz9_21rustc_data_structures
librustc_driver-f8caf2bfd7396df8.so:_RINvMs6_NtCs7DYsST9UVP3_9hashbrown3rawINtB6_8RawTableTNtNtCs19MuVdBY7V6_5alloc6string6StringNtNtCsjcIbwyOWlC2_17rustc_codegen_ssa21assert_module_sources8CguReuseEE14reserve_rehashNCINvNtB8_3map11make_hasherBQ_B1s_NtCsiHaVk9ZDPzl_10rustc_hash13FxBuildHasherE0EB1w_
librustc_driver-f8caf2bfd7396df8.so:_RINvMs6_NtCs7DYsST9UVP3_9hashbrown3rawINtB6_8RawTableTNtNtCs19MuVdBY7V6_5alloc6string6StringNtNtCsjdyqsEEf0cE_10rustc_span13span_encoding4SpanEE14reserve_rehashNCINvNtB8_3map11make_hasherBQ_B1s_NtCsiHaVk9ZDPzl_10rustc_hash13FxBuildHasherE0ECs6JcOuld5fNS_12rustc_passes
librustc_driver-f8caf2bfd7396df8.so:_RINvMs6_NtCs7DYsST9UVP3_9hashbrown3rawINtB6_8RawTableTNtNtCs19MuVdBY7V6_5alloc6string6StringNtNtNtCshF5AtUv7kVK_18rustc_query_system9dep_graph5graph11WorkProductEE14reserve_rehashNCINvNtB8_3map11make_hasherBQ_B1s_NtCsiHaVk9ZDPzl_10rustc_hash13FxBuildHasherE0ECseuJrGsAzkDK_18rustc_codegen_llvm
librustc_driver-f8caf2bfd7396df8.so:_RINvMs6_NtCs7DYsST9UVP3_9hashbrown3rawINtB6_8RawTableTNtNtCs19MuVdBY7V6_5alloc6string6StringRNtNtNtCseuJrGsAzkDK_18rustc_codegen_llvm4llvm3ffi5ValueEE14reserve_rehashNCINvNtB8_3map11make_hasherBQ_B1s_NtCsiHaVk9ZDPzl_10rustc_hash13FxBuildHasherE0EB1z_
librustc_driver-f8caf2bfd7396df8.so:_RINvMs6_NtCs7DYsST9UVP3_9hashbrown3rawINtB6_8RawTableTNtNtCs19MuVdBY7V6_5alloc6string6StringTBQ_NtNtCsjdyqsEEf0cE_10rustc_span13span_encoding4SpanNtNtCsjcIbwyOWlC2_17rustc_codegen_ssa21assert_module_sources8CguReuseNtB2m_14ComparisonKindEEE14reserve_rehashNCINvNtB8_3map11make_hasherBQ_B1s_NtCsiHaVk9ZDPzl_10rustc_hash13FxBuildHasherE0EB2o_
librustc_driver-f8caf2bfd7396df8.so:_RINvMs6_NtCs7DYsST9UVP3_9hashbrown3rawINtB6_8RawTableTNtNtCs19MuVdBY7V6_5alloc6string6StringuEE14reserve_rehashNCINvNtB8_3map11make_hasherBQ_uNtCsiHaVk9ZDPzl_10rustc_hash13FxBuildHasherE0ECs1xGwrsmuMfH_20rustc_builtin_macros
librustc_driver-f8caf2bfd7396df8.so:_RINvMs6_NtCs7DYsST9UVP3_9hashbrown3rawINtB6_8RawTableTNtNtCs19MuVdBY7V6_5alloc6string6StringuEE14reserve_rehashNCINvNtB8_3map11make_hasherBQ_uNtCsiHaVk9ZDPzl_10rustc_hash13FxBuildHasherE0ECs8tAGCjRPvUB_17rustc_incremental
librustc_driver-f8caf2bfd7396df8.so:_RINvMs6_NtCs7DYsST9UVP3_9hashbrown3rawINtB6_8RawTableTNtNtCs19MuVdBY7V6_5alloc6string6StringuEE14reserve_rehashNCINvNtB8_3map11make_hasherBQ_uNtCsiHaVk9ZDPzl_10rustc_hash13FxBuildHasherE0ECscglkemFQPVF_21rustc_trait_selection
librustc_driver-f8caf2bfd7396df8.so:_RINvMs6_NtCs7DYsST9UVP3_9hashbrown3rawINtB6_8RawTableTNtNtCs25h6OjkxBzy_18rustc_hir_analysis26constrained_generic_params9ParameteruEE14reserve_rehashNCINvNtB8_3map11make_hasherBQ_uNtCsiHaVk9ZDPzl_10rustc_hash13FxBuildHasherE0EBU_
librustc_driver-f8caf2bfd7396df8.so:_RINvMs6_NtCs7DYsST9UVP3_9hashbrown3rawINtB6_8RawTableTNtNtCs2Pf1rSX1q4A_9rustc_hir10lang_items8LangItemuEE14reserve_rehashNCINvNtB8_3map11make_hasherBQ_uNtCsiHaVk9ZDPzl_10rustc_hash13FxBuildHasherE0ECs6JcOuld5fNS_12rustc_passes
librustc_driver-f8caf2bfd7396df8.so:_RINvMs6_NtCs7DYsST9UVP3_9hashbrown3rawINtB6_8RawTableTNtNtCs2Pf1rSX1q4A_9rustc_hir3def11LifetimeResuEE14reserve_rehashNCINvNtB8_3map11make_hasherBQ_uNtCsiHaVk9ZDPzl_10rustc_hash13FxBuildHasherE0ECsbwev6Zm5f0k_13rustc_resolve
librustc_driver-f8caf2bfd7396df8.so:_RINvMs6_NtCs7DYsST9UVP3_9hashbrown3rawINtB6_8RawTableTNtNtCs2t38KIHyE4j_13rustc_type_ir10const_kind10InferConstNtNtNtCsbnIUe8x9cNz_12rustc_middle2ty6consts5ConstEE14reserve_rehashNCINvNtB8_3map11make_hasherBQ_B1L_NtCsiHaVk9ZDPzl_10rustc_hash13FxBuildHasherE0ECs1rNb7bG4Xia_11rustc_infer
librustc_driver-f8caf2bfd7396df8.so:_RINvMs6_NtCs7DYsST9UVP3_9hashbrown3rawINtB6_8RawTableTNtNtCs2t38KIHyE4j_13rustc_type_ir11region_kind9RegionVidINtNtCs42Kw8IjNYDo_8indexmap3set8IndexSetBQ_INtNtCs9WsFjTlRn02_4core4hash18BuildHasherDefaultNtCsiHaVk9ZDPzl_10rustc_hash8FxHasherEEEE14reserve_rehashNCINvNtB8_3map11make_hasherBQ_B1K_NtB3h_13FxBuildHasherE0ECsfTLCRcPlsnU_14rustc_borrowck
librustc_driver-f8caf2bfd7396df8.so:_RINvMs6_NtCs7DYsST9UVP3_9hashbrown3rawINtB6_8RawTableTNtNtCs2t38KIHyE4j_13rustc_type_ir11region_kind9RegionViduEE14reserve_rehashNCINvNtB8_3map11make_hasherBQ_uNtCsiHaVk9ZDPzl_10rustc_hash13FxBuildHasherE0ECs1rNb7bG4Xia_11rustc_infer
librustc_driver-f8caf2bfd7396df8.so:_RINvMs6_NtCs7DYsST9UVP3_9hashbrown3rawINtB6_8RawTableTNtNtCs2t38KIHyE4j_13rustc_type_ir7ty_kind5TyVidTNtCs6whg2ier8G0_12rustc_hir_id5HirIdNtNtCsjdyqsEEf0cE_10rustc_span13span_encoding4SpanNtNtCs7VwJBT60bpD_16rustc_hir_typeck8fallback15UnsafeUseReasonEEE14reserve_rehashNCINvNtB8_3map11make_hasherBQ_B1B_NtCsiHaVk9ZDPzl_10rustc_hash13FxBuildHasherE0EB34_
librustc_driver-f8caf2bfd7396df8.so:_RINvMs6_NtCs7DYsST9UVP3_9hashbrown3rawINtB6_8RawTableTNtNtCs2t38KIHyE4j_13rustc_type_ir7ty_kind5TyVidjEE14reserve_rehashNCINvNtB8_3map11make_hasherBQ_jNtCsiHaVk9ZDPzl_10rustc_hash13FxBuildHasherE0ECs1rNb7bG4Xia_11rustc_infer
librustc_driver-f8caf2bfd7396df8.so:_RINvMs6_NtCs7DYsST9UVP3_9hashbrown3rawINtB6_8RawTableTNtNtCs2t38KIHyE4j_13rustc_type_ir7ty_kind5TyViduEE14reserve_rehashNCINvNtB8_3map11make_hasherBQ_uNtCsiHaVk9ZDPzl_10rustc_hash13FxBuildHasherE0ECs7VwJBT60bpD_16rustc_hir_typeck
librustc_driver-f8caf2bfd7396df8.so:_RINvMs6_NtCs7DYsST9UVP3_9hashbrown3rawINtB6_8RawTableTNtNtCs2t38KIHyE4j_13rustc_type_ir7ty_kind7InferTyNtNtCsbnIUe8x9cNz_12rustc_middle2ty2TyEE14reserve_rehashNCINvNtB8_3map11make_hasherBQ_B1D_NtCsiHaVk9ZDPzl_10rustc_hash13FxBuildHasherE0ECs1rNb7bG4Xia_11rustc_infer
librustc_driver-f8caf2bfd7396df8.so:_RINvMs6_NtCs7DYsST9UVP3_9hashbrown3rawINtB6_8RawTableTNtNtCs3XpY8PowsPH_9rustc_ast7node_id6NodeIdBQ_EE14reserve_rehashNCINvNtB8_3map11make_hasherBQ_BQ_NtCsiHaVk9ZDPzl_10rustc_hash13FxBuildHasherE0ECsbwev6Zm5f0k_13rustc_resolve
librustc_driver-f8caf2bfd7396df8.so:_RINvMs6_NtCs7DYsST9UVP3_9hashbrown3rawINtB6_8RawTableTNtNtCs3XpY8PowsPH_9rustc_ast7node_id6NodeIdINtNtCs19MuVdBY7V6_5alloc3vec3VecNtNtCs2Pf1rSX1q4A_9rustc_hir3hir14TraitCandidateEEE14reserve_rehashNCINvNtB8_3map11make_hasherBQ_B1x_NtCsiHaVk9ZDPzl_10rustc_hash13FxBuildHasherE0ECsbwev6Zm5f0k_13rustc_resolve
librustc_driver-f8caf2bfd7396df8.so:_RINvMs6_NtCs7DYsST9UVP3_9hashbrown3rawINtB6_8RawTableTNtNtCs3XpY8PowsPH_9rustc_ast7node_id6NodeIdINtNtCs19MuVdBY7V6_5alloc3vec3VecTNtNtCsjdyqsEEf0cE_10rustc_span6symbol5IdentBQ_NtNtCs2Pf1rSX1q4A_9rustc_hir3def11LifetimeResEEEE14reserve_rehashNCINvNtB8_3map11make_hasherBQ_B1x_NtCsiHaVk9ZDPzl_10rustc_hash13FxBuildHasherE0ECsbwev6Zm5f0k_13rustc_resolve
librustc_driver-f8caf2bfd7396df8.so:_RINvMs6_NtCs7DYsST9UVP3_9hashbrown3rawINtB6_8RawTableTNtNtCs3XpY8PowsPH_9rustc_ast7node_id6NodeIdINtNtCs2Pf1rSX1q4A_9rustc_hir3def5PerNSINtNtCs9WsFjTlRn02_4core6option6OptionINtB1A_3ResBQ_EEEEE14reserve_rehashNCINvNtB8_3map11make_hasherBQ_B1x_NtCsiHaVk9ZDPzl_10rustc_hash13FxBuildHasherE0ECsbwev6Zm5f0k_13rustc_resolve
librustc_driver-f8caf2bfd7396df8.so:_RINvMs6_NtCs7DYsST9UVP3_9hashbrown3rawINtB6_8RawTableTNtNtCs3XpY8PowsPH_9rustc_ast7node_id6NodeIdINtNtNtCsbnIUe8x9cNz_12rustc_middle2ty7context4FeedNtNtCsjdyqsEEf0cE_10rustc_span6def_id10LocalDefIdEEE14reserve_rehashNCINvNtB8_3map11make_hasherBQ_B1x_NtCsiHaVk9ZDPzl_10rustc_hash13FxBuildHasherE0ECsbwev6Zm5f0k_13rustc_resolve
librustc_driver-f8caf2bfd7396df8.so:_RINvMs6_NtCs7DYsST9UVP3_9hashbrown3rawINtB6_8RawTableTNtNtCs3XpY8PowsPH_9rustc_ast7node_id6NodeIdNtCs6whg2ier8G0_12rustc_hir_id11ItemLocalIdEE14reserve_rehashNCINvNtB8_3map11make_hasherBQ_B1x_NtCsiHaVk9ZDPzl_10rustc_hash13FxBuildHasherE0ECsigzjtJzPjJb_18rustc_ast_lowering
librustc_driver-f8caf2bfd7396df8.so:_RINvMs6_NtCs7DYsST9UVP3_9hashbrown3rawINtB6_8RawTableTNtNtCs3XpY8PowsPH_9rustc_ast7node_id6NodeIdNtCsbwev6Zm5f0k_13rustc_resolve6ModuleEE14reserve_rehashNCINvNtB8_3map11make_hasherBQ_B1x_NtCsiHaVk9ZDPzl_10rustc_hash13FxBuildHasherE0EB1z_
librustc_driver-f8caf2bfd7396df8.so:_RINvMs6_NtCs7DYsST9UVP3_9hashbrown3rawINtB6_8RawTableTNtNtCs3XpY8PowsPH_9rustc_ast7node_id6NodeIdNtNtCs2Pf1rSX1q4A_9rustc_hir3def10PartialResEE14reserve_rehashNCINvNtB8_3map11make_hasherBQ_B1x_NtCsiHaVk9ZDPzl_10rustc_hash13FxBuildHasherE0ECsbwev6Zm5f0k_13rustc_resolve
librustc_driver-f8caf2bfd7396df8.so:_RINvMs6_NtCs7DYsST9UVP3_9hashbrown3rawINtB6_8RawTableTNtNtCs3XpY8PowsPH_9rustc_ast7node_id6NodeIdNtNtCs2Pf1rSX1q4A_9rustc_hir3def10PartialResEE14reserve_rehashNCINvNtB8_3map11make_hasherBQ_B1x_NtCsiHaVk9ZDPzl_10rustc_hash13FxBuildHasherE0ECsigzjtJzPjJb_18rustc_ast_lowering
librustc_driver-f8caf2bfd7396df8.so:_RINvMs6_NtCs7DYsST9UVP3_9hashbrown3rawINtB6_8RawTableTNtNtCs3XpY8PowsPH_9rustc_ast7node_id6NodeIdNtNtCs2Pf1rSX1q4A_9rustc_hir3def11LifetimeResEE14reserve_rehashNCINvNtB8_3map11make_hasherBQ_B1x_NtCsiHaVk9ZDPzl_10rustc_hash13FxBuildHasherE0ECsbwev6Zm5f0k_13rustc_resolve
librustc_driver-f8caf2bfd7396df8.so:_RINvMs6_NtCs7DYsST9UVP3_9hashbrown3rawINtB6_8RawTableTNtNtCs3XpY8PowsPH_9rustc_ast7node_id6NodeIdNtNtCsd1JD1uUqwgV_10rustc_lint6unused17NoBoundsExceptionEE14reserve_rehashNCINvNtB8_3map11make_hasherBQ_B1x_NtCsiHaVk9ZDPzl_10rustc_hash13FxBuildHasherE0EB1B_
librustc_driver-f8caf2bfd7396df8.so:_RINvMs6_NtCs7DYsST9UVP3_9hashbrown3rawINtB6_8RawTableTNtNtCs3XpY8PowsPH_9rustc_ast7node_id6NodeIdNtNtCsjdyqsEEf0cE_10rustc_span13span_encoding4SpanEE14reserve_rehashNCINvNtB8_3map11make_hasherBQ_B1x_NtCsiHaVk9ZDPzl_10rustc_hash13FxBuildHasherE0ECsbwev6Zm5f0k_13rustc_resolve
librustc_driver-f8caf2bfd7396df8.so:_RINvMs6_NtCs7DYsST9UVP3_9hashbrown3rawINtB6_8RawTableTNtNtCs3XpY8PowsPH_9rustc_ast7node_id6NodeIdNtNtCsjdyqsEEf0cE_10rustc_span6def_id10LocalDefIdEE14reserve_rehashNCINvNtB8_3map11make_hasherBQ_B1x_NtCsiHaVk9ZDPzl_10rustc_hash13FxBuildHasherE0ECsbwev6Zm5f0k_13rustc_resolve
librustc_driver-f8caf2bfd7396df8.so:_RINvMs6_NtCs7DYsST9UVP3_9hashbrown3rawINtB6_8RawTableTNtNtCs3XpY8PowsPH_9rustc_ast7node_id6NodeIdNtNtCsjdyqsEEf0cE_10rustc_span6def_id10LocalDefIdEE14reserve_rehashNCINvNtB8_3map11make_hasherBQ_B1x_NtCsiHaVk9ZDPzl_10rustc_hash13FxBuildHasherE0ECsigzjtJzPjJb_18rustc_ast_lowering
librustc_driver-f8caf2bfd7396df8.so:_RINvMs6_NtCs7DYsST9UVP3_9hashbrown3rawINtB6_8RawTableTNtNtCs3XpY8PowsPH_9rustc_ast7node_id6NodeIdNtNtCsjdyqsEEf0cE_10rustc_span6symbol6SymbolEE14reserve_rehashNCINvNtB8_3map11make_hasherBQ_B1x_NtCsiHaVk9ZDPzl_10rustc_hash13FxBuildHasherE0ECsbwev6Zm5f0k_13rustc_resolve
librustc_driver-f8caf2bfd7396df8.so:_RINvMs6_NtCs7DYsST9UVP3_9hashbrown3rawINtB6_8RawTableTNtNtCs3XpY8PowsPH_9rustc_ast7node_id6NodeIdNtNtCsjjbouxysk1D_12rustc_expand6expand11AstFragmentEE14reserve_rehashNCINvNtB8_3map11make_hasherBQ_B1x_NtCsiHaVk9ZDPzl_10rustc_hash13FxBuildHasherE0EB1B_
librustc_driver-f8caf2bfd7396df8.so:_RINvMs6_NtCs7DYsST9UVP3_9hashbrown3rawINtB6_8RawTableTNtNtCs3XpY8PowsPH_9rustc_ast7node_id6NodeIdjEE14reserve_rehashNCINvNtB8_3map11make_hasherBQ_jNtCsiHaVk9ZDPzl_10rustc_hash13FxBuildHasherE0ECsbwev6Zm5f0k_13rustc_resolve
librustc_driver-f8caf2bfd7396df8.so:_RINvMs6_NtCs7DYsST9UVP3_9hashbrown3rawINtB6_8RawTableTNtNtCs3XpY8PowsPH_9rustc_ast7node_id6NodeIduEE14reserve_rehashNCINvNtB8_3map11make_hasherBQ_uNtCsiHaVk9ZDPzl_10rustc_hash13FxBuildHasherE0ECsbwev6Zm5f0k_13rustc_resolve
librustc_driver-f8caf2bfd7396df8.so:_RINvMs6_NtCs7DYsST9UVP3_9hashbrown3rawINtB6_8RawTableTNtNtCs3lnlKGz4iJ7_22rustc_pattern_analysis3pat5PatIdINtNtBU_10usefulness19BranchPatUsefulnessNtNtBU_5rustc12RustcPatCtxtEEE14reserve_rehashNCINvNtB8_3map11make_hasherBQ_B1G_NtCsiHaVk9ZDPzl_10rustc_hash13FxBuildHasherE0EBU_
librustc_driver-f8caf2bfd7396df8.so:_RINvMs6_NtCs7DYsST9UVP3_9hashbrown3rawINtB6_8RawTableTNtNtCs3puhVoiwLfp_12rustc_target3asm12InlineAsmRegjEE14reserve_rehashNCINvNtB8_3map11make_hasherBQ_jNtCsiHaVk9ZDPzl_10rustc_hash13FxBuildHasherE0ECsigzjtJzPjJb_18rustc_ast_lowering
librustc_driver-f8caf2bfd7396df8.so:_RINvMs6_NtCs7DYsST9UVP3_9hashbrown3rawINtB6_8RawTableTNtNtCs3puhVoiwLfp_12rustc_target3asm12InlineAsmReguEE14reserve_rehashNCINvNtB8_3map11make_hasherBQ_uNtCsiHaVk9ZDPzl_10rustc_hash13FxBuildHasherE0ECsigzjtJzPjJb_18rustc_ast_lowering
librustc_driver-f8caf2bfd7396df8.so:_RINvMs6_NtCs7DYsST9UVP3_9hashbrown3rawINtB6_8RawTableTNtNtCs3puhVoiwLfp_12rustc_target3asm17InlineAsmRegClassINtNtCs42Kw8IjNYDo_8indexmap3set8IndexSetNtBS_12InlineAsmRegINtNtCs9WsFjTlRn02_4core4hash18BuildHasherDefaultNtCsiHaVk9ZDPzl_10rustc_hash8FxHasherEEEE14reserve_rehashNCINvNtB8_3map11make_hasherBQ_B1J_NtB3w_13FxBuildHasherE0EBU_
librustc_driver-f8caf2bfd7396df8.so:_RINvMs6_NtCs7DYsST9UVP3_9hashbrown3rawINtB6_8RawTableTNtNtCs5CCFvyG5imu_18rustc_mir_dataflow14value_analysis10ValueIndexBQ_EE14reserve_rehashNCINvNtB8_3map11make_hasherBQ_BQ_NtCsiHaVk9ZDPzl_10rustc_hash13FxBuildHasherE0ECs3pEzLKeUfxb_19rustc_mir_transform
librustc_driver-f8caf2bfd7396df8.so:_RINvMs6_NtCs7DYsST9UVP3_9hashbrown3rawINtB6_8RawTableTNtNtCs5CCFvyG5imu_18rustc_mir_dataflow14value_analysis10ValueIndexINtNtNtBU_9framework7lattice7FlatSetNtNtNtNtCsbnIUe8x9cNz_12rustc_middle3mir9interpret5value6ScalarEEE14reserve_rehashNCINvNtB8_3map11make_hasherBQ_B1U_NtCsiHaVk9ZDPzl_10rustc_hash13FxBuildHasherE0ECs3pEzLKeUfxb_19rustc_mir_transform
librustc_driver-f8caf2bfd7396df8.so:_RINvMs6_NtCs7DYsST9UVP3_9hashbrown3rawINtB6_8RawTableTNtNtCs5CCFvyG5imu_18rustc_mir_dataflow14value_analysis10ValueIndexuEE14reserve_rehashNCINvNtB8_3map11make_hasherBQ_uNtCsiHaVk9ZDPzl_10rustc_hash13FxBuildHasherE0ECs3pEzLKeUfxb_19rustc_mir_transform
librustc_driver-f8caf2bfd7396df8.so:_RINvMs6_NtCs7DYsST9UVP3_9hashbrown3rawINtB6_8RawTableTNtNtCs5wH0AbOeNic_6thorin7package11DwarfObjectuEE14reserve_rehashNCINvNtB8_3map11make_hasherBQ_uNtNtNtCsjj3dQwFOuTb_3std4hash6random11RandomStateE0ECsjcIbwyOWlC2_17rustc_codegen_ssa
librustc_driver-f8caf2bfd7396df8.so:_RINvMs6_NtCs7DYsST9UVP3_9hashbrown3rawINtB6_8RawTableTNtNtCs7zmaawPWeXS_14pulldown_cmark7strings6CowStruEE14reserve_rehashNCINvNtB8_3map11make_hasherBQ_uNtCsiHaVk9ZDPzl_10rustc_hash13FxBuildHasherE0ECsbwev6Zm5f0k_13rustc_resolve
librustc_driver-f8caf2bfd7396df8.so:_RINvMs6_NtCs7DYsST9UVP3_9hashbrown3rawINtB6_8RawTableTNtNtCs9WsFjTlRn02_4core3any6TypeIdINtNtCs19MuVdBY7V6_5alloc5boxed3BoxDNtBS_3AnyEL_EEE14reserve_rehashNCINvNtB8_3map11make_hasherBQ_B1o_NtCsiHaVk9ZDPzl_10rustc_hash13FxBuildHasherE0ECs60OvV2Ah0nl_8type_map
librustc_driver-f8caf2bfd7396df8.so:_RINvMs6_NtCs7DYsST9UVP3_9hashbrown3rawINtB6_8RawTableTNtNtCs9WsFjTlRn02_4core3any6TypeIdINtNtCs19MuVdBY7V6_5alloc5boxed3BoxDNtBS_3AnyNtNtBU_6marker4SendNtB29_4SyncEL_EEE14reserve_rehashNCINvNtB8_3map11make_hasherBQ_B1o_INtNtBU_4hash18BuildHasherDefaultNtNtNtCs3CG6U1Cuv7_18tracing_subscriber8registry10extensions8IdHasherEE0EB48_
librustc_driver-f8caf2bfd7396df8.so:_RINvMs6_NtCs7DYsST9UVP3_9hashbrown3rawINtB6_8RawTableTNtNtCs9WsFjTlRn02_4core3any6TypeIdINtNtCs19MuVdBY7V6_5alloc5boxed3BoxDNtBS_3AnyNtNtBU_6marker4SendNtB29_4SyncEL_EEE14reserve_rehashNCINvNtB8_3map11make_hasherBQ_B1o_NtCsiHaVk9ZDPzl_10rustc_hash13FxBuildHasherE0ECs60OvV2Ah0nl_8type_map
librustc_driver-f8caf2bfd7396df8.so:_RINvMs6_NtCs7DYsST9UVP3_9hashbrown3rawINtB6_8RawTableTNtNtCsaCMcIRKcXck_17rustc_thread_pool3job8JobRefIduEE14reserve_rehashNCINvNtB8_3map11make_hasherBQ_uNtNtNtCsjj3dQwFOuTb_3std4hash6random11RandomStateE0ECsixhzS6aZg4H_15rustc_interface
librustc_driver-f8caf2bfd7396df8.so:_RINvMs6_NtCs7DYsST9UVP3_9hashbrown3rawINtB6_8RawTableTNtNtCsbUbXzKR2swd_12tracing_core4span2IdINtNtNtNtCs3CG6U1Cuv7_18tracing_subscriber6filter3env9directive8MatchSetNtNtB1z_5field9SpanMatchEEE14reserve_rehashNCINvNtB8_3map11make_hasherBQ_B1u_NtNtNtCsjj3dQwFOuTb_3std4hash6random11RandomStateE0EB1D_
librustc_driver-f8caf2bfd7396df8.so:_RINvMs6_NtCs7DYsST9UVP3_9hashbrown3rawINtB6_8RawTableTNtNtCsbUbXzKR2swd_12tracing_core5field5FieldNtNtNtNtCs3CG6U1Cuv7_18tracing_subscriber6filter3env5field10ValueMatchEE14reserve_rehashNCINvNtB8_3map11make_hasherBQ_B1y_NtNtNtCsjj3dQwFOuTb_3std4hash6random11RandomStateE0EB1G_
librustc_driver-f8caf2bfd7396df8.so:_RINvMs6_NtCs7DYsST9UVP3_9hashbrown3rawINtB6_8RawTableTNtNtCsbUbXzKR2swd_12tracing_core5field5FieldTNtNtNtNtCs3CG6U1Cuv7_18tracing_subscriber6filter3env5field10ValueMatchNtNtNtCs9WsFjTlRn02_4core4sync6atomic10AtomicBoolEEE14reserve_rehashNCINvNtB8_3map11make_hasherBQ_B1y_NtNtNtCsjj3dQwFOuTb_3std4hash6random11RandomStateE0EB1H_
librustc_driver-f8caf2bfd7396df8.so:_RINvMs6_NtCs7DYsST9UVP3_9hashbrown3rawINtB6_8RawTableTNtNtCsbUbXzKR2swd_12tracing_core8callsite10IdentifierINtNtNtNtCs3CG6U1Cuv7_18tracing_subscriber6filter3env9directive8MatchSetNtNtB1M_5field13CallsiteMatchEEE14reserve_rehashNCINvNtB8_3map11make_hasherBQ_B1H_NtNtNtCsjj3dQwFOuTb_3std4hash6random11RandomStateE0EB1Q_
librustc_driver-f8caf2bfd7396df8.so:_RINvMs6_NtCs7DYsST9UVP3_9hashbrown3rawINtB6_8RawTableTNtNtCsbnIUe8x9cNz_12rustc_middle2ty15CReaderCacheKeyNtBS_2TyEE14reserve_rehashNCINvNtB8_3map11make_hasherBQ_B1G_NtCsiHaVk9ZDPzl_10rustc_hash13FxBuildHasherE0EBU_
librustc_driver-f8caf2bfd7396df8.so:_RINvMs6_NtCs7DYsST9UVP3_9hashbrown3rawINtB6_8RawTableTNtNtCsbnIUe8x9cNz_12rustc_middle2ty2TyBQ_EE14reserve_rehashNCINvNtB8_3map11make_hasherBQ_BQ_NtCsiHaVk9ZDPzl_10rustc_hash13FxBuildHasherE0ECs1rNb7bG4Xia_11rustc_infer
librustc_driver-f8caf2bfd7396df8.so:_RINvMs6_NtCs7DYsST9UVP3_9hashbrown3rawINtB6_8RawTableTNtNtCsbnIUe8x9cNz_12rustc_middle2ty2TyINtCslDCsxSJG9GM_8smallvec8SmallVecABQ_j4_EEE14reserve_rehashNCINvNtB8_3map11make_hasherBQ_B1s_NtCsiHaVk9ZDPzl_10rustc_hash13FxBuildHasherE0ECs3pEzLKeUfxb_19rustc_mir_transform
librustc_driver-f8caf2bfd7396df8.so:_RINvMs6_NtCs7DYsST9UVP3_9hashbrown3rawINtB6_8RawTableTNtNtCsbnIUe8x9cNz_12rustc_middle2ty2TyNtNtNtBU_3mir9interpret7AllocIdEE14reserve_rehashNCINvNtB8_3map11make_hasherBQ_B1s_NtCsiHaVk9ZDPzl_10rustc_hash13FxBuildHasherE0ECs3pEzLKeUfxb_19rustc_mir_transform
librustc_driver-f8caf2bfd7396df8.so:_RINvMs6_NtCs7DYsST9UVP3_9hashbrown3rawINtB6_8RawTableTNtNtCsbnIUe8x9cNz_12rustc_middle2ty2TyNtNtNtCs70IT0j5QNpU_16rustc_const_eval9interpret8validity8RangeSetEE14reserve_rehashNCINvNtB8_3map11make_hasherBQ_B1s_NtCsiHaVk9ZDPzl_10rustc_hash13FxBuildHasherE0EB1y_
librustc_driver-f8caf2bfd7396df8.so:_RINvMs6_NtCs7DYsST9UVP3_9hashbrown3rawINtB6_8RawTableTNtNtCsbnIUe8x9cNz_12rustc_middle2ty2TyRNtNtNtCseuJrGsAzkDK_18rustc_codegen_llvm4llvm3ffi4TypeEE14reserve_rehashNCINvNtB8_3map11make_hasherBQ_B1s_NtCsiHaVk9ZDPzl_10rustc_hash13FxBuildHasherE0EB1z_
librustc_driver-f8caf2bfd7396df8.so:_RINvMs6_NtCs7DYsST9UVP3_9hashbrown3rawINtB6_8RawTableTNtNtCsbnIUe8x9cNz_12rustc_middle2ty2TyjEE14reserve_rehashNCINvNtB8_3map11make_hasherBQ_jNtCsiHaVk9ZDPzl_10rustc_hash13FxBuildHasherE0EBU_
librustc_driver-f8caf2bfd7396df8.so:_RINvMs6_NtCs7DYsST9UVP3_9hashbrown3rawINtB6_8RawTableTNtNtCsbnIUe8x9cNz_12rustc_middle2ty2TyuEE14reserve_rehashNCINvNtB8_3map11make_hasherBQ_uNtCsiHaVk9ZDPzl_10rustc_hash13FxBuildHasherE0EBU_
librustc_driver-f8caf2bfd7396df8.so:_RINvMs6_NtCs7DYsST9UVP3_9hashbrown3rawINtB6_8RawTableTNtNtCsbnIUe8x9cNz_12rustc_middle2ty4TermuEE14reserve_rehashNCINvNtB8_3map11make_hasherBQ_uNtCsiHaVk9ZDPzl_10rustc_hash13FxBuildHasherE0ECscglkemFQPVF_21rustc_trait_selection
librustc_driver-f8caf2bfd7396df8.so:_RINvMs6_NtCs7DYsST9UVP3_9hashbrown3rawINtB6_8RawTableTNtNtCsbnIUe8x9cNz_12rustc_middle2ty8ParamEnvINtNtCs2t38KIHyE4j_13rustc_type_ir9canonical27CanonicalParamEnvCacheEntryNtNtBS_7context6TyCtxtEEE14reserve_rehashNCINvNtB8_3map11make_hasherBQ_B1y_NtCsiHaVk9ZDPzl_10rustc_hash13FxBuildHasherE0ECscglkemFQPVF_21rustc_trait_selection
librustc_driver-f8caf2bfd7396df8.so:_RINvMs6_NtCs7DYsST9UVP3_9hashbrown3rawINtB6_8RawTableTNtNtCsbnIUe8x9cNz_12rustc_middle2ty8ParamEnvTINtNtCs2t38KIHyE4j_13rustc_type_ir9canonical9CanonicalNtNtBS_7context6TyCtxtBQ_ERSNtNtBS_12generic_args10GenericArgEEE14reserve_rehashNCINvNtB8_3map11make_hasherBQ_B1y_NtCsiHaVk9ZDPzl_10rustc_hash13FxBuildHasherE0EBU_
librustc_driver-f8caf2bfd7396df8.so:_RINvMs6_NtCs7DYsST9UVP3_9hashbrown3rawINtB6_8RawTableTNtNtCsbnIUe8x9cNz_12rustc_middle3mir10BasicBlockBQ_EE14reserve_rehashNCINvNtB8_3map11make_hasherBQ_BQ_NtCsiHaVk9ZDPzl_10rustc_hash13FxBuildHasherE0ECs3pEzLKeUfxb_19rustc_mir_transform
librustc_driver-f8caf2bfd7396df8.so:_RINvMs6_NtCs7DYsST9UVP3_9hashbrown3rawINtB6_8RawTableTNtNtCsbnIUe8x9cNz_12rustc_middle3mir10BasicBlockINtNtCs19MuVdBY7V6_5alloc2rc2RcINtNtCs9WsFjTlRn02_4core4cell7RefCellINtNtCsdHgfYcjPt8N_11rustc_index7bit_set11MixedBitSetNtNtCs5CCFvyG5imu_18rustc_mir_dataflow10move_paths13MovePathIndexEEEEE14reserve_rehashNCINvNtB8_3map11make_hasherBQ_B1C_NtCsiHaVk9ZDPzl_10rustc_hash13FxBuildHasherE0ECs3pEzLKeUfxb_19rustc_mir_transform
librustc_driver-f8caf2bfd7396df8.so:_RINvMs6_NtCs7DYsST9UVP3_9hashbrown3rawINtB6_8RawTableTNtNtCsbnIUe8x9cNz_12rustc_middle3mir10BasicBlockNtNtBS_6syntax14TerminatorKindEE14reserve_rehashNCINvNtB8_3map11make_hasherBQ_B1C_NtCsiHaVk9ZDPzl_10rustc_hash13FxBuildHasherE0ECs3pEzLKeUfxb_19rustc_mir_transform
librustc_driver-f8caf2bfd7396df8.so:_RINvMs6_NtCs7DYsST9UVP3_9hashbrown3rawINtB6_8RawTableTNtNtCsbnIUe8x9cNz_12rustc_middle3mir10BasicBlockuEE14reserve_rehashNCINvNtB8_3map11make_hasherBQ_uNtCsiHaVk9ZDPzl_10rustc_hash13FxBuildHasherE0EBU_
librustc_driver-f8caf2bfd7396df8.so:_RINvMs6_NtCs7DYsST9UVP3_9hashbrown3rawINtB6_8RawTableTNtNtCsbnIUe8x9cNz_12rustc_middle3mir11SourceScopeINtNtCs19MuVdBY7V6_5alloc3vec3VecBQ_EEE14reserve_rehashNCINvNtB8_3map11make_hasherBQ_B1D_NtCsiHaVk9ZDPzl_10rustc_hash13FxBuildHasherE0EBU_
librustc_driver-f8caf2bfd7396df8.so:_RINvMs6_NtCs7DYsST9UVP3_9hashbrown3rawINtB6_8RawTableTNtNtCsbnIUe8x9cNz_12rustc_middle3mir13MentionedItemuEE14reserve_rehashNCINvNtB8_3map11make_hasherBQ_uNtCsiHaVk9ZDPzl_10rustc_hash13FxBuildHasherE0ECshohWIpJhPWk_18rustc_monomorphize
librustc_driver-f8caf2bfd7396df8.so:_RINvMs6_NtCs7DYsST9UVP3_9hashbrown3rawINtB6_8RawTableTNtNtCsbnIUe8x9cNz_12rustc_middle3mir5LocalINtNtCs19MuVdBY7V6_5alloc3vec3VecNtNtBS_9statement8PlaceRefEEE14reserve_rehashNCINvNtB8_3map11make_hasherBQ_B1w_NtCsiHaVk9ZDPzl_10rustc_hash13FxBuildHasherE0ECs5CCFvyG5imu_18rustc_mir_dataflow
librustc_driver-f8caf2bfd7396df8.so:_RINvMs6_NtCs7DYsST9UVP3_9hashbrown3rawINtB6_8RawTableTNtNtCsbnIUe8x9cNz_12rustc_middle3mir5LocaluEE14reserve_rehashNCINvNtB8_3map11make_hasherBQ_uNtCsiHaVk9ZDPzl_10rustc_hash13FxBuildHasherE0ECs70IT0j5QNpU_16rustc_const_eval
librustc_driver-f8caf2bfd7396df8.so:_RINvMs6_NtCs7DYsST9UVP3_9hashbrown3rawINtB6_8RawTableTNtNtCsbnIUe8x9cNz_12rustc_middle3mir5LocaluEE14reserve_rehashNCINvNtB8_3map11make_hasherBQ_uNtCsiHaVk9ZDPzl_10rustc_hash13FxBuildHasherE0ECsfTLCRcPlsnU_14rustc_borrowck
librustc_driver-f8caf2bfd7396df8.so:_RINvMs6_NtCs7DYsST9UVP3_9hashbrown3rawINtB6_8RawTableTNtNtCsbnIUe8x9cNz_12rustc_middle3mir8LocationNtNtBS_6consts5ConstEE14reserve_rehashNCINvNtB8_3map11make_hasherBQ_B1z_NtCsiHaVk9ZDPzl_10rustc_hash13FxBuildHasherE0ECs3pEzLKeUfxb_19rustc_mir_transform
librustc_driver-f8caf2bfd7396df8.so:_RINvMs6_NtCs7DYsST9UVP3_9hashbrown3rawINtB6_8RawTableTNtNtCsbnIUe8x9cNz_12rustc_middle3mir8LocationuEE14reserve_rehashNCINvNtB8_3map11make_hasherBQ_uNtCsiHaVk9ZDPzl_10rustc_hash13FxBuildHasherE0ECs3pEzLKeUfxb_19rustc_mir_transform
librustc_driver-f8caf2bfd7396df8.so:_RINvMs6_NtCs7DYsST9UVP3_9hashbrown3rawINtB6_8RawTableTNtNtCsbnIUe8x9cNz_12rustc_middle4thir10LocalVarIdNtNtBU_3mir10BasicBlockEE14reserve_rehashNCINvNtB8_3map11make_hasherBQ_B1D_NtCsiHaVk9ZDPzl_10rustc_hash13FxBuildHasherE0ECs9KgQoMCEFyf_15rustc_mir_build
librustc_driver-f8caf2bfd7396df8.so:_RINvMs6_NtCs7DYsST9UVP3_9hashbrown3rawINtB6_8RawTableTNtNtCsbnIUe8x9cNz_12rustc_middle4thir10LocalVarIdNtNtBU_3mir5LocalEE14reserve_rehashNCINvNtB8_3map11make_hasherBQ_B1D_NtCsiHaVk9ZDPzl_10rustc_hash13FxBuildHasherE0ECs9KgQoMCEFyf_15rustc_mir_build
librustc_driver-f8caf2bfd7396df8.so:_RINvMs6_NtCs7DYsST9UVP3_9hashbrown3rawINtB6_8RawTableTNtNtCsbnIUe8x9cNz_12rustc_middle4thir10LocalVarIdNtNtCs9KgQoMCEFyf_15rustc_mir_build7builder13LocalsForNodeEE14reserve_rehashNCINvNtB8_3map11make_hasherBQ_B1D_NtCsiHaVk9ZDPzl_10rustc_hash13FxBuildHasherE0EB1H_
librustc_driver-f8caf2bfd7396df8.so:_RINvMs6_NtCs7DYsST9UVP3_9hashbrown3rawINtB6_8RawTableTNtNtCsbnIUe8x9cNz_12rustc_middle4thir6ExprIdNtNtBU_3mir5LocalEE14reserve_rehashNCINvNtB8_3map11make_hasherBQ_B1y_NtCsiHaVk9ZDPzl_10rustc_hash13FxBuildHasherE0ECs9KgQoMCEFyf_15rustc_mir_build
librustc_driver-f8caf2bfd7396df8.so:_RINvMs6_NtCs7DYsST9UVP3_9hashbrown3rawINtB6_8RawTableTNtNtCsbnIUe8x9cNz_12rustc_middle4thir6ExprIdNtNtNtCs9KgQoMCEFyf_15rustc_mir_build7builder12coverageinfo7NotInfoEE14reserve_rehashNCINvNtB8_3map11make_hasherBQ_B1y_NtCsiHaVk9ZDPzl_10rustc_hash13FxBuildHasherE0EB1E_
librustc_driver-f8caf2bfd7396df8.so:_RINvMs6_NtCs7DYsST9UVP3_9hashbrown3rawINtB6_8RawTableTNtNtCsdEUoebXq6qL_12rustc_errors5codes7ErrCodeReEE14reserve_rehashNCINvNtB8_3map11make_hasherBQ_B1A_NtCsiHaVk9ZDPzl_10rustc_hash13FxBuildHasherE0EBU_
librustc_driver-f8caf2bfd7396df8.so:_RINvMs6_NtCs7DYsST9UVP3_9hashbrown3rawINtB6_8RawTableTNtNtCsdEUoebXq6qL_12rustc_errors5codes7ErrCodeuEE14reserve_rehashNCINvNtB8_3map11make_hasherBQ_uNtCsiHaVk9ZDPzl_10rustc_hash13FxBuildHasherE0EBU_
librustc_driver-f8caf2bfd7396df8.so:_RINvMs6_NtCs7DYsST9UVP3_9hashbrown3rawINtB6_8RawTableTNtNtCsdEUoebXq6qL_12rustc_errors7timings13TimingSectionuEE14reserve_rehashNCINvNtB8_3map11make_hasherBQ_uNtCsiHaVk9ZDPzl_10rustc_hash13FxBuildHasherE0EBU_
librustc_driver-f8caf2bfd7396df8.so:_RINvMs6_NtCs7DYsST9UVP3_9hashbrown3rawINtB6_8RawTableTNtNtCsf21fn2YBgpG_6object5write15StandardSectionNtBS_9SectionIdEE14reserve_rehashNCINvNtB8_3map11make_hasherBQ_B1C_NtNtNtCsjj3dQwFOuTb_3std4hash6random11RandomStateE0EBU_
librustc_driver-f8caf2bfd7396df8.so:_RINvMs6_NtCs7DYsST9UVP3_9hashbrown3rawINtB6_8RawTableTNtNtCsf21fn2YBgpG_6object5write8SymbolIdBQ_EE14reserve_rehashNCINvNtB8_3map11make_hasherBQ_BQ_NtNtNtCsjj3dQwFOuTb_3std4hash6random11RandomStateE0EBU_
librustc_driver-f8caf2bfd7396df8.so:_RINvMs6_NtCs7DYsST9UVP3_9hashbrown3rawINtB6_8RawTableTNtNtCsfTLCRcPlsnU_14rustc_borrowck11constraints18ConstraintSccIndexINtNtCs19MuVdBY7V6_5alloc3vec3VecRNtNtNtBU_12region_infer12opaque_types11DefiningUseEEE14reserve_rehashNCINvNtB8_3map11make_hasherBQ_B1V_NtCsiHaVk9ZDPzl_10rustc_hash13FxBuildHasherE0EBU_
librustc_driver-f8caf2bfd7396df8.so:_RINvMs6_NtCs7DYsST9UVP3_9hashbrown3rawINtB6_8RawTableTNtNtCsfTLCRcPlsnU_14rustc_borrowck11constraints18ConstraintSccIndexuEE14reserve_rehashNCINvNtB8_3map11make_hasherBQ_uNtCsiHaVk9ZDPzl_10rustc_hash13FxBuildHasherE0EBU_
librustc_driver-f8caf2bfd7396df8.so:_RINvMs6_NtCs7DYsST9UVP3_9hashbrown3rawINtB6_8RawTableTNtNtCsfTLCRcPlsnU_14rustc_borrowck8dataflow11BorrowIndexuEE14reserve_rehashNCINvNtB8_3map11make_hasherBQ_uINtNtCs9WsFjTlRn02_4core4hash18BuildHasherDefaultNtCsdpD0WSzRlFt_10rustc_hash8FxHasherEE0EBU_
librustc_driver-f8caf2bfd7396df8.so:_RINvMs6_NtCs7DYsST9UVP3_9hashbrown3rawINtB6_8RawTableTNtNtCshJoW1joeLxI_13rustc_session10code_stats12TypeSizeInfouEE14reserve_rehashNCINvNtB8_3map11make_hasherBQ_uNtCsiHaVk9ZDPzl_10rustc_hash13FxBuildHasherE0ECsdcGL4HoWj4W_14rustc_ty_utils
librustc_driver-f8caf2bfd7396df8.so:_RINvMs6_NtCs7DYsST9UVP3_9hashbrown3rawINtB6_8RawTableTNtNtCshJoW1joeLxI_13rustc_session6config9CrateTypeINtNtCs19MuVdBY7V6_5alloc3vec3VecTNtNtB1J_6string6StringNtNtNtCsbnIUe8x9cNz_12rustc_middle6middle16exported_symbols16SymbolExportKindEEEE14reserve_rehashNCINvNtB8_3map11make_hasherBQ_B1E_NtCsiHaVk9ZDPzl_10rustc_hash13FxBuildHasherE0ECsjcIbwyOWlC2_17rustc_codegen_ssa
librustc_driver-f8caf2bfd7396df8.so:_RINvMs6_NtCs7DYsST9UVP3_9hashbrown3rawINtB6_8RawTableTNtNtCsiN8jfhUhbz9_21rustc_data_structures11fingerprint17PackedFingerprintNtNtNtCshF5AtUv7kVK_18rustc_query_system9dep_graph10serialized22SerializedDepNodeIndexEE14reserve_rehashNCINvNtB8_3map11make_hasherBQ_B21_INtNtCs9WsFjTlRn02_4core4hash18BuildHasherDefaultNtNtBU_6unhash8UnhasherEE0ECs8tAGCjRPvUB_17rustc_incremental
librustc_driver-f8caf2bfd7396df8.so:_RINvMs6_NtCs7DYsST9UVP3_9hashbrown3rawINtB6_8RawTableTNtNtCsiN8jfhUhbz9_21rustc_data_structures17obligation_forest16ObligationTreeIdINtNtNtNtCsjj3dQwFOuTb_3std11collections4hash3set7HashSetINtNtCsbnIUe8x9cNz_12rustc_middle2ty11ParamEnvAndNtNtB34_9predicate9PredicateENtCsiHaVk9ZDPzl_10rustc_hash13FxBuildHasherEEE14reserve_rehashNCINvNtB8_3map11make_hasherBQ_B26_B4h_E0ECscglkemFQPVF_21rustc_trait_selection
librustc_driver-f8caf2bfd7396df8.so:_RINvMs6_NtCs7DYsST9UVP3_9hashbrown3rawINtB6_8RawTableTNtNtCsiN8jfhUhbz9_21rustc_data_structures19transitive_relation4EdgeuEE14reserve_rehashNCINvNtB8_3map11make_hasherBQ_uNtCsiHaVk9ZDPzl_10rustc_hash13FxBuildHasherE0ECscglkemFQPVF_21rustc_trait_selection
librustc_driver-f8caf2bfd7396df8.so:_RINvMs6_NtCs7DYsST9UVP3_9hashbrown3rawINtB6_8RawTableTNtNtCsiwa6XAY8u2U_6object5write15StandardSectionNtBS_9SectionIdEE14reserve_rehashNCINvNtB8_3map11make_hasherBQ_B1C_NtNtNtCsjj3dQwFOuTb_3std4hash6random11RandomStateE0EBU_
librustc_driver-f8caf2bfd7396df8.so:_RINvMs6_NtCs7DYsST9UVP3_9hashbrown3rawINtB6_8RawTableTNtNtCsiwa6XAY8u2U_6object5write8SymbolIdBQ_EE14reserve_rehashNCINvNtB8_3map11make_hasherBQ_BQ_NtNtNtCsjj3dQwFOuTb_3std4hash6random11RandomStateE0EBU_
librustc_driver-f8caf2bfd7396df8.so:_RINvMs6_NtCs7DYsST9UVP3_9hashbrown3rawINtB6_8RawTableTNtNtCsjFFbCeHvL72_9measureme13serialization7PageTagINtNtCs19MuVdBY7V6_5alloc3vec3VechEEE14reserve_rehashNCINvNtB8_3map11make_hasherBQ_B1F_INtNtCs9WsFjTlRn02_4core4hash18BuildHasherDefaultNtCsdpD0WSzRlFt_10rustc_hash8FxHasherEE0EBU_
librustc_driver-f8caf2bfd7396df8.so:_RINvMs6_NtCs7DYsST9UVP3_9hashbrown3rawINtB6_8RawTableTNtNtCsjdyqsEEf0cE_10rustc_span13span_encoding4SpanBQ_EE14reserve_rehashNCINvNtB8_3map11make_hasherBQ_BQ_NtCsiHaVk9ZDPzl_10rustc_hash13FxBuildHasherE0EBU_
librustc_driver-f8caf2bfd7396df8.so:_RINvMs6_NtCs7DYsST9UVP3_9hashbrown3rawINtB6_8RawTableTNtNtCsjdyqsEEf0cE_10rustc_span13span_encoding4SpanINtNtCs9WsFjTlRn02_4core6option6OptionNtNtNtCsjjbouxysk1D_12rustc_expand3mbe11macro_rules8TokenSetEEE14reserve_rehashNCINvNtB8_3map11make_hasherBQ_B1E_NtCsiHaVk9ZDPzl_10rustc_hash13FxBuildHasherE0EB2m_
librustc_driver-f8caf2bfd7396df8.so:_RINvMs6_NtCs7DYsST9UVP3_9hashbrown3rawINtB6_8RawTableTNtNtCsjdyqsEEf0cE_10rustc_span13span_encoding4SpanTBQ_bEEE14reserve_rehashNCINvNtB8_3map11make_hasherBQ_B1E_NtCsiHaVk9ZDPzl_10rustc_hash13FxBuildHasherE0EBU_
librustc_driver-f8caf2bfd7396df8.so:_RINvMs6_NtCs7DYsST9UVP3_9hashbrown3rawINtB6_8RawTableTNtNtCsjdyqsEEf0cE_10rustc_span13span_encoding4SpanjEE14reserve_rehashNCINvNtB8_3map11make_hasherBQ_jNtCsiHaVk9ZDPzl_10rustc_hash13FxBuildHasherE0ECskmy2rFhdDOz_14rustc_metadata
librustc_driver-f8caf2bfd7396df8.so:_RINvMs6_NtCs7DYsST9UVP3_9hashbrown3rawINtB6_8RawTableTNtNtCsjdyqsEEf0cE_10rustc_span13span_encoding4SpanuEE14reserve_rehashNCINvNtB8_3map11make_hasherBQ_uNtCsiHaVk9ZDPzl_10rustc_hash13FxBuildHasherE0ECs25h6OjkxBzy_18rustc_hir_analysis
librustc_driver-f8caf2bfd7396df8.so:_RINvMs6_NtCs7DYsST9UVP3_9hashbrown3rawINtB6_8RawTableTNtNtCsjdyqsEEf0cE_10rustc_span13span_encoding4SpanuEE14reserve_rehashNCINvNtB8_3map11make_hasherBQ_uNtCsiHaVk9ZDPzl_10rustc_hash13FxBuildHasherE0ECs9KgQoMCEFyf_15rustc_mir_build
librustc_driver-f8caf2bfd7396df8.so:_RINvMs6_NtCs7DYsST9UVP3_9hashbrown3rawINtB6_8RawTableTNtNtCsjdyqsEEf0cE_10rustc_span13span_encoding4SpanuEE14reserve_rehashNCINvNtB8_3map11make_hasherBQ_uNtCsiHaVk9ZDPzl_10rustc_hash13FxBuildHasherE0ECsbwev6Zm5f0k_13rustc_resolve
librustc_driver-f8caf2bfd7396df8.so:_RINvMs6_NtCs7DYsST9UVP3_9hashbrown3rawINtB6_8RawTableTNtNtCsjdyqsEEf0cE_10rustc_span6def_id10LocalDefIdINtNtCs19MuVdBY7V6_5alloc3vec3VecNtNtBU_6symbol5IdentEEE14reserve_rehashNCINvNtB8_3map11make_hasherBQ_B1D_NtCsiHaVk9ZDPzl_10rustc_hash13FxBuildHasherE0ECsbwev6Zm5f0k_13rustc_resolve
librustc_driver-f8caf2bfd7396df8.so:_RINvMs6_NtCs7DYsST9UVP3_9hashbrown3rawINtB6_8RawTableTNtNtCsjdyqsEEf0cE_10rustc_span6def_id10LocalDefIdINtNtCs19MuVdBY7V6_5alloc3vec3VecNtNtBU_6symbol6SymbolEEE14reserve_rehashNCINvNtB8_3map11make_hasherBQ_B1D_NtCsiHaVk9ZDPzl_10rustc_hash13FxBuildHasherE0ECsbwev6Zm5f0k_13rustc_resolve
librustc_driver-f8caf2bfd7396df8.so:_RINvMs6_NtCs7DYsST9UVP3_9hashbrown3rawINtB6_8RawTableTNtNtCsjdyqsEEf0cE_10rustc_span6def_id10LocalDefIdINtNtCs19MuVdBY7V6_5alloc3vec3VecNtNtCs7VwJBT60bpD_16rustc_hir_typeck6callee22DeferredCallResolutionEEE14reserve_rehashNCINvNtB8_3map11make_hasherBQ_B1D_NtCsiHaVk9ZDPzl_10rustc_hash13FxBuildHasherE0EB2e_
librustc_driver-f8caf2bfd7396df8.so:_RINvMs6_NtCs7DYsST9UVP3_9hashbrown3rawINtB6_8RawTableTNtNtCsjdyqsEEf0cE_10rustc_span6def_id10LocalDefIdINtNtCs19MuVdBY7V6_5alloc3vec3VecNtNtCsbnIUe8x9cNz_12rustc_middle8metadata8ModChildEEE14reserve_rehashNCINvNtB8_3map11make_hasherBQ_B1D_NtCsiHaVk9ZDPzl_10rustc_hash13FxBuildHasherE0ECsbwev6Zm5f0k_13rustc_resolve
librustc_driver-f8caf2bfd7396df8.so:_RINvMs6_NtCs7DYsST9UVP3_9hashbrown3rawINtB6_8RawTableTNtNtCsjdyqsEEf0cE_10rustc_span6def_id10LocalDefIdINtNtCs19MuVdBY7V6_5alloc3vec3VecTNtNtNtCsbnIUe8x9cNz_12rustc_middle3hir5place5PlaceNtNtNtB2h_3mir6syntax13FakeReadCauseNtCs6whg2ier8G0_12rustc_hir_id5HirIdEEEE14reserve_rehashNCINvNtB8_3map11make_hasherBQ_B1D_NtCsiHaVk9ZDPzl_10rustc_hash13FxBuildHasherE0ECs2ERWbPTlodK_16rustc_query_impl
librustc_driver-f8caf2bfd7396df8.so:_RINvMs6_NtCs7DYsST9UVP3_9hashbrown3rawINtB6_8RawTableTNtNtCsjdyqsEEf0cE_10rustc_span6def_id10LocalDefIdINtNtCs19MuVdBY7V6_5alloc3vec3VecTNtNtNtCsbnIUe8x9cNz_12rustc_middle3hir5place5PlaceNtNtNtB2h_3mir6syntax13FakeReadCauseNtCs6whg2ier8G0_12rustc_hir_id5HirIdEEEE14reserve_rehashNCINvNtB8_3map11make_hasherBQ_B1D_NtCsiHaVk9ZDPzl_10rustc_hash13FxBuildHasherE0ECs7VwJBT60bpD_16rustc_hir_typeck
librustc_driver-f8caf2bfd7396df8.so:_RINvMs6_NtCs7DYsST9UVP3_9hashbrown3rawINtB6_8RawTableTNtNtCsjdyqsEEf0cE_10rustc_span6def_id10LocalDefIdINtNtCs19MuVdBY7V6_5alloc3vec3VecTNtNtNtCsbnIUe8x9cNz_12rustc_middle6middle18resolve_bound_vars11ResolvedArgBQ_EEEE14reserve_rehashNCINvNtB8_3map11make_hasherBQ_B1D_NtCsiHaVk9ZDPzl_10rustc_hash13FxBuildHasherE0ECs25h6OjkxBzy_18rustc_hir_analysis
librustc_driver-f8caf2bfd7396df8.so:_RINvMs6_NtCs7DYsST9UVP3_9hashbrown3rawINtB6_8RawTableTNtNtCsjdyqsEEf0cE_10rustc_span6def_id10LocalDefIdINtNtCs2t38KIHyE4j_13rustc_type_ir9canonical9CanonicalNtNtNtCsbnIUe8x9cNz_12rustc_middle2ty7context6TyCtxtINtNtB1I_6binder6BinderB2v_INtNtB1I_7ty_kind5FnSigB2v_EEEEE14reserve_rehashNCINvNtB8_3map11make_hasherBQ_B1D_NtCsiHaVk9ZDPzl_10rustc_hash13FxBuildHasherE0ECs2ERWbPTlodK_16rustc_query_impl
librustc_driver-f8caf2bfd7396df8.so:_RINvMs6_NtCs7DYsST9UVP3_9hashbrown3rawINtB6_8RawTableTNtNtCsjdyqsEEf0cE_10rustc_span6def_id10LocalDefIdINtNtCs2t38KIHyE4j_13rustc_type_ir9canonical9CanonicalNtNtNtCsbnIUe8x9cNz_12rustc_middle2ty7context6TyCtxtINtNtB1I_6binder6BinderB2v_INtNtB1I_7ty_kind5FnSigB2v_EEEEE14reserve_rehashNCINvNtB8_3map11make_hasherBQ_B1D_NtCsiHaVk9ZDPzl_10rustc_hash13FxBuildHasherE0ECs7VwJBT60bpD_16rustc_hir_typeck
librustc_driver-f8caf2bfd7396df8.so:_RINvMs6_NtCs7DYsST9UVP3_9hashbrown3rawINtB6_8RawTableTNtNtCsjdyqsEEf0cE_10rustc_span6def_id10LocalDefIdINtNtCs42Kw8IjNYDo_8indexmap3map8IndexMapNtCs6whg2ier8G0_12rustc_hir_id5HirIdINtNtCs19MuVdBY7V6_5alloc3vec3VecNtNtNtCsbnIUe8x9cNz_12rustc_middle2ty7closure13CapturedPlaceEINtNtCs9WsFjTlRn02_4core4hash18BuildHasherDefaultNtCsiHaVk9ZDPzl_10rustc_hash8FxHasherEEEE14reserve_rehashNCINvNtB8_3map11make_hasherBQ_B1D_NtB5d_13FxBuildHasherE0ECs2ERWbPTlodK_16rustc_query_impl
librustc_driver-f8caf2bfd7396df8.so:_RINvMs6_NtCs7DYsST9UVP3_9hashbrown3rawINtB6_8RawTableTNtNtCsjdyqsEEf0cE_10rustc_span6def_id10LocalDefIdINtNtCs42Kw8IjNYDo_8indexmap3map8IndexMapNtCs6whg2ier8G0_12rustc_hir_id5HirIdINtNtCs19MuVdBY7V6_5alloc3vec3VecNtNtNtCsbnIUe8x9cNz_12rustc_middle2ty7closure13CapturedPlaceEINtNtCs9WsFjTlRn02_4core4hash18BuildHasherDefaultNtCsiHaVk9ZDPzl_10rustc_hash8FxHasherEEEE14reserve_rehashNCINvNtB8_3map11make_hasherBQ_B1D_NtB5d_13FxBuildHasherE0ECs7VwJBT60bpD_16rustc_hir_typeck
librustc_driver-f8caf2bfd7396df8.so:_RINvMs6_NtCs7DYsST9UVP3_9hashbrown3rawINtB6_8RawTableTNtNtCsjdyqsEEf0cE_10rustc_span6def_id10LocalDefIdINtNtCs42Kw8IjNYDo_8indexmap3set8IndexSetNtBS_5DefIdINtNtCs9WsFjTlRn02_4core4hash18BuildHasherDefaultNtCsiHaVk9ZDPzl_10rustc_hash8FxHasherEEEE14reserve_rehashNCINvNtB8_3map11make_hasherBQ_B1D_NtB3i_13FxBuildHasherE0ECs6JcOuld5fNS_12rustc_passes
librustc_driver-f8caf2bfd7396df8.so:_RINvMs6_NtCs7DYsST9UVP3_9hashbrown3rawINtB6_8RawTableTNtNtCsjdyqsEEf0cE_10rustc_span6def_id10LocalDefIdINtNtCs9WsFjTlRn02_4core6option6OptionNtCsfTLCRcPlsnU_14rustc_borrowck25ClosureRegionRequirementsEEE14reserve_rehashNCINvNtB8_3map11make_hasherBQ_B1D_NtCsiHaVk9ZDPzl_10rustc_hash13FxBuildHasherE0EB2h_
librustc_driver-f8caf2bfd7396df8.so:_RINvMs6_NtCs7DYsST9UVP3_9hashbrown3rawINtB6_8RawTableTNtNtCsjdyqsEEf0cE_10rustc_span6def_id10LocalDefIdINtNtNtNtCsjj3dQwFOuTb_3std11collections4hash3set7HashSetNtCsbwev6Zm5f0k_13rustc_resolve10BindingKeyNtCsiHaVk9ZDPzl_10rustc_hash13FxBuildHasherEEE14reserve_rehashNCINvNtB8_3map11make_hasherBQ_B1D_B3f_E0EB2A_
librustc_driver-f8caf2bfd7396df8.so:_RINvMs6_NtCs7DYsST9UVP3_9hashbrown3rawINtB6_8RawTableTNtNtCsjdyqsEEf0cE_10rustc_span6def_id10LocalDefIdINtNtNtNtCsjj3dQwFOuTb_3std11collections4hash3set7HashSetNtNtBU_7hygiene11LocalExpnIdNtCsiHaVk9ZDPzl_10rustc_hash13FxBuildHasherEEE14reserve_rehashNCINvNtB8_3map11make_hasherBQ_B1D_B30_E0ECsbwev6Zm5f0k_13rustc_resolve
librustc_driver-f8caf2bfd7396df8.so:_RINvMs6_NtCs7DYsST9UVP3_9hashbrown3rawINtB6_8RawTableTNtNtCsjdyqsEEf0cE_10rustc_span6def_id10LocalDefIdNtBS_8CrateNumEE14reserve_rehashNCINvNtB8_3map11make_hasherBQ_B1D_NtCsiHaVk9ZDPzl_10rustc_hash13FxBuildHasherE0ECsbwev6Zm5f0k_13rustc_resolve
librustc_driver-f8caf2bfd7396df8.so:_RINvMs6_NtCs7DYsST9UVP3_9hashbrown3rawINtB6_8RawTableTNtNtCsjdyqsEEf0cE_10rustc_span6def_id10LocalDefIdNtCs6whg2ier8G0_12rustc_hir_id11ItemLocalIdEE14reserve_rehashNCINvNtB8_3map11make_hasherBQ_B1D_NtCsiHaVk9ZDPzl_10rustc_hash13FxBuildHasherE0ECsigzjtJzPjJb_18rustc_ast_lowering
librustc_driver-f8caf2bfd7396df8.so:_RINvMs6_NtCs7DYsST9UVP3_9hashbrown3rawINtB6_8RawTableTNtNtCsjdyqsEEf0cE_10rustc_span6def_id10LocalDefIdNtCsbwev6Zm5f0k_13rustc_resolve6ModuleEE14reserve_rehashNCINvNtB8_3map11make_hasherBQ_B1D_NtCsiHaVk9ZDPzl_10rustc_hash13FxBuildHasherE0EB1F_
librustc_driver-f8caf2bfd7396df8.so:_RINvMs6_NtCs7DYsST9UVP3_9hashbrown3rawINtB6_8RawTableTNtNtCsjdyqsEEf0cE_10rustc_span6def_id10LocalDefIdNtCsfTLCRcPlsnU_14rustc_borrowck28PropagatedBorrowCheckResultsEE14reserve_rehashNCINvNtB8_3map11make_hasherBQ_B1D_NtCsiHaVk9ZDPzl_10rustc_hash13FxBuildHasherE0EB1F_
librustc_driver-f8caf2bfd7396df8.so:_RINvMs6_NtCs7DYsST9UVP3_9hashbrown3rawINtB6_8RawTableTNtNtCsjdyqsEEf0cE_10rustc_span6def_id10LocalDefIdNtNtBU_7hygiene6ExpnIdEE14reserve_rehashNCINvNtB8_3map11make_hasherBQ_B1D_NtCsiHaVk9ZDPzl_10rustc_hash13FxBuildHasherE0ECsbwev6Zm5f0k_13rustc_resolve
librustc_driver-f8caf2bfd7396df8.so:_RINvMs6_NtCs7DYsST9UVP3_9hashbrown3rawINtB6_8RawTableTNtNtCsjdyqsEEf0cE_10rustc_span6def_id10LocalDefIdNtNtCsbnIUe8x9cNz_12rustc_middle2ty15DelegationFnSigEE14reserve_rehashNCINvNtB8_3map11make_hasherBQ_B1D_NtCsiHaVk9ZDPzl_10rustc_hash13FxBuildHasherE0ECsbwev6Zm5f0k_13rustc_resolve
librustc_driver-f8caf2bfd7396df8.so:_RINvMs6_NtCs7DYsST9UVP3_9hashbrown3rawINtB6_8RawTableTNtNtCsjdyqsEEf0cE_10rustc_span6def_id10LocalDefIdNtNtCsbnIUe8x9cNz_12rustc_middle2ty22ClosureSizeProfileDataEE14reserve_rehashNCINvNtB8_3map11make_hasherBQ_B1D_NtCsiHaVk9ZDPzl_10rustc_hash13FxBuildHasherE0ECs2ERWbPTlodK_16rustc_query_impl
librustc_driver-f8caf2bfd7396df8.so:_RINvMs6_NtCs7DYsST9UVP3_9hashbrown3rawINtB6_8RawTableTNtNtCsjdyqsEEf0cE_10rustc_span6def_id10LocalDefIdNtNtCsbnIUe8x9cNz_12rustc_middle2ty22ClosureSizeProfileDataEE14reserve_rehashNCINvNtB8_3map11make_hasherBQ_B1D_NtCsiHaVk9ZDPzl_10rustc_hash13FxBuildHasherE0ECs7VwJBT60bpD_16rustc_hir_typeck
librustc_driver-f8caf2bfd7396df8.so:_RINvMs6_NtCs7DYsST9UVP3_9hashbrown3rawINtB6_8RawTableTNtNtCsjdyqsEEf0cE_10rustc_span6def_id10LocalDefIdNtNtCsbwev6Zm5f0k_13rustc_resolve4late14LifetimeUseSetEE14reserve_rehashNCINvNtB8_3map11make_hasherBQ_B1D_NtCsiHaVk9ZDPzl_10rustc_hash13FxBuildHasherE0EB1H_
librustc_driver-f8caf2bfd7396df8.so:_RINvMs6_NtCs7DYsST9UVP3_9hashbrown3rawINtB6_8RawTableTNtNtCsjdyqsEEf0cE_10rustc_span6def_id10LocalDefIdNtNtCsfTLCRcPlsnU_14rustc_borrowck9consumers21BodyWithBorrowckFactsEE14reserve_rehashNCINvNtB8_3map11make_hasherBQ_B1D_NtCsiHaVk9ZDPzl_10rustc_hash13FxBuildHasherE0EB1H_
librustc_driver-f8caf2bfd7396df8.so:_RINvMs6_NtCs7DYsST9UVP3_9hashbrown3rawINtB6_8RawTableTNtNtCsjdyqsEEf0cE_10rustc_span6def_id10LocalDefIdNtNtNtCs25h6OjkxBzy_18rustc_hir_analysis8variance5terms13InferredIndexEE14reserve_rehashNCINvNtB8_3map11make_hasherBQ_B1D_NtCsiHaVk9ZDPzl_10rustc_hash13FxBuildHasherE0EB1J_
librustc_driver-f8caf2bfd7396df8.so:_RINvMs6_NtCs7DYsST9UVP3_9hashbrown3rawINtB6_8RawTableTNtNtCsjdyqsEEf0cE_10rustc_span6def_id10LocalDefIdRINtNtCs9WsFjTlRn02_4core4cell4CellNtNtCsbwev6Zm5f0k_13rustc_resolve6macros15MacroRulesScopeEEE14reserve_rehashNCINvNtB8_3map11make_hasherBQ_B1D_NtCsiHaVk9ZDPzl_10rustc_hash13FxBuildHasherE0EB2g_
librustc_driver-f8caf2bfd7396df8.so:_RINvMs6_NtCs7DYsST9UVP3_9hashbrown3rawINtB6_8RawTableTNtNtCsjdyqsEEf0cE_10rustc_span6def_id10LocalDefIdRNtCsbwev6Zm5f0k_13rustc_resolve9MacroDataEE14reserve_rehashNCINvNtB8_3map11make_hasherBQ_B1D_NtCsiHaVk9ZDPzl_10rustc_hash13FxBuildHasherE0EB1G_
librustc_driver-f8caf2bfd7396df8.so:_RINvMs6_NtCs7DYsST9UVP3_9hashbrown3rawINtB6_8RawTableTNtNtCsjdyqsEEf0cE_10rustc_span6def_id10LocalDefIdTINtNtCs2Pf1rSX1q4A_9rustc_hir3def3ResNtNtCs3XpY8PowsPH_9rustc_ast7node_id6NodeIdEINtNtCsbnIUe8x9cNz_12rustc_middle2ty10VisibilityNtBS_5DefIdEINtNtCs19MuVdBY7V6_5alloc3vec3VecB2X_EEEE14reserve_rehashNCINvNtB8_3map11make_hasherBQ_B1D_NtCsiHaVk9ZDPzl_10rustc_hash13FxBuildHasherE0ECsbwev6Zm5f0k_13rustc_resolve
librustc_driver-f8caf2bfd7396df8.so:_RINvMs6_NtCs7DYsST9UVP3_9hashbrown3rawINtB6_8RawTableTNtNtCsjdyqsEEf0cE_10rustc_span6def_id10LocalDefIdjEE14reserve_rehashNCINvNtB8_3map11make_hasherBQ_jNtCsiHaVk9ZDPzl_10rustc_hash13FxBuildHasherE0ECsbwev6Zm5f0k_13rustc_resolve
librustc_driver-f8caf2bfd7396df8.so:_RINvMs6_NtCs7DYsST9UVP3_9hashbrown3rawINtB6_8RawTableTNtNtCsjdyqsEEf0cE_10rustc_span6def_id10LocalDefIduEE14reserve_rehashNCINvNtB8_3map11make_hasherBQ_uNtCsiHaVk9ZDPzl_10rustc_hash13FxBuildHasherE0ECsbnIUe8x9cNz_12rustc_middle
librustc_driver-f8caf2bfd7396df8.so:_RINvMs6_NtCs7DYsST9UVP3_9hashbrown3rawINtB6_8RawTableTNtNtCsjdyqsEEf0cE_10rustc_span6def_id5DefIdBQ_EE14reserve_rehashNCINvNtB8_3map11make_hasherBQ_BQ_NtCsiHaVk9ZDPzl_10rustc_hash13FxBuildHasherE0ECs2ERWbPTlodK_16rustc_query_impl
librustc_driver-f8caf2bfd7396df8.so:_RINvMs6_NtCs7DYsST9UVP3_9hashbrown3rawINtB6_8RawTableTNtNtCsjdyqsEEf0cE_10rustc_span6def_id5DefIdBQ_EE14reserve_rehashNCINvNtB8_3map11make_hasherBQ_BQ_NtCsiHaVk9ZDPzl_10rustc_hash13FxBuildHasherE0ECscglkemFQPVF_21rustc_trait_selection
librustc_driver-f8caf2bfd7396df8.so:_RINvMs6_NtCs7DYsST9UVP3_9hashbrown3rawINtB6_8RawTableTNtNtCsjdyqsEEf0cE_10rustc_span6def_id5DefIdBQ_EE14reserve_rehashNCINvNtB8_3map11make_hasherBQ_BQ_NtCsiHaVk9ZDPzl_10rustc_hash13FxBuildHasherE0ECskmy2rFhdDOz_14rustc_metadata
librustc_driver-f8caf2bfd7396df8.so:_RINvMs6_NtCs7DYsST9UVP3_9hashbrown3rawINtB6_8RawTableTNtNtCsjdyqsEEf0cE_10rustc_span6def_id5DefIdINtNtCs19MuVdBY7V6_5alloc3vec3VecBQ_EEE14reserve_rehashNCINvNtB8_3map11make_hasherBQ_B1x_NtCsiHaVk9ZDPzl_10rustc_hash13FxBuildHasherE0ECsdcGL4HoWj4W_14rustc_ty_utils
librustc_driver-f8caf2bfd7396df8.so:_RINvMs6_NtCs7DYsST9UVP3_9hashbrown3rawINtB6_8RawTableTNtNtCsjdyqsEEf0cE_10rustc_span6def_id5DefIdINtNtCs19MuVdBY7V6_5alloc3vec3VecBQ_EEE14reserve_rehashNCINvNtB8_3map11make_hasherBQ_B1x_NtCsiHaVk9ZDPzl_10rustc_hash13FxBuildHasherE0ECskmy2rFhdDOz_14rustc_metadata
librustc_driver-f8caf2bfd7396df8.so:_RINvMs6_NtCs7DYsST9UVP3_9hashbrown3rawINtB6_8RawTableTNtNtCsjdyqsEEf0cE_10rustc_span6def_id5DefIdINtNtCs19MuVdBY7V6_5alloc3vec3VecINtNtCs2t38KIHyE4j_13rustc_type_ir6binder6BinderNtNtNtCsbnIUe8x9cNz_12rustc_middle2ty7context6TyCtxtINtNtB29_9predicate19ProjectionPredicateB2Q_EEEEE14reserve_rehashNCINvNtB8_3map11make_hasherBQ_B1x_NtCsiHaVk9ZDPzl_10rustc_hash13FxBuildHasherE0ECscglkemFQPVF_21rustc_trait_selection
librustc_driver-f8caf2bfd7396df8.so:_RINvMs6_NtCs7DYsST9UVP3_9hashbrown3rawINtB6_8RawTableTNtNtCsjdyqsEEf0cE_10rustc_span6def_id5DefIdINtNtCs19MuVdBY7V6_5alloc3vec3VecNtNtBU_13span_encoding4SpanEEE14reserve_rehashNCINvNtB8_3map11make_hasherBQ_B1x_NtCsiHaVk9ZDPzl_10rustc_hash13FxBuildHasherE0ECsbwev6Zm5f0k_13rustc_resolve
librustc_driver-f8caf2bfd7396df8.so:_RINvMs6_NtCs7DYsST9UVP3_9hashbrown3rawINtB6_8RawTableTNtNtCsjdyqsEEf0cE_10rustc_span6def_id5DefIdINtNtCs19MuVdBY7V6_5alloc3vec3VecTNtNtBU_13span_encoding4SpanINtNtCs9WsFjTlRn02_4core6result6ResultuNtBU_15ErrorGuaranteedEEEEE14reserve_rehashNCINvNtB8_3map11make_hasherBQ_B1x_NtCsiHaVk9ZDPzl_10rustc_hash13FxBuildHasherE0ECsbwev6Zm5f0k_13rustc_resolve
librustc_driver-f8caf2bfd7396df8.so:_RINvMs6_NtCs7DYsST9UVP3_9hashbrown3rawINtB6_8RawTableTNtNtCsjdyqsEEf0cE_10rustc_span6def_id5DefIdINtNtCs2t38KIHyE4j_13rustc_type_ir6binder11EarlyBinderNtNtNtCsbnIUe8x9cNz_12rustc_middle2ty7context6TyCtxtNtB2t_2TyEEE14reserve_rehashNCINvNtB8_3map11make_hasherBQ_B1x_NtCsiHaVk9ZDPzl_10rustc_hash13FxBuildHasherE0ECs25h6OjkxBzy_18rustc_hir_analysis
librustc_driver-f8caf2bfd7396df8.so:_RINvMs6_NtCs7DYsST9UVP3_9hashbrown3rawINtB6_8RawTableTNtNtCsjdyqsEEf0cE_10rustc_span6def_id5DefIdINtNtCs2t38KIHyE4j_13rustc_type_ir6binder11EarlyBinderNtNtNtCsbnIUe8x9cNz_12rustc_middle2ty7context6TyCtxtNtB2t_2TyEEE14reserve_rehashNCINvNtB8_3map11make_hasherBQ_B1x_NtCsiHaVk9ZDPzl_10rustc_hash13FxBuildHasherE0ECs2ERWbPTlodK_16rustc_query_impl
librustc_driver-f8caf2bfd7396df8.so:_RINvMs6_NtCs7DYsST9UVP3_9hashbrown3rawINtB6_8RawTableTNtNtCsjdyqsEEf0cE_10rustc_span6def_id5DefIdINtNtCs2t38KIHyE4j_13rustc_type_ir6binder11EarlyBinderNtNtNtCsbnIUe8x9cNz_12rustc_middle2ty7context6TyCtxtNtB2t_2TyEEE14reserve_rehashNCINvNtB8_3map11make_hasherBQ_B1x_NtCsiHaVk9ZDPzl_10rustc_hash13FxBuildHasherE0ECskmy2rFhdDOz_14rustc_metadata
librustc_driver-f8caf2bfd7396df8.so:_RINvMs6_NtCs7DYsST9UVP3_9hashbrown3rawINtB6_8RawTableTNtNtCsjdyqsEEf0cE_10rustc_span6def_id5DefIdINtNtCs9WsFjTlRn02_4core6option6OptionINtNtCs19MuVdBY7V6_5alloc3vec3VecjEEEE14reserve_rehashNCINvNtB8_3map11make_hasherBQ_B1x_NtCsiHaVk9ZDPzl_10rustc_hash13FxBuildHasherE0ECsbwev6Zm5f0k_13rustc_resolve
librustc_driver-f8caf2bfd7396df8.so:_RINvMs6_NtCs7DYsST9UVP3_9hashbrown3rawINtB6_8RawTableTNtNtCsjdyqsEEf0cE_10rustc_span6def_id5DefIdINtNtCsiN8jfhUhbz9_21rustc_data_structures5unord8UnordMapRINtNtNtCsbnIUe8x9cNz_12rustc_middle2ty4list7RawListuNtNtB2y_12generic_args10GenericArgENtBS_8CrateNumEEE14reserve_rehashNCINvNtB8_3map11make_hasherBQ_B1x_NtCsiHaVk9ZDPzl_10rustc_hash13FxBuildHasherE0ECsjcIbwyOWlC2_17rustc_codegen_ssa
librustc_driver-f8caf2bfd7396df8.so:_RINvMs6_NtCs7DYsST9UVP3_9hashbrown3rawINtB6_8RawTableTNtNtCsjdyqsEEf0cE_10rustc_span6def_id5DefIdNtCs2t38KIHyE4j_13rustc_type_ir8VarianceEE14reserve_rehashNCINvNtB8_3map11make_hasherBQ_B1x_NtCsiHaVk9ZDPzl_10rustc_hash13FxBuildHasherE0ECsd1JD1uUqwgV_10rustc_lint
librustc_driver-f8caf2bfd7396df8.so:_RINvMs6_NtCs7DYsST9UVP3_9hashbrown3rawINtB6_8RawTableTNtNtCsjdyqsEEf0cE_10rustc_span6def_id5DefIdNtNtBU_13span_encoding4SpanEE14reserve_rehashNCINvNtB8_3map11make_hasherBQ_B1x_NtCsiHaVk9ZDPzl_10rustc_hash13FxBuildHasherE0ECs6JcOuld5fNS_12rustc_passes
librustc_driver-f8caf2bfd7396df8.so:_RINvMs6_NtCs7DYsST9UVP3_9hashbrown3rawINtB6_8RawTableTNtNtCsjdyqsEEf0cE_10rustc_span6def_id5DefIdNtNtBU_13span_encoding4SpanEE14reserve_rehashNCINvNtB8_3map11make_hasherBQ_B1x_NtCsiHaVk9ZDPzl_10rustc_hash13FxBuildHasherE0ECsbwev6Zm5f0k_13rustc_resolve
librustc_driver-f8caf2bfd7396df8.so:_RINvMs6_NtCs7DYsST9UVP3_9hashbrown3rawINtB6_8RawTableTNtNtCsjdyqsEEf0cE_10rustc_span6def_id5DefIdNtNtBU_6symbol6SymbolEE14reserve_rehashNCINvNtB8_3map11make_hasherBQ_B1x_NtCsiHaVk9ZDPzl_10rustc_hash13FxBuildHasherE0ECsbnIUe8x9cNz_12rustc_middle
librustc_driver-f8caf2bfd7396df8.so:_RINvMs6_NtCs7DYsST9UVP3_9hashbrown3rawINtB6_8RawTableTNtNtCsjdyqsEEf0cE_10rustc_span6def_id5DefIdNtNtCs19MuVdBY7V6_5alloc6string6StringEE14reserve_rehashNCINvNtB8_3map11make_hasherBQ_B1x_NtCsiHaVk9ZDPzl_10rustc_hash13FxBuildHasherE0ECsjcIbwyOWlC2_17rustc_codegen_ssa
librustc_driver-f8caf2bfd7396df8.so:_RINvMs6_NtCs7DYsST9UVP3_9hashbrown3rawINtB6_8RawTableTNtNtCsjdyqsEEf0cE_10rustc_span6def_id5DefIdNtNtCsjFFbCeHvL72_9measureme11stringtable8StringIdEE14reserve_rehashNCINvNtB8_3map11make_hasherBQ_B1x_NtCsiHaVk9ZDPzl_10rustc_hash13FxBuildHasherE0ECs2ERWbPTlodK_16rustc_query_impl
librustc_driver-f8caf2bfd7396df8.so:_RINvMs6_NtCs7DYsST9UVP3_9hashbrown3rawINtB6_8RawTableTNtNtCsjdyqsEEf0cE_10rustc_span6def_id5DefIdNtNtNtCsbnIUe8x9cNz_12rustc_middle6middle16exported_symbols16SymbolExportInfoEE14reserve_rehashNCINvNtB8_3map11make_hasherBQ_B1x_NtCsiHaVk9ZDPzl_10rustc_hash13FxBuildHasherE0ECskmy2rFhdDOz_14rustc_metadata
librustc_driver-f8caf2bfd7396df8.so:_RINvMs6_NtCs7DYsST9UVP3_9hashbrown3rawINtB6_8RawTableTNtNtCsjdyqsEEf0cE_10rustc_span6def_id5DefIdNtNtNtCsbnIUe8x9cNz_12rustc_middle6traits20specialization_graph8ChildrenEE14reserve_rehashNCINvNtB8_3map11make_hasherBQ_B1x_NtCsiHaVk9ZDPzl_10rustc_hash13FxBuildHasherE0ECs2ERWbPTlodK_16rustc_query_impl
librustc_driver-f8caf2bfd7396df8.so:_RINvMs6_NtCs7DYsST9UVP3_9hashbrown3rawINtB6_8RawTableTNtNtCsjdyqsEEf0cE_10rustc_span6def_id5DefIdNtNtNtCsbnIUe8x9cNz_12rustc_middle6traits20specialization_graph8ChildrenEE14reserve_rehashNCINvNtB8_3map11make_hasherBQ_B1x_NtCsiHaVk9ZDPzl_10rustc_hash13FxBuildHasherE0ECscglkemFQPVF_21rustc_trait_selection
librustc_driver-f8caf2bfd7396df8.so:_RINvMs6_NtCs7DYsST9UVP3_9hashbrown3rawINtB6_8RawTableTNtNtCsjdyqsEEf0cE_10rustc_span6def_id5DefIdRNtCsbwev6Zm5f0k_13rustc_resolve9MacroDataEE14reserve_rehashNCINvNtB8_3map11make_hasherBQ_B1x_NtCsiHaVk9ZDPzl_10rustc_hash13FxBuildHasherE0EB1A_
librustc_driver-f8caf2bfd7396df8.so:_RINvMs6_NtCs7DYsST9UVP3_9hashbrown3rawINtB6_8RawTableTNtNtCsjdyqsEEf0cE_10rustc_span6def_id5DefIdRNtNtCshJoW1joeLxI_13rustc_session6cstore9NativeLibEE14reserve_rehashNCINvNtB8_3map11make_hasherBQ_B1x_NtCsiHaVk9ZDPzl_10rustc_hash13FxBuildHasherE0ECsjcIbwyOWlC2_17rustc_codegen_ssa
librustc_driver-f8caf2bfd7396df8.so:_RINvMs6_NtCs7DYsST9UVP3_9hashbrown3rawINtB6_8RawTableTNtNtCsjdyqsEEf0cE_10rustc_span6def_id5DefIdRNtNtNtCseuJrGsAzkDK_18rustc_codegen_llvm4llvm3ffi5ValueEE14reserve_rehashNCINvNtB8_3map11make_hasherBQ_B1x_NtCsiHaVk9ZDPzl_10rustc_hash13FxBuildHasherE0EB1E_
librustc_driver-f8caf2bfd7396df8.so:_RINvMs6_NtCs7DYsST9UVP3_9hashbrown3rawINtB6_8RawTableTNtNtCsjdyqsEEf0cE_10rustc_span6def_id5DefIdRNtNtNtCseuJrGsAzkDK_18rustc_codegen_llvm4llvm3ffi8MetadataEE14reserve_rehashNCINvNtB8_3map11make_hasherBQ_B1x_NtCsiHaVk9ZDPzl_10rustc_hash13FxBuildHasherE0EB1E_
librustc_driver-f8caf2bfd7396df8.so:_RINvMs6_NtCs7DYsST9UVP3_9hashbrown3rawINtB6_8RawTableTNtNtCsjdyqsEEf0cE_10rustc_span6def_id5DefIdRSNtCs2t38KIHyE4j_13rustc_type_ir8VarianceEE14reserve_rehashNCINvNtB8_3map11make_hasherBQ_B1x_NtCsiHaVk9ZDPzl_10rustc_hash13FxBuildHasherE0ECs25h6OjkxBzy_18rustc_hir_analysis
librustc_driver-f8caf2bfd7396df8.so:_RINvMs6_NtCs7DYsST9UVP3_9hashbrown3rawINtB6_8RawTableTNtNtCsjdyqsEEf0cE_10rustc_span6def_id5DefIdRSTNtNtNtCsbnIUe8x9cNz_12rustc_middle2ty9predicate6ClauseNtNtBU_13span_encoding4SpanEEE14reserve_rehashNCINvNtB8_3map11make_hasherBQ_B1x_NtCsiHaVk9ZDPzl_10rustc_hash13FxBuildHasherE0ECs25h6OjkxBzy_18rustc_hir_analysis
librustc_driver-f8caf2bfd7396df8.so:_RINvMs6_NtCs7DYsST9UVP3_9hashbrown3rawINtB6_8RawTableTNtNtCsjdyqsEEf0cE_10rustc_span6def_id5DefIdbEE14reserve_rehashNCINvNtB8_3map11make_hasherBQ_bNtCsiHaVk9ZDPzl_10rustc_hash13FxBuildHasherE0ECsbwev6Zm5f0k_13rustc_resolve
librustc_driver-f8caf2bfd7396df8.so:_RINvMs6_NtCs7DYsST9UVP3_9hashbrown3rawINtB6_8RawTableTNtNtCsjdyqsEEf0cE_10rustc_span6def_id5DefIdjEE14reserve_rehashNCINvNtB8_3map11make_hasherBQ_jNtCsiHaVk9ZDPzl_10rustc_hash13FxBuildHasherE0ECs3pEzLKeUfxb_19rustc_mir_transform
librustc_driver-f8caf2bfd7396df8.so:_RINvMs6_NtCs7DYsST9UVP3_9hashbrown3rawINtB6_8RawTableTNtNtCsjdyqsEEf0cE_10rustc_span6def_id5DefIdjEE14reserve_rehashNCINvNtB8_3map11make_hasherBQ_jNtCsiHaVk9ZDPzl_10rustc_hash13FxBuildHasherE0ECshohWIpJhPWk_18rustc_monomorphize
librustc_driver-f8caf2bfd7396df8.so:_RINvMs6_NtCs7DYsST9UVP3_9hashbrown3rawINtB6_8RawTableTNtNtCsjdyqsEEf0cE_10rustc_span6def_id5DefIdmEE14reserve_rehashNCINvNtB8_3map11make_hasherBQ_mNtCsiHaVk9ZDPzl_10rustc_hash13FxBuildHasherE0ECs25h6OjkxBzy_18rustc_hir_analysis
librustc_driver-f8caf2bfd7396df8.so:_RINvMs6_NtCs7DYsST9UVP3_9hashbrown3rawINtB6_8RawTableTNtNtCsjdyqsEEf0cE_10rustc_span6def_id5DefIdmEE14reserve_rehashNCINvNtB8_3map11make_hasherBQ_mNtCsiHaVk9ZDPzl_10rustc_hash13FxBuildHasherE0ECs2ERWbPTlodK_16rustc_query_impl
librustc_driver-f8caf2bfd7396df8.so:_RINvMs6_NtCs7DYsST9UVP3_9hashbrown3rawINtB6_8RawTableTNtNtCsjdyqsEEf0cE_10rustc_span6def_id5DefIdmEE14reserve_rehashNCINvNtB8_3map11make_hasherBQ_mNtCsiHaVk9ZDPzl_10rustc_hash13FxBuildHasherE0ECsdcGL4HoWj4W_14rustc_ty_utils
librustc_driver-f8caf2bfd7396df8.so:_RINvMs6_NtCs7DYsST9UVP3_9hashbrown3rawINtB6_8RawTableTNtNtCsjdyqsEEf0cE_10rustc_span6def_id5DefIdmEE14reserve_rehashNCINvNtB8_3map11make_hasherBQ_mNtCsiHaVk9ZDPzl_10rustc_hash13FxBuildHasherE0ECskmy2rFhdDOz_14rustc_metadata
librustc_driver-f8caf2bfd7396df8.so:_RINvMs6_NtCs7DYsST9UVP3_9hashbrown3rawINtB6_8RawTableTNtNtCsjdyqsEEf0cE_10rustc_span6def_id5DefIduEE14reserve_rehashNCINvNtB8_3map11make_hasherBQ_uNtCsiHaVk9ZDPzl_10rustc_hash13FxBuildHasherE0ECs2Pf1rSX1q4A_9rustc_hir
librustc_driver-f8caf2bfd7396df8.so:_RINvMs6_NtCs7DYsST9UVP3_9hashbrown3rawINtB6_8RawTableTNtNtCsjdyqsEEf0cE_10rustc_span6def_id8CrateNumINtNtCs19MuVdBY7V6_5alloc4sync3ArcNtNtCshJoW1joeLxI_13rustc_session6cstore11CrateSourceEEE14reserve_rehashNCINvNtB8_3map11make_hasherBQ_B1A_NtCsiHaVk9ZDPzl_10rustc_hash13FxBuildHasherE0ECsjcIbwyOWlC2_17rustc_codegen_ssa
librustc_driver-f8caf2bfd7396df8.so:_RINvMs6_NtCs7DYsST9UVP3_9hashbrown3rawINtB6_8RawTableTNtNtCsjdyqsEEf0cE_10rustc_span6def_id8CrateNumNtNtBU_6symbol6SymbolEE14reserve_rehashNCINvNtB8_3map11make_hasherBQ_B1A_NtCsiHaVk9ZDPzl_10rustc_hash13FxBuildHasherE0ECsjcIbwyOWlC2_17rustc_codegen_ssa
librustc_driver-f8caf2bfd7396df8.so:_RINvMs6_NtCs7DYsST9UVP3_9hashbrown3rawINtB6_8RawTableTNtNtCsjdyqsEEf0cE_10rustc_span6def_id8CrateNumNtNtCs19MuVdBY7V6_5alloc6string6StringEE14reserve_rehashNCINvNtB8_3map11make_hasherBQ_B1A_NtCsiHaVk9ZDPzl_10rustc_hash13FxBuildHasherE0ECshohWIpJhPWk_18rustc_monomorphize
librustc_driver-f8caf2bfd7396df8.so:_RINvMs6_NtCs7DYsST9UVP3_9hashbrown3rawINtB6_8RawTableTNtNtCsjdyqsEEf0cE_10rustc_span6def_id8CrateNumNtNtCs19MuVdBY7V6_5alloc6string6StringEE14reserve_rehashNCINvNtB8_3map11make_hasherBQ_B1A_NtCsiHaVk9ZDPzl_10rustc_hash13FxBuildHasherE0ECsjcIbwyOWlC2_17rustc_codegen_ssa
librustc_driver-f8caf2bfd7396df8.so:_RINvMs6_NtCs7DYsST9UVP3_9hashbrown3rawINtB6_8RawTableTNtNtCsjdyqsEEf0cE_10rustc_span6def_id8CrateNumNtNtCshJoW1joeLxI_13rustc_session6cstore17LinkagePreferenceEE14reserve_rehashNCINvNtB8_3map11make_hasherBQ_B1A_NtCsiHaVk9ZDPzl_10rustc_hash13FxBuildHasherE0ECskmy2rFhdDOz_14rustc_metadata
librustc_driver-f8caf2bfd7396df8.so:_RINvMs6_NtCs7DYsST9UVP3_9hashbrown3rawINtB6_8RawTableTNtNtCsjdyqsEEf0cE_10rustc_span6def_id8CrateNumuEE14reserve_rehashNCINvNtB8_3map11make_hasherBQ_uNtCsiHaVk9ZDPzl_10rustc_hash13FxBuildHasherE0ECskmy2rFhdDOz_14rustc_metadata
librustc_driver-f8caf2bfd7396df8.so:_RINvMs6_NtCs7DYsST9UVP3_9hashbrown3rawINtB6_8RawTableTNtNtCsjdyqsEEf0cE_10rustc_span6def_id8DefIndexNtNtCs2Pf1rSX1q4A_9rustc_hir11definitions6DefKeyEE14reserve_rehashNCINvNtB8_3map11make_hasherBQ_B1A_NtCsiHaVk9ZDPzl_10rustc_hash13FxBuildHasherE0ECskmy2rFhdDOz_14rustc_metadata
librustc_driver-f8caf2bfd7396df8.so:_RINvMs6_NtCs7DYsST9UVP3_9hashbrown3rawINtB6_8RawTableTNtNtCsjdyqsEEf0cE_10rustc_span6symbol25MacroRulesNormalizedIdentNtNtNtCsjjbouxysk1D_12rustc_expand3mbe11macro_check10BinderInfoEE14reserve_rehashNCINvNtB8_3map11make_hasherBQ_B1S_NtCsiHaVk9ZDPzl_10rustc_hash13FxBuildHasherE0EB1Y_
librustc_driver-f8caf2bfd7396df8.so:_RINvMs6_NtCs7DYsST9UVP3_9hashbrown3rawINtB6_8RawTableTNtNtCsjdyqsEEf0cE_10rustc_span6symbol25MacroRulesNormalizedIdentNtNtNtCsjjbouxysk1D_12rustc_expand3mbe12macro_parser10NamedMatchEE14reserve_rehashNCINvNtB8_3map11make_hasherBQ_B1S_NtCsiHaVk9ZDPzl_10rustc_hash13FxBuildHasherE0EB1Y_
librustc_driver-f8caf2bfd7396df8.so:_RINvMs6_NtCs7DYsST9UVP3_9hashbrown3rawINtB6_8RawTableTNtNtCsjdyqsEEf0cE_10rustc_span6symbol5IdentINtNtCsiN8jfhUhbz9_21rustc_data_structures6intern8InternedNtCsbwev6Zm5f0k_13rustc_resolve15NameBindingDataEEE14reserve_rehashNCINvNtB8_3map11make_hasherBQ_B1x_NtCsiHaVk9ZDPzl_10rustc_hash13FxBuildHasherE0EB2v_
librustc_driver-f8caf2bfd7396df8.so:_RINvMs6_NtCs7DYsST9UVP3_9hashbrown3rawINtB6_8RawTableTNtNtCsjdyqsEEf0cE_10rustc_span6symbol5IdentNtNtBU_13span_encoding4SpanEE14reserve_rehashNCINvNtB8_3map11make_hasherBQ_B1x_NtCsiHaVk9ZDPzl_10rustc_hash13FxBuildHasherE0ECs25h6OjkxBzy_18rustc_hir_analysis
librustc_driver-f8caf2bfd7396df8.so:_RINvMs6_NtCs7DYsST9UVP3_9hashbrown3rawINtB6_8RawTableTNtNtCsjdyqsEEf0cE_10rustc_span6symbol5IdentNtNtBU_13span_encoding4SpanEE14reserve_rehashNCINvNtB8_3map11make_hasherBQ_B1x_NtCsiHaVk9ZDPzl_10rustc_hash13FxBuildHasherE0ECsbwev6Zm5f0k_13rustc_resolve
librustc_driver-f8caf2bfd7396df8.so:_RINvMs6_NtCs7DYsST9UVP3_9hashbrown3rawINtB6_8RawTableTNtNtCsjdyqsEEf0cE_10rustc_span6symbol5IdentTNtNtNtCs3WhD79dQ5JG_9rustc_abi6layout2ty8FieldIdxRNtNtCsbnIUe8x9cNz_12rustc_middle2ty8FieldDefEEE14reserve_rehashNCINvNtB8_3map11make_hasherBQ_B1x_NtCsiHaVk9ZDPzl_10rustc_hash13FxBuildHasherE0ECs7VwJBT60bpD_16rustc_hir_typeck
librustc_driver-f8caf2bfd7396df8.so:_RINvMs6_NtCs7DYsST9UVP3_9hashbrown3rawINtB6_8RawTableTNtNtCsjdyqsEEf0cE_10rustc_span6symbol5IdentuEE14reserve_rehashNCINvNtB8_3map11make_hasherBQ_uNtCsiHaVk9ZDPzl_10rustc_hash13FxBuildHasherE0ECsa5VOI9QU9vn_11rustc_parse
librustc_driver-f8caf2bfd7396df8.so:_RINvMs6_NtCs7DYsST9UVP3_9hashbrown3rawINtB6_8RawTableTNtNtCsjdyqsEEf0cE_10rustc_span6symbol6SymbolBQ_EE14reserve_rehashNCINvNtB8_3map11make_hasherBQ_BQ_NtCsiHaVk9ZDPzl_10rustc_hash13FxBuildHasherE0ECs6JcOuld5fNS_12rustc_passes
librustc_driver-f8caf2bfd7396df8.so:_RINvMs6_NtCs7DYsST9UVP3_9hashbrown3rawINtB6_8RawTableTNtNtCsjdyqsEEf0cE_10rustc_span6symbol6SymbolBQ_EE14reserve_rehashNCINvNtB8_3map11make_hasherBQ_BQ_NtCsiHaVk9ZDPzl_10rustc_hash13FxBuildHasherE0ECskmy2rFhdDOz_14rustc_metadata
librustc_driver-f8caf2bfd7396df8.so:_RINvMs6_NtCs7DYsST9UVP3_9hashbrown3rawINtB6_8RawTableTNtNtCsjdyqsEEf0cE_10rustc_span6symbol6SymbolINtNtCs19MuVdBY7V6_5alloc3vec3VecBQ_EEE14reserve_rehashNCINvNtB8_3map11make_hasherBQ_B1y_NtCsiHaVk9ZDPzl_10rustc_hash13FxBuildHasherE0ECsbwev6Zm5f0k_13rustc_resolve
librustc_driver-f8caf2bfd7396df8.so:_RINvMs6_NtCs7DYsST9UVP3_9hashbrown3rawINtB6_8RawTableTNtNtCsjdyqsEEf0cE_10rustc_span6symbol6SymbolINtNtCs19MuVdBY7V6_5alloc3vec3VecBQ_EEE14reserve_rehashNCINvNtB8_3map11make_hasherBQ_B1y_NtCsiHaVk9ZDPzl_10rustc_hash13FxBuildHasherE0ECshohWIpJhPWk_18rustc_monomorphize
librustc_driver-f8caf2bfd7396df8.so:_RINvMs6_NtCs7DYsST9UVP3_9hashbrown3rawINtB6_8RawTableTNtNtCsjdyqsEEf0cE_10rustc_span6symbol6SymbolINtNtCs19MuVdBY7V6_5alloc3vec3VecNtNtBU_13span_encoding4SpanEEE14reserve_rehashNCINvNtB8_3map11make_hasherBQ_B1y_NtCsiHaVk9ZDPzl_10rustc_hash13FxBuildHasherE0ECshJoW1joeLxI_13rustc_session
librustc_driver-f8caf2bfd7396df8.so:_RINvMs6_NtCs7DYsST9UVP3_9hashbrown3rawINtB6_8RawTableTNtNtCsjdyqsEEf0cE_10rustc_span6symbol6SymbolINtNtCsiN8jfhUhbz9_21rustc_data_structures6intern8InternedNtCsbwev6Zm5f0k_13rustc_resolve15NameBindingDataEEE14reserve_rehashNCINvNtB8_3map11make_hasherBQ_B1y_NtCsiHaVk9ZDPzl_10rustc_hash13FxBuildHasherE0EB2w_
librustc_driver-f8caf2bfd7396df8.so:_RINvMs6_NtCs7DYsST9UVP3_9hashbrown3rawINtB6_8RawTableTNtNtCsjdyqsEEf0cE_10rustc_span6symbol6SymbolINtNtNtCshJoW1joeLxI_13rustc_session6config3cfg14ExpectedValuesBQ_EEE14reserve_rehashNCINvNtB8_3map11make_hasherBQ_B1y_NtCsiHaVk9ZDPzl_10rustc_hash13FxBuildHasherE0EB1F_
librustc_driver-f8caf2bfd7396df8.so:_RINvMs6_NtCs7DYsST9UVP3_9hashbrown3rawINtB6_8RawTableTNtNtCsjdyqsEEf0cE_10rustc_span6symbol6SymbolNtCs6whg2ier8G0_12rustc_hir_id7OwnerIdEE14reserve_rehashNCINvNtB8_3map11make_hasherBQ_B1y_NtCsiHaVk9ZDPzl_10rustc_hash13FxBuildHasherE0ECsd1JD1uUqwgV_10rustc_lint
librustc_driver-f8caf2bfd7396df8.so:_RINvMs6_NtCs7DYsST9UVP3_9hashbrown3rawINtB6_8RawTableTNtNtCsjdyqsEEf0cE_10rustc_span6symbol6SymbolNtNtBU_13span_encoding4SpanEE14reserve_rehashNCINvNtB8_3map11make_hasherBQ_B1y_NtCsiHaVk9ZDPzl_10rustc_hash13FxBuildHasherE0ECs25h6OjkxBzy_18rustc_hir_analysis
librustc_driver-f8caf2bfd7396df8.so:_RINvMs6_NtCs7DYsST9UVP3_9hashbrown3rawINtB6_8RawTableTNtNtCsjdyqsEEf0cE_10rustc_span6symbol6SymbolNtNtBU_13span_encoding4SpanEE14reserve_rehashNCINvNtB8_3map11make_hasherBQ_B1y_NtCsiHaVk9ZDPzl_10rustc_hash13FxBuildHasherE0ECs6JcOuld5fNS_12rustc_passes
librustc_driver-f8caf2bfd7396df8.so:_RINvMs6_NtCs7DYsST9UVP3_9hashbrown3rawINtB6_8RawTableTNtNtCsjdyqsEEf0cE_10rustc_span6symbol6SymbolNtNtBU_13span_encoding4SpanEE14reserve_rehashNCINvNtB8_3map11make_hasherBQ_B1y_NtCsiHaVk9ZDPzl_10rustc_hash13FxBuildHasherE0ECsbwev6Zm5f0k_13rustc_resolve
librustc_driver-f8caf2bfd7396df8.so:_RINvMs6_NtCs7DYsST9UVP3_9hashbrown3rawINtB6_8RawTableTNtNtCsjdyqsEEf0cE_10rustc_span6symbol6SymbolNtNtBU_6def_id8CrateNumEE14reserve_rehashNCINvNtB8_3map11make_hasherBQ_B1y_NtCsiHaVk9ZDPzl_10rustc_hash13FxBuildHasherE0ECskmy2rFhdDOz_14rustc_metadata
librustc_driver-f8caf2bfd7396df8.so:_RINvMs6_NtCs7DYsST9UVP3_9hashbrown3rawINtB6_8RawTableTNtNtCsjdyqsEEf0cE_10rustc_span6symbol6SymbolNtNtCs19MuVdBY7V6_5alloc6string6StringEE14reserve_rehashNCINvNtB8_3map11make_hasherBQ_B1y_NtCsiHaVk9ZDPzl_10rustc_hash13FxBuildHasherE0ECshohWIpJhPWk_18rustc_monomorphize
librustc_driver-f8caf2bfd7396df8.so:_RINvMs6_NtCs7DYsST9UVP3_9hashbrown3rawINtB6_8RawTableTNtNtCsjdyqsEEf0cE_10rustc_span6symbol6SymbolNtNtCsjjbouxysk1D_12rustc_expand4base19SyntaxExtensionKindEE14reserve_rehashNCINvNtB8_3map11make_hasherBQ_B1y_NtCsiHaVk9ZDPzl_10rustc_hash13FxBuildHasherE0ECsbwev6Zm5f0k_13rustc_resolve
librustc_driver-f8caf2bfd7396df8.so:_RINvMs6_NtCs7DYsST9UVP3_9hashbrown3rawINtB6_8RawTableTNtNtCsjdyqsEEf0cE_10rustc_span6symbol6SymbolNtNtNtCsbnIUe8x9cNz_12rustc_middle3mir4mono11CodegenUnitEE14reserve_rehashNCINvNtB8_3map11make_hasherBQ_B1y_NtCsiHaVk9ZDPzl_10rustc_hash13FxBuildHasherE0ECshohWIpJhPWk_18rustc_monomorphize
librustc_driver-f8caf2bfd7396df8.so:_RINvMs6_NtCs7DYsST9UVP3_9hashbrown3rawINtB6_8RawTableTNtNtCsjdyqsEEf0cE_10rustc_span6symbol6SymbolRNtNtCs2Pf1rSX1q4A_9rustc_hir3hir8FieldDefEE14reserve_rehashNCINvNtB8_3map11make_hasherBQ_B1y_NtCsiHaVk9ZDPzl_10rustc_hash13FxBuildHasherE0ECsd1JD1uUqwgV_10rustc_lint
librustc_driver-f8caf2bfd7396df8.so:_RINvMs6_NtCs7DYsST9UVP3_9hashbrown3rawINtB6_8RawTableTNtNtCsjdyqsEEf0cE_10rustc_span6symbol6SymbolRNtNtCseWGOdQDNC2u_13rustc_feature13builtin_attrs16BuiltinAttributeEE14reserve_rehashNCINvNtB8_3map11make_hasherBQ_B1y_NtCsiHaVk9ZDPzl_10rustc_hash13FxBuildHasherE0EB1D_
librustc_driver-f8caf2bfd7396df8.so:_RINvMs6_NtCs7DYsST9UVP3_9hashbrown3rawINtB6_8RawTableTNtNtCsjdyqsEEf0cE_10rustc_span6symbol6SymbolRNtNtNtCsbnIUe8x9cNz_12rustc_middle2ty5assoc9AssocItemEE14reserve_rehashNCINvNtB8_3map11make_hasherBQ_B1y_NtCsiHaVk9ZDPzl_10rustc_hash13FxBuildHasherE0ECs25h6OjkxBzy_18rustc_hir_analysis
librustc_driver-f8caf2bfd7396df8.so:_RINvMs6_NtCs7DYsST9UVP3_9hashbrown3rawINtB6_8RawTableTNtNtCsjdyqsEEf0cE_10rustc_span6symbol6SymbolRNtNtNtCseuJrGsAzkDK_18rustc_codegen_llvm4llvm3ffi5ValueEE14reserve_rehashNCINvNtB8_3map11make_hasherBQ_B1y_NtCsiHaVk9ZDPzl_10rustc_hash13FxBuildHasherE0EB1F_
librustc_driver-f8caf2bfd7396df8.so:_RINvMs6_NtCs7DYsST9UVP3_9hashbrown3rawINtB6_8RawTableTNtNtCsjdyqsEEf0cE_10rustc_span6symbol6SymbolTBQ_NtNtBU_13span_encoding4SpanbEEE14reserve_rehashNCINvNtB8_3map11make_hasherBQ_B1y_NtCsiHaVk9ZDPzl_10rustc_hash13FxBuildHasherE0ECsd1JD1uUqwgV_10rustc_lint
librustc_driver-f8caf2bfd7396df8.so:_RINvMs6_NtCs7DYsST9UVP3_9hashbrown3rawINtB6_8RawTableTNtNtCsjdyqsEEf0cE_10rustc_span6symbol6SymbolTNtNtNtCsbnIUe8x9cNz_12rustc_middle6middle12lib_features16FeatureStabilityNtNtBU_13span_encoding4SpanEEE14reserve_rehashNCINvNtB8_3map11make_hasherBQ_B1y_NtCsiHaVk9ZDPzl_10rustc_hash13FxBuildHasherE0ECs6JcOuld5fNS_12rustc_passes
librustc_driver-f8caf2bfd7396df8.so:_RINvMs6_NtCs7DYsST9UVP3_9hashbrown3rawINtB6_8RawTableTNtNtCsjdyqsEEf0cE_10rustc_span6symbol6SymbolTNtNtNtCsbnIUe8x9cNz_12rustc_middle6middle12lib_features16FeatureStabilityNtNtBU_13span_encoding4SpanEEE14reserve_rehashNCINvNtB8_3map11make_hasherBQ_B1y_NtCsiHaVk9ZDPzl_10rustc_hash13FxBuildHasherE0ECskmy2rFhdDOz_14rustc_metadata
librustc_driver-f8caf2bfd7396df8.so:_RINvMs6_NtCs7DYsST9UVP3_9hashbrown3rawINtB6_8RawTableTNtNtCsjdyqsEEf0cE_10rustc_span6symbol6SymboljEE14reserve_rehashNCINvNtB8_3map11make_hasherBQ_jNtCsiHaVk9ZDPzl_10rustc_hash13FxBuildHasherE0ECs3XpY8PowsPH_9rustc_ast
librustc_driver-f8caf2bfd7396df8.so:_RINvMs6_NtCs7DYsST9UVP3_9hashbrown3rawINtB6_8RawTableTNtNtCsjdyqsEEf0cE_10rustc_span6symbol6SymboluEE14reserve_rehashNCINvNtB8_3map11make_hasherBQ_uNtCsiHaVk9ZDPzl_10rustc_hash13FxBuildHasherE0ECseWGOdQDNC2u_13rustc_feature
librustc_driver-f8caf2bfd7396df8.so:_RINvMs6_NtCs7DYsST9UVP3_9hashbrown3rawINtB6_8RawTableTNtNtCsjdyqsEEf0cE_10rustc_span7hygiene11LocalExpnIdINtNtCs19MuVdBY7V6_5alloc3vec3VecTNtNtBU_6symbol5IdentINtNtCsiN8jfhUhbz9_21rustc_data_structures6intern8InternedNtCsbwev6Zm5f0k_13rustc_resolve15NameBindingDataEEEEE14reserve_rehashNCINvNtB8_3map11make_hasherBQ_B1F_NtCsiHaVk9ZDPzl_10rustc_hash13FxBuildHasherE0EB3v_
librustc_driver-f8caf2bfd7396df8.so:_RINvMs6_NtCs7DYsST9UVP3_9hashbrown3rawINtB6_8RawTableTNtNtCsjdyqsEEf0cE_10rustc_span7hygiene11LocalExpnIdNtCsbwev6Zm5f0k_13rustc_resolve10DeriveDataEE14reserve_rehashNCINvNtB8_3map11make_hasherBQ_B1F_NtCsiHaVk9ZDPzl_10rustc_hash13FxBuildHasherE0EB1H_
librustc_driver-f8caf2bfd7396df8.so:_RINvMs6_NtCs7DYsST9UVP3_9hashbrown3rawINtB6_8RawTableTNtNtCsjdyqsEEf0cE_10rustc_span7hygiene11LocalExpnIdNtCsbwev6Zm5f0k_13rustc_resolve11ParentScopeEE14reserve_rehashNCINvNtB8_3map11make_hasherBQ_B1F_NtCsiHaVk9ZDPzl_10rustc_hash13FxBuildHasherE0EB1H_
librustc_driver-f8caf2bfd7396df8.so:_RINvMs6_NtCs7DYsST9UVP3_9hashbrown3rawINtB6_8RawTableTNtNtCsjdyqsEEf0cE_10rustc_span7hygiene11LocalExpnIdNtCsbwev6Zm5f0k_13rustc_resolve16InvocationParentEE14reserve_rehashNCINvNtB8_3map11make_hasherBQ_B1F_NtCsiHaVk9ZDPzl_10rustc_hash13FxBuildHasherE0EB1H_
librustc_driver-f8caf2bfd7396df8.so:_RINvMs6_NtCs7DYsST9UVP3_9hashbrown3rawINtB6_8RawTableTNtNtCsjdyqsEEf0cE_10rustc_span7hygiene11LocalExpnIdNtCsbwev6Zm5f0k_13rustc_resolve6ModuleEE14reserve_rehashNCINvNtB8_3map11make_hasherBQ_B1F_NtCsiHaVk9ZDPzl_10rustc_hash13FxBuildHasherE0EB1H_
librustc_driver-f8caf2bfd7396df8.so:_RINvMs6_NtCs7DYsST9UVP3_9hashbrown3rawINtB6_8RawTableTNtNtCsjdyqsEEf0cE_10rustc_span7hygiene11LocalExpnIdRINtNtCs9WsFjTlRn02_4core4cell4CellNtNtCsbwev6Zm5f0k_13rustc_resolve6macros15MacroRulesScopeEEE14reserve_rehashNCINvNtB8_3map11make_hasherBQ_B1F_NtCsiHaVk9ZDPzl_10rustc_hash13FxBuildHasherE0EB2i_
librustc_driver-f8caf2bfd7396df8.so:_RINvMs6_NtCs7DYsST9UVP3_9hashbrown3rawINtB6_8RawTableTNtNtCsjdyqsEEf0cE_10rustc_span7hygiene11LocalExpnIduEE14reserve_rehashNCINvNtB8_3map11make_hasherBQ_uNtCsiHaVk9ZDPzl_10rustc_hash13FxBuildHasherE0ECsbwev6Zm5f0k_13rustc_resolve
librustc_driver-f8caf2bfd7396df8.so:_RINvMs6_NtCs7DYsST9UVP3_9hashbrown3rawINtB6_8RawTableTNtNtCsjdyqsEEf0cE_10rustc_span7hygiene13SyntaxContextBQ_EE14reserve_rehashNCINvNtB8_3map11make_hasherBQ_BQ_NtCsiHaVk9ZDPzl_10rustc_hash13FxBuildHasherE0ECsjjbouxysk1D_12rustc_expand
librustc_driver-f8caf2bfd7396df8.so:_RINvMs6_NtCs7DYsST9UVP3_9hashbrown3rawINtB6_8RawTableTNtNtCsjdyqsEEf0cE_10rustc_span7hygiene13SyntaxContextuEE14reserve_rehashNCINvNtB8_3map11make_hasherBQ_uNtCsiHaVk9ZDPzl_10rustc_hash13FxBuildHasherE0ECsbnIUe8x9cNz_12rustc_middle
librustc_driver-f8caf2bfd7396df8.so:_RINvMs6_NtCs7DYsST9UVP3_9hashbrown3rawINtB6_8RawTableTNtNtCsjdyqsEEf0cE_10rustc_span7hygiene6ExpnIdNtBS_8ExpnDataEE14reserve_rehashNCINvNtB8_3map11make_hasherBQ_B1z_NtCsiHaVk9ZDPzl_10rustc_hash13FxBuildHasherE0EBU_
librustc_driver-f8caf2bfd7396df8.so:_RINvMs6_NtCs7DYsST9UVP3_9hashbrown3rawINtB6_8RawTableTNtNtCsjdyqsEEf0cE_10rustc_span7hygiene6ExpnIdNtBS_8ExpnHashEE14reserve_rehashNCINvNtB8_3map11make_hasherBQ_B1z_NtCsiHaVk9ZDPzl_10rustc_hash13FxBuildHasherE0EBU_
librustc_driver-f8caf2bfd7396df8.so:_RINvMs6_NtCs7DYsST9UVP3_9hashbrown3rawINtB6_8RawTableTNtNtCsjdyqsEEf0cE_10rustc_span7hygiene6ExpnIduEE14reserve_rehashNCINvNtB8_3map11make_hasherBQ_uNtCsiHaVk9ZDPzl_10rustc_hash13FxBuildHasherE0EBU_
librustc_driver-f8caf2bfd7396df8.so:_RINvMs6_NtCs7DYsST9UVP3_9hashbrown3rawINtB6_8RawTableTNtNtCsjdyqsEEf0cE_10rustc_span7hygiene8ExpnHashNtBS_6ExpnIdEE14reserve_rehashNCINvNtB8_3map11make_hasherBQ_B1B_INtNtCs9WsFjTlRn02_4core4hash18BuildHasherDefaultNtNtCsiN8jfhUhbz9_21rustc_data_structures6unhash8UnhasherEE0EBU_
librustc_driver-f8caf2bfd7396df8.so:_RINvMs6_NtCs7DYsST9UVP3_9hashbrown3rawINtB6_8RawTableTNtNtCsjdyqsEEf0cE_10rustc_span7hygiene8ExpnHashNtBS_9ExpnIndexEE14reserve_rehashNCINvNtB8_3map11make_hasherBQ_B1B_INtNtCs9WsFjTlRn02_4core4hash18BuildHasherDefaultNtNtCsiN8jfhUhbz9_21rustc_data_structures6unhash8UnhasherEE0ECskmy2rFhdDOz_14rustc_metadata
librustc_driver-f8caf2bfd7396df8.so:_RINvMs6_NtCs7DYsST9UVP3_9hashbrown3rawINtB6_8RawTableTNtNtCsjdyqsEEf0cE_10rustc_span7hygiene8ExpnHashNtNtNtCsbnIUe8x9cNz_12rustc_middle5query13on_disk_cache15AbsoluteBytePosEE14reserve_rehashNCINvNtB8_3map11make_hasherBQ_B1B_INtNtCs9WsFjTlRn02_4core4hash18BuildHasherDefaultNtNtCsiN8jfhUhbz9_21rustc_data_structures6unhash8UnhasherEE0EB1H_
librustc_driver-f8caf2bfd7396df8.so:_RINvMs6_NtCs7DYsST9UVP3_9hashbrown3rawINtB6_8RawTableTNtNtCsjdyqsEEf0cE_10rustc_span7hygiene8ExpnHashmEE14reserve_rehashNCINvNtB8_3map11make_hasherBQ_mINtNtCs9WsFjTlRn02_4core4hash18BuildHasherDefaultNtNtCsiN8jfhUhbz9_21rustc_data_structures6unhash8UnhasherEE0ECsbnIUe8x9cNz_12rustc_middle
librustc_driver-f8caf2bfd7396df8.so:_RINvMs6_NtCs7DYsST9UVP3_9hashbrown3rawINtB6_8RawTableTNtNtCsjj3dQwFOuTb_3std4path7PathBufINtNtCs9WsFjTlRn02_4core6option6OptionNtNtNtCsiN8jfhUhbz9_21rustc_data_structures5flock5linux4LockEEE14reserve_rehashNCINvNtB8_3map11make_hasherBQ_B1p_NtCsiHaVk9ZDPzl_10rustc_hash13FxBuildHasherE0ECs8tAGCjRPvUB_17rustc_incremental
librustc_driver-f8caf2bfd7396df8.so:_RINvMs6_NtCs7DYsST9UVP3_9hashbrown3rawINtB6_8RawTableTNtNtCsjj3dQwFOuTb_3std4path7PathBufuEE14reserve_rehashNCINvNtB8_3map11make_hasherBQ_uNtCsiHaVk9ZDPzl_10rustc_hash13FxBuildHasherE0ECshJoW1joeLxI_13rustc_session
librustc_driver-f8caf2bfd7396df8.so:_RINvMs6_NtCs7DYsST9UVP3_9hashbrown3rawINtB6_8RawTableTNtNtNtCs1rNb7bG4Xia_11rustc_infer5infer18region_constraints10ConstraintuEE14reserve_rehashNCINvNtB8_3map11make_hasherBQ_uNtCsiHaVk9ZDPzl_10rustc_hash13FxBuildHasherE0EBW_
librustc_driver-f8caf2bfd7396df8.so:_RINvMs6_NtCs7DYsST9UVP3_9hashbrown3rawINtB6_8RawTableTNtNtNtCs1rNb7bG4Xia_11rustc_infer5infer18region_constraints10TwoRegionsNtNtCs2t38KIHyE4j_13rustc_type_ir11region_kind9RegionVidEE14reserve_rehashNCINvNtB8_3map11make_hasherBQ_B1Z_NtCsiHaVk9ZDPzl_10rustc_hash13FxBuildHasherE0EBW_
librustc_driver-f8caf2bfd7396df8.so:_RINvMs6_NtCs7DYsST9UVP3_9hashbrown3rawINtB6_8RawTableTNtNtNtCs1rNb7bG4Xia_11rustc_infer6traits7project18ProjectionCacheKeyNtBS_20ProjectionCacheEntryEE14reserve_rehashNCINvNtB8_3map11make_hasherBQ_B1W_NtCsiHaVk9ZDPzl_10rustc_hash13FxBuildHasherE0EBW_
librustc_driver-f8caf2bfd7396df8.so:_RINvMs6_NtCs7DYsST9UVP3_9hashbrown3rawINtB6_8RawTableTNtNtNtCs2t38KIHyE4j_13rustc_type_ir12search_graph5stack10StackDepthNtBU_10HeadUsagesEE14reserve_rehashNCINvNtB8_3map11make_hasherBQ_B1V_NtCsiHaVk9ZDPzl_10rustc_hash13FxBuildHasherE0EBW_
librustc_driver-f8caf2bfd7396df8.so:_RINvMs6_NtCs7DYsST9UVP3_9hashbrown3rawINtB6_8RawTableTNtNtNtCs3WhD79dQ5JG_9rustc_abi6layout2ty8FieldIdxNtNtNtCsbnIUe8x9cNz_12rustc_middle3mir6syntax7OperandEE14reserve_rehashNCINvNtB8_3map11make_hasherBQ_B1D_NtCsiHaVk9ZDPzl_10rustc_hash13FxBuildHasherE0ECs9KgQoMCEFyf_15rustc_mir_build
librustc_driver-f8caf2bfd7396df8.so:_RINvMs6_NtCs7DYsST9UVP3_9hashbrown3rawINtB6_8RawTableTNtNtNtCs3WhD79dQ5JG_9rustc_abi6layout2ty8FieldIdxTBQ_NtNtCsbnIUe8x9cNz_12rustc_middle2ty2TybINtNtCs19MuVdBY7V6_5alloc3vec3VecNtNtNtB1L_3hir5place10ProjectionEEEE14reserve_rehashNCINvNtB8_3map11make_hasherBQ_B1D_NtCsiHaVk9ZDPzl_10rustc_hash13FxBuildHasherE0ECs3pEzLKeUfxb_19rustc_mir_transform
librustc_driver-f8caf2bfd7396df8.so:_RINvMs6_NtCs7DYsST9UVP3_9hashbrown3rawINtB6_8RawTableTNtNtNtCs70IT0j5QNpU_16rustc_const_eval9interpret5place8MPlaceTyuEE14reserve_rehashNCINvNtB8_3map11make_hasherBQ_uNtCsiHaVk9ZDPzl_10rustc_hash13FxBuildHasherE0EBW_
librustc_driver-f8caf2bfd7396df8.so:_RINvMs6_NtCs7DYsST9UVP3_9hashbrown3rawINtB6_8RawTableTNtNtNtCs9KgQoMCEFyf_15rustc_mir_build7builder5scope11DropNodeKeyNtBS_7DropIdxEE14reserve_rehashNCINvNtB8_3map11make_hasherBQ_B1S_NtCsiHaVk9ZDPzl_10rustc_hash13FxBuildHasherE0EBW_
librustc_driver-f8caf2bfd7396df8.so:_RINvMs6_NtCs7DYsST9UVP3_9hashbrown3rawINtB6_8RawTableTNtNtNtCsbnIUe8x9cNz_12rustc_middle2ty12generic_args10GenericArgBQ_EE14reserve_rehashNCINvNtB8_3map11make_hasherBQ_BQ_NtCsiHaVk9ZDPzl_10rustc_hash13FxBuildHasherE0EBW_
librustc_driver-f8caf2bfd7396df8.so:_RINvMs6_NtCs7DYsST9UVP3_9hashbrown3rawINtB6_8RawTableTNtNtNtCsbnIUe8x9cNz_12rustc_middle2ty12generic_args10GenericArgNtCs2t38KIHyE4j_13rustc_type_ir8BoundVarEE14reserve_rehashNCINvNtB8_3map11make_hasherBQ_B1R_NtCsiHaVk9ZDPzl_10rustc_hash13FxBuildHasherE0ECs1rNb7bG4Xia_11rustc_infer
librustc_driver-f8caf2bfd7396df8.so:_RINvMs6_NtCs7DYsST9UVP3_9hashbrown3rawINtB6_8RawTableTNtNtNtCsbnIUe8x9cNz_12rustc_middle2ty12generic_args10GenericArgjEE14reserve_rehashNCINvNtB8_3map11make_hasherBQ_jNtCsiHaVk9ZDPzl_10rustc_hash13FxBuildHasherE0ECscglkemFQPVF_21rustc_trait_selection
librustc_driver-f8caf2bfd7396df8.so:_RINvMs6_NtCs7DYsST9UVP3_9hashbrown3rawINtB6_8RawTableTNtNtNtCsbnIUe8x9cNz_12rustc_middle2ty12generic_args10GenericArguEE14reserve_rehashNCINvNtB8_3map11make_hasherBQ_uNtCsiHaVk9ZDPzl_10rustc_hash13FxBuildHasherE0ECscglkemFQPVF_21rustc_trait_selection
librustc_driver-f8caf2bfd7396df8.so:_RINvMs6_NtCs7DYsST9UVP3_9hashbrown3rawINtB6_8RawTableTNtNtNtCsbnIUe8x9cNz_12rustc_middle2ty6consts5ConstjEE14reserve_rehashNCINvNtB8_3map11make_hasherBQ_jNtCsiHaVk9ZDPzl_10rustc_hash13FxBuildHasherE0ECsafwZ3zX1Yxi_21rustc_symbol_mangling
librustc_driver-f8caf2bfd7396df8.so:_RINvMs6_NtCs7DYsST9UVP3_9hashbrown3rawINtB6_8RawTableTNtNtNtCsbnIUe8x9cNz_12rustc_middle2ty6region11BoundRegionNtBS_6RegionEE14reserve_rehashNCINvNtB8_3map11make_hasherBQ_B1L_NtCsiHaVk9ZDPzl_10rustc_hash13FxBuildHasherE0EBW_
librustc_driver-f8caf2bfd7396df8.so:_RINvMs6_NtCs7DYsST9UVP3_9hashbrown3rawINtB6_8RawTableTNtNtNtCsbnIUe8x9cNz_12rustc_middle2ty6region6RegionBQ_EE14reserve_rehashNCINvNtB8_3map11make_hasherBQ_BQ_NtCsiHaVk9ZDPzl_10rustc_hash13FxBuildHasherE0ECsdcGL4HoWj4W_14rustc_ty_utils
librustc_driver-f8caf2bfd7396df8.so:_RINvMs6_NtCs7DYsST9UVP3_9hashbrown3rawINtB6_8RawTableTNtNtNtCsbnIUe8x9cNz_12rustc_middle2ty6region6RegionuEE14reserve_rehashNCINvNtB8_3map11make_hasherBQ_uNtCsiHaVk9ZDPzl_10rustc_hash13FxBuildHasherE0ECs25h6OjkxBzy_18rustc_hir_analysis
librustc_driver-f8caf2bfd7396df8.so:_RINvMs6_NtCs7DYsST9UVP3_9hashbrown3rawINtB6_8RawTableTNtNtNtCsbnIUe8x9cNz_12rustc_middle2ty8instance8InstanceRNtNtNtCseuJrGsAzkDK_18rustc_codegen_llvm4llvm3ffi5ValueEE14reserve_rehashNCINvNtB8_3map11make_hasherBQ_B1J_NtCsiHaVk9ZDPzl_10rustc_hash13FxBuildHasherE0EB1Q_
librustc_driver-f8caf2bfd7396df8.so:_RINvMs6_NtCs7DYsST9UVP3_9hashbrown3rawINtB6_8RawTableTNtNtNtCsbnIUe8x9cNz_12rustc_middle2ty8instance8InstanceRNtNtNtCseuJrGsAzkDK_18rustc_codegen_llvm4llvm3ffi8MetadataEE14reserve_rehashNCINvNtB8_3map11make_hasherBQ_B1J_NtCsiHaVk9ZDPzl_10rustc_hash13FxBuildHasherE0EB1Q_
librustc_driver-f8caf2bfd7396df8.so:_RINvMs6_NtCs7DYsST9UVP3_9hashbrown3rawINtB6_8RawTableTNtNtNtCsbnIUe8x9cNz_12rustc_middle2ty8instance8InstancebEE14reserve_rehashNCINvNtB8_3map11make_hasherBQ_bNtCsiHaVk9ZDPzl_10rustc_hash13FxBuildHasherE0ECs3pEzLKeUfxb_19rustc_mir_transform
librustc_driver-f8caf2bfd7396df8.so:_RINvMs6_NtCs7DYsST9UVP3_9hashbrown3rawINtB6_8RawTableTNtNtNtCsbnIUe8x9cNz_12rustc_middle2ty9predicate9PredicateuEE14reserve_rehashNCINvNtB8_3map11make_hasherBQ_uNtCsiHaVk9ZDPzl_10rustc_hash13FxBuildHasherE0ECs1rNb7bG4Xia_11rustc_infer
librustc_driver-f8caf2bfd7396df8.so:_RINvMs6_NtCs7DYsST9UVP3_9hashbrown3rawINtB6_8RawTableTNtNtNtCsbnIUe8x9cNz_12rustc_middle3mir4mono8MonoItemINtNtCs19MuVdBY7V6_5alloc3vec3VecBQ_EEE14reserve_rehashNCINvNtB8_3map11make_hasherBQ_B1G_NtCsiHaVk9ZDPzl_10rustc_hash13FxBuildHasherE0ECshohWIpJhPWk_18rustc_monomorphize
librustc_driver-f8caf2bfd7396df8.so:_RINvMs6_NtCs7DYsST9UVP3_9hashbrown3rawINtB6_8RawTableTNtNtNtCsbnIUe8x9cNz_12rustc_middle3mir4mono8MonoItemINtNtCs19MuVdBY7V6_5alloc3vec3VecTNtNtCsjdyqsEEf0cE_10rustc_span6symbol6SymbolNtNtNtCs2Pf1rSX1q4A_9rustc_hir5attrs15data_structures7LinkageEEEE14reserve_rehashNCINvNtB8_3map11make_hasherBQ_B1G_NtCsiHaVk9ZDPzl_10rustc_hash13FxBuildHasherE0ECshohWIpJhPWk_18rustc_monomorphize
librustc_driver-f8caf2bfd7396df8.so:_RINvMs6_NtCs7DYsST9UVP3_9hashbrown3rawINtB6_8RawTableTNtNtNtCsbnIUe8x9cNz_12rustc_middle3mir4mono8MonoItemNtNvNtCshohWIpJhPWk_18rustc_monomorphize12partitioning19internalize_symbols17MonoItemPlacementEE14reserve_rehashNCINvNtB8_3map11make_hasherBQ_B1G_NtCsiHaVk9ZDPzl_10rustc_hash13FxBuildHasherE0EB1M_
librustc_driver-f8caf2bfd7396df8.so:_RINvMs6_NtCs7DYsST9UVP3_9hashbrown3rawINtB6_8RawTableTNtNtNtCsbnIUe8x9cNz_12rustc_middle3mir4mono8MonoItemuEE14reserve_rehashNCINvNtB8_3map11make_hasherBQ_uNtCsiHaVk9ZDPzl_10rustc_hash13FxBuildHasherE0ECshohWIpJhPWk_18rustc_monomorphize
librustc_driver-f8caf2bfd7396df8.so:_RINvMs6_NtCs7DYsST9UVP3_9hashbrown3rawINtB6_8RawTableTNtNtNtCsbnIUe8x9cNz_12rustc_middle3mir8coverage10ExpressionNtBS_7CovTermEE14reserve_rehashNCINvNtB8_3map11make_hasherBQ_B1N_NtCsiHaVk9ZDPzl_10rustc_hash13FxBuildHasherE0ECs3pEzLKeUfxb_19rustc_mir_transform
librustc_driver-f8caf2bfd7396df8.so:_RINvMs6_NtCs7DYsST9UVP3_9hashbrown3rawINtB6_8RawTableTNtNtNtCsbnIUe8x9cNz_12rustc_middle3mir8coverage18BasicCoverageBlockuEE14reserve_rehashNCINvNtB8_3map11make_hasherBQ_uNtCsiHaVk9ZDPzl_10rustc_hash13FxBuildHasherE0ECs3pEzLKeUfxb_19rustc_mir_transform
librustc_driver-f8caf2bfd7396df8.so:_RINvMs6_NtCs7DYsST9UVP3_9hashbrown3rawINtB6_8RawTableTNtNtNtCsbnIUe8x9cNz_12rustc_middle3mir9interpret7AllocIduEE14reserve_rehashNCINvNtB8_3map11make_hasherBQ_uNtCsiHaVk9ZDPzl_10rustc_hash13FxBuildHasherE0ECs70IT0j5QNpU_16rustc_const_eval
librustc_driver-f8caf2bfd7396df8.so:_RINvMs6_NtCs7DYsST9UVP3_9hashbrown3rawINtB6_8RawTableTNtNtNtCsbnIUe8x9cNz_12rustc_middle3mir9statement8PlaceRefuEE14reserve_rehashNCINvNtB8_3map11make_hasherBQ_uNtCsiHaVk9ZDPzl_10rustc_hash13FxBuildHasherE0ECs3pEzLKeUfxb_19rustc_mir_transform
librustc_driver-f8caf2bfd7396df8.so:_RINvMs6_NtCs7DYsST9UVP3_9hashbrown3rawINtB6_8RawTableTNtNtNtCsbnIUe8x9cNz_12rustc_middle5query13on_disk_cache15SourceFileIndexINtNtCs19MuVdBY7V6_5alloc4sync3ArcNtCsjdyqsEEf0cE_10rustc_span10SourceFileEEE14reserve_rehashNCINvNtB8_3map11make_hasherBQ_B20_NtCsiHaVk9ZDPzl_10rustc_hash13FxBuildHasherE0EBW_
librustc_driver-f8caf2bfd7396df8.so:_RINvMs6_NtCs7DYsST9UVP3_9hashbrown3rawINtB6_8RawTableTNtNtNtCsbnIUe8x9cNz_12rustc_middle5query13on_disk_cache15SourceFileIndexNtBS_19EncodedSourceFileIdEE14reserve_rehashNCINvNtB8_3map11make_hasherBQ_B20_NtCsiHaVk9ZDPzl_10rustc_hash13FxBuildHasherE0EBW_
librustc_driver-f8caf2bfd7396df8.so:_RINvMs6_NtCs7DYsST9UVP3_9hashbrown3rawINtB6_8RawTableTNtNtNtCsfTLCRcPlsnU_14rustc_borrowck8polonius13loan_liveness13LocalizedNodeINtNtCs42Kw8IjNYDo_8indexmap3set8IndexSetBQ_INtNtCs9WsFjTlRn02_4core4hash18BuildHasherDefaultNtCsiHaVk9ZDPzl_10rustc_hash8FxHasherEEEE14reserve_rehashNCINvNtB8_3map11make_hasherBQ_B23_NtB3A_13FxBuildHasherE0EBW_
librustc_driver-f8caf2bfd7396df8.so:_RINvMs6_NtCs7DYsST9UVP3_9hashbrown3rawINtB6_8RawTableTNtNtNtCsfTLCRcPlsnU_14rustc_borrowck8polonius13loan_liveness13LocalizedNodeuEE14reserve_rehashNCINvNtB8_3map11make_hasherBQ_uNtCsiHaVk9ZDPzl_10rustc_hash13FxBuildHasherE0EBW_
librustc_driver-f8caf2bfd7396df8.so:_RINvMs6_NtCs7DYsST9UVP3_9hashbrown3rawINtB6_8RawTableTNtNtNtCshF5AtUv7kVK_18rustc_query_system5query3job10QueryJobIdINtBS_12QueryJobInfoNtBU_18QueryStackDeferredEEE14reserve_rehashNCINvNtB8_3map11make_hasherBQ_B1Q_NtCsiHaVk9ZDPzl_10rustc_hash13FxBuildHasherE0ECs2ERWbPTlodK_16rustc_query_impl
librustc_driver-f8caf2bfd7396df8.so:_RINvMs6_NtCs7DYsST9UVP3_9hashbrown3rawINtB6_8RawTableTNtNtNtCshF5AtUv7kVK_18rustc_query_system5query3job10QueryJobIduEE14reserve_rehashNCINvNtB8_3map11make_hasherBQ_uNtCsiHaVk9ZDPzl_10rustc_hash13FxBuildHasherE0ECsj5BaXF2lnIJ_17rustc_driver_impl
librustc_driver-f8caf2bfd7396df8.so:_RINvMs6_NtCs7DYsST9UVP3_9hashbrown3rawINtB6_8RawTableTNtNtNtCshF5AtUv7kVK_18rustc_query_system9dep_graph10serialized22SerializedDepNodeIndexNtNtNtCsbnIUe8x9cNz_12rustc_middle5query13on_disk_cache15AbsoluteBytePosEE14reserve_rehashNCINvNtB8_3map11make_hasherBQ_B2e_NtCsiHaVk9ZDPzl_10rustc_hash13FxBuildHasherE0EB2k_
librustc_driver-f8caf2bfd7396df8.so:_RINvMs6_NtCs7DYsST9UVP3_9hashbrown3rawINtB6_8RawTableTNtNtNtCshF5AtUv7kVK_18rustc_query_system9dep_graph5graph12DepNodeIndexuEE14reserve_rehashNCINvNtB8_3map11make_hasherBQ_uNtCsiHaVk9ZDPzl_10rustc_hash13FxBuildHasherE0ECsbnIUe8x9cNz_12rustc_middle
librustc_driver-f8caf2bfd7396df8.so:_RINvMs6_NtCs7DYsST9UVP3_9hashbrown3rawINtB6_8RawTableTNtNtNtCshF5AtUv7kVK_18rustc_query_system9dep_graph8dep_node13WorkProductIdNtNtBU_5graph11WorkProductEE14reserve_rehashNCINvNtB8_3map11make_hasherBQ_B22_NtCsiHaVk9ZDPzl_10rustc_hash13FxBuildHasherE0ECs8tAGCjRPvUB_17rustc_incremental
librustc_driver-f8caf2bfd7396df8.so:_RINvMs6_NtCs7DYsST9UVP3_9hashbrown3rawINtB6_8RawTableTNtNtNtCshF5AtUv7kVK_18rustc_query_system9dep_graph8dep_node7DepKindNtNtBU_10serialized4StatEE14reserve_rehashNCINvNtB8_3map11make_hasherBQ_B1V_NtCsiHaVk9ZDPzl_10rustc_hash13FxBuildHasherE0ECsbnIUe8x9cNz_12rustc_middle
librustc_driver-f8caf2bfd7396df8.so:_RINvMs6_NtCs7DYsST9UVP3_9hashbrown3rawINtB6_8RawTableTNtNtNtCshF5AtUv7kVK_18rustc_query_system9dep_graph8dep_node7DepNodeINtNtCs2t38KIHyE4j_13rustc_type_ir11fast_reject14SimplifiedTypeNtNtCsjdyqsEEf0cE_10rustc_span6def_id5DefIdEEE14reserve_rehashNCINvNtB8_3map11make_hasherBQ_B1V_NtCsiHaVk9ZDPzl_10rustc_hash13FxBuildHasherE0ECs2ERWbPTlodK_16rustc_query_impl
librustc_driver-f8caf2bfd7396df8.so:_RINvMs6_NtCs7DYsST9UVP3_9hashbrown3rawINtB6_8RawTableTNtNtNtCshF5AtUv7kVK_18rustc_query_system9dep_graph8dep_node7DepNodeINtNtCs2t38KIHyE4j_13rustc_type_ir9canonical19CanonicalQueryInputNtNtNtCsbnIUe8x9cNz_12rustc_middle2ty7context6TyCtxtINtB32_11ParamEnvAndINtNtB20_9predicate9AliasTermB2Y_EEEEE14reserve_rehashNCINvNtB8_3map11make_hasherBQ_B1V_NtCsiHaVk9ZDPzl_10rustc_hash13FxBuildHasherE0ECs2ERWbPTlodK_16rustc_query_impl
librustc_driver-f8caf2bfd7396df8.so:_RINvMs6_NtCs7DYsST9UVP3_9hashbrown3rawINtB6_8RawTableTNtNtNtCshF5AtUv7kVK_18rustc_query_system9dep_graph8dep_node7DepNodeINtNtCs2t38KIHyE4j_13rustc_type_ir9canonical19CanonicalQueryInputNtNtNtCsbnIUe8x9cNz_12rustc_middle2ty7context6TyCtxtINtB32_11ParamEnvAndINtNtNtNtB34_6traits5query7type_op9NormalizeINtNtB20_6binder6BinderB2Y_INtNtB20_7ty_kind5FnSigB2Y_EEEEEEE14reserve_rehashNCINvNtB8_3map11make_hasherBQ_B1V_NtCsiHaVk9ZDPzl_10rustc_hash13FxBuildHasherE0ECs2ERWbPTlodK_16rustc_query_impl
librustc_driver-f8caf2bfd7396df8.so:_RINvMs6_NtCs7DYsST9UVP3_9hashbrown3rawINtB6_8RawTableTNtNtNtCshF5AtUv7kVK_18rustc_query_system9dep_graph8dep_node7DepNodeINtNtCs2t38KIHyE4j_13rustc_type_ir9canonical19CanonicalQueryInputNtNtNtCsbnIUe8x9cNz_12rustc_middle2ty7context6TyCtxtINtB32_11ParamEnvAndINtNtNtNtB34_6traits5query7type_op9NormalizeINtNtB20_7ty_kind5FnSigB2Y_EEEEEE14reserve_rehashNCINvNtB8_3map11make_hasherBQ_B1V_NtCsiHaVk9ZDPzl_10rustc_hash13FxBuildHasherE0ECs2ERWbPTlodK_16rustc_query_impl
librustc_driver-f8caf2bfd7396df8.so:_RINvMs6_NtCs7DYsST9UVP3_9hashbrown3rawINtB6_8RawTableTNtNtNtCshF5AtUv7kVK_18rustc_query_system9dep_graph8dep_node7DepNodeINtNtCs2t38KIHyE4j_13rustc_type_ir9canonical19CanonicalQueryInputNtNtNtCsbnIUe8x9cNz_12rustc_middle2ty7context6TyCtxtINtB32_11ParamEnvAndINtNtNtNtB34_6traits5query7type_op9NormalizeNtB32_2TyEEEEE14reserve_rehashNCINvNtB8_3map11make_hasherBQ_B1V_NtCsiHaVk9ZDPzl_10rustc_hash13FxBuildHasherE0ECs2ERWbPTlodK_16rustc_query_impl
librustc_driver-f8caf2bfd7396df8.so:_RINvMs6_NtCs7DYsST9UVP3_9hashbrown3rawINtB6_8RawTableTNtNtNtCshF5AtUv7kVK_18rustc_query_system9dep_graph8dep_node7DepNodeINtNtCs2t38KIHyE4j_13rustc_type_ir9canonical19CanonicalQueryInputNtNtNtCsbnIUe8x9cNz_12rustc_middle2ty7context6TyCtxtINtB32_11ParamEnvAndINtNtNtNtB34_6traits5query7type_op9NormalizeNtNtB32_9predicate6ClauseEEEEE14reserve_rehashNCINvNtB8_3map11make_hasherBQ_B1V_NtCsiHaVk9ZDPzl_10rustc_hash13FxBuildHasherE0ECs2ERWbPTlodK_16rustc_query_impl
librustc_driver-f8caf2bfd7396df8.so:_RINvMs6_NtCs7DYsST9UVP3_9hashbrown3rawINtB6_8RawTableTNtNtNtCshF5AtUv7kVK_18rustc_query_system9dep_graph8dep_node7DepNodeINtNtCs2t38KIHyE4j_13rustc_type_ir9canonical19CanonicalQueryInputNtNtNtCsbnIUe8x9cNz_12rustc_middle2ty7context6TyCtxtINtB32_11ParamEnvAndNtNtB32_9predicate9PredicateEEEE14reserve_rehashNCINvNtB8_3map11make_hasherBQ_B1V_NtCsiHaVk9ZDPzl_10rustc_hash13FxBuildHasherE0ECs2ERWbPTlodK_16rustc_query_impl
librustc_driver-f8caf2bfd7396df8.so:_RINvMs6_NtCs7DYsST9UVP3_9hashbrown3rawINtB6_8RawTableTNtNtNtCshF5AtUv7kVK_18rustc_query_system9dep_graph8dep_node7DepNodeINtNtCs2t38KIHyE4j_13rustc_type_ir9canonical19CanonicalQueryInputNtNtNtCsbnIUe8x9cNz_12rustc_middle2ty7context6TyCtxtINtB32_11ParamEnvAndNtNtNtB34_6traits5query20MethodAutoderefStepsEEEE14reserve_rehashNCINvNtB8_3map11make_hasherBQ_B1V_NtCsiHaVk9ZDPzl_10rustc_hash13FxBuildHasherE0ECs2ERWbPTlodK_16rustc_query_impl
librustc_driver-f8caf2bfd7396df8.so:_RINvMs6_NtCs7DYsST9UVP3_9hashbrown3rawINtB6_8RawTableTNtNtNtCshF5AtUv7kVK_18rustc_query_system9dep_graph8dep_node7DepNodeINtNtCs2t38KIHyE4j_13rustc_type_ir9canonical19CanonicalQueryInputNtNtNtCsbnIUe8x9cNz_12rustc_middle2ty7context6TyCtxtINtB32_11ParamEnvAndNtNtNtNtB34_6traits5query7type_op14DropckOutlivesEEEE14reserve_rehashNCINvNtB8_3map11make_hasherBQ_B1V_NtCsiHaVk9ZDPzl_10rustc_hash13FxBuildHasherE0ECs2ERWbPTlodK_16rustc_query_impl
librustc_driver-f8caf2bfd7396df8.so:_RINvMs6_NtCs7DYsST9UVP3_9hashbrown3rawINtB6_8RawTableTNtNtNtCshF5AtUv7kVK_18rustc_query_system9dep_graph8dep_node7DepNodeINtNtCs2t38KIHyE4j_13rustc_type_ir9canonical19CanonicalQueryInputNtNtNtCsbnIUe8x9cNz_12rustc_middle2ty7context6TyCtxtINtB32_11ParamEnvAndNtNtNtNtB34_6traits5query7type_op14ProvePredicateEEEE14reserve_rehashNCINvNtB8_3map11make_hasherBQ_B1V_NtCsiHaVk9ZDPzl_10rustc_hash13FxBuildHasherE0ECs2ERWbPTlodK_16rustc_query_impl
librustc_driver-f8caf2bfd7396df8.so:_RINvMs6_NtCs7DYsST9UVP3_9hashbrown3rawINtB6_8RawTableTNtNtNtCshF5AtUv7kVK_18rustc_query_system9dep_graph8dep_node7DepNodeINtNtCs2t38KIHyE4j_13rustc_type_ir9canonical19CanonicalQueryInputNtNtNtCsbnIUe8x9cNz_12rustc_middle2ty7context6TyCtxtINtB32_11ParamEnvAndNtNtNtNtB34_6traits5query7type_op15AscribeUserTypeEEEE14reserve_rehashNCINvNtB8_3map11make_hasherBQ_B1V_NtCsiHaVk9ZDPzl_10rustc_hash13FxBuildHasherE0ECs2ERWbPTlodK_16rustc_query_impl
librustc_driver-f8caf2bfd7396df8.so:_RINvMs6_NtCs7DYsST9UVP3_9hashbrown3rawINtB6_8RawTableTNtNtNtCshF5AtUv7kVK_18rustc_query_system9dep_graph8dep_node7DepNodeINtNtCs2t38KIHyE4j_13rustc_type_ir9canonical19CanonicalQueryInputNtNtNtCsbnIUe8x9cNz_12rustc_middle2ty7context6TyCtxtINtNtB20_5solve10QueryInputB2Y_NtNtB32_9predicate9PredicateEEEE14reserve_rehashNCINvNtB8_3map11make_hasherBQ_B1V_NtCsiHaVk9ZDPzl_10rustc_hash13FxBuildHasherE0ECs2ERWbPTlodK_16rustc_query_impl
librustc_driver-f8caf2bfd7396df8.so:_RINvMs6_NtCs7DYsST9UVP3_9hashbrown3rawINtB6_8RawTableTNtNtNtCshF5AtUv7kVK_18rustc_query_system9dep_graph8dep_node7DepNodeINtNtCs2t38KIHyE4j_13rustc_type_ir9predicate8TraitRefNtNtNtCsbnIUe8x9cNz_12rustc_middle2ty7context6TyCtxtEEE14reserve_rehashNCINvNtB8_3map11make_hasherBQ_B1V_NtCsiHaVk9ZDPzl_10rustc_hash13FxBuildHasherE0ECs2ERWbPTlodK_16rustc_query_impl
librustc_driver-f8caf2bfd7396df8.so:_RINvMs6_NtCs7DYsST9UVP3_9hashbrown3rawINtB6_8RawTableTNtNtNtCshF5AtUv7kVK_18rustc_query_system9dep_graph8dep_node7DepNodeINtNtCs9WsFjTlRn02_4core6option6OptionNtNtCsjdyqsEEf0cE_10rustc_span6symbol6SymbolEEE14reserve_rehashNCINvNtB8_3map11make_hasherBQ_B1V_NtCsiHaVk9ZDPzl_10rustc_hash13FxBuildHasherE0ECs2ERWbPTlodK_16rustc_query_impl
librustc_driver-f8caf2bfd7396df8.so:_RINvMs6_NtCs7DYsST9UVP3_9hashbrown3rawINtB6_8RawTableTNtNtNtCshF5AtUv7kVK_18rustc_query_system9dep_graph8dep_node7DepNodeINtNtCsbnIUe8x9cNz_12rustc_middle2ty20PseudoCanonicalInputINtNtCs2t38KIHyE4j_13rustc_type_ir9predicate8TraitRefNtNtB1Y_7context6TyCtxtEEEE14reserve_rehashNCINvNtB8_3map11make_hasherBQ_B1V_NtCsiHaVk9ZDPzl_10rustc_hash13FxBuildHasherE0ECs2ERWbPTlodK_16rustc_query_impl
librustc_driver-f8caf2bfd7396df8.so:_RINvMs6_NtCs7DYsST9UVP3_9hashbrown3rawINtB6_8RawTableTNtNtNtCshF5AtUv7kVK_18rustc_query_system9dep_graph8dep_node7DepNodeINtNtCsbnIUe8x9cNz_12rustc_middle2ty20PseudoCanonicalInputNtB1Y_2TyEEE14reserve_rehashNCINvNtB8_3map11make_hasherBQ_B1V_NtCsiHaVk9ZDPzl_10rustc_hash13FxBuildHasherE0ECs2ERWbPTlodK_16rustc_query_impl
librustc_driver-f8caf2bfd7396df8.so:_RINvMs6_NtCs7DYsST9UVP3_9hashbrown3rawINtB6_8RawTableTNtNtNtCshF5AtUv7kVK_18rustc_query_system9dep_graph8dep_node7DepNodeINtNtCsbnIUe8x9cNz_12rustc_middle2ty20PseudoCanonicalInputNtNtB1Y_12generic_args10GenericArgEEE14reserve_rehashNCINvNtB8_3map11make_hasherBQ_B1V_NtCsiHaVk9ZDPzl_10rustc_hash13FxBuildHasherE0ECs2ERWbPTlodK_16rustc_query_impl
librustc_driver-f8caf2bfd7396df8.so:_RINvMs6_NtCs7DYsST9UVP3_9hashbrown3rawINtB6_8RawTableTNtNtNtCshF5AtUv7kVK_18rustc_query_system9dep_graph8dep_node7DepNodeINtNtCsbnIUe8x9cNz_12rustc_middle2ty20PseudoCanonicalInputNtNtNtB20_3mir9interpret8GlobalIdEEE14reserve_rehashNCINvNtB8_3map11make_hasherBQ_B1V_NtCsiHaVk9ZDPzl_10rustc_hash13FxBuildHasherE0ECs2ERWbPTlodK_16rustc_query_impl
librustc_driver-f8caf2bfd7396df8.so:_RINvMs6_NtCs7DYsST9UVP3_9hashbrown3rawINtB6_8RawTableTNtNtNtCshF5AtUv7kVK_18rustc_query_system9dep_graph8dep_node7DepNodeINtNtCsbnIUe8x9cNz_12rustc_middle2ty20PseudoCanonicalInputTINtNtCs2t38KIHyE4j_13rustc_type_ir6binder6BinderNtNtB1Y_7context6TyCtxtINtNtB2X_7ty_kind5FnSigB3E_EERINtNtB1Y_4list7RawListuNtB1Y_2TyEEEEE14reserve_rehashNCINvNtB8_3map11make_hasherBQ_B1V_NtCsiHaVk9ZDPzl_10rustc_hash13FxBuildHasherE0ECs2ERWbPTlodK_16rustc_query_impl
librustc_driver-f8caf2bfd7396df8.so:_RINvMs6_NtCs7DYsST9UVP3_9hashbrown3rawINtB6_8RawTableTNtNtNtCshF5AtUv7kVK_18rustc_query_system9dep_graph8dep_node7DepNodeINtNtCsbnIUe8x9cNz_12rustc_middle2ty20PseudoCanonicalInputTNtB1Y_2TyNtNtNtCs3WhD79dQ5JG_9rustc_abi6layout2ty10VariantIdxEEEE14reserve_rehashNCINvNtB8_3map11make_hasherBQ_B1V_NtCsiHaVk9ZDPzl_10rustc_hash13FxBuildHasherE0ECs2ERWbPTlodK_16rustc_query_impl
librustc_driver-f8caf2bfd7396df8.so:_RINvMs6_NtCs7DYsST9UVP3_9hashbrown3rawINtB6_8RawTableTNtNtNtCshF5AtUv7kVK_18rustc_query_system9dep_graph8dep_node7DepNodeINtNtCsbnIUe8x9cNz_12rustc_middle2ty20PseudoCanonicalInputTNtNtB1Y_8instance8InstanceRINtNtB1Y_4list7RawListuNtB1Y_2TyEEEEE14reserve_rehashNCINvNtB8_3map11make_hasherBQ_B1V_NtCsiHaVk9ZDPzl_10rustc_hash13FxBuildHasherE0ECs2ERWbPTlodK_16rustc_query_impl
librustc_driver-f8caf2bfd7396df8.so:_RINvMs6_NtCs7DYsST9UVP3_9hashbrown3rawINtB6_8RawTableTNtNtNtCshF5AtUv7kVK_18rustc_query_system9dep_graph8dep_node7DepNodeINtNtCsbnIUe8x9cNz_12rustc_middle2ty20PseudoCanonicalInputTNtNtCsjdyqsEEf0cE_10rustc_span6def_id5DefIdRINtNtB1Y_4list7RawListuNtNtB1Y_12generic_args10GenericArgEEEEE14reserve_rehashNCINvNtB8_3map11make_hasherBQ_B1V_NtCsiHaVk9ZDPzl_10rustc_hash13FxBuildHasherE0ECs2ERWbPTlodK_16rustc_query_impl
librustc_driver-f8caf2bfd7396df8.so:_RINvMs6_NtCs7DYsST9UVP3_9hashbrown3rawINtB6_8RawTableTNtNtNtCshF5AtUv7kVK_18rustc_query_system9dep_graph8dep_node7DepNodeNtCs6whg2ier8G0_12rustc_hir_id7OwnerIdEE14reserve_rehashNCINvNtB8_3map11make_hasherBQ_B1V_NtCsiHaVk9ZDPzl_10rustc_hash13FxBuildHasherE0ECs2ERWbPTlodK_16rustc_query_impl
librustc_driver-f8caf2bfd7396df8.so:_RINvMs6_NtCs7DYsST9UVP3_9hashbrown3rawINtB6_8RawTableTNtNtNtCshF5AtUv7kVK_18rustc_query_system9dep_graph8dep_node7DepNodeNtNtBU_5graph12DepNodeIndexEE14reserve_rehashNCINvNtB8_3map11make_hasherBQ_B1V_NtCsiHaVk9ZDPzl_10rustc_hash13FxBuildHasherE0ECsbnIUe8x9cNz_12rustc_middle
librustc_driver-f8caf2bfd7396df8.so:_RINvMs6_NtCs7DYsST9UVP3_9hashbrown3rawINtB6_8RawTableTNtNtNtCshF5AtUv7kVK_18rustc_query_system9dep_graph8dep_node7DepNodeNtNtCsbnIUe8x9cNz_12rustc_middle2ty2TyEE14reserve_rehashNCINvNtB8_3map11make_hasherBQ_B1V_NtCsiHaVk9ZDPzl_10rustc_hash13FxBuildHasherE0ECs2ERWbPTlodK_16rustc_query_impl
librustc_driver-f8caf2bfd7396df8.so:_RINvMs6_NtCs7DYsST9UVP3_9hashbrown3rawINtB6_8RawTableTNtNtNtCshF5AtUv7kVK_18rustc_query_system9dep_graph8dep_node7DepNodeNtNtCsjdyqsEEf0cE_10rustc_span6def_id10LocalDefIdEE14reserve_rehashNCINvNtB8_3map11make_hasherBQ_B1V_NtCsiHaVk9ZDPzl_10rustc_hash13FxBuildHasherE0ECs2ERWbPTlodK_16rustc_query_impl
librustc_driver-f8caf2bfd7396df8.so:_RINvMs6_NtCs7DYsST9UVP3_9hashbrown3rawINtB6_8RawTableTNtNtNtCshF5AtUv7kVK_18rustc_query_system9dep_graph8dep_node7DepNodeNtNtCsjdyqsEEf0cE_10rustc_span6def_id13LocalModDefIdEE14reserve_rehashNCINvNtB8_3map11make_hasherBQ_B1V_NtCsiHaVk9ZDPzl_10rustc_hash13FxBuildHasherE0ECs2ERWbPTlodK_16rustc_query_impl
librustc_driver-f8caf2bfd7396df8.so:_RINvMs6_NtCs7DYsST9UVP3_9hashbrown3rawINtB6_8RawTableTNtNtNtCshF5AtUv7kVK_18rustc_query_system9dep_graph8dep_node7DepNodeNtNtCsjdyqsEEf0cE_10rustc_span6def_id5DefIdEE14reserve_rehashNCINvNtB8_3map11make_hasherBQ_B1V_NtCsiHaVk9ZDPzl_10rustc_hash13FxBuildHasherE0ECs2ERWbPTlodK_16rustc_query_impl
librustc_driver-f8caf2bfd7396df8.so:_RINvMs6_NtCs7DYsST9UVP3_9hashbrown3rawINtB6_8RawTableTNtNtNtCshF5AtUv7kVK_18rustc_query_system9dep_graph8dep_node7DepNodeNtNtCsjdyqsEEf0cE_10rustc_span6def_id8CrateNumEE14reserve_rehashNCINvNtB8_3map11make_hasherBQ_B1V_NtCsiHaVk9ZDPzl_10rustc_hash13FxBuildHasherE0ECs2ERWbPTlodK_16rustc_query_impl
librustc_driver-f8caf2bfd7396df8.so:_RINvMs6_NtCs7DYsST9UVP3_9hashbrown3rawINtB6_8RawTableTNtNtNtCshF5AtUv7kVK_18rustc_query_system9dep_graph8dep_node7DepNodeNtNtCsjdyqsEEf0cE_10rustc_span6symbol6SymbolEE14reserve_rehashNCINvNtB8_3map11make_hasherBQ_B1V_NtCsiHaVk9ZDPzl_10rustc_hash13FxBuildHasherE0ECs2ERWbPTlodK_16rustc_query_impl
librustc_driver-f8caf2bfd7396df8.so:_RINvMs6_NtCs7DYsST9UVP3_9hashbrown3rawINtB6_8RawTableTNtNtNtCshF5AtUv7kVK_18rustc_query_system9dep_graph8dep_node7DepNodeNtNtNtCsbnIUe8x9cNz_12rustc_middle2ty6consts5ConstEE14reserve_rehashNCINvNtB8_3map11make_hasherBQ_B1V_NtCsiHaVk9ZDPzl_10rustc_hash13FxBuildHasherE0ECs2ERWbPTlodK_16rustc_query_impl
librustc_driver-f8caf2bfd7396df8.so:_RINvMs6_NtCs7DYsST9UVP3_9hashbrown3rawINtB6_8RawTableTNtNtNtCshF5AtUv7kVK_18rustc_query_system9dep_graph8dep_node7DepNodeNtNtNtCsbnIUe8x9cNz_12rustc_middle2ty8instance12InstanceKindEE14reserve_rehashNCINvNtB8_3map11make_hasherBQ_B1V_NtCsiHaVk9ZDPzl_10rustc_hash13FxBuildHasherE0ECs2ERWbPTlodK_16rustc_query_impl
librustc_driver-f8caf2bfd7396df8.so:_RINvMs6_NtCs7DYsST9UVP3_9hashbrown3rawINtB6_8RawTableTNtNtNtCshF5AtUv7kVK_18rustc_query_system9dep_graph8dep_node7DepNodeNtNtNtCsbnIUe8x9cNz_12rustc_middle2ty8instance8InstanceEE14reserve_rehashNCINvNtB8_3map11make_hasherBQ_B1V_NtCsiHaVk9ZDPzl_10rustc_hash13FxBuildHasherE0ECs2ERWbPTlodK_16rustc_query_impl
librustc_driver-f8caf2bfd7396df8.so:_RINvMs6_NtCs7DYsST9UVP3_9hashbrown3rawINtB6_8RawTableTNtNtNtCshF5AtUv7kVK_18rustc_query_system9dep_graph8dep_node7DepNodeNtNtNtCsbnIUe8x9cNz_12rustc_middle3mir9interpret15LitToConstInputEE14reserve_rehashNCINvNtB8_3map11make_hasherBQ_B1V_NtCsiHaVk9ZDPzl_10rustc_hash13FxBuildHasherE0ECs2ERWbPTlodK_16rustc_query_impl
librustc_driver-f8caf2bfd7396df8.so:_RINvMs6_NtCs7DYsST9UVP3_9hashbrown3rawINtB6_8RawTableTNtNtNtCshF5AtUv7kVK_18rustc_query_system9dep_graph8dep_node7DepNodeNtNtNtCsiN8jfhUhbz9_21rustc_data_structures5graph12linked_graph9NodeIndexEE14reserve_rehashNCINvNtB8_3map11make_hasherBQ_B1V_NtCsiHaVk9ZDPzl_10rustc_hash13FxBuildHasherE0EBW_
librustc_driver-f8caf2bfd7396df8.so:_RINvMs6_NtCs7DYsST9UVP3_9hashbrown3rawINtB6_8RawTableTNtNtNtCshF5AtUv7kVK_18rustc_query_system9dep_graph8dep_node7DepNodeNtNtNtNtCsbnIUe8x9cNz_12rustc_middle2ty6consts7valtree5ValueEE14reserve_rehashNCINvNtB8_3map11make_hasherBQ_B1V_NtCsiHaVk9ZDPzl_10rustc_hash13FxBuildHasherE0ECs2ERWbPTlodK_16rustc_query_impl
librustc_driver-f8caf2bfd7396df8.so:_RINvMs6_NtCs7DYsST9UVP3_9hashbrown3rawINtB6_8RawTableTNtNtNtCshF5AtUv7kVK_18rustc_query_system9dep_graph8dep_node7DepNodeRINtNtNtCsbnIUe8x9cNz_12rustc_middle2ty4list7RawListNtB1Z_8TypeInfoNtNtB21_9predicate6ClauseEEE14reserve_rehashNCINvNtB8_3map11make_hasherBQ_B1V_NtCsiHaVk9ZDPzl_10rustc_hash13FxBuildHasherE0ECs2ERWbPTlodK_16rustc_query_impl
librustc_driver-f8caf2bfd7396df8.so:_RINvMs6_NtCs7DYsST9UVP3_9hashbrown3rawINtB6_8RawTableTNtNtNtCshF5AtUv7kVK_18rustc_query_system9dep_graph8dep_node7DepNodeRINtNtNtCsbnIUe8x9cNz_12rustc_middle2ty4list7RawListuNtNtB21_12generic_args10GenericArgEEE14reserve_rehashNCINvNtB8_3map11make_hasherBQ_B1V_NtCsiHaVk9ZDPzl_10rustc_hash13FxBuildHasherE0ECs2ERWbPTlodK_16rustc_query_impl
librustc_driver-f8caf2bfd7396df8.so:_RINvMs6_NtCs7DYsST9UVP3_9hashbrown3rawINtB6_8RawTableTNtNtNtCshF5AtUv7kVK_18rustc_query_system9dep_graph8dep_node7DepNodeRNtNtNtCsjj3dQwFOuTb_3std3ffi6os_str5OsStrEE14reserve_rehashNCINvNtB8_3map11make_hasherBQ_B1V_NtCsiHaVk9ZDPzl_10rustc_hash13FxBuildHasherE0ECs2ERWbPTlodK_16rustc_query_impl
librustc_driver-f8caf2bfd7396df8.so:_RINvMs6_NtCs7DYsST9UVP3_9hashbrown3rawINtB6_8RawTableTNtNtNtCshF5AtUv7kVK_18rustc_query_system9dep_graph8dep_node7DepNodeTINtNtCs2t38KIHyE4j_13rustc_type_ir9canonical19CanonicalQueryInputNtNtNtCsbnIUe8x9cNz_12rustc_middle2ty7context6TyCtxtINtB33_11ParamEnvAndNtNtNtNtB35_6traits5query7type_op21ImpliedOutlivesBoundsEEbEEE14reserve_rehashNCINvNtB8_3map11make_hasherBQ_B1V_NtCsiHaVk9ZDPzl_10rustc_hash13FxBuildHasherE0ECs2ERWbPTlodK_16rustc_query_impl
librustc_driver-f8caf2bfd7396df8.so:_RINvMs6_NtCs7DYsST9UVP3_9hashbrown3rawINtB6_8RawTableTNtNtNtCshF5AtUv7kVK_18rustc_query_system9dep_graph8dep_node7DepNodeTNtNtCsbnIUe8x9cNz_12rustc_middle2ty2TyB1W_EEE14reserve_rehashNCINvNtB8_3map11make_hasherBQ_B1V_NtCsiHaVk9ZDPzl_10rustc_hash13FxBuildHasherE0ECs2ERWbPTlodK_16rustc_query_impl
librustc_driver-f8caf2bfd7396df8.so:_RINvMs6_NtCs7DYsST9UVP3_9hashbrown3rawINtB6_8RawTableTNtNtNtCshF5AtUv7kVK_18rustc_query_system9dep_graph8dep_node7DepNodeTNtNtCsbnIUe8x9cNz_12rustc_middle2ty2TyINtNtCs9WsFjTlRn02_4core6option6OptionINtNtCs2t38KIHyE4j_13rustc_type_ir9predicate19ExistentialTraitRefNtNtB1Y_7context6TyCtxtEEEEE14reserve_rehashNCINvNtB8_3map11make_hasherBQ_B1V_NtCsiHaVk9ZDPzl_10rustc_hash13FxBuildHasherE0ECs2ERWbPTlodK_16rustc_query_impl
librustc_driver-f8caf2bfd7396df8.so:_RINvMs6_NtCs7DYsST9UVP3_9hashbrown3rawINtB6_8RawTableTNtNtNtCshF5AtUv7kVK_18rustc_query_system9dep_graph8dep_node7DepNodeTNtNtCsjdyqsEEf0cE_10rustc_span6def_id10LocalDefIdB1W_NtNtB20_6symbol5IdentEEE14reserve_rehashNCINvNtB8_3map11make_hasherBQ_B1V_NtCsiHaVk9ZDPzl_10rustc_hash13FxBuildHasherE0ECs2ERWbPTlodK_16rustc_query_impl
librustc_driver-f8caf2bfd7396df8.so:_RINvMs6_NtCs7DYsST9UVP3_9hashbrown3rawINtB6_8RawTableTNtNtNtCshF5AtUv7kVK_18rustc_query_system9dep_graph8dep_node7DepNodeTNtNtCsjdyqsEEf0cE_10rustc_span6def_id5DefIdB1W_EEE14reserve_rehashNCINvNtB8_3map11make_hasherBQ_B1V_NtCsiHaVk9ZDPzl_10rustc_hash13FxBuildHasherE0ECs2ERWbPTlodK_16rustc_query_impl
librustc_driver-f8caf2bfd7396df8.so:_RINvMs6_NtCs7DYsST9UVP3_9hashbrown3rawINtB6_8RawTableTNtNtNtCshF5AtUv7kVK_18rustc_query_system9dep_graph8dep_node7DepNodeTNtNtCsjdyqsEEf0cE_10rustc_span6def_id5DefIdNtNtB20_6symbol5IdentEEE14reserve_rehashNCINvNtB8_3map11make_hasherBQ_B1V_NtCsiHaVk9ZDPzl_10rustc_hash13FxBuildHasherE0ECs2ERWbPTlodK_16rustc_query_impl
librustc_driver-f8caf2bfd7396df8.so:_RINvMs6_NtCs7DYsST9UVP3_9hashbrown3rawINtB6_8RawTableTNtNtNtCshF5AtUv7kVK_18rustc_query_system9dep_graph8dep_node7DepNodeTNtNtCsjdyqsEEf0cE_10rustc_span6def_id5DefIdNtNtCs2t38KIHyE4j_13rustc_type_ir5solve14SizedTraitKindEEE14reserve_rehashNCINvNtB8_3map11make_hasherBQ_B1V_NtCsiHaVk9ZDPzl_10rustc_hash13FxBuildHasherE0ECs2ERWbPTlodK_16rustc_query_impl
librustc_driver-f8caf2bfd7396df8.so:_RINvMs6_NtCs7DYsST9UVP3_9hashbrown3rawINtB6_8RawTableTNtNtNtCshF5AtUv7kVK_18rustc_query_system9dep_graph8dep_node7DepNodeTNtNtCsjdyqsEEf0cE_10rustc_span6def_id5DefIdRINtNtNtCsbnIUe8x9cNz_12rustc_middle2ty4list7RawListuNtNtB2J_12generic_args10GenericArgEEEE14reserve_rehashNCINvNtB8_3map11make_hasherBQ_B1V_NtCsiHaVk9ZDPzl_10rustc_hash13FxBuildHasherE0ECs2ERWbPTlodK_16rustc_query_impl
librustc_driver-f8caf2bfd7396df8.so:_RINvMs6_NtCs7DYsST9UVP3_9hashbrown3rawINtB6_8RawTableTNtNtNtCshF5AtUv7kVK_18rustc_query_system9dep_graph8dep_node7DepNodeTNtNtCsjdyqsEEf0cE_10rustc_span6def_id8CrateNumINtNtCs2t38KIHyE4j_13rustc_type_ir11fast_reject14SimplifiedTypeNtB1Y_5DefIdEEEE14reserve_rehashNCINvNtB8_3map11make_hasherBQ_B1V_NtCsiHaVk9ZDPzl_10rustc_hash13FxBuildHasherE0ECs2ERWbPTlodK_16rustc_query_impl
librustc_driver-f8caf2bfd7396df8.so:_RINvMs6_NtCs7DYsST9UVP3_9hashbrown3rawINtB6_8RawTableTNtNtNtCshF5AtUv7kVK_18rustc_query_system9dep_graph8dep_node7DepNodeTNtNtCsjdyqsEEf0cE_10rustc_span6def_id8CrateNumNtB1Y_5DefIdEEE14reserve_rehashNCINvNtB8_3map11make_hasherBQ_B1V_NtCsiHaVk9ZDPzl_10rustc_hash13FxBuildHasherE0ECs2ERWbPTlodK_16rustc_query_impl
librustc_driver-f8caf2bfd7396df8.so:_RINvMs6_NtCs7DYsST9UVP3_9hashbrown3rawINtB6_8RawTableTNtNtNtCshF5AtUv7kVK_18rustc_query_system9dep_graph8dep_node7DepNodeTNtNtNtCsbnIUe8x9cNz_12rustc_middle2ty6layout19ValidityRequirementINtB20_20PseudoCanonicalInputNtB20_2TyEEEE14reserve_rehashNCINvNtB8_3map11make_hasherBQ_B1V_NtCsiHaVk9ZDPzl_10rustc_hash13FxBuildHasherE0ECs2ERWbPTlodK_16rustc_query_impl
librustc_driver-f8caf2bfd7396df8.so:_RINvMs6_NtCs7DYsST9UVP3_9hashbrown3rawINtB6_8RawTableTNtNtNtCshF5AtUv7kVK_18rustc_query_system9dep_graph8dep_node7DepNodeTNtNtNtCsbnIUe8x9cNz_12rustc_middle2ty8instance8InstanceNtNtNtB22_3mir4mono14CollectionModeEEE14reserve_rehashNCINvNtB8_3map11make_hasherBQ_B1V_NtCsiHaVk9ZDPzl_10rustc_hash13FxBuildHasherE0ECs2ERWbPTlodK_16rustc_query_impl
librustc_driver-f8caf2bfd7396df8.so:_RINvMs6_NtCs7DYsST9UVP3_9hashbrown3rawINtB6_8RawTableTNtNtNtCshF5AtUv7kVK_18rustc_query_system9dep_graph8dep_node7DepNodeTNtNtNtCsbnIUe8x9cNz_12rustc_middle2ty9predicate9PredicateNtNtB22_6traits13WellFormedLocEEE14reserve_rehashNCINvNtB8_3map11make_hasherBQ_B1V_NtCsiHaVk9ZDPzl_10rustc_hash13FxBuildHasherE0ECs2ERWbPTlodK_16rustc_query_impl
librustc_driver-f8caf2bfd7396df8.so:_RINvMs6_NtCs7DYsST9UVP3_9hashbrown3rawINtB6_8RawTableTNtNtNtCshF5AtUv7kVK_18rustc_query_system9dep_graph8dep_node7DepNodeuEE14reserve_rehashNCINvNtB8_3map11make_hasherBQ_uNtCsiHaVk9ZDPzl_10rustc_hash13FxBuildHasherE0ECs2ERWbPTlodK_16rustc_query_impl
librustc_driver-f8caf2bfd7396df8.so:_RINvMs6_NtCs7DYsST9UVP3_9hashbrown3rawINtB6_8RawTableTNtNtNtNtCs1rNb7bG4Xia_11rustc_infer5infer18region_constraints10leak_check12LeakCheckSccuEE14reserve_rehashNCINvNtB8_3map11make_hasherBQ_uNtCsiHaVk9ZDPzl_10rustc_hash13FxBuildHasherE0EBY_
librustc_driver-f8caf2bfd7396df8.so:_RINvMs6_NtCs7DYsST9UVP3_9hashbrown3rawINtB6_8RawTableTNtNtNtNtCs2FHJYmCldx7_14regex_automata4util11determinize5state5StateNtNtBW_10primitives7StateIDEE14reserve_rehashNCINvNtB8_3map11make_hasherBQ_B1W_NtNtNtCsjj3dQwFOuTb_3std4hash6random11RandomStateE0EBY_
librustc_driver-f8caf2bfd7396df8.so:_RINvMs6_NtCs7DYsST9UVP3_9hashbrown3rawINtB6_8RawTableTNtNtNtNtCs2FHJYmCldx7_14regex_automata4util11determinize5state5StateNtNtNtBY_6hybrid2id11LazyStateIDEE14reserve_rehashNCINvNtB8_3map11make_hasherBQ_B1W_NtNtNtCsjj3dQwFOuTb_3std4hash6random11RandomStateE0EBY_
librustc_driver-f8caf2bfd7396df8.so:_RINvMs6_NtCs7DYsST9UVP3_9hashbrown3rawINtB6_8RawTableTNtNtNtNtCseuJrGsAzkDK_18rustc_codegen_llvm9debuginfo8metadata8type_map12UniqueTypeIdRNtNtNtBY_4llvm3ffi8MetadataEE14reserve_rehashNCINvNtB8_3map11make_hasherBQ_B2c_NtCsiHaVk9ZDPzl_10rustc_hash13FxBuildHasherE0EBY_
librustc_driver-f8caf2bfd7396df8.so:_RINvMs6_NtCs7DYsST9UVP3_9hashbrown3rawINtB6_8RawTableTNtNtNtNtCsfTLCRcPlsnU_14rustc_borrowck8polonius6legacy5facts17PoloniusRegionVidINtNtNtNtCs19MuVdBY7V6_5alloc11collections5btree3set8BTreeSetBQ_EEE14reserve_rehashNCINvNtB8_3map11make_hasherBQ_B27_INtNtCs9WsFjTlRn02_4core4hash18BuildHasherDefaultNtCsdpD0WSzRlFt_10rustc_hash8FxHasherEE0EBY_
librustc_driver-f8caf2bfd7396df8.so:_RINvMs6_NtCs7DYsST9UVP3_9hashbrown3rawINtB6_8RawTableTNtNtNtNtCsfTLCRcPlsnU_14rustc_borrowck8polonius6legacy5facts17PoloniusRegionVidINtNtNtNtCs19MuVdBY7V6_5alloc11collections5btree3set8BTreeSetNtNtBY_8dataflow11BorrowIndexEEE14reserve_rehashNCINvNtB8_3map11make_hasherBQ_B27_INtNtCs9WsFjTlRn02_4core4hash18BuildHasherDefaultNtCsdpD0WSzRlFt_10rustc_hash8FxHasherEE0EBY_
librustc_driver-f8caf2bfd7396df8.so:_RINvMs6_NtCs7DYsST9UVP3_9hashbrown3rawINtB6_8RawTableTNtNtNtNtCsfTLCRcPlsnU_14rustc_borrowck8polonius6legacy8location13LocationIndexINtNtCs19MuVdBY7V6_5alloc3vec3VecNtNtBU_5facts17PoloniusRegionVidEEE14reserve_rehashNCINvNtB8_3map11make_hasherBQ_B26_INtNtCs9WsFjTlRn02_4core4hash18BuildHasherDefaultNtCsdpD0WSzRlFt_10rustc_hash8FxHasherEE0EBY_
librustc_driver-f8caf2bfd7396df8.so:_RINvMs6_NtCs7DYsST9UVP3_9hashbrown3rawINtB6_8RawTableTNtNtNtNtCsfTLCRcPlsnU_14rustc_borrowck8polonius6legacy8location13LocationIndexINtNtCs19MuVdBY7V6_5alloc3vec3VecNtNtBY_8dataflow11BorrowIndexEEE14reserve_rehashNCINvNtB8_3map11make_hasherBQ_B26_INtNtCs9WsFjTlRn02_4core4hash18BuildHasherDefaultNtCsdpD0WSzRlFt_10rustc_hash8FxHasherEE0EBY_
librustc_driver-f8caf2bfd7396df8.so:_RINvMs6_NtCs7DYsST9UVP3_9hashbrown3rawINtB6_8RawTableTNtNtNtNtCsfTLCRcPlsnU_14rustc_borrowck8polonius6legacy8location13LocationIndexINtNtCs19MuVdBY7V6_5alloc3vec3VecNtNtCs5CCFvyG5imu_18rustc_mir_dataflow10move_paths13MovePathIndexEEE14reserve_rehashNCINvNtB8_3map11make_hasherBQ_B26_INtNtCs9WsFjTlRn02_4core4hash18BuildHasherDefaultNtCsdpD0WSzRlFt_10rustc_hash8FxHasherEE0EBY_
librustc_driver-f8caf2bfd7396df8.so:_RINvMs6_NtCs7DYsST9UVP3_9hashbrown3rawINtB6_8RawTableTNtNtNtNtCsfTLCRcPlsnU_14rustc_borrowck8polonius6legacy8location13LocationIndexINtNtCs19MuVdBY7V6_5alloc3vec3VecNtNtCsbnIUe8x9cNz_12rustc_middle3mir5LocalEEE14reserve_rehashNCINvNtB8_3map11make_hasherBQ_B26_INtNtCs9WsFjTlRn02_4core4hash18BuildHasherDefaultNtCsdpD0WSzRlFt_10rustc_hash8FxHasherEE0EBY_
librustc_driver-f8caf2bfd7396df8.so:_RINvMs6_NtCs7DYsST9UVP3_9hashbrown3rawINtB6_8RawTableTNtNtNtNtCsfTLCRcPlsnU_14rustc_borrowck8polonius6legacy8location13LocationIndexINtNtNtNtCs19MuVdBY7V6_5alloc11collections5btree3map8BTreeMapNtNtBU_5facts17PoloniusRegionVidINtNtB2b_3set8BTreeSetB35_EEEE14reserve_rehashNCINvNtB8_3map11make_hasherBQ_B26_INtNtCs9WsFjTlRn02_4core4hash18BuildHasherDefaultNtCsdpD0WSzRlFt_10rustc_hash8FxHasherEE0EBY_
librustc_driver-f8caf2bfd7396df8.so:_RINvMs6_NtCs7DYsST9UVP3_9hashbrown3rawINtB6_8RawTableTNtNtNtNtCsfTLCRcPlsnU_14rustc_borrowck8polonius6legacy8location13LocationIndexINtNtNtNtCs19MuVdBY7V6_5alloc11collections5btree3map8BTreeMapNtNtBU_5facts17PoloniusRegionVidINtNtB2b_3set8BTreeSetNtNtBY_8dataflow11BorrowIndexEEEE14reserve_rehashNCINvNtB8_3map11make_hasherBQ_B26_INtNtCs9WsFjTlRn02_4core4hash18BuildHasherDefaultNtCsdpD0WSzRlFt_10rustc_hash8FxHasherEE0EBY_
librustc_driver-f8caf2bfd7396df8.so:_RINvMs6_NtCs7DYsST9UVP3_9hashbrown3rawINtB6_8RawTableTNtNtNtNtCsfTLCRcPlsnU_14rustc_borrowck8polonius6legacy8location13LocationIndexINtNtNtNtCs19MuVdBY7V6_5alloc11collections5btree3set8BTreeSetTNtNtBU_5facts17PoloniusRegionVidB36_EEEE14reserve_rehashNCINvNtB8_3map11make_hasherBQ_B26_INtNtCs9WsFjTlRn02_4core4hash18BuildHasherDefaultNtCsdpD0WSzRlFt_10rustc_hash8FxHasherEE0EBY_
librustc_driver-f8caf2bfd7396df8.so:_RINvMs6_NtCs7DYsST9UVP3_9hashbrown3rawINtB6_8RawTableTNtNtNtNtNtCs1Tz1XzY7AWF_16rustc_sanitizers3cfi6typeid15itanium_cxx_abi6encode7DictKeyjEE14reserve_rehashNCINvNtB8_3map11make_hasherBQ_jNtCsiHaVk9ZDPzl_10rustc_hash13FxBuildHasherE0EB10_
librustc_driver-f8caf2bfd7396df8.so:_RINvMs6_NtCs7DYsST9UVP3_9hashbrown3rawINtB6_8RawTableTPNtCsjdyqsEEf0cE_10rustc_span10SourceFileNtNtNtCsbnIUe8x9cNz_12rustc_middle5query13on_disk_cache15SourceFileIndexEE14reserve_rehashNCINvNtB8_3map11make_hasherBQ_B1v_NtCsiHaVk9ZDPzl_10rustc_hash13FxBuildHasherE0EB1B_
librustc_driver-f8caf2bfd7396df8.so:_RINvMs6_NtCs7DYsST9UVP3_9hashbrown3rawINtB6_8RawTableTRINtNtCs3lnlKGz4iJ7_22rustc_pattern_analysis3pat16DeconstructedPatNtNtBW_5rustc12RustcPatCtxtEuEE14reserve_rehashNCINvNtB8_3map11make_hasherBQ_uNtCsiHaVk9ZDPzl_10rustc_hash13FxBuildHasherE0EBW_
librustc_driver-f8caf2bfd7396df8.so:_RINvMs6_NtCs7DYsST9UVP3_9hashbrown3rawINtB6_8RawTableTRINtNtNtCsbnIUe8x9cNz_12rustc_middle2ty4list7RawListNtBU_8TypeInfoNtNtBW_9predicate6ClauseEjEE14reserve_rehashNCINvNtB8_3map11make_hasherBQ_jNtCsiHaVk9ZDPzl_10rustc_hash13FxBuildHasherE0ECs1rNb7bG4Xia_11rustc_infer
librustc_driver-f8caf2bfd7396df8.so:_RINvMs6_NtCs7DYsST9UVP3_9hashbrown3rawINtB6_8RawTableTRINtNtNtCsbnIUe8x9cNz_12rustc_middle2ty4list7RawListuNtNtBW_12generic_args10GenericArgENtNtCsjdyqsEEf0cE_10rustc_span6def_id8CrateNumEE14reserve_rehashNCINvNtB8_3map11make_hasherBQ_B2f_NtCsiHaVk9ZDPzl_10rustc_hash13FxBuildHasherE0ECsjcIbwyOWlC2_17rustc_codegen_ssa
librustc_driver-f8caf2bfd7396df8.so:_RINvMs6_NtCs7DYsST9UVP3_9hashbrown3rawINtB6_8RawTableTRNtNtCs19MuVdBY7V6_5alloc6string6StringuEE14reserve_rehashNCINvNtB8_3map11make_hasherBQ_uNtCsiHaVk9ZDPzl_10rustc_hash13FxBuildHasherE0ECshJoW1joeLxI_13rustc_session
librustc_driver-f8caf2bfd7396df8.so:_RINvMs6_NtCs7DYsST9UVP3_9hashbrown3rawINtB6_8RawTableTRNtNtCsbnIUe8x9cNz_12rustc_middle3mir10BasicBlockuEE14reserve_rehashNCINvNtB8_3map11make_hasherBQ_uNtCsiHaVk9ZDPzl_10rustc_hash13FxBuildHasherE0ECs3pEzLKeUfxb_19rustc_mir_transform
librustc_driver-f8caf2bfd7396df8.so:_RINvMs6_NtCs7DYsST9UVP3_9hashbrown3rawINtB6_8RawTableTRNtNtCsjdyqsEEf0cE_10rustc_span6symbol6SymboluEE14reserve_rehashNCINvNtB8_3map11make_hasherBQ_uNtCsiHaVk9ZDPzl_10rustc_hash13FxBuildHasherE0ECs6JcOuld5fNS_12rustc_passes
librustc_driver-f8caf2bfd7396df8.so:_RINvMs6_NtCs7DYsST9UVP3_9hashbrown3rawINtB6_8RawTableTRNtNtNtCsbnIUe8x9cNz_12rustc_middle2ty9predicate9PredicateuEE14reserve_rehashNCINvNtB8_3map11make_hasherBQ_uNtCsiHaVk9ZDPzl_10rustc_hash13FxBuildHasherE0ECs7VwJBT60bpD_16rustc_hir_typeck
librustc_driver-f8caf2bfd7396df8.so:_RINvMs6_NtCs7DYsST9UVP3_9hashbrown3rawINtB6_8RawTableTRNtNtNtCsbnIUe8x9cNz_12rustc_middle3mir4mono8MonoItemuEE14reserve_rehashNCINvNtB8_3map11make_hasherBQ_uNtCsiHaVk9ZDPzl_10rustc_hash13FxBuildHasherE0ECshohWIpJhPWk_18rustc_monomorphize
librustc_driver-f8caf2bfd7396df8.so:_RINvMs6_NtCs7DYsST9UVP3_9hashbrown3rawINtB6_8RawTableTRNtNtNtCsbnIUe8x9cNz_12rustc_middle3mir6syntax5PlaceuEE14reserve_rehashNCINvNtB8_3map11make_hasherBQ_uNtCsiHaVk9ZDPzl_10rustc_hash13FxBuildHasherE0ECs3pEzLKeUfxb_19rustc_mir_transform
librustc_driver-f8caf2bfd7396df8.so:_RINvMs6_NtCs7DYsST9UVP3_9hashbrown3rawINtB6_8RawTableTRNtNtNtCseuJrGsAzkDK_18rustc_codegen_llvm4llvm3ffi5ValueBQ_EE14reserve_rehashNCINvNtB8_3map11make_hasherBQ_BQ_NtCsiHaVk9ZDPzl_10rustc_hash13FxBuildHasherE0EBX_
librustc_driver-f8caf2bfd7396df8.so:_RINvMs6_NtCs7DYsST9UVP3_9hashbrown3rawINtB6_8RawTableTRNtNtNtCsjj3dQwFOuTb_3std3ffi6os_str8OsStringuEE14reserve_rehashNCINvNtB8_3map11make_hasherBQ_uNtCsiHaVk9ZDPzl_10rustc_hash13FxBuildHasherE0ECsjcIbwyOWlC2_17rustc_codegen_ssa
librustc_driver-f8caf2bfd7396df8.so:_RINvMs6_NtCs7DYsST9UVP3_9hashbrown3rawINtB6_8RawTableTRReRRSBR_EE14reserve_rehashNCINvNtB8_3map11make_hasherBQ_BT_NtCsiHaVk9ZDPzl_10rustc_hash13FxBuildHasherE0ECs3puhVoiwLfp_12rustc_target
librustc_driver-f8caf2bfd7396df8.so:_RINvMs6_NtCs7DYsST9UVP3_9hashbrown3rawINtB6_8RawTableTRReuEE14reserve_rehashNCINvNtB8_3map11make_hasherBQ_uNtNtNtCsjj3dQwFOuTb_3std4hash6random11RandomStateE0ECs96InJeB3WBA_5gsgdt
librustc_driver-f8caf2bfd7396df8.so:_RINvMs6_NtCs7DYsST9UVP3_9hashbrown3rawINtB6_8RawTableTReBQ_EE14reserve_rehashNCINvNtB8_3map11make_hasherBQ_BQ_NtCsiHaVk9ZDPzl_10rustc_hash13FxBuildHasherE0ECs3pEzLKeUfxb_19rustc_mir_transform
librustc_driver-f8caf2bfd7396df8.so:_RINvMs6_NtCs7DYsST9UVP3_9hashbrown3rawINtB6_8RawTableTReINtNtCs19MuVdBY7V6_5alloc3vec3VecBQ_EEE14reserve_rehashNCINvNtB8_3map11make_hasherBQ_BS_NtNtNtCsjj3dQwFOuTb_3std4hash6random11RandomStateE0ECs96InJeB3WBA_5gsgdt
librustc_driver-f8caf2bfd7396df8.so:_RINvMs6_NtCs7DYsST9UVP3_9hashbrown3rawINtB6_8RawTableTReINtNtNtNtCsjj3dQwFOuTb_3std11collections4hash3set7HashSetBQ_NtCsiHaVk9ZDPzl_10rustc_hash13FxBuildHasherEEE14reserve_rehashNCINvNtB8_3map11make_hasherBQ_BS_B1Q_E0ECseuJrGsAzkDK_18rustc_codegen_llvm
librustc_driver-f8caf2bfd7396df8.so:_RINvMs6_NtCs7DYsST9UVP3_9hashbrown3rawINtB6_8RawTableTReNtNtCs6JcOuld5fNS_12rustc_passes11input_stats4NodeEE14reserve_rehashNCINvNtB8_3map11make_hasherBQ_BS_NtCsiHaVk9ZDPzl_10rustc_hash13FxBuildHasherE0EBW_
librustc_driver-f8caf2bfd7396df8.so:_RINvMs6_NtCs7DYsST9UVP3_9hashbrown3rawINtB6_8RawTableTReNtNtCs6JcOuld5fNS_12rustc_passes11input_stats9NodeStatsEE14reserve_rehashNCINvNtB8_3map11make_hasherBQ_BS_NtCsiHaVk9ZDPzl_10rustc_hash13FxBuildHasherE0EBW_
librustc_driver-f8caf2bfd7396df8.so:_RINvMs6_NtCs7DYsST9UVP3_9hashbrown3rawINtB6_8RawTableTReNtNtNtCscvgEZkTNhgV_16rustc_proc_macro6bridge6symbol6SymbolEE14reserve_rehashNCINvNtB8_3map11make_hasherBQ_BS_INtNtCs9WsFjTlRn02_4core4hash18BuildHasherDefaultNtNtBW_6fxhash8FxHasherEE0EBY_
librustc_driver-f8caf2bfd7396df8.so:_RINvMs6_NtCs7DYsST9UVP3_9hashbrown3rawINtB6_8RawTableTRebEE14reserve_rehashNCINvNtB8_3map11make_hasherBQ_bNtCsiHaVk9ZDPzl_10rustc_hash13FxBuildHasherE0ECsjcIbwyOWlC2_17rustc_codegen_ssa
librustc_driver-f8caf2bfd7396df8.so:_RINvMs6_NtCs7DYsST9UVP3_9hashbrown3rawINtB6_8RawTableTRejEE14reserve_rehashNCINvNtB8_3map11make_hasherBQ_jNtCsiHaVk9ZDPzl_10rustc_hash13FxBuildHasherE0ECsjcIbwyOWlC2_17rustc_codegen_ssa
librustc_driver-f8caf2bfd7396df8.so:_RINvMs6_NtCs7DYsST9UVP3_9hashbrown3rawINtB6_8RawTableTRejEE14reserve_rehashNCINvNtB8_3map11make_hasherBQ_jNtNtNtCsjj3dQwFOuTb_3std4hash6random11RandomStateE0ECs96InJeB3WBA_5gsgdt
librustc_driver-f8caf2bfd7396df8.so:_RINvMs6_NtCs7DYsST9UVP3_9hashbrown3rawINtB6_8RawTableTReuEE14reserve_rehashNCINvNtB8_3map11make_hasherBQ_uNtCsiHaVk9ZDPzl_10rustc_hash13FxBuildHasherE0ECsjdyqsEEf0cE_10rustc_span
librustc_driver-f8caf2bfd7396df8.so:_RINvMs6_NtCs7DYsST9UVP3_9hashbrown3rawINtB6_8RawTableTReuEE14reserve_rehashNCINvNtB8_3map11make_hasherBQ_uNtNtNtCsjj3dQwFOuTb_3std4hash6random11RandomStateE0ECs96InJeB3WBA_5gsgdt
librustc_driver-f8caf2bfd7396df8.so:_RINvMs6_NtCs7DYsST9UVP3_9hashbrown3rawINtB6_8RawTableTReyEE14reserve_rehashNCINvNtB8_3map11make_hasherBQ_yNtNtNtCsjj3dQwFOuTb_3std4hash6random11RandomStateE0ECsjcIbwyOWlC2_17rustc_codegen_ssa
librustc_driver-f8caf2bfd7396df8.so:_RINvMs6_NtCs7DYsST9UVP3_9hashbrown3rawINtB6_8RawTableTRjuEE14reserve_rehashNCINvNtB8_3map11make_hasherBQ_uNtCsiHaVk9ZDPzl_10rustc_hash13FxBuildHasherE0ECs25h6OjkxBzy_18rustc_hir_analysis
librustc_driver-f8caf2bfd7396df8.so:_RINvMs6_NtCs7DYsST9UVP3_9hashbrown3rawINtB6_8RawTableTTINtNtCs19MuVdBY7V6_5alloc6borrow3CoweEINtCslDCsxSJG9GM_8smallvec8SmallVecARNtNtNtCseuJrGsAzkDK_18rustc_codegen_llvm4llvm3ffi4Typej2_EETB23_RNtB26_5ValueEEE14reserve_rehashNCINvNtB8_3map11make_hasherBQ_B31_NtCsiHaVk9ZDPzl_10rustc_hash13FxBuildHasherE0EB2a_
librustc_driver-f8caf2bfd7396df8.so:_RINvMs6_NtCs7DYsST9UVP3_9hashbrown3rawINtB6_8RawTableTTNtCs2t38KIHyE4j_13rustc_type_ir13DebruijnIndexNtNtCsbnIUe8x9cNz_12rustc_middle2ty2TyEB1B_EE14reserve_rehashNCINvNtB8_3map11make_hasherBQ_B1B_NtCsiHaVk9ZDPzl_10rustc_hash13FxBuildHasherE0EB1F_
librustc_driver-f8caf2bfd7396df8.so:_RINvMs6_NtCs7DYsST9UVP3_9hashbrown3rawINtB6_8RawTableTTNtCs2t38KIHyE4j_13rustc_type_ir8VarianceNtNtCsbnIUe8x9cNz_12rustc_middle2ty2TyB1v_EuEE14reserve_rehashNCINvNtB8_3map11make_hasherBQ_uNtCsiHaVk9ZDPzl_10rustc_hash13FxBuildHasherE0ECs1rNb7bG4Xia_11rustc_infer
librustc_driver-f8caf2bfd7396df8.so:_RINvMs6_NtCs7DYsST9UVP3_9hashbrown3rawINtB6_8RawTableTTNtCsbsQIxG12Hvf_16intl_pluralrules14PluralRuleTypeENtNtNtCscYpAsuBFlON_13fluent_bundle5types6plural11PluralRulesEE14reserve_rehashNCINvNtB8_3map11make_hasherBQ_B1G_NtNtNtCsjj3dQwFOuTb_3std4hash6random11RandomStateE0ECsdEUoebXq6qL_12rustc_errors
librustc_driver-f8caf2bfd7396df8.so:_RINvMs6_NtCs7DYsST9UVP3_9hashbrown3rawINtB6_8RawTableTTNtCsjdyqsEEf0cE_10rustc_span6AttrIdtEuEE14reserve_rehashNCINvNtB8_3map11make_hasherBQ_uNtCsiHaVk9ZDPzl_10rustc_hash13FxBuildHasherE0ECsd1JD1uUqwgV_10rustc_lint
librustc_driver-f8caf2bfd7396df8.so:_RINvMs6_NtCs7DYsST9UVP3_9hashbrown3rawINtB6_8RawTableTTNtCsjdyqsEEf0cE_10rustc_span7BytePosBR_NtNtCs19MuVdBY7V6_5alloc6string6StringEuEE14reserve_rehashNCINvNtB8_3map11make_hasherBQ_uNtCsiHaVk9ZDPzl_10rustc_hash13FxBuildHasherE0ECsa5VOI9QU9vn_11rustc_parse
librustc_driver-f8caf2bfd7396df8.so:_RINvMs6_NtCs7DYsST9UVP3_9hashbrown3rawINtB6_8RawTableTTNtCsjdyqsEEf0cE_10rustc_span7BytePosBR_NtNtCs19MuVdBY7V6_5alloc6string6StringEuEE14reserve_rehashNCINvNtB8_3map11make_hasherBQ_uNtCsiHaVk9ZDPzl_10rustc_hash13FxBuildHasherE0ECsbnIUe8x9cNz_12rustc_middle
librustc_driver-f8caf2bfd7396df8.so:_RINvMs6_NtCs7DYsST9UVP3_9hashbrown3rawINtB6_8RawTableTTNtNtCs19MuVdBY7V6_5alloc6string6StringNtNtCsjdyqsEEf0cE_10rustc_span6def_id5DefIdEuEE14reserve_rehashNCINvNtB8_3map11make_hasherBQ_uNtCsiHaVk9ZDPzl_10rustc_hash13FxBuildHasherE0ECscglkemFQPVF_21rustc_trait_selection
librustc_driver-f8caf2bfd7396df8.so:_RINvMs6_NtCs7DYsST9UVP3_9hashbrown3rawINtB6_8RawTableTTNtNtCs2t38KIHyE4j_13rustc_type_ir11region_kind9RegionVidBR_EuEE14reserve_rehashNCINvNtB8_3map11make_hasherBQ_uNtCsiHaVk9ZDPzl_10rustc_hash13FxBuildHasherE0ECsfTLCRcPlsnU_14rustc_borrowck
librustc_driver-f8caf2bfd7396df8.so:_RINvMs6_NtCs7DYsST9UVP3_9hashbrown3rawINtB6_8RawTableTTNtNtCs2t38KIHyE4j_13rustc_type_ir6binder17BoundVarIndexKindNtNtNtCsbnIUe8x9cNz_12rustc_middle2ty6region11BoundRegionEuEE14reserve_rehashNCINvNtB8_3map11make_hasherBQ_uNtCsiHaVk9ZDPzl_10rustc_hash13FxBuildHasherE0EB1U_
librustc_driver-f8caf2bfd7396df8.so:_RINvMs6_NtCs7DYsST9UVP3_9hashbrown3rawINtB6_8RawTableTTNtNtCs5CCFvyG5imu_18rustc_mir_dataflow10move_paths13MovePathIndexNtBT_11MoveSubPathEBR_EE14reserve_rehashNCINvNtB8_3map11make_hasherBQ_BR_NtCsiHaVk9ZDPzl_10rustc_hash13FxBuildHasherE0EBV_
librustc_driver-f8caf2bfd7396df8.so:_RINvMs6_NtCs7DYsST9UVP3_9hashbrown3rawINtB6_8RawTableTTNtNtCs5CCFvyG5imu_18rustc_mir_dataflow14value_analysis10PlaceIndexNtBT_9TrackElemEBR_EE14reserve_rehashNCINvNtB8_3map11make_hasherBQ_BR_NtCsiHaVk9ZDPzl_10rustc_hash13FxBuildHasherE0EBV_
librustc_driver-f8caf2bfd7396df8.so:_RINvMs6_NtCs7DYsST9UVP3_9hashbrown3rawINtB6_8RawTableTTNtNtCsbnIUe8x9cNz_12rustc_middle2ty2TyBR_EuEE14reserve_rehashNCINvNtB8_3map11make_hasherBQ_uNtCsiHaVk9ZDPzl_10rustc_hash13FxBuildHasherE0ECsd1JD1uUqwgV_10rustc_lint
librustc_driver-f8caf2bfd7396df8.so:_RINvMs6_NtCs7DYsST9UVP3_9hashbrown3rawINtB6_8RawTableTTNtNtCsbnIUe8x9cNz_12rustc_middle2ty2TyINtNtCs9WsFjTlRn02_4core6option6OptionINtNtCs2t38KIHyE4j_13rustc_type_ir9predicate19ExistentialTraitRefNtNtBT_7context6TyCtxtEEERNtNtNtCseuJrGsAzkDK_18rustc_codegen_llvm4llvm3ffi5ValueEE14reserve_rehashNCINvNtB8_3map11make_hasherBQ_B3x_NtCsiHaVk9ZDPzl_10rustc_hash13FxBuildHasherE0EB3E_
librustc_driver-f8caf2bfd7396df8.so:_RINvMs6_NtCs7DYsST9UVP3_9hashbrown3rawINtB6_8RawTableTTNtNtCsbnIUe8x9cNz_12rustc_middle2ty2TyINtNtCs9WsFjTlRn02_4core6option6OptionNtNtNtCs3WhD79dQ5JG_9rustc_abi6layout2ty10VariantIdxEERNtNtNtCseuJrGsAzkDK_18rustc_codegen_llvm4llvm3ffi4TypeEE14reserve_rehashNCINvNtB8_3map11make_hasherBQ_B2X_NtCsiHaVk9ZDPzl_10rustc_hash13FxBuildHasherE0EB34_
librustc_driver-f8caf2bfd7396df8.so:_RINvMs6_NtCs7DYsST9UVP3_9hashbrown3rawINtB6_8RawTableTTNtNtCsbnIUe8x9cNz_12rustc_middle2ty2TyNtCs2t38KIHyE4j_13rustc_type_ir8VariancebEBR_EE14reserve_rehashNCINvNtB8_3map11make_hasherBQ_BR_NtCsiHaVk9ZDPzl_10rustc_hash13FxBuildHasherE0ECs1rNb7bG4Xia_11rustc_infer
librustc_driver-f8caf2bfd7396df8.so:_RINvMs6_NtCs7DYsST9UVP3_9hashbrown3rawINtB6_8RawTableTTNtNtCsbnIUe8x9cNz_12rustc_middle2ty8ParamEnvINtNtCs2t38KIHyE4j_13rustc_type_ir6binder6BinderNtNtBT_7context6TyCtxtINtNtB1E_9predicate14TraitPredicateB2l_EEEINtNtCshF5AtUv7kVK_18rustc_query_system5cache11WithDepNodeNtNtNtBV_6traits6select16EvaluationResultEEE14reserve_rehashNCINvNtB8_3map11make_hasherBQ_B3n_NtCsiHaVk9ZDPzl_10rustc_hash13FxBuildHasherE0ECscglkemFQPVF_21rustc_trait_selection
librustc_driver-f8caf2bfd7396df8.so:_RINvMs6_NtCs7DYsST9UVP3_9hashbrown3rawINtB6_8RawTableTTNtNtCsbnIUe8x9cNz_12rustc_middle2ty8ParamEnvINtNtCs2t38KIHyE4j_13rustc_type_ir9predicate14TraitPredicateNtNtBT_7context6TyCtxtEEINtNtCshF5AtUv7kVK_18rustc_query_system5cache11WithDepNodeINtNtCs9WsFjTlRn02_4core6result6ResultINtNtB3W_6option6OptionNtNtNtBV_6traits6select18SelectionCandidateENtB4U_14SelectionErrorEEEE14reserve_rehashNCINvNtB8_3map11make_hasherBQ_B2V_NtCsiHaVk9ZDPzl_10rustc_hash13FxBuildHasherE0ECscglkemFQPVF_21rustc_trait_selection
librustc_driver-f8caf2bfd7396df8.so:_RINvMs6_NtCs7DYsST9UVP3_9hashbrown3rawINtB6_8RawTableTTNtNtCsbnIUe8x9cNz_12rustc_middle2ty9TypingEnvINtNtCs2t38KIHyE4j_13rustc_type_ir6binder6BinderNtNtBT_7context6TyCtxtINtNtB1F_9predicate14TraitPredicateB2m_EEEINtNtCshF5AtUv7kVK_18rustc_query_system5cache11WithDepNodeNtNtNtBV_6traits6select16EvaluationResultEEE14reserve_rehashNCINvNtB8_3map11make_hasherBQ_B3o_NtCsiHaVk9ZDPzl_10rustc_hash13FxBuildHasherE0ECscglkemFQPVF_21rustc_trait_selection
librustc_driver-f8caf2bfd7396df8.so:_RINvMs6_NtCs7DYsST9UVP3_9hashbrown3rawINtB6_8RawTableTTNtNtCsbnIUe8x9cNz_12rustc_middle2ty9TypingEnvINtNtCs2t38KIHyE4j_13rustc_type_ir9predicate14TraitPredicateNtNtBT_7context6TyCtxtEEINtNtCshF5AtUv7kVK_18rustc_query_system5cache11WithDepNodeINtNtCs9WsFjTlRn02_4core6result6ResultINtNtB3X_6option6OptionNtNtNtBV_6traits6select18SelectionCandidateENtB4V_14SelectionErrorEEEE14reserve_rehashNCINvNtB8_3map11make_hasherBQ_B2W_NtCsiHaVk9ZDPzl_10rustc_hash13FxBuildHasherE0ECscglkemFQPVF_21rustc_trait_selection
librustc_driver-f8caf2bfd7396df8.so:_RINvMs6_NtCs7DYsST9UVP3_9hashbrown3rawINtB6_8RawTableTTNtNtCsbnIUe8x9cNz_12rustc_middle3mir10BasicBlockNtNtCs3pEzLKeUfxb_19rustc_mir_transform14jump_threading14ConditionIndexEBR_EE14reserve_rehashNCINvNtB8_3map11make_hasherBQ_BR_NtCsiHaVk9ZDPzl_10rustc_hash13FxBuildHasherE0EB1H_
librustc_driver-f8caf2bfd7396df8.so:_RINvMs6_NtCs7DYsST9UVP3_9hashbrown3rawINtB6_8RawTableTTNtNtCsbnIUe8x9cNz_12rustc_middle3mir5LocalNtBT_8LocationEuEE14reserve_rehashNCINvNtB8_3map11make_hasherBQ_uNtCsiHaVk9ZDPzl_10rustc_hash13FxBuildHasherE0ECs3pEzLKeUfxb_19rustc_mir_transform
librustc_driver-f8caf2bfd7396df8.so:_RINvMs6_NtCs7DYsST9UVP3_9hashbrown3rawINtB6_8RawTableTTNtNtCsbnIUe8x9cNz_12rustc_middle3mir8LocationNtNtBT_6syntax5PlaceENtNtBT_6consts5ConstEE14reserve_rehashNCINvNtB8_3map11make_hasherBQ_B1V_NtCsiHaVk9ZDPzl_10rustc_hash13FxBuildHasherE0ECs3pEzLKeUfxb_19rustc_mir_transform
librustc_driver-f8caf2bfd7396df8.so:_RINvMs6_NtCs7DYsST9UVP3_9hashbrown3rawINtB6_8RawTableTTNtNtCsjdyqsEEf0cE_10rustc_span13span_encoding4SpanINtNtCs9WsFjTlRn02_4core6option6OptionBR_EEuEE14reserve_rehashNCINvNtB8_3map11make_hasherBQ_uNtCsiHaVk9ZDPzl_10rustc_hash13FxBuildHasherE0ECscglkemFQPVF_21rustc_trait_selection
librustc_driver-f8caf2bfd7396df8.so:_RINvMs6_NtCs7DYsST9UVP3_9hashbrown3rawINtB6_8RawTableTTNtNtCsjdyqsEEf0cE_10rustc_span6def_id10LocalDefIdNtNtCs2Pf1rSX1q4A_9rustc_hir11definitions11DefPathDataEmEE14reserve_rehashNCINvNtB8_3map11make_hasherBQ_mNtCsiHaVk9ZDPzl_10rustc_hash13FxBuildHasherE0EB1I_
librustc_driver-f8caf2bfd7396df8.so:_RINvMs6_NtCs7DYsST9UVP3_9hashbrown3rawINtB6_8RawTableTTNtNtCsjdyqsEEf0cE_10rustc_span6def_id13LocalModDefIdBR_EuEE14reserve_rehashNCINvNtB8_3map11make_hasherBQ_uNtCsiHaVk9ZDPzl_10rustc_hash13FxBuildHasherE0ECseCkHXdnXngK_13rustc_privacy
librustc_driver-f8caf2bfd7396df8.so:_RINvMs6_NtCs7DYsST9UVP3_9hashbrown3rawINtB6_8RawTableTTNtNtCsjdyqsEEf0cE_10rustc_span6def_id5DefIdNtNtCs19MuVdBY7V6_5alloc6string6StringEuEE14reserve_rehashNCINvNtB8_3map11make_hasherBQ_uNtCsiHaVk9ZDPzl_10rustc_hash13FxBuildHasherE0ECscglkemFQPVF_21rustc_trait_selection
librustc_driver-f8caf2bfd7396df8.so:_RINvMs6_NtCs7DYsST9UVP3_9hashbrown3rawINtB6_8RawTableTTNtNtCsjdyqsEEf0cE_10rustc_span6def_id5DefIdRINtNtNtCsbnIUe8x9cNz_12rustc_middle2ty4list7RawListuNtNtB1E_12generic_args10GenericArgEENtB1E_2TyEE14reserve_rehashNCINvNtB8_3map11make_hasherBQ_B2Z_NtCsiHaVk9ZDPzl_10rustc_hash13FxBuildHasherE0EB1G_
librustc_driver-f8caf2bfd7396df8.so:_RINvMs6_NtCs7DYsST9UVP3_9hashbrown3rawINtB6_8RawTableTTNtNtCsjdyqsEEf0cE_10rustc_span6def_id5DefIdRSNtNtNtCsbnIUe8x9cNz_12rustc_middle2ty12generic_args10GenericArgEjEE14reserve_rehashNCINvNtB8_3map11make_hasherBQ_jNtCsiHaVk9ZDPzl_10rustc_hash13FxBuildHasherE0ECsafwZ3zX1Yxi_21rustc_symbol_mangling
librustc_driver-f8caf2bfd7396df8.so:_RINvMs6_NtCs7DYsST9UVP3_9hashbrown3rawINtB6_8RawTableTTNtNtCsjdyqsEEf0cE_10rustc_span6def_id5DefIdbENtNtBV_6symbol6SymbolEE14reserve_rehashNCINvNtB8_3map11make_hasherBQ_B1A_NtCsiHaVk9ZDPzl_10rustc_hash13FxBuildHasherE0ECshohWIpJhPWk_18rustc_monomorphize
librustc_driver-f8caf2bfd7396df8.so:_RINvMs6_NtCs7DYsST9UVP3_9hashbrown3rawINtB6_8RawTableTTNtNtCsjdyqsEEf0cE_10rustc_span6symbol6SymbolNtNtBV_7hygiene9MacroKindENtNtCsjjbouxysk1D_12rustc_expand5stats9MacroStatEE14reserve_rehashNCINvNtB8_3map11make_hasherBQ_B1Z_NtCsiHaVk9ZDPzl_10rustc_hash13FxBuildHasherE0EB23_
librustc_driver-f8caf2bfd7396df8.so:_RINvMs6_NtCs7DYsST9UVP3_9hashbrown3rawINtB6_8RawTableTTNtNtCsjdyqsEEf0cE_10rustc_span6symbol6SymbolNtNtCs2Pf1rSX1q4A_9rustc_hir3def9NamespaceEINtNtCs9WsFjTlRn02_4core6option6OptionINtB1B_3ResNtNtCs3XpY8PowsPH_9rustc_ast7node_id6NodeIdEEEE14reserve_rehashNCINvNtB8_3map11make_hasherBQ_B2g_NtCsiHaVk9ZDPzl_10rustc_hash13FxBuildHasherE0ECskmy2rFhdDOz_14rustc_metadata
librustc_driver-f8caf2bfd7396df8.so:_RINvMs6_NtCs7DYsST9UVP3_9hashbrown3rawINtB6_8RawTableTTNtNtCsjdyqsEEf0cE_10rustc_span7hygiene13SyntaxContextNtBT_6ExpnIdNtBT_12TransparencyEBR_EE14reserve_rehashNCINvNtB8_3map11make_hasherBQ_BR_NtCsiHaVk9ZDPzl_10rustc_hash13FxBuildHasherE0EBV_
librustc_driver-f8caf2bfd7396df8.so:_RINvMs6_NtCs7DYsST9UVP3_9hashbrown3rawINtB6_8RawTableTTNtNtCsjj3dQwFOuTb_3std4time10SystemTimeNtNtBV_4path7PathBufEINtNtCs9WsFjTlRn02_4core6option6OptionNtNtNtCsiN8jfhUhbz9_21rustc_data_structures5flock5linux4LockEEE14reserve_rehashNCINvNtB8_3map11make_hasherBQ_B1P_NtCsiHaVk9ZDPzl_10rustc_hash13FxBuildHasherE0ECs8tAGCjRPvUB_17rustc_incremental
librustc_driver-f8caf2bfd7396df8.so:_RINvMs6_NtCs7DYsST9UVP3_9hashbrown3rawINtB6_8RawTableTTNtNtNtCsbnIUe8x9cNz_12rustc_middle3mir9interpret11GlobalAllocjENtBT_7AllocIdEE14reserve_rehashNCINvNtB8_3map11make_hasherBQ_B1S_NtCsiHaVk9ZDPzl_10rustc_hash13FxBuildHasherE0EBX_
librustc_driver-f8caf2bfd7396df8.so:_RINvMs6_NtCs7DYsST9UVP3_9hashbrown3rawINtB6_8RawTableTTPuNtNtCsiN8jfhUhbz9_21rustc_data_structures13stable_hasher15HashingControlsENtNtBX_11fingerprint11FingerprintEE14reserve_rehashNCINvNtB8_3map11make_hasherBQ_B25_NtCsiHaVk9ZDPzl_10rustc_hash13FxBuildHasherE0ECsbnIUe8x9cNz_12rustc_middle
librustc_driver-f8caf2bfd7396df8.so:_RINvMs6_NtCs7DYsST9UVP3_9hashbrown3rawINtB6_8RawTableTTRINtNtNtCsbnIUe8x9cNz_12rustc_middle2ty4list7RawListNtBV_8TypeInfoNtNtBX_9predicate6ClauseERSNtNtBX_12generic_args10GenericArgEBR_EE14reserve_rehashNCINvNtB8_3map11make_hasherBQ_BR_NtCsiHaVk9ZDPzl_10rustc_hash13FxBuildHasherE0ECs1rNb7bG4Xia_11rustc_infer
librustc_driver-f8caf2bfd7396df8.so:_RINvMs6_NtCs7DYsST9UVP3_9hashbrown3rawINtB6_8RawTableTTRNtNtNtCseuJrGsAzkDK_18rustc_codegen_llvm4llvm3ffi8MetadatajEBR_EE14reserve_rehashNCINvNtB8_3map11make_hasherBQ_BR_NtCsiHaVk9ZDPzl_10rustc_hash13FxBuildHasherE0EBY_
librustc_driver-f8caf2bfd7396df8.so:_RINvMs6_NtCs7DYsST9UVP3_9hashbrown3rawINtB6_8RawTableTTjNtNtCsiN8jfhUhbz9_21rustc_data_structures13stable_hasher15HashingControlsENtNtBW_11fingerprint11FingerprintEE14reserve_rehashNCINvNtB8_3map11make_hasherBQ_B24_NtCsiHaVk9ZDPzl_10rustc_hash13FxBuildHasherE0ECsbnIUe8x9cNz_12rustc_middle
librustc_driver-f8caf2bfd7396df8.so:_RINvMs6_NtCs7DYsST9UVP3_9hashbrown3rawINtB6_8RawTableTTyhEINtNtCs19MuVdBY7V6_5alloc5boxed3BoxShEEE14reserve_rehashNCINvNtB8_3map11make_hasherBQ_BU_NtNtNtCsjj3dQwFOuTb_3std4hash6random11RandomStateE0ECsjcIbwyOWlC2_17rustc_codegen_ssa
librustc_driver-f8caf2bfd7396df8.so:_RINvMs6_NtCs7DYsST9UVP3_9hashbrown3rawINtB6_8RawTableTTyyEINtNtCs19MuVdBY7V6_5alloc5boxed3BoxShEEE14reserve_rehashNCINvNtB8_3map11make_hasherBQ_BU_NtNtNtCsjj3dQwFOuTb_3std4hash6random11RandomStateE0ECsjcIbwyOWlC2_17rustc_codegen_ssa
librustc_driver-f8caf2bfd7396df8.so:_RINvMs6_NtCs7DYsST9UVP3_9hashbrown3rawINtB6_8RawTableThINtNtNtCs19MuVdBY7V6_5alloc11collections9vec_deque8VecDequeTNtNtCs7zmaawPWeXS_14pulldown_cmark4tree9TreeIndexbbEEEE14reserve_rehashNCINvNtB8_3map11make_hasherhBR_NtNtNtCsjj3dQwFOuTb_3std4hash6random11RandomStateE0EB1T_
librustc_driver-f8caf2bfd7396df8.so:_RINvMs6_NtCs7DYsST9UVP3_9hashbrown3rawINtB6_8RawTableTjINtNtCs19MuVdBY7V6_5alloc3vec3VechEEE14reserve_rehashNCINvNtB8_3map11make_hasherjBR_NtNtNtCsjj3dQwFOuTb_3std4hash6random11RandomStateE0ECsiwa6XAY8u2U_6object
librustc_driver-f8caf2bfd7396df8.so:_RINvMs6_NtCs7DYsST9UVP3_9hashbrown3rawINtB6_8RawTableTjINtNtCsiN8jfhUhbz9_21rustc_data_structures6marker15IntoDynSyncSendTINtCsjcIbwyOWlC2_17rustc_codegen_ssa13ModuleCodegenNtCseuJrGsAzkDK_18rustc_codegen_llvm10ModuleLlvmEyEEEE14reserve_rehashNCINvNtB8_3map11make_hasherjBR_NtCsiHaVk9ZDPzl_10rustc_hash13FxBuildHasherE0EB2N_
librustc_driver-f8caf2bfd7396df8.so:_RINvMs6_NtCs7DYsST9UVP3_9hashbrown3rawINtB6_8RawTableTjINtNtNtCs19MuVdBY7V6_5alloc11collections9vec_deque8VecDequeNtNtCs7zmaawPWeXS_14pulldown_cmark4tree9TreeIndexEEE14reserve_rehashNCINvNtB8_3map11make_hasherjBR_NtNtNtCsjj3dQwFOuTb_3std4hash6random11RandomStateE0EB1S_
librustc_driver-f8caf2bfd7396df8.so:_RINvMs6_NtCs7DYsST9UVP3_9hashbrown3rawINtB6_8RawTableTjINtNtNtCs2t38KIHyE4j_13rustc_type_ir12search_graph12global_cache12WithOverflowNtNtNtCsbnIUe8x9cNz_12rustc_middle2ty7context6TyCtxtEEE14reserve_rehashNCINvNtB8_3map11make_hasherjBR_NtCsiHaVk9ZDPzl_10rustc_hash13FxBuildHasherE0ECscglkemFQPVF_21rustc_trait_selection
librustc_driver-f8caf2bfd7396df8.so:_RINvMs6_NtCs7DYsST9UVP3_9hashbrown3rawINtB6_8RawTableTjNtNtCsjdyqsEEf0cE_10rustc_span13span_encoding4SpanEE14reserve_rehashNCINvNtB8_3map11make_hasherjBR_NtCsiHaVk9ZDPzl_10rustc_hash13FxBuildHasherE0ECsjjbouxysk1D_12rustc_expand
librustc_driver-f8caf2bfd7396df8.so:_RINvMs6_NtCs7DYsST9UVP3_9hashbrown3rawINtB6_8RawTableTjNtNtCsjdyqsEEf0cE_10rustc_span6symbol6SymbolEE14reserve_rehashNCINvNtB8_3map11make_hasherjBR_NtCsiHaVk9ZDPzl_10rustc_hash13FxBuildHasherE0ECs1xGwrsmuMfH_20rustc_builtin_macros
librustc_driver-f8caf2bfd7396df8.so:_RINvMs6_NtCs7DYsST9UVP3_9hashbrown3rawINtB6_8RawTableTjNtNtNtCsdNRD4JEjVur_17annotate_snippets8renderer6render12ElementStyleEE14reserve_rehashNCINvNtB8_3map11make_hasherjBR_NtNtNtCsjj3dQwFOuTb_3std4hash6random11RandomStateE0EBX_
librustc_driver-f8caf2bfd7396df8.so:_RINvMs6_NtCs7DYsST9UVP3_9hashbrown3rawINtB6_8RawTableTjNtNtNtNtCsiwa6XAY8u2U_6object5write4coff6object13SymbolOffsetsEE14reserve_rehashNCINvNtB8_3map11make_hasherjBR_NtNtNtCsjj3dQwFOuTb_3std4hash6random11RandomStateE0EBZ_
librustc_driver-f8caf2bfd7396df8.so:_RINvMs6_NtCs7DYsST9UVP3_9hashbrown3rawINtB6_8RawTableTjjEE14reserve_rehashNCINvNtB8_3map11make_hasherjjNtCsiHaVk9ZDPzl_10rustc_hash13FxBuildHasherE0ECseuJrGsAzkDK_18rustc_codegen_llvm
librustc_driver-f8caf2bfd7396df8.so:_RINvMs6_NtCs7DYsST9UVP3_9hashbrown3rawINtB6_8RawTableTjuEE14reserve_rehashNCINvNtB8_3map11make_hasherjuNtCsiHaVk9ZDPzl_10rustc_hash13FxBuildHasherE0ECsa5VOI9QU9vn_11rustc_parse
librustc_driver-f8caf2bfd7396df8.so:_RINvMs6_NtCs7DYsST9UVP3_9hashbrown3rawINtB6_8RawTableTmNtNtNtCsbnIUe8x9cNz_12rustc_middle5query13on_disk_cache15AbsoluteBytePosEE14reserve_rehashNCINvNtB8_3map11make_hashermBR_NtCsiHaVk9ZDPzl_10rustc_hash13FxBuildHasherE0EBX_
librustc_driver-f8caf2bfd7396df8.so:_RINvMs6_NtCs7DYsST9UVP3_9hashbrown3rawINtB6_8RawTableTmjEE14reserve_rehashNCINvNtB8_3map11make_hashermjNtCsiHaVk9ZDPzl_10rustc_hash13FxBuildHasherE0ECsbnIUe8x9cNz_12rustc_middle
librustc_driver-f8caf2bfd7396df8.so:_RINvMs6_NtCs7DYsST9UVP3_9hashbrown3rawINtB6_8RawTableTmmEE14reserve_rehashNCINvNtB8_3map11make_hashermmNtCsiHaVk9ZDPzl_10rustc_hash13FxBuildHasherE0ECs25h6OjkxBzy_18rustc_hir_analysis
librustc_driver-f8caf2bfd7396df8.so:_RINvMs6_NtCs7DYsST9UVP3_9hashbrown3rawINtB6_8RawTableTmuEE14reserve_rehashNCINvNtB8_3map11make_hashermuNtCsiHaVk9ZDPzl_10rustc_hash13FxBuildHasherE0ECs25h6OjkxBzy_18rustc_hir_analysis
librustc_driver-f8caf2bfd7396df8.so:_RINvMs6_NtCs7DYsST9UVP3_9hashbrown3rawINtB6_8RawTableTouEE14reserve_rehashNCINvNtB8_3map11make_hasherouNtCsiHaVk9ZDPzl_10rustc_hash13FxBuildHasherE0ECs3pEzLKeUfxb_19rustc_mir_transform
librustc_driver-f8caf2bfd7396df8.so:_RINvMs6_NtCs7DYsST9UVP3_9hashbrown3rawINtB6_8RawTableTuNtNvCsdsSyqbQMhWS_20rustc_error_messages37fluent_value_from_str_list_sep_by_and23MemoizableListFormatterEE14reserve_rehashNCINvNtB8_3map11make_hasheruBR_NtNtNtCsjj3dQwFOuTb_3std4hash6random11RandomStateE0EBV_
librustc_driver-f8caf2bfd7396df8.so:_RINvMs6_NtCs9uhsTK9sLQH_9hashbrown3rawINtB6_8RawTablejE14reserve_rehashNCINvNtNtCs42Kw8IjNYDo_8indexmap3map4core19insert_bulk_no_growINtNtCs2t38KIHyE4j_13rustc_type_ir6binder6BinderNtNtNtCsbnIUe8x9cNz_12rustc_middle2ty7context6TyCtxtINtNtB2c_9predicate14TraitPredicateB2T_EENtNtNtCscglkemFQPVF_21rustc_trait_selection6traits6select21ProvisionalEvaluationE0EB4u_
librustc_driver-f8caf2bfd7396df8.so:_RINvMs6_NtCs9uhsTK9sLQH_9hashbrown3rawINtB6_8RawTablejE14reserve_rehashNCINvNtNtCs42Kw8IjNYDo_8indexmap3map4core19insert_bulk_no_growNtNtCs19MuVdBY7V6_5alloc6string6StringuE0ECs8tAGCjRPvUB_17rustc_incremental
librustc_driver-f8caf2bfd7396df8.so:_RINvMs6_NtCs9uhsTK9sLQH_9hashbrown3rawINtB6_8RawTablejE14reserve_rehashNCINvNtNtCs42Kw8IjNYDo_8indexmap3map4core19insert_bulk_no_growNtNtCsbnIUe8x9cNz_12rustc_middle3mir10SourceInfoNtNtCs3pEzLKeUfxb_19rustc_mir_transform8liveness6AccessE0EB2X_
librustc_driver-f8caf2bfd7396df8.so:_RINvMs6_NtCs9uhsTK9sLQH_9hashbrown3rawINtB6_8RawTablejE14reserve_rehashNCINvNtNtCs42Kw8IjNYDo_8indexmap3map4core19insert_bulk_no_growNtNtCsjdyqsEEf0cE_10rustc_span6def_id10LocalDefIduE0ECs3pEzLKeUfxb_19rustc_mir_transform
librustc_driver-f8caf2bfd7396df8.so:_RINvMs6_NtCs9uhsTK9sLQH_9hashbrown3rawINtB6_8RawTablejE14reserve_rehashNCINvNtNtCs42Kw8IjNYDo_8indexmap3map4core19insert_bulk_no_growNtNtCsjdyqsEEf0cE_10rustc_span6symbol6SymbolINtNtCs19MuVdBY7V6_5alloc3vec3VecNtNtB2b_13span_encoding4SpanEE0ECsixhzS6aZg4H_15rustc_interface
librustc_driver-f8caf2bfd7396df8.so:_RINvMs6_NtCs9uhsTK9sLQH_9hashbrown3rawINtB6_8RawTablejE14reserve_rehashNCINvNtNtCs42Kw8IjNYDo_8indexmap3map4core19insert_bulk_no_growNtNtNtCsbnIUe8x9cNz_12rustc_middle2ty12generic_args10GenericArguE0ECs25h6OjkxBzy_18rustc_hir_analysis
librustc_driver-f8caf2bfd7396df8.so:_RINvMs6_NtCs9uhsTK9sLQH_9hashbrown3rawINtB6_8RawTablejE14reserve_rehashNCINvNtNtCs42Kw8IjNYDo_8indexmap3map4core19insert_bulk_no_growNtNtNtCsbnIUe8x9cNz_12rustc_middle2ty9predicate6ClauseuE0ECs25h6OjkxBzy_18rustc_hir_analysis
librustc_driver-f8caf2bfd7396df8.so:_RINvMs6_NtCs9uhsTK9sLQH_9hashbrown3rawINtB6_8RawTablejE14reserve_rehashNCINvNtNtCs42Kw8IjNYDo_8indexmap3map4core19insert_bulk_no_growNtNtNtCsbnIUe8x9cNz_12rustc_middle2ty9predicate9PredicateuE0ECscglkemFQPVF_21rustc_trait_selection
librustc_driver-f8caf2bfd7396df8.so:_RINvMs6_NtCs9uhsTK9sLQH_9hashbrown3rawINtB6_8RawTablejE14reserve_rehashNCINvNtNtCs42Kw8IjNYDo_8indexmap3map4core19insert_bulk_no_growNtNtNtCsbnIUe8x9cNz_12rustc_middle3mir4mono8MonoItemNtB29_12MonoItemDataE0ECshohWIpJhPWk_18rustc_monomorphize
librustc_driver-f8caf2bfd7396df8.so:_RINvMs6_NtCs9uhsTK9sLQH_9hashbrown3rawINtB6_8RawTablejE14reserve_rehashNCINvNtNtCs42Kw8IjNYDo_8indexmap3map4core19insert_bulk_no_growNtNtNtCsbnIUe8x9cNz_12rustc_middle3mir4mono8MonoItemNtNtCsjdyqsEEf0cE_10rustc_span13span_encoding4SpanE0ECshohWIpJhPWk_18rustc_monomorphize
librustc_driver-f8caf2bfd7396df8.so:_RINvMs6_NtCs9uhsTK9sLQH_9hashbrown3rawINtB6_8RawTablejE14reserve_rehashNCINvNtNtCs42Kw8IjNYDo_8indexmap3map4core19insert_bulk_no_growTNtNtCs2Pf1rSX1q4A_9rustc_hir3def9NamespaceNtNtCsjdyqsEEf0cE_10rustc_span6symbol6SymbolEINtNtCs9WsFjTlRn02_4core6option6OptionNtNtB2S_6def_id5DefIdEE0ECsbnIUe8x9cNz_12rustc_middle
librustc_driver-f8caf2bfd7396df8.so:_RINvMs6_NtCs9uhsTK9sLQH_9hashbrown3rawINtB6_8RawTablejE14reserve_rehashNCINvNtNtCs42Kw8IjNYDo_8indexmap3map4core19insert_bulk_no_growTRNtNtCsjdyqsEEf0cE_10rustc_span6def_id5DefIdRNtNtCsd1JD1uUqwgV_10rustc_lint23impl_trait_overcaptures9ParamKindEuE0EB2V_
librustc_driver-f8caf2bfd7396df8.so:_RINvMs6_NtCs9uhsTK9sLQH_9hashbrown3rawINtB6_8RawTablejE14reserve_rehashNCINvNtNtCs42Kw8IjNYDo_8indexmap3map4core8get_hashINtNtCs19MuVdBY7V6_5alloc6borrow3CoweENtCsdsSyqbQMhWS_20rustc_error_messages12DiagArgValueE0ECsdEUoebXq6qL_12rustc_errors
librustc_driver-f8caf2bfd7396df8.so:_RINvMs6_NtCs9uhsTK9sLQH_9hashbrown3rawINtB6_8RawTablejE14reserve_rehashNCINvNtNtCs42Kw8IjNYDo_8indexmap3map4core8get_hashINtNtCs2t38KIHyE4j_13rustc_type_ir11fast_reject14SimplifiedTypeNtNtCsjdyqsEEf0cE_10rustc_span6def_id5DefIdEINtNtCs19MuVdBY7V6_5alloc3vec3VecB2W_EE0ECsbnIUe8x9cNz_12rustc_middle
librustc_driver-f8caf2bfd7396df8.so:_RINvMs6_NtCs9uhsTK9sLQH_9hashbrown3rawINtB6_8RawTablejE14reserve_rehashNCINvNtNtCs42Kw8IjNYDo_8indexmap3map4core8get_hashINtNtCs2t38KIHyE4j_13rustc_type_ir11fast_reject14SimplifiedTypeNtNtCsjdyqsEEf0cE_10rustc_span6def_id5DefIdEINtNtCs19MuVdBY7V6_5alloc3vec3VecNtB2Y_10LocalDefIdEE0ECs25h6OjkxBzy_18rustc_hir_analysis
librustc_driver-f8caf2bfd7396df8.so:_RINvMs6_NtCs9uhsTK9sLQH_9hashbrown3rawINtB6_8RawTablejE14reserve_rehashNCINvNtNtCs42Kw8IjNYDo_8indexmap3map4core8get_hashINtNtCs2t38KIHyE4j_13rustc_type_ir11fast_reject14SimplifiedTypeNtNtCsjdyqsEEf0cE_10rustc_span6def_id5DefIdEINtNtCskmy2rFhdDOz_14rustc_metadata5rmeta9LazyArrayNtB2Y_8DefIndexEE0EB3J_
librustc_driver-f8caf2bfd7396df8.so:_RINvMs6_NtCs9uhsTK9sLQH_9hashbrown3rawINtB6_8RawTablejE14reserve_rehashNCINvNtNtCs42Kw8IjNYDo_8indexmap3map4core8get_hashINtNtCs2t38KIHyE4j_13rustc_type_ir6binder6BinderNtNtNtCsbnIUe8x9cNz_12rustc_middle2ty7context6TyCtxtINtNtB20_9predicate14TraitPredicateB2H_EEINtB1e_8IndexMapNtNtCsjdyqsEEf0cE_10rustc_span6def_id5DefIdIB1W_B2H_NtB2L_4TermEINtNtCs9WsFjTlRn02_4core4hash18BuildHasherDefaultNtCsiHaVk9ZDPzl_10rustc_hash8FxHasherEEE0EB2N_
librustc_driver-f8caf2bfd7396df8.so:_RINvMs6_NtCs9uhsTK9sLQH_9hashbrown3rawINtB6_8RawTablejE14reserve_rehashNCINvNtNtCs42Kw8IjNYDo_8indexmap3map4core8get_hashINtNtCs2t38KIHyE4j_13rustc_type_ir6binder6BinderNtNtNtCsbnIUe8x9cNz_12rustc_middle2ty7context6TyCtxtINtNtB20_9predicate14TraitPredicateB2H_EENtNtNtCscglkemFQPVF_21rustc_trait_selection6traits6select21ProvisionalEvaluationE0EB4i_
librustc_driver-f8caf2bfd7396df8.so:_RINvMs6_NtCs9uhsTK9sLQH_9hashbrown3rawINtB6_8RawTablejE14reserve_rehashNCINvNtNtCs42Kw8IjNYDo_8indexmap3map4core8get_hashINtNtCs2t38KIHyE4j_13rustc_type_ir7ty_kind7AliasTyNtNtNtCsbnIUe8x9cNz_12rustc_middle2ty7context6TyCtxtEuE0ECs25h6OjkxBzy_18rustc_hir_analysis
librustc_driver-f8caf2bfd7396df8.so:_RINvMs6_NtCs9uhsTK9sLQH_9hashbrown3rawINtB6_8RawTablejE14reserve_rehashNCINvNtNtCs42Kw8IjNYDo_8indexmap3map4core8get_hashINtNtCs2t38KIHyE4j_13rustc_type_ir9opaque_ty13OpaqueTypeKeyNtNtNtCsbnIUe8x9cNz_12rustc_middle2ty7context6TyCtxtENtB2W_21ProvisionalHiddenTypeE0ECs1rNb7bG4Xia_11rustc_infer
librustc_driver-f8caf2bfd7396df8.so:_RINvMs6_NtCs9uhsTK9sLQH_9hashbrown3rawINtB6_8RawTablejE14reserve_rehashNCINvNtNtCs42Kw8IjNYDo_8indexmap3map4core8get_hashINtNtCs2t38KIHyE4j_13rustc_type_ir9opaque_ty13OpaqueTypeKeyNtNtNtCsbnIUe8x9cNz_12rustc_middle2ty7context6TyCtxtETB1V_NtNtCsjdyqsEEf0cE_10rustc_span13span_encoding4SpanEE0ECsfTLCRcPlsnU_14rustc_borrowck
librustc_driver-f8caf2bfd7396df8.so:_RINvMs6_NtCs9uhsTK9sLQH_9hashbrown3rawINtB6_8RawTablejE14reserve_rehashNCINvNtNtCs42Kw8IjNYDo_8indexmap3map4core8get_hashINtNtCs2t38KIHyE4j_13rustc_type_ir9predicate17OutlivesPredicateNtNtNtCsbnIUe8x9cNz_12rustc_middle2ty7context6TyCtxtNtNtB30_12generic_args10GenericArgENtNtCsjdyqsEEf0cE_10rustc_span13span_encoding4SpanE0ECs25h6OjkxBzy_18rustc_hir_analysis
librustc_driver-f8caf2bfd7396df8.so:_RINvMs6_NtCs9uhsTK9sLQH_9hashbrown3rawINtB6_8RawTablejE14reserve_rehashNCINvNtNtCs42Kw8IjNYDo_8indexmap3map4core8get_hashINtNtCs2t38KIHyE4j_13rustc_type_ir9predicate17OutlivesPredicateNtNtNtCsbnIUe8x9cNz_12rustc_middle2ty7context6TyCtxtNtNtNtCs1rNb7bG4Xia_11rustc_infer5infer18region_constraints11GenericKindEuE0ECscglkemFQPVF_21rustc_trait_selection
librustc_driver-f8caf2bfd7396df8.so:_RINvMs6_NtCs9uhsTK9sLQH_9hashbrown3rawINtB6_8RawTablejE14reserve_rehashNCINvNtNtCs42Kw8IjNYDo_8indexmap3map4core8get_hashINtNtCs9WsFjTlRn02_4core6option6OptionNtNtCsjdyqsEEf0cE_10rustc_span6def_id5DefIdENtNtCs19MuVdBY7V6_5alloc6string6StringE0ECsbwev6Zm5f0k_13rustc_resolve
librustc_driver-f8caf2bfd7396df8.so:_RINvMs6_NtCs9uhsTK9sLQH_9hashbrown3rawINtB6_8RawTablejE14reserve_rehashNCINvNtNtCs42Kw8IjNYDo_8indexmap3map4core8get_hashINtNtCsbnIUe8x9cNz_12rustc_middle2ty11PlaceholderNtB1Y_10BoundConstEB2I_E0ECscglkemFQPVF_21rustc_trait_selection
librustc_driver-f8caf2bfd7396df8.so:_RINvMs6_NtCs9uhsTK9sLQH_9hashbrown3rawINtB6_8RawTablejE14reserve_rehashNCINvNtNtCs42Kw8IjNYDo_8indexmap3map4core8get_hashINtNtCsbnIUe8x9cNz_12rustc_middle2ty11PlaceholderNtNtB1Y_3sty7BoundTyEB2I_E0ECscglkemFQPVF_21rustc_trait_selection
librustc_driver-f8caf2bfd7396df8.so:_RINvMs6_NtCs9uhsTK9sLQH_9hashbrown3rawINtB6_8RawTablejE14reserve_rehashNCINvNtNtCs42Kw8IjNYDo_8indexmap3map4core8get_hashINtNtCsbnIUe8x9cNz_12rustc_middle2ty11PlaceholderNtNtB1Y_6region11BoundRegionEB2I_E0ECscglkemFQPVF_21rustc_trait_selection
librustc_driver-f8caf2bfd7396df8.so:_RINvMs6_NtCs9uhsTK9sLQH_9hashbrown3rawINtB6_8RawTablejE14reserve_rehashNCINvNtNtCs42Kw8IjNYDo_8indexmap3map4core8get_hashINtNtCsbnIUe8x9cNz_12rustc_middle2ty11PlaceholderNtNtB1Y_6region11BoundRegionEuE0ECsfTLCRcPlsnU_14rustc_borrowck
librustc_driver-f8caf2bfd7396df8.so:_RINvMs6_NtCs9uhsTK9sLQH_9hashbrown3rawINtB6_8RawTablejE14reserve_rehashNCINvNtNtCs42Kw8IjNYDo_8indexmap3map4core8get_hashINtNtCsiN8jfhUhbz9_21rustc_data_structures6intern8InternedNtCsbwev6Zm5f0k_13rustc_resolve15NameBindingDataENtNtNtCsbnIUe8x9cNz_12rustc_middle6middle7privacy19EffectiveVisibilityE0EB2T_
librustc_driver-f8caf2bfd7396df8.so:_RINvMs6_NtCs9uhsTK9sLQH_9hashbrown3rawINtB6_8RawTablejE14reserve_rehashNCINvNtNtCs42Kw8IjNYDo_8indexmap3map4core8get_hashINtNtCsiN8jfhUhbz9_21rustc_data_structures6intern8InternedNtNtCsbwev6Zm5f0k_13rustc_resolve7imports10ImportDataEuE0EB2V_
librustc_driver-f8caf2bfd7396df8.so:_RINvMs6_NtCs9uhsTK9sLQH_9hashbrown3rawINtB6_8RawTablejE14reserve_rehashNCINvNtNtCs42Kw8IjNYDo_8indexmap3map4core8get_hashINtNtCskY7KG58jvqp_15rustc_transmute6layout9ReferenceNtNtNtCsbnIUe8x9cNz_12rustc_middle2ty6region6RegionNtB2Q_2TyENtNtB1Y_3dfa5StateE0EB20_
librustc_driver-f8caf2bfd7396df8.so:_RINvMs6_NtCs9uhsTK9sLQH_9hashbrown3rawINtB6_8RawTablejE14reserve_rehashNCINvNtNtCs42Kw8IjNYDo_8indexmap3map4core8get_hashNtCs2t38KIHyE4j_13rustc_type_ir13UniverseIndexNtNtNtCsfTLCRcPlsnU_14rustc_borrowck11diagnostics19bound_region_errors12UniverseInfoE0EB2L_
librustc_driver-f8caf2bfd7396df8.so:_RINvMs6_NtCs9uhsTK9sLQH_9hashbrown3rawINtB6_8RawTablejE14reserve_rehashNCINvNtNtCs42Kw8IjNYDo_8indexmap3map4core8get_hashNtCs2t38KIHyE4j_13rustc_type_ir8BoundVarNtNtNtCsbnIUe8x9cNz_12rustc_middle2ty12generic_args10GenericArgE0ECs25h6OjkxBzy_18rustc_hir_analysis
librustc_driver-f8caf2bfd7396df8.so:_RINvMs6_NtCs9uhsTK9sLQH_9hashbrown3rawINtB6_8RawTablejE14reserve_rehashNCINvNtNtCs42Kw8IjNYDo_8indexmap3map4core8get_hashNtCs2t38KIHyE4j_13rustc_type_ir8BoundVarNtNtNtCsbnIUe8x9cNz_12rustc_middle2ty3sty17BoundVariableKindE0EB2F_
librustc_driver-f8caf2bfd7396df8.so:_RINvMs6_NtCs9uhsTK9sLQH_9hashbrown3rawINtB6_8RawTablejE14reserve_rehashNCINvNtNtCs42Kw8IjNYDo_8indexmap3map4core8get_hashNtCs6PgSWbCCKI2_15rustc_lint_defs17LintExpectationIduE0ECsdEUoebXq6qL_12rustc_errors
librustc_driver-f8caf2bfd7396df8.so:_RINvMs6_NtCs9uhsTK9sLQH_9hashbrown3rawINtB6_8RawTablejE14reserve_rehashNCINvNtNtCs42Kw8IjNYDo_8indexmap3map4core8get_hashNtCs6PgSWbCCKI2_15rustc_lint_defs6LintIdNtNtCsbnIUe8x9cNz_12rustc_middle4lint14LevelAndSourceE0ECsd1JD1uUqwgV_10rustc_lint
librustc_driver-f8caf2bfd7396df8.so:_RINvMs6_NtCs9uhsTK9sLQH_9hashbrown3rawINtB6_8RawTablejE14reserve_rehashNCINvNtNtCs42Kw8IjNYDo_8indexmap3map4core8get_hashNtCs6whg2ier8G0_12rustc_hir_id11ItemLocalIdNtNtNtCsbnIUe8x9cNz_12rustc_middle6middle6region5ScopeE0EB2I_
librustc_driver-f8caf2bfd7396df8.so:_RINvMs6_NtCs9uhsTK9sLQH_9hashbrown3rawINtB6_8RawTablejE14reserve_rehashNCINvNtNtCs42Kw8IjNYDo_8indexmap3map4core8get_hashNtCs6whg2ier8G0_12rustc_hir_id11ItemLocalIduE0ECs25h6OjkxBzy_18rustc_hir_analysis
librustc_driver-f8caf2bfd7396df8.so:_RINvMs6_NtCs9uhsTK9sLQH_9hashbrown3rawINtB6_8RawTablejE14reserve_rehashNCINvNtNtCs42Kw8IjNYDo_8indexmap3map4core8get_hashNtCs6whg2ier8G0_12rustc_hir_id5HirIdINtNtCs19MuVdBY7V6_5alloc3vec3VecNtNtNtCsbnIUe8x9cNz_12rustc_middle2ty7closure13CapturedPlaceEE0ECs2ERWbPTlodK_16rustc_query_impl
librustc_driver-f8caf2bfd7396df8.so:_RINvMs6_NtCs9uhsTK9sLQH_9hashbrown3rawINtB6_8RawTablejE14reserve_rehashNCINvNtNtCs42Kw8IjNYDo_8indexmap3map4core8get_hashNtCs6whg2ier8G0_12rustc_hir_id5HirIdINtNtCs19MuVdBY7V6_5alloc3vec3VecNtNtNtCsbnIUe8x9cNz_12rustc_middle2ty7closure13CapturedPlaceEE0ECs7VwJBT60bpD_16rustc_hir_typeck
librustc_driver-f8caf2bfd7396df8.so:_RINvMs6_NtCs9uhsTK9sLQH_9hashbrown3rawINtB6_8RawTablejE14reserve_rehashNCINvNtNtCs42Kw8IjNYDo_8indexmap3map4core8get_hashNtCs6whg2ier8G0_12rustc_hir_id5HirIdNtNtCs2Pf1rSX1q4A_9rustc_hir3hir5UpvarE0ECs6JcOuld5fNS_12rustc_passes
librustc_driver-f8caf2bfd7396df8.so:_RINvMs6_NtCs9uhsTK9sLQH_9hashbrown3rawINtB6_8RawTablejE14reserve_rehashNCINvNtNtCs42Kw8IjNYDo_8indexmap3map4core8get_hashNtCs6whg2ier8G0_12rustc_hir_id5HirIdNtNtCsbnIUe8x9cNz_12rustc_middle2ty2TyE0ECs7VwJBT60bpD_16rustc_hir_typeck
librustc_driver-f8caf2bfd7396df8.so:_RINvMs6_NtCs9uhsTK9sLQH_9hashbrown3rawINtB6_8RawTablejE14reserve_rehashNCINvNtNtCs42Kw8IjNYDo_8indexmap3map4core8get_hashNtCs6whg2ier8G0_12rustc_hir_id5HirIdjE0ECs7VwJBT60bpD_16rustc_hir_typeck
librustc_driver-f8caf2bfd7396df8.so:_RINvMs6_NtCs9uhsTK9sLQH_9hashbrown3rawINtB6_8RawTablejE14reserve_rehashNCINvNtNtCs42Kw8IjNYDo_8indexmap3map4core8get_hashNtCs6whg2ier8G0_12rustc_hir_id5HirIduE0ECsd1JD1uUqwgV_10rustc_lint
librustc_driver-f8caf2bfd7396df8.so:_RINvMs6_NtCs9uhsTK9sLQH_9hashbrown3rawINtB6_8RawTablejE14reserve_rehashNCINvNtNtCs42Kw8IjNYDo_8indexmap3map4core8get_hashNtCsbwev6Zm5f0k_13rustc_resolve10BindingKeyRINtNtB1X_7ref_mut9CmRefCellNtNtB1X_7imports14NameResolutionEE0EB1X_
librustc_driver-f8caf2bfd7396df8.so:_RINvMs6_NtCs9uhsTK9sLQH_9hashbrown3rawINtB6_8RawTablejE14reserve_rehashNCINvNtNtCs42Kw8IjNYDo_8indexmap3map4core8get_hashNtCsdEUoebXq6qL_12rustc_errors8StashKeyINtB1e_8IndexMapNtNtCsjdyqsEEf0cE_10rustc_span13span_encoding4SpanTNtNtB1X_10diagnostic9DiagInnerINtNtCs9WsFjTlRn02_4core6option6OptionNtB2S_15ErrorGuaranteedEEINtNtB4c_4hash18BuildHasherDefaultNtCsiHaVk9ZDPzl_10rustc_hash8FxHasherEEE0EB1X_
librustc_driver-f8caf2bfd7396df8.so:_RINvMs6_NtCs9uhsTK9sLQH_9hashbrown3rawINtB6_8RawTablejE14reserve_rehashNCINvNtNtCs42Kw8IjNYDo_8indexmap3map4core8get_hashNtCsjdyqsEEf0cE_10rustc_span18StableSourceFileIdNtNtCs19MuVdBY7V6_5alloc6string6StringE0ECseuJrGsAzkDK_18rustc_codegen_llvm
librustc_driver-f8caf2bfd7396df8.so:_RINvMs6_NtCs9uhsTK9sLQH_9hashbrown3rawINtB6_8RawTablejE14reserve_rehashNCINvNtNtCs42Kw8IjNYDo_8indexmap3map4core8get_hashNtCsjdyqsEEf0cE_10rustc_span8SpanDatauE0EB1X_
librustc_driver-f8caf2bfd7396df8.so:_RINvMs6_NtCs9uhsTK9sLQH_9hashbrown3rawINtB6_8RawTablejE14reserve_rehashNCINvNtNtCs42Kw8IjNYDo_8indexmap3map4core8get_hashNtNtCs19MuVdBY7V6_5alloc6string6StringB1V_E0ECshJoW1joeLxI_13rustc_session
librustc_driver-f8caf2bfd7396df8.so:_RINvMs6_NtCs9uhsTK9sLQH_9hashbrown3rawINtB6_8RawTablejE14reserve_rehashNCINvNtNtCs42Kw8IjNYDo_8indexmap3map4core8get_hashNtNtCs19MuVdBY7V6_5alloc6string6StringINtB1e_8IndexMapNtNtCsjdyqsEEf0cE_10rustc_span6symbol6SymbolRNtNtCshJoW1joeLxI_13rustc_session6cstore9DllImportINtNtCs9WsFjTlRn02_4core4hash18BuildHasherDefaultNtCsiHaVk9ZDPzl_10rustc_hash8FxHasherEEE0ECsjcIbwyOWlC2_17rustc_codegen_ssa
librustc_driver-f8caf2bfd7396df8.so:_RINvMs6_NtCs9uhsTK9sLQH_9hashbrown3rawINtB6_8RawTablejE14reserve_rehashNCINvNtNtCs42Kw8IjNYDo_8indexmap3map4core8get_hashNtNtCs19MuVdBY7V6_5alloc6string6StringTINtB1e_8IndexMapNtNtCsjdyqsEEf0cE_10rustc_span6symbol6SymbolRNtNtCshJoW1joeLxI_13rustc_session6cstore9DllImportINtNtCs9WsFjTlRn02_4core4hash18BuildHasherDefaultNtCsiHaVk9ZDPzl_10rustc_hash8FxHasherEEbEE0ECsjcIbwyOWlC2_17rustc_codegen_ssa
librustc_driver-f8caf2bfd7396df8.so:_RINvMs6_NtCs9uhsTK9sLQH_9hashbrown3rawINtB6_8RawTablejE14reserve_rehashNCINvNtNtCs42Kw8IjNYDo_8indexmap3map4core8get_hashNtNtCs19MuVdBY7V6_5alloc6string6StringTINtB1e_8IndexMapNtNtCsjj3dQwFOuTb_3std4path7PathBufNtNtCshJoW1joeLxI_13rustc_session12search_paths8PathKindINtNtCs9WsFjTlRn02_4core4hash18BuildHasherDefaultNtCsiHaVk9ZDPzl_10rustc_hash8FxHasherEEB2y_B2y_B2y_EE0ECskmy2rFhdDOz_14rustc_metadata
librustc_driver-f8caf2bfd7396df8.so:_RINvMs6_NtCs9uhsTK9sLQH_9hashbrown3rawINtB6_8RawTablejE14reserve_rehashNCINvNtNtCs42Kw8IjNYDo_8indexmap3map4core8get_hashNtNtCs19MuVdBY7V6_5alloc6string6StringuE0ECs8tAGCjRPvUB_17rustc_incremental
librustc_driver-f8caf2bfd7396df8.so:_RINvMs6_NtCs9uhsTK9sLQH_9hashbrown3rawINtB6_8RawTablejE14reserve_rehashNCINvNtNtCs42Kw8IjNYDo_8indexmap3map4core8get_hashNtNtCs19MuVdBY7V6_5alloc6string6StringuE0ECsfTLCRcPlsnU_14rustc_borrowck
librustc_driver-f8caf2bfd7396df8.so:_RINvMs6_NtCs9uhsTK9sLQH_9hashbrown3rawINtB6_8RawTablejE14reserve_rehashNCINvNtNtCs42Kw8IjNYDo_8indexmap3map4core8get_hashNtNtCs2Pf1rSX1q4A_9rustc_hir3hir12LifetimeKindNtNtCsd1JD1uUqwgV_10rustc_lint15lifetime_syntax13LifetimeGroupE0EB2J_
librustc_driver-f8caf2bfd7396df8.so:_RINvMs6_NtCs9uhsTK9sLQH_9hashbrown3rawINtB6_8RawTablejE14reserve_rehashNCINvNtNtCs42Kw8IjNYDo_8indexmap3map4core8get_hashNtNtCs2t38KIHyE4j_13rustc_type_ir11region_kind9RegionVidINtNtB1g_3set8IndexSetNtNtCs5CCFvyG5imu_18rustc_mir_dataflow6points10PointIndexINtNtCs9WsFjTlRn02_4core4hash18BuildHasherDefaultNtCsiHaVk9ZDPzl_10rustc_hash8FxHasherEEE0ECsfTLCRcPlsnU_14rustc_borrowck
librustc_driver-f8caf2bfd7396df8.so:_RINvMs6_NtCs9uhsTK9sLQH_9hashbrown3rawINtB6_8RawTablejE14reserve_rehashNCINvNtNtCs42Kw8IjNYDo_8indexmap3map4core8get_hashNtNtCs2t38KIHyE4j_13rustc_type_ir11region_kind9RegionVidNtNtNtCsbnIUe8x9cNz_12rustc_middle2ty6region6RegionE0ECscglkemFQPVF_21rustc_trait_selection
librustc_driver-f8caf2bfd7396df8.so:_RINvMs6_NtCs9uhsTK9sLQH_9hashbrown3rawINtB6_8RawTablejE14reserve_rehashNCINvNtNtCs42Kw8IjNYDo_8indexmap3map4core8get_hashNtNtCs2t38KIHyE4j_13rustc_type_ir11region_kind9RegionVidNtNtNtCsfTLCRcPlsnU_14rustc_borrowck11diagnostics11region_name10RegionNameE0EB2V_
librustc_driver-f8caf2bfd7396df8.so:_RINvMs6_NtCs9uhsTK9sLQH_9hashbrown3rawINtB6_8RawTablejE14reserve_rehashNCINvNtNtCs42Kw8IjNYDo_8indexmap3map4core8get_hashNtNtCs2t38KIHyE4j_13rustc_type_ir11region_kind9RegionViduE0ECsfTLCRcPlsnU_14rustc_borrowck
librustc_driver-f8caf2bfd7396df8.so:_RINvMs6_NtCs9uhsTK9sLQH_9hashbrown3rawINtB6_8RawTablejE14reserve_rehashNCINvNtNtCs42Kw8IjNYDo_8indexmap3map4core8get_hashNtNtCs3XpY8PowsPH_9rustc_ast3ast12ParamKindOrdTB1V_INtNtCs19MuVdBY7V6_5alloc3vec3VecNtNtCsjdyqsEEf0cE_10rustc_span13span_encoding4SpanEEE0ECs7vtkYDMuPAi_16rustc_ast_passes
librustc_driver-f8caf2bfd7396df8.so:_RINvMs6_NtCs9uhsTK9sLQH_9hashbrown3rawINtB6_8RawTablejE14reserve_rehashNCINvNtNtCs42Kw8IjNYDo_8indexmap3map4core8get_hashNtNtCs3XpY8PowsPH_9rustc_ast7node_id6NodeIdINtNtCs19MuVdBY7V6_5alloc3vec3VecNtNtCsdEUoebXq6qL_12rustc_errors13decorate_diag17BufferedEarlyLintEE0EB3d_
librustc_driver-f8caf2bfd7396df8.so:_RINvMs6_NtCs9uhsTK9sLQH_9hashbrown3rawINtB6_8RawTablejE14reserve_rehashNCINvNtNtCs42Kw8IjNYDo_8indexmap3map4core8get_hashNtNtCs3XpY8PowsPH_9rustc_ast7node_id6NodeIdINtNtCsdHgfYcjPt8N_11rustc_index7bit_set11DenseBitSetjEE0ECsbwev6Zm5f0k_13rustc_resolve
librustc_driver-f8caf2bfd7396df8.so:_RINvMs6_NtCs9uhsTK9sLQH_9hashbrown3rawINtB6_8RawTablejE14reserve_rehashNCINvNtNtCs42Kw8IjNYDo_8indexmap3map4core8get_hashNtNtCs3XpY8PowsPH_9rustc_ast7node_id6NodeIdNtNtCsbwev6Zm5f0k_13rustc_resolve12check_unused12UnusedImportE0EB2G_
librustc_driver-f8caf2bfd7396df8.so:_RINvMs6_NtCs9uhsTK9sLQH_9hashbrown3rawINtB6_8RawTablejE14reserve_rehashNCINvNtNtCs42Kw8IjNYDo_8indexmap3map4core8get_hashNtNtCs3XpY8PowsPH_9rustc_ast7node_id6NodeIdNtNtCsjdyqsEEf0cE_10rustc_span13span_encoding4SpanE0ECsbwev6Zm5f0k_13rustc_resolve
librustc_driver-f8caf2bfd7396df8.so:_RINvMs6_NtCs9uhsTK9sLQH_9hashbrown3rawINtB6_8RawTablejE14reserve_rehashNCINvNtNtCs42Kw8IjNYDo_8indexmap3map4core8get_hashNtNtCs3lnlKGz4iJ7_22rustc_pattern_analysis5rustc10RevealedTyuE0ECs9KgQoMCEFyf_15rustc_mir_build
librustc_driver-f8caf2bfd7396df8.so:_RINvMs6_NtCs9uhsTK9sLQH_9hashbrown3rawINtB6_8RawTablejE14reserve_rehashNCINvNtNtCs42Kw8IjNYDo_8indexmap3map4core8get_hashNtNtCs3pEzLKeUfxb_19rustc_mir_transform14jump_threading9ConditionuE0EB1Z_
librustc_driver-f8caf2bfd7396df8.so:_RINvMs6_NtCs9uhsTK9sLQH_9hashbrown3rawINtB6_8RawTablejE14reserve_rehashNCINvNtNtCs42Kw8IjNYDo_8indexmap3map4core8get_hashNtNtCs3puhVoiwLfp_12rustc_target3asm12InlineAsmReguE0EB1Z_
librustc_driver-f8caf2bfd7396df8.so:_RINvMs6_NtCs9uhsTK9sLQH_9hashbrown3rawINtB6_8RawTablejE14reserve_rehashNCINvNtNtCs42Kw8IjNYDo_8indexmap3map4core8get_hashNtNtCs3puhVoiwLfp_12rustc_target3asm19InlineAsmClobberAbiTNtNtCsjdyqsEEf0cE_10rustc_span6symbol6SymbolNtNtB2V_13span_encoding4SpanEE0ECsigzjtJzPjJb_18rustc_ast_lowering
librustc_driver-f8caf2bfd7396df8.so:_RINvMs6_NtCs9uhsTK9sLQH_9hashbrown3rawINtB6_8RawTablejE14reserve_rehashNCINvNtNtCs42Kw8IjNYDo_8indexmap3map4core8get_hashNtNtCs5CCFvyG5imu_18rustc_mir_dataflow6points10PointIndexuE0ECsfTLCRcPlsnU_14rustc_borrowck
librustc_driver-f8caf2bfd7396df8.so:_RINvMs6_NtCs9uhsTK9sLQH_9hashbrown3rawINtB6_8RawTablejE14reserve_rehashNCINvNtNtCs42Kw8IjNYDo_8indexmap3map4core8get_hashNtNtCs7VwJBT60bpD_16rustc_hir_typeck5upvar18UpvarMigrationInfoINtNtCsiN8jfhUhbz9_21rustc_data_structures5unord8UnordSetReEE0EB1Z_
librustc_driver-f8caf2bfd7396df8.so:_RINvMs6_NtCs9uhsTK9sLQH_9hashbrown3rawINtB6_8RawTablejE14reserve_rehashNCINvNtNtCs42Kw8IjNYDo_8indexmap3map4core8get_hashNtNtCs7VwJBT60bpD_16rustc_hir_typeck5upvar18UpvarMigrationInfouE0EB1Z_
librustc_driver-f8caf2bfd7396df8.so:_RINvMs6_NtCs9uhsTK9sLQH_9hashbrown3rawINtB6_8RawTablejE14reserve_rehashNCINvNtNtCs42Kw8IjNYDo_8indexmap3map4core8get_hashNtNtCsbnIUe8x9cNz_12rustc_middle2ty2TyB1V_E0ECs25h6OjkxBzy_18rustc_hir_analysis
librustc_driver-f8caf2bfd7396df8.so:_RINvMs6_NtCs9uhsTK9sLQH_9hashbrown3rawINtB6_8RawTablejE14reserve_rehashNCINvNtNtCs42Kw8IjNYDo_8indexmap3map4core8get_hashNtNtCsbnIUe8x9cNz_12rustc_middle2ty2TyINtNtCs19MuVdBY7V6_5alloc3vec3VecNtNtCsjdyqsEEf0cE_10rustc_span6def_id5DefIdEE0ECs25h6OjkxBzy_18rustc_hir_analysis
librustc_driver-f8caf2bfd7396df8.so:_RINvMs6_NtCs9uhsTK9sLQH_9hashbrown3rawINtB6_8RawTablejE14reserve_rehashNCINvNtNtCs42Kw8IjNYDo_8indexmap3map4core8get_hashNtNtCsbnIUe8x9cNz_12rustc_middle2ty2TyNtNtCs2IzmDjFIpnY_12rustc_public2ty2TyE0EB2B_
librustc_driver-f8caf2bfd7396df8.so:_RINvMs6_NtCs9uhsTK9sLQH_9hashbrown3rawINtB6_8RawTablejE14reserve_rehashNCINvNtNtCs42Kw8IjNYDo_8indexmap3map4core8get_hashNtNtCsbnIUe8x9cNz_12rustc_middle2ty2TyNtNtNtNtCsfTLCRcPlsnU_14rustc_borrowck10type_check8liveness5trace8DropDataE0EB2F_
librustc_driver-f8caf2bfd7396df8.so:_RINvMs6_NtCs9uhsTK9sLQH_9hashbrown3rawINtB6_8RawTablejE14reserve_rehashNCINvNtNtCs42Kw8IjNYDo_8indexmap3map4core8get_hashNtNtCsbnIUe8x9cNz_12rustc_middle2ty2TyNtNvNtNtCscglkemFQPVF_21rustc_trait_selection15error_reporting6traits21to_pretty_impl_header14SizednessFoundE0EB2F_
librustc_driver-f8caf2bfd7396df8.so:_RINvMs6_NtCs9uhsTK9sLQH_9hashbrown3rawINtB6_8RawTablejE14reserve_rehashNCINvNtNtCs42Kw8IjNYDo_8indexmap3map4core8get_hashNtNtCsbnIUe8x9cNz_12rustc_middle2ty2TyuE0ECscglkemFQPVF_21rustc_trait_selection
librustc_driver-f8caf2bfd7396df8.so:_RINvMs6_NtCs9uhsTK9sLQH_9hashbrown3rawINtB6_8RawTablejE14reserve_rehashNCINvNtNtCs42Kw8IjNYDo_8indexmap3map4core8get_hashNtNtCsbnIUe8x9cNz_12rustc_middle3mir10BasicBlockINtNtCs19MuVdBY7V6_5alloc3vec3VecTNtB1X_8LocationRNtNtB1X_6syntax5PlaceEEE0ECs3pEzLKeUfxb_19rustc_mir_transform
librustc_driver-f8caf2bfd7396df8.so:_RINvMs6_NtCs9uhsTK9sLQH_9hashbrown3rawINtB6_8RawTablejE14reserve_rehashNCINvNtNtCs42Kw8IjNYDo_8indexmap3map4core8get_hashNtNtCsbnIUe8x9cNz_12rustc_middle3mir10SourceInfoNtNtCs3pEzLKeUfxb_19rustc_mir_transform8liveness6AccessE0EB2L_
librustc_driver-f8caf2bfd7396df8.so:_RINvMs6_NtCs9uhsTK9sLQH_9hashbrown3rawINtB6_8RawTablejE14reserve_rehashNCINvNtNtCs42Kw8IjNYDo_8indexmap3map4core8get_hashNtNtCsbnIUe8x9cNz_12rustc_middle3mir5LocalINtNtB1g_3set8IndexSetNtNtCsfTLCRcPlsnU_14rustc_borrowck8dataflow11BorrowIndexINtNtCs9WsFjTlRn02_4core4hash18BuildHasherDefaultNtCsiHaVk9ZDPzl_10rustc_hash8FxHasherEEE0EB31_
librustc_driver-f8caf2bfd7396df8.so:_RINvMs6_NtCs9uhsTK9sLQH_9hashbrown3rawINtB6_8RawTablejE14reserve_rehashNCINvNtNtCs42Kw8IjNYDo_8indexmap3map4core8get_hashNtNtCsbnIUe8x9cNz_12rustc_middle3mir5LocalNtNtCsfTLCRcPlsnU_14rustc_borrowck8dataflow11BorrowIndexE0EB2F_
librustc_driver-f8caf2bfd7396df8.so:_RINvMs6_NtCs9uhsTK9sLQH_9hashbrown3rawINtB6_8RawTablejE14reserve_rehashNCINvNtNtCs42Kw8IjNYDo_8indexmap3map4core8get_hashNtNtCsbnIUe8x9cNz_12rustc_middle3mir5LocalNtNtCsjdyqsEEf0cE_10rustc_span6symbol6SymbolE0ECs3pEzLKeUfxb_19rustc_mir_transform
librustc_driver-f8caf2bfd7396df8.so:_RINvMs6_NtCs9uhsTK9sLQH_9hashbrown3rawINtB6_8RawTablejE14reserve_rehashNCINvNtNtCs42Kw8IjNYDo_8indexmap3map4core8get_hashNtNtCsbnIUe8x9cNz_12rustc_middle3mir5LocalTNtNtCs19MuVdBY7V6_5alloc6string6StringbEE0ECs3pEzLKeUfxb_19rustc_mir_transform
librustc_driver-f8caf2bfd7396df8.so:_RINvMs6_NtCs9uhsTK9sLQH_9hashbrown3rawINtB6_8RawTablejE14reserve_rehashNCINvNtNtCs42Kw8IjNYDo_8indexmap3map4core8get_hashNtNtCsbnIUe8x9cNz_12rustc_middle3mir5LocaluE0ECsfTLCRcPlsnU_14rustc_borrowck
librustc_driver-f8caf2bfd7396df8.so:_RINvMs6_NtCs9uhsTK9sLQH_9hashbrown3rawINtB6_8RawTablejE14reserve_rehashNCINvNtNtCs42Kw8IjNYDo_8indexmap3map4core8get_hashNtNtCsbnIUe8x9cNz_12rustc_middle3mir8LocationINtNtCs19MuVdBY7V6_5alloc3vec3VecNtNtCsfTLCRcPlsnU_14rustc_borrowck8dataflow11BorrowIndexEE0EB3f_
librustc_driver-f8caf2bfd7396df8.so:_RINvMs6_NtCs9uhsTK9sLQH_9hashbrown3rawINtB6_8RawTablejE14reserve_rehashNCINvNtNtCs42Kw8IjNYDo_8indexmap3map4core8get_hashNtNtCsbnIUe8x9cNz_12rustc_middle3mir8LocationNtNtCsfTLCRcPlsnU_14rustc_borrowck10borrow_set10BorrowDataE0EB2I_
librustc_driver-f8caf2bfd7396df8.so:_RINvMs6_NtCs9uhsTK9sLQH_9hashbrown3rawINtB6_8RawTablejE14reserve_rehashNCINvNtNtCs42Kw8IjNYDo_8indexmap3map4core8get_hashNtNtCsbnIUe8x9cNz_12rustc_middle3mir8LocationuE0ECsfTLCRcPlsnU_14rustc_borrowck
librustc_driver-f8caf2bfd7396df8.so:_RINvMs6_NtCs9uhsTK9sLQH_9hashbrown3rawINtB6_8RawTablejE14reserve_rehashNCINvNtNtCs42Kw8IjNYDo_8indexmap3map4core8get_hashNtNtCsbnIUe8x9cNz_12rustc_middle6traits25DynCompatibilityViolationuE0ECscglkemFQPVF_21rustc_trait_selection
librustc_driver-f8caf2bfd7396df8.so:_RINvMs6_NtCs9uhsTK9sLQH_9hashbrown3rawINtB6_8RawTablejE14reserve_rehashNCINvNtNtCs42Kw8IjNYDo_8indexmap3map4core8get_hashNtNtCsdEUoebXq6qL_12rustc_errors5codes7ErrCodeuE0EB1Z_
librustc_driver-f8caf2bfd7396df8.so:_RINvMs6_NtCs9uhsTK9sLQH_9hashbrown3rawINtB6_8RawTablejE14reserve_rehashNCINvNtNtCs42Kw8IjNYDo_8indexmap3map4core8get_hashNtNtCsfTLCRcPlsnU_14rustc_borrowck11constraints18ConstraintSccIndexINtNtNtCs9WsFjTlRn02_4core3ops5range5RangejEE0EB1Z_
librustc_driver-f8caf2bfd7396df8.so:_RINvMs6_NtCs9uhsTK9sLQH_9hashbrown3rawINtB6_8RawTablejE14reserve_rehashNCINvNtNtCs42Kw8IjNYDo_8indexmap3map4core8get_hashNtNtCsfTLCRcPlsnU_14rustc_borrowck8dataflow11BorrowIndexuE0EB1Z_
librustc_driver-f8caf2bfd7396df8.so:_RINvMs6_NtCs9uhsTK9sLQH_9hashbrown3rawINtB6_8RawTablejE14reserve_rehashNCINvNtNtCs42Kw8IjNYDo_8indexmap3map4core8get_hashNtNtCshJoW1joeLxI_13rustc_session6config9CrateTypeINtNtCs19MuVdBY7V6_5alloc3vec3VecTNtNtB2O_6string6StringNtNtNtCsbnIUe8x9cNz_12rustc_middle6middle16exported_symbols16SymbolExportKindEEE0ECsjcIbwyOWlC2_17rustc_codegen_ssa
librustc_driver-f8caf2bfd7396df8.so:_RINvMs6_NtCs9uhsTK9sLQH_9hashbrown3rawINtB6_8RawTablejE14reserve_rehashNCINvNtNtCs42Kw8IjNYDo_8indexmap3map4core8get_hashNtNtCshJoW1joeLxI_13rustc_session6config9CrateTypeINtNtCsdHgfYcjPt8N_11rustc_index3vec8IndexVecNtNtCsjdyqsEEf0cE_10rustc_span6def_id8CrateNumNtNtNtCsbnIUe8x9cNz_12rustc_middle6middle17dependency_format7LinkageEE0ECskmy2rFhdDOz_14rustc_metadata
librustc_driver-f8caf2bfd7396df8.so:_RINvMs6_NtCs9uhsTK9sLQH_9hashbrown3rawINtB6_8RawTablejE14reserve_rehashNCINvNtNtCs42Kw8IjNYDo_8indexmap3map4core8get_hashNtNtCsiN8jfhUhbz9_21rustc_data_structures3svh3SvhNtNtCskmy2rFhdDOz_14rustc_metadata7creader7LibraryE0EB2M_
librustc_driver-f8caf2bfd7396df8.so:_RINvMs6_NtCs9uhsTK9sLQH_9hashbrown3rawINtB6_8RawTablejE14reserve_rehashNCINvNtNtCs42Kw8IjNYDo_8indexmap3map4core8get_hashNtNtCsieD8IfayO3F_16unicode_security12mixed_script18AugmentedScriptSetNtNvXNtCsd1JD1uUqwgV_10rustc_lint16non_ascii_identsNtB38_14NonAsciiIdentsNtNtB3a_6passes13EarlyLintPass11check_crate14ScriptSetUsageE0EB3a_
librustc_driver-f8caf2bfd7396df8.so:_RINvMs6_NtCs9uhsTK9sLQH_9hashbrown3rawINtB6_8RawTablejE14reserve_rehashNCINvNtNtCs42Kw8IjNYDo_8indexmap3map4core8get_hashNtNtCsjdyqsEEf0cE_10rustc_span13span_encoding4SpanB1V_E0ECsa5VOI9QU9vn_11rustc_parse
librustc_driver-f8caf2bfd7396df8.so:_RINvMs6_NtCs9uhsTK9sLQH_9hashbrown3rawINtB6_8RawTablejE14reserve_rehashNCINvNtNtCs42Kw8IjNYDo_8indexmap3map4core8get_hashNtNtCsjdyqsEEf0cE_10rustc_span13span_encoding4SpanINtNtCs19MuVdBY7V6_5alloc3vec3VecNtNtB2O_6string6StringEE0ECsjjbouxysk1D_12rustc_expand
librustc_driver-f8caf2bfd7396df8.so:_RINvMs6_NtCs9uhsTK9sLQH_9hashbrown3rawINtB6_8RawTablejE14reserve_rehashNCINvNtNtCs42Kw8IjNYDo_8indexmap3map4core8get_hashNtNtCsjdyqsEEf0cE_10rustc_span13span_encoding4SpanINtNtCs19MuVdBY7V6_5alloc3vec3VecNtNvMs1_NtNtCscglkemFQPVF_21rustc_trait_selection15error_reporting6traitsNtB3q_11TypeErrCtxt25report_fulfillment_errors15ErrorDescriptorEE0EB3s_
librustc_driver-f8caf2bfd7396df8.so:_RINvMs6_NtCs9uhsTK9sLQH_9hashbrown3rawINtB6_8RawTablejE14reserve_rehashNCINvNtNtCs42Kw8IjNYDo_8indexmap3map4core8get_hashNtNtCsjdyqsEEf0cE_10rustc_span13span_encoding4SpanNtCscz9QXGmvAyj_12rustc_ast_ir10MutabilityE0ECs9KgQoMCEFyf_15rustc_mir_build
librustc_driver-f8caf2bfd7396df8.so:_RINvMs6_NtCs9uhsTK9sLQH_9hashbrown3rawINtB6_8RawTablejE14reserve_rehashNCINvNtNtCs42Kw8IjNYDo_8indexmap3map4core8get_hashNtNtCsjdyqsEEf0cE_10rustc_span13span_encoding4SpanNtNtCs2IzmDjFIpnY_12rustc_public2ty4SpanE0EB2N_
librustc_driver-f8caf2bfd7396df8.so:_RINvMs6_NtCs9uhsTK9sLQH_9hashbrown3rawINtB6_8RawTablejE14reserve_rehashNCINvNtNtCs42Kw8IjNYDo_8indexmap3map4core8get_hashNtNtCsjdyqsEEf0cE_10rustc_span13span_encoding4SpanTINtNtB1g_3set8IndexSetB1V_INtNtCs9WsFjTlRn02_4core4hash18BuildHasherDefaultNtCsiHaVk9ZDPzl_10rustc_hash8FxHasherEEIB2L_TB1V_ReEB3a_EINtNtCs19MuVdBY7V6_5alloc3vec3VecRNtNtNtCsbnIUe8x9cNz_12rustc_middle2ty9predicate9PredicateEEE0ECs7VwJBT60bpD_16rustc_hir_typeck
librustc_driver-f8caf2bfd7396df8.so:_RINvMs6_NtCs9uhsTK9sLQH_9hashbrown3rawINtB6_8RawTablejE14reserve_rehashNCINvNtNtCs42Kw8IjNYDo_8indexmap3map4core8get_hashNtNtCsjdyqsEEf0cE_10rustc_span13span_encoding4SpanTINtNtCs19MuVdBY7V6_5alloc3vec3VecINtNtCs2t38KIHyE4j_13rustc_type_ir5solve4GoalNtNtNtCsbnIUe8x9cNz_12rustc_middle2ty7context6TyCtxtNtNtB44_9predicate9PredicateEENtB1Z_15ErrorGuaranteedEE0ECscglkemFQPVF_21rustc_trait_selection
librustc_driver-f8caf2bfd7396df8.so:_RINvMs6_NtCs9uhsTK9sLQH_9hashbrown3rawINtB6_8RawTablejE14reserve_rehashNCINvNtNtCs42Kw8IjNYDo_8indexmap3map4core8get_hashNtNtCsjdyqsEEf0cE_10rustc_span13span_encoding4SpanTNtNtCsdEUoebXq6qL_12rustc_errors10diagnostic4DiagjEE0ECsfTLCRcPlsnU_14rustc_borrowck
librustc_driver-f8caf2bfd7396df8.so:_RINvMs6_NtCs9uhsTK9sLQH_9hashbrown3rawINtB6_8RawTablejE14reserve_rehashNCINvNtNtCs42Kw8IjNYDo_8indexmap3map4core8get_hashNtNtCsjdyqsEEf0cE_10rustc_span13span_encoding4SpanTNtNtCsdEUoebXq6qL_12rustc_errors10diagnostic9DiagInnerINtNtCs9WsFjTlRn02_4core6option6OptionNtB1Z_15ErrorGuaranteedEEE0EB2O_
librustc_driver-f8caf2bfd7396df8.so:_RINvMs6_NtCs9uhsTK9sLQH_9hashbrown3rawINtB6_8RawTablejE14reserve_rehashNCINvNtNtCs42Kw8IjNYDo_8indexmap3map4core8get_hashNtNtCsjdyqsEEf0cE_10rustc_span13span_encoding4SpanuE0ECsbwev6Zm5f0k_13rustc_resolve
librustc_driver-f8caf2bfd7396df8.so:_RINvMs6_NtCs9uhsTK9sLQH_9hashbrown3rawINtB6_8RawTablejE14reserve_rehashNCINvNtNtCs42Kw8IjNYDo_8indexmap3map4core8get_hashNtNtCsjdyqsEEf0cE_10rustc_span13span_encoding4SpanuE0ECscglkemFQPVF_21rustc_trait_selection
librustc_driver-f8caf2bfd7396df8.so:_RINvMs6_NtCs9uhsTK9sLQH_9hashbrown3rawINtB6_8RawTablejE14reserve_rehashNCINvNtNtCs42Kw8IjNYDo_8indexmap3map4core8get_hashNtNtCsjdyqsEEf0cE_10rustc_span6def_id10LocalDefIdINtNtB1g_3set8IndexSetNtNtB1Z_6symbol6SymbolINtNtCs9WsFjTlRn02_4core4hash18BuildHasherDefaultNtCsiHaVk9ZDPzl_10rustc_hash8FxHasherEEE0ECsbwev6Zm5f0k_13rustc_resolve
librustc_driver-f8caf2bfd7396df8.so:_RINvMs6_NtCs9uhsTK9sLQH_9hashbrown3rawINtB6_8RawTablejE14reserve_rehashNCINvNtNtCs42Kw8IjNYDo_8indexmap3map4core8get_hashNtNtCsjdyqsEEf0cE_10rustc_span6def_id10LocalDefIdINtNtB1g_3set8IndexSetNtNtNtCsbnIUe8x9cNz_12rustc_middle2ty9predicate6ClauseINtNtCs9WsFjTlRn02_4core4hash18BuildHasherDefaultNtCsiHaVk9ZDPzl_10rustc_hash8FxHasherEEE0ECs25h6OjkxBzy_18rustc_hir_analysis
librustc_driver-f8caf2bfd7396df8.so:_RINvMs6_NtCs9uhsTK9sLQH_9hashbrown3rawINtB6_8RawTablejE14reserve_rehashNCINvNtNtCs42Kw8IjNYDo_8indexmap3map4core8get_hashNtNtCsjdyqsEEf0cE_10rustc_span6def_id10LocalDefIdINtNtCs19MuVdBY7V6_5alloc3vec3VecNtB1X_5DefIdEE0ECs25h6OjkxBzy_18rustc_hir_analysis
librustc_driver-f8caf2bfd7396df8.so:_RINvMs6_NtCs9uhsTK9sLQH_9hashbrown3rawINtB6_8RawTablejE14reserve_rehashNCINvNtNtCs42Kw8IjNYDo_8indexmap3map4core8get_hashNtNtCsjdyqsEEf0cE_10rustc_span6def_id10LocalDefIdINtNtCs19MuVdBY7V6_5alloc3vec3VecNtB1X_5DefIdEE0ECsbwev6Zm5f0k_13rustc_resolve
librustc_driver-f8caf2bfd7396df8.so:_RINvMs6_NtCs9uhsTK9sLQH_9hashbrown3rawINtB6_8RawTablejE14reserve_rehashNCINvNtNtCs42Kw8IjNYDo_8indexmap3map4core8get_hashNtNtCsjdyqsEEf0cE_10rustc_span6def_id10LocalDefIdINtNtCsiN8jfhUhbz9_21rustc_data_structures5unord8UnordMapTNtNtB1Z_6symbol6SymbolNtNtCs2Pf1rSX1q4A_9rustc_hir3def9NamespaceEINtNtCs9WsFjTlRn02_4core6option6OptionINtB42_3ResNtNtCs3XpY8PowsPH_9rustc_ast7node_id6NodeIdEEEE0ECsbwev6Zm5f0k_13rustc_resolve
librustc_driver-f8caf2bfd7396df8.so:_RINvMs6_NtCs9uhsTK9sLQH_9hashbrown3rawINtB6_8RawTablejE14reserve_rehashNCINvNtNtCs42Kw8IjNYDo_8indexmap3map4core8get_hashNtNtCsjdyqsEEf0cE_10rustc_span6def_id10LocalDefIdNtCsbwev6Zm5f0k_13rustc_resolve6ModuleE0EB2K_
librustc_driver-f8caf2bfd7396df8.so:_RINvMs6_NtCs9uhsTK9sLQH_9hashbrown3rawINtB6_8RawTablejE14reserve_rehashNCINvNtNtCs42Kw8IjNYDo_8indexmap3map4core8get_hashNtNtCsjdyqsEEf0cE_10rustc_span6def_id10LocalDefIdNtCsfTLCRcPlsnU_14rustc_borrowck30CollectRegionConstraintsResultE0EB2K_
librustc_driver-f8caf2bfd7396df8.so:_RINvMs6_NtCs9uhsTK9sLQH_9hashbrown3rawINtB6_8RawTablejE14reserve_rehashNCINvNtNtCs42Kw8IjNYDo_8indexmap3map4core8get_hashNtNtCsjdyqsEEf0cE_10rustc_span6def_id10LocalDefIdNtNtCsbnIUe8x9cNz_12rustc_middle2ty24DefinitionSiteHiddenTypeE0ECs2ERWbPTlodK_16rustc_query_impl
librustc_driver-f8caf2bfd7396df8.so:_RINvMs6_NtCs9uhsTK9sLQH_9hashbrown3rawINtB6_8RawTablejE14reserve_rehashNCINvNtNtCs42Kw8IjNYDo_8indexmap3map4core8get_hashNtNtCsjdyqsEEf0cE_10rustc_span6def_id10LocalDefIdNtNtCsbnIUe8x9cNz_12rustc_middle2ty24DefinitionSiteHiddenTypeE0ECs7VwJBT60bpD_16rustc_hir_typeck
librustc_driver-f8caf2bfd7396df8.so:_RINvMs6_NtCs9uhsTK9sLQH_9hashbrown3rawINtB6_8RawTablejE14reserve_rehashNCINvNtNtCs42Kw8IjNYDo_8indexmap3map4core8get_hashNtNtCsjdyqsEEf0cE_10rustc_span6def_id10LocalDefIdNtNtCsbnIUe8x9cNz_12rustc_middle2ty24DefinitionSiteHiddenTypeE0ECsfTLCRcPlsnU_14rustc_borrowck
librustc_driver-f8caf2bfd7396df8.so:_RINvMs6_NtCs9uhsTK9sLQH_9hashbrown3rawINtB6_8RawTablejE14reserve_rehashNCINvNtNtCs42Kw8IjNYDo_8indexmap3map4core8get_hashNtNtCsjdyqsEEf0cE_10rustc_span6def_id10LocalDefIdNtNtNtCsbnIUe8x9cNz_12rustc_middle6middle18resolve_bound_vars11ResolvedArgE0ECs25h6OjkxBzy_18rustc_hir_analysis
librustc_driver-f8caf2bfd7396df8.so:_RINvMs6_NtCs9uhsTK9sLQH_9hashbrown3rawINtB6_8RawTablejE14reserve_rehashNCINvNtNtCs42Kw8IjNYDo_8indexmap3map4core8get_hashNtNtCsjdyqsEEf0cE_10rustc_span6def_id10LocalDefIdNtNtNtCsbnIUe8x9cNz_12rustc_middle6middle7privacy19EffectiveVisibilityE0EB2O_
librustc_driver-f8caf2bfd7396df8.so:_RINvMs6_NtCs9uhsTK9sLQH_9hashbrown3rawINtB6_8RawTablejE14reserve_rehashNCINvNtNtCs42Kw8IjNYDo_8indexmap3map4core8get_hashNtNtCsjdyqsEEf0cE_10rustc_span6def_id10LocalDefIdTNtNtCs3XpY8PowsPH_9rustc_ast7node_id6NodeIdNtNtB1Z_6symbol5IdentEE0ECsbwev6Zm5f0k_13rustc_resolve
librustc_driver-f8caf2bfd7396df8.so:_RINvMs6_NtCs9uhsTK9sLQH_9hashbrown3rawINtB6_8RawTablejE14reserve_rehashNCINvNtNtCs42Kw8IjNYDo_8indexmap3map4core8get_hashNtNtCsjdyqsEEf0cE_10rustc_span6def_id10LocalDefIduE0ECsbwev6Zm5f0k_13rustc_resolve
librustc_driver-f8caf2bfd7396df8.so:_RINvMs6_NtCs9uhsTK9sLQH_9hashbrown3rawINtB6_8RawTablejE14reserve_rehashNCINvNtNtCs42Kw8IjNYDo_8indexmap3map4core8get_hashNtNtCsjdyqsEEf0cE_10rustc_span6def_id10LocalDefIduE0ECsd1JD1uUqwgV_10rustc_lint
librustc_driver-f8caf2bfd7396df8.so:_RINvMs6_NtCs9uhsTK9sLQH_9hashbrown3rawINtB6_8RawTablejE14reserve_rehashNCINvNtNtCs42Kw8IjNYDo_8indexmap3map4core8get_hashNtNtCsjdyqsEEf0cE_10rustc_span6def_id13StableCrateIdNtB1X_8CrateNumE0ECsbnIUe8x9cNz_12rustc_middle
librustc_driver-f8caf2bfd7396df8.so:_RINvMs6_NtCs9uhsTK9sLQH_9hashbrown3rawINtB6_8RawTablejE14reserve_rehashNCINvNtNtCs42Kw8IjNYDo_8indexmap3map4core8get_hashNtNtCsjdyqsEEf0cE_10rustc_span6def_id5DefIdINtNtCs19MuVdBY7V6_5alloc3vec3VecNtB1X_10LocalDefIdEE0ECsbwev6Zm5f0k_13rustc_resolve
librustc_driver-f8caf2bfd7396df8.so:_RINvMs6_NtCs9uhsTK9sLQH_9hashbrown3rawINtB6_8RawTablejE14reserve_rehashNCINvNtNtCs42Kw8IjNYDo_8indexmap3map4core8get_hashNtNtCsjdyqsEEf0cE_10rustc_span6def_id5DefIdINtNtCs19MuVdBY7V6_5alloc3vec3VecNtNtB1Z_13span_encoding4SpanEE0ECs25h6OjkxBzy_18rustc_hir_analysis
librustc_driver-f8caf2bfd7396df8.so:_RINvMs6_NtCs9uhsTK9sLQH_9hashbrown3rawINtB6_8RawTablejE14reserve_rehashNCINvNtNtCs42Kw8IjNYDo_8indexmap3map4core8get_hashNtNtCsjdyqsEEf0cE_10rustc_span6def_id5DefIdINtNtCs19MuVdBY7V6_5alloc3vec3VecRNtNtNtCsbnIUe8x9cNz_12rustc_middle3mir4mono8MonoItemEE0ECshohWIpJhPWk_18rustc_monomorphize
librustc_driver-f8caf2bfd7396df8.so:_RINvMs6_NtCs9uhsTK9sLQH_9hashbrown3rawINtB6_8RawTablejE14reserve_rehashNCINvNtNtCs42Kw8IjNYDo_8indexmap3map4core8get_hashNtNtCsjdyqsEEf0cE_10rustc_span6def_id5DefIdINtNtCs19MuVdBY7V6_5alloc3vec3VecTNtB1X_8DefIndexINtNtCs9WsFjTlRn02_4core6option6OptionINtNtCs2t38KIHyE4j_13rustc_type_ir11fast_reject14SimplifiedTypeB1V_EEEEE0ECskmy2rFhdDOz_14rustc_metadata
librustc_driver-f8caf2bfd7396df8.so:_RINvMs6_NtCs9uhsTK9sLQH_9hashbrown3rawINtB6_8RawTablejE14reserve_rehashNCINvNtNtCs42Kw8IjNYDo_8indexmap3map4core8get_hashNtNtCsjdyqsEEf0cE_10rustc_span6def_id5DefIdINtNtCs2t38KIHyE4j_13rustc_type_ir6binder11EarlyBinderNtNtNtCsbnIUe8x9cNz_12rustc_middle2ty7context6TyCtxtINtB1e_8IndexMapINtNtB2H_9predicate17OutlivesPredicateB3u_NtNtB3y_12generic_args10GenericArgENtNtB1Z_13span_encoding4SpanINtNtCs9WsFjTlRn02_4core4hash18BuildHasherDefaultNtCsiHaVk9ZDPzl_10rustc_hash8FxHasherEEEE0ECs25h6OjkxBzy_18rustc_hir_analysis
librustc_driver-f8caf2bfd7396df8.so:_RINvMs6_NtCs9uhsTK9sLQH_9hashbrown3rawINtB6_8RawTablejE14reserve_rehashNCINvNtNtCs42Kw8IjNYDo_8indexmap3map4core8get_hashNtNtCsjdyqsEEf0cE_10rustc_span6def_id5DefIdINtNtCs2t38KIHyE4j_13rustc_type_ir6binder6BinderNtNtNtCsbnIUe8x9cNz_12rustc_middle2ty7context6TyCtxtNtB3s_4TermEE0EB3u_
librustc_driver-f8caf2bfd7396df8.so:_RINvMs6_NtCs9uhsTK9sLQH_9hashbrown3rawINtB6_8RawTablejE14reserve_rehashNCINvNtNtCs42Kw8IjNYDo_8indexmap3map4core8get_hashNtNtCsjdyqsEEf0cE_10rustc_span6def_id5DefIdNtCsbwev6Zm5f0k_13rustc_resolve6ModuleE0EB2E_
librustc_driver-f8caf2bfd7396df8.so:_RINvMs6_NtCs9uhsTK9sLQH_9hashbrown3rawINtB6_8RawTablejE14reserve_rehashNCINvNtNtCs42Kw8IjNYDo_8indexmap3map4core8get_hashNtNtCsjdyqsEEf0cE_10rustc_span6def_id5DefIdNtNtB1Z_13span_encoding4SpanE0ECs25h6OjkxBzy_18rustc_hir_analysis
librustc_driver-f8caf2bfd7396df8.so:_RINvMs6_NtCs9uhsTK9sLQH_9hashbrown3rawINtB6_8RawTablejE14reserve_rehashNCINvNtNtCs42Kw8IjNYDo_8indexmap3map4core8get_hashNtNtCsjdyqsEEf0cE_10rustc_span6def_id5DefIdNtNtCs2IzmDjFIpnY_12rustc_public9crate_def5DefIdE0EB2G_
librustc_driver-f8caf2bfd7396df8.so:_RINvMs6_NtCs9uhsTK9sLQH_9hashbrown3rawINtB6_8RawTablejE14reserve_rehashNCINvNtNtCs42Kw8IjNYDo_8indexmap3map4core8get_hashNtNtCsjdyqsEEf0cE_10rustc_span6def_id5DefIdNtNtCs2Pf1rSX1q4A_9rustc_hir10lang_items8LangItemE0EB2G_
librustc_driver-f8caf2bfd7396df8.so:_RINvMs6_NtCs9uhsTK9sLQH_9hashbrown3rawINtB6_8RawTablejE14reserve_rehashNCINvNtNtCs42Kw8IjNYDo_8indexmap3map4core8get_hashNtNtCsjdyqsEEf0cE_10rustc_span6def_id5DefIdNtNtCsd1JD1uUqwgV_10rustc_lint23impl_trait_overcaptures9ParamKindE0EB2G_
librustc_driver-f8caf2bfd7396df8.so:_RINvMs6_NtCs9uhsTK9sLQH_9hashbrown3rawINtB6_8RawTablejE14reserve_rehashNCINvNtNtCs42Kw8IjNYDo_8indexmap3map4core8get_hashNtNtCsjdyqsEEf0cE_10rustc_span6def_id5DefIdNtNtCshJoW1joeLxI_13rustc_session6cstore13ForeignModuleE0ECskmy2rFhdDOz_14rustc_metadata
librustc_driver-f8caf2bfd7396df8.so:_RINvMs6_NtCs9uhsTK9sLQH_9hashbrown3rawINtB6_8RawTablejE14reserve_rehashNCINvNtNtCs42Kw8IjNYDo_8indexmap3map4core8get_hashNtNtCsjdyqsEEf0cE_10rustc_span6def_id5DefIdTINtNtCs2t38KIHyE4j_13rustc_type_ir6binder6BinderNtNtNtCsbnIUe8x9cNz_12rustc_middle2ty7context6TyCtxtINtNtB2I_9predicate14TraitPredicateB3p_EEINtNtCs1rNb7bG4Xia_11rustc_infer6traits10ObligationNtNtB3t_9predicate9PredicateEEE0ECs7VwJBT60bpD_16rustc_hir_typeck
librustc_driver-f8caf2bfd7396df8.so:_RINvMs6_NtCs9uhsTK9sLQH_9hashbrown3rawINtB6_8RawTablejE14reserve_rehashNCINvNtNtCs42Kw8IjNYDo_8indexmap3map4core8get_hashNtNtCsjdyqsEEf0cE_10rustc_span6def_id5DefIdTNtNtCsbnIUe8x9cNz_12rustc_middle2ty2TyRINtNtB2F_4list7RawListuNtNtB2F_12generic_args10GenericArgEEE0ECs25h6OjkxBzy_18rustc_hir_analysis
librustc_driver-f8caf2bfd7396df8.so:_RINvMs6_NtCs9uhsTK9sLQH_9hashbrown3rawINtB6_8RawTablejE14reserve_rehashNCINvNtNtCs42Kw8IjNYDo_8indexmap3map4core8get_hashNtNtCsjdyqsEEf0cE_10rustc_span6def_id5DefIdjE0ECs6JcOuld5fNS_12rustc_passes
librustc_driver-f8caf2bfd7396df8.so:_RINvMs6_NtCs9uhsTK9sLQH_9hashbrown3rawINtB6_8RawTablejE14reserve_rehashNCINvNtNtCs42Kw8IjNYDo_8indexmap3map4core8get_hashNtNtCsjdyqsEEf0cE_10rustc_span6def_id5DefIdjE0ECskmy2rFhdDOz_14rustc_metadata
librustc_driver-f8caf2bfd7396df8.so:_RINvMs6_NtCs9uhsTK9sLQH_9hashbrown3rawINtB6_8RawTablejE14reserve_rehashNCINvNtNtCs42Kw8IjNYDo_8indexmap3map4core8get_hashNtNtCsjdyqsEEf0cE_10rustc_span6def_id5DefIduE0ECscglkemFQPVF_21rustc_trait_selection
librustc_driver-f8caf2bfd7396df8.so:_RINvMs6_NtCs9uhsTK9sLQH_9hashbrown3rawINtB6_8RawTablejE14reserve_rehashNCINvNtNtCs42Kw8IjNYDo_8indexmap3map4core8get_hashNtNtCsjdyqsEEf0cE_10rustc_span6def_id5DefIduE0ECshohWIpJhPWk_18rustc_monomorphize
librustc_driver-f8caf2bfd7396df8.so:_RINvMs6_NtCs9uhsTK9sLQH_9hashbrown3rawINtB6_8RawTablejE14reserve_rehashNCINvNtNtCs42Kw8IjNYDo_8indexmap3map4core8get_hashNtNtCsjdyqsEEf0cE_10rustc_span6def_id8CrateNumINtNtCs19MuVdBY7V6_5alloc3vec3VecNtCsjcIbwyOWlC2_17rustc_codegen_ssa9NativeLibEE0EB3e_
librustc_driver-f8caf2bfd7396df8.so:_RINvMs6_NtCs9uhsTK9sLQH_9hashbrown3rawINtB6_8RawTablejE14reserve_rehashNCINvNtNtCs42Kw8IjNYDo_8indexmap3map4core8get_hashNtNtCsjdyqsEEf0cE_10rustc_span6def_id8CrateNumuE0ECskmy2rFhdDOz_14rustc_metadata
librustc_driver-f8caf2bfd7396df8.so:_RINvMs6_NtCs9uhsTK9sLQH_9hashbrown3rawINtB6_8RawTablejE14reserve_rehashNCINvNtNtCs42Kw8IjNYDo_8indexmap3map4core8get_hashNtNtCsjdyqsEEf0cE_10rustc_span6symbol23Macros20NormalizedIdentNtCsbwev6Zm5f0k_13rustc_resolve18ExternPreludeEntryE0EB2X_
librustc_driver-f8caf2bfd7396df8.so:_RINvMs6_NtCs9uhsTK9sLQH_9hashbrown3rawINtB6_8RawTablejE14reserve_rehashNCINvNtNtCs42Kw8IjNYDo_8indexmap3map4core8get_hashNtNtCsjdyqsEEf0cE_10rustc_span6symbol5IdentINtNtCs2Pf1rSX1q4A_9rustc_hir3def3ResNtNtCs3XpY8PowsPH_9rustc_ast7node_id6NodeIdEE0ECsbwev6Zm5f0k_13rustc_resolve
librustc_driver-f8caf2bfd7396df8.so:_RINvMs6_NtCs9uhsTK9sLQH_9hashbrown3rawINtB6_8RawTablejE14reserve_rehashNCINvNtNtCs42Kw8IjNYDo_8indexmap3map4core8get_hashNtNtCsjdyqsEEf0cE_10rustc_span6symbol5IdentNtCsbwev6Zm5f0k_13rustc_resolve12BindingErrorE0EB2E_
librustc_driver-f8caf2bfd7396df8.so:_RINvMs6_NtCs9uhsTK9sLQH_9hashbrown3rawINtB6_8RawTablejE14reserve_rehashNCINvNtNtCs42Kw8IjNYDo_8indexmap3map4core8get_hashNtNtCsjdyqsEEf0cE_10rustc_span6symbol5IdentNtNtB1Z_13span_encoding4SpanE0ECs25h6OjkxBzy_18rustc_hir_analysis
librustc_driver-f8caf2bfd7396df8.so:_RINvMs6_NtCs9uhsTK9sLQH_9hashbrown3rawINtB6_8RawTablejE14reserve_rehashNCINvNtNtCs42Kw8IjNYDo_8indexmap3map4core8get_hashNtNtCsjdyqsEEf0cE_10rustc_span6symbol5IdentNtNtCs25h6OjkxBzy_18rustc_hir_analysis7collect13FieldDeclSpanE0EB2G_
librustc_driver-f8caf2bfd7396df8.so:_RINvMs6_NtCs9uhsTK9sLQH_9hashbrown3rawINtB6_8RawTablejE14reserve_rehashNCINvNtNtCs42Kw8IjNYDo_8indexmap3map4core8get_hashNtNtCsjdyqsEEf0cE_10rustc_span6symbol5IdentNtNtCs3XpY8PowsPH_9rustc_ast7node_id6NodeIdE0ECsbwev6Zm5f0k_13rustc_resolve
librustc_driver-f8caf2bfd7396df8.so:_RINvMs6_NtCs9uhsTK9sLQH_9hashbrown3rawINtB6_8RawTablejE14reserve_rehashNCINvNtNtCs42Kw8IjNYDo_8indexmap3map4core8get_hashNtNtCsjdyqsEEf0cE_10rustc_span6symbol5IdentNtNtCsbwev6Zm5f0k_13rustc_resolve4late11BindingInfoE0EB2G_
librustc_driver-f8caf2bfd7396df8.so:_RINvMs6_NtCs9uhsTK9sLQH_9hashbrown3rawINtB6_8RawTablejE14reserve_rehashNCINvNtNtCs42Kw8IjNYDo_8indexmap3map4core8get_hashNtNtCsjdyqsEEf0cE_10rustc_span6symbol5IdentTNtNtB1Z_13span_encoding4SpanB2D_EE0ECsbwev6Zm5f0k_13rustc_resolve
librustc_driver-f8caf2bfd7396df8.so:_RINvMs6_NtCs9uhsTK9sLQH_9hashbrown3rawINtB6_8RawTablejE14reserve_rehashNCINvNtNtCs42Kw8IjNYDo_8indexmap3map4core8get_hashNtNtCsjdyqsEEf0cE_10rustc_span6symbol5IdentTNtNtCs3XpY8PowsPH_9rustc_ast7node_id6NodeIdNtNtCs2Pf1rSX1q4A_9rustc_hir3def11LifetimeResEE0ECsbwev6Zm5f0k_13rustc_resolve
librustc_driver-f8caf2bfd7396df8.so:_RINvMs6_NtCs9uhsTK9sLQH_9hashbrown3rawINtB6_8RawTablejE14reserve_rehashNCINvNtNtCs42Kw8IjNYDo_8indexmap3map4core8get_hashNtNtCsjdyqsEEf0cE_10rustc_span6symbol5IdentuE0ECsbwev6Zm5f0k_13rustc_resolve
librustc_driver-f8caf2bfd7396df8.so:_RINvMs6_NtCs9uhsTK9sLQH_9hashbrown3rawINtB6_8RawTablejE14reserve_rehashNCINvNtNtCs42Kw8IjNYDo_8indexmap3map4core8get_hashNtNtCsjdyqsEEf0cE_10rustc_span6symbol6SymbolINtNtCs19MuVdBY7V6_5alloc3vec3VecNtNtB1Z_13span_encoding4SpanEE0ECsa5VOI9QU9vn_11rustc_parse
librustc_driver-f8caf2bfd7396df8.so:_RINvMs6_NtCs9uhsTK9sLQH_9hashbrown3rawINtB6_8RawTablejE14reserve_rehashNCINvNtNtCs42Kw8IjNYDo_8indexmap3map4core8get_hashNtNtCsjdyqsEEf0cE_10rustc_span6symbol6SymbolINtNtCsiN8jfhUhbz9_21rustc_data_structures6intern8InternedNtCsbwev6Zm5f0k_13rustc_resolve15NameBindingDataEE0EB3B_
librustc_driver-f8caf2bfd7396df8.so:_RINvMs6_NtCs9uhsTK9sLQH_9hashbrown3rawINtB6_8RawTablejE14reserve_rehashNCINvNtNtCs42Kw8IjNYDo_8indexmap3map4core8get_hashNtNtCsjdyqsEEf0cE_10rustc_span6symbol6SymbolNtNtB1Z_13span_encoding4SpanE0ECshJoW1joeLxI_13rustc_session
librustc_driver-f8caf2bfd7396df8.so:_RINvMs6_NtCs9uhsTK9sLQH_9hashbrown3rawINtB6_8RawTablejE14reserve_rehashNCINvNtNtCs42Kw8IjNYDo_8indexmap3map4core8get_hashNtNtCsjdyqsEEf0cE_10rustc_span6symbol6SymbolNtNtB1Z_6def_id5DefIdE0ECs6JcOuld5fNS_12rustc_passes
librustc_driver-f8caf2bfd7396df8.so:_RINvMs6_NtCs9uhsTK9sLQH_9hashbrown3rawINtB6_8RawTablejE14reserve_rehashNCINvNtNtCs42Kw8IjNYDo_8indexmap3map4core8get_hashNtNtCsjdyqsEEf0cE_10rustc_span6symbol6SymbolNtNtB1Z_6def_id5DefIdE0ECskmy2rFhdDOz_14rustc_metadata
librustc_driver-f8caf2bfd7396df8.so:_RINvMs6_NtCs9uhsTK9sLQH_9hashbrown3rawINtB6_8RawTablejE14reserve_rehashNCINvNtNtCs42Kw8IjNYDo_8indexmap3map4core8get_hashNtNtCsjdyqsEEf0cE_10rustc_span6symbol6SymbolNtNtNtCs25h6OjkxBzy_18rustc_hir_analysis9coherence22inherent_impls_overlap8RegionIdE0EB2J_
librustc_driver-f8caf2bfd7396df8.so:_RINvMs6_NtCs9uhsTK9sLQH_9hashbrown3rawINtB6_8RawTablejE14reserve_rehashNCINvNtNtCs42Kw8IjNYDo_8indexmap3map4core8get_hashNtNtCsjdyqsEEf0cE_10rustc_span6symbol6SymbolRNtNtCshJoW1joeLxI_13rustc_session6cstore9DllImportE0ECsjcIbwyOWlC2_17rustc_codegen_ssa
librustc_driver-f8caf2bfd7396df8.so:_RINvMs6_NtCs9uhsTK9sLQH_9hashbrown3rawINtB6_8RawTablejE14reserve_rehashNCINvNtNtCs42Kw8IjNYDo_8indexmap3map4core8get_hashNtNtCsjdyqsEEf0cE_10rustc_span6symbol6SymboljE0ECs1xGwrsmuMfH_20rustc_builtin_macros
librustc_driver-f8caf2bfd7396df8.so:_RINvMs6_NtCs9uhsTK9sLQH_9hashbrown3rawINtB6_8RawTablejE14reserve_rehashNCINvNtNtCs42Kw8IjNYDo_8indexmap3map4core8get_hashNtNtCsjdyqsEEf0cE_10rustc_span6symbol6SymboljE0ECs25h6OjkxBzy_18rustc_hir_analysis
librustc_driver-f8caf2bfd7396df8.so:_RINvMs6_NtCs9uhsTK9sLQH_9hashbrown3rawINtB6_8RawTablejE14reserve_rehashNCINvNtNtCs42Kw8IjNYDo_8indexmap3map4core8get_hashNtNtCsjdyqsEEf0cE_10rustc_span6symbol6SymboluE0ECscglkemFQPVF_21rustc_trait_selection
librustc_driver-f8caf2bfd7396df8.so:_RINvMs6_NtCs9uhsTK9sLQH_9hashbrown3rawINtB6_8RawTablejE14reserve_rehashNCINvNtNtCs42Kw8IjNYDo_8indexmap3map4core8get_hashNtNtCsjdyqsEEf0cE_10rustc_span6symbol6SymboluE0ECsjjbouxysk1D_12rustc_expand
librustc_driver-f8caf2bfd7396df8.so:_RINvMs6_NtCs9uhsTK9sLQH_9hashbrown3rawINtB6_8RawTablejE14reserve_rehashNCINvNtNtCs42Kw8IjNYDo_8indexmap3map4core8get_hashNtNtCsjdyqsEEf0cE_10rustc_span7hygiene6ExpnIdNtNtNtCs3pEzLKeUfxb_19rustc_mir_transform8coverage9expansion8ExpnNodeE0EB2K_
librustc_driver-f8caf2bfd7396df8.so:_RINvMs6_NtCs9uhsTK9sLQH_9hashbrown3rawINtB6_8RawTablejE14reserve_rehashNCINvNtNtCs42Kw8IjNYDo_8indexmap3map4core8get_hashNtNtCsjdyqsEEf0cE_10rustc_span7hygiene6ExpnIduE0ECs3pEzLKeUfxb_19rustc_mir_transform
librustc_driver-f8caf2bfd7396df8.so:_RINvMs6_NtCs9uhsTK9sLQH_9hashbrown3rawINtB6_8RawTablejE14reserve_rehashNCINvNtNtCs42Kw8IjNYDo_8indexmap3map4core8get_hashNtNtCsjj3dQwFOuTb_3std4path7PathBufNtNtCshJoW1joeLxI_13rustc_session12search_paths8PathKindE0ECskmy2rFhdDOz_14rustc_metadata
librustc_driver-f8caf2bfd7396df8.so:_RINvMs6_NtCs9uhsTK9sLQH_9hashbrown3rawINtB6_8RawTablejE14reserve_rehashNCINvNtNtCs42Kw8IjNYDo_8indexmap3map4core8get_hashNtNtNtCs2LLJB4iKe2E_5gimli5write3cfi22CommonInformationEntryuE0EB21_
librustc_driver-f8caf2bfd7396df8.so:_RINvMs6_NtCs9uhsTK9sLQH_9hashbrown3rawINtB6_8RawTablejE14reserve_rehashNCINvNtNtCs42Kw8IjNYDo_8indexmap3map4core8get_hashNtNtNtCs2LLJB4iKe2E_5gimli5write3loc12LocationListuE0EB21_
librustc_driver-f8caf2bfd7396df8.so:_RINvMs6_NtCs9uhsTK9sLQH_9hashbrown3rawINtB6_8RawTablejE14reserve_rehashNCINvNtNtCs42Kw8IjNYDo_8indexmap3map4core8get_hashNtNtNtCs2LLJB4iKe2E_5gimli5write4line10LineStringuE0EB21_
librustc_driver-f8caf2bfd7396df8.so:_RINvMs6_NtCs9uhsTK9sLQH_9hashbrown3rawINtB6_8RawTablejE14reserve_rehashNCINvNtNtCs42Kw8IjNYDo_8indexmap3map4core8get_hashNtNtNtCs2LLJB4iKe2E_5gimli5write5range9RangeListuE0EB21_
librustc_driver-f8caf2bfd7396df8.so:_RINvMs6_NtCs9uhsTK9sLQH_9hashbrown3rawINtB6_8RawTablejE14reserve_rehashNCINvNtNtCs42Kw8IjNYDo_8indexmap3map4core8get_hashNtNtNtCs2LLJB4iKe2E_5gimli5write6abbrev12AbbreviationuE0EB21_
librustc_driver-f8caf2bfd7396df8.so:_RINvMs6_NtCs9uhsTK9sLQH_9hashbrown3rawINtB6_8RawTablejE14reserve_rehashNCINvNtNtCs42Kw8IjNYDo_8indexmap3map4core8get_hashNtNtNtCs3WhD79dQ5JG_9rustc_abi6layout2ty6LayoutNtNtCs2IzmDjFIpnY_12rustc_public3abi6LayoutE0EB2K_
librustc_driver-f8caf2bfd7396df8.so:_RINvMs6_NtCs9uhsTK9sLQH_9hashbrown3rawINtB6_8RawTablejE14reserve_rehashNCINvNtNtCs42Kw8IjNYDo_8indexmap3map4core8get_hashNtNtNtCs9KgQoMCEFyf_15rustc_mir_build7builder7matches10TestBranchINtNtCs19MuVdBY7V6_5alloc3vec3VecQNtB1X_9CandidateEE0EB21_
librustc_driver-f8caf2bfd7396df8.so:_RINvMs6_NtCs9uhsTK9sLQH_9hashbrown3rawINtB6_8RawTablejE14reserve_rehashNCINvNtNtCs42Kw8IjNYDo_8indexmap3map4core8get_hashNtNtNtCs9KgQoMCEFyf_15rustc_mir_build7builder7matches10TestBranchNtNtCsbnIUe8x9cNz_12rustc_middle3mir10BasicBlockE0EB21_
librustc_driver-f8caf2bfd7396df8.so:_RINvMs6_NtCs9uhsTK9sLQH_9hashbrown3rawINtB6_8RawTablejE14reserve_rehashNCINvNtNtCs42Kw8IjNYDo_8indexmap3map4core8get_hashNtNtNtCsbnIUe8x9cNz_12rustc_middle2ty12generic_args10GenericArgINtNtCs19MuVdBY7V6_5alloc3vec3VecjEE0ECscglkemFQPVF_21rustc_trait_selection
librustc_driver-f8caf2bfd7396df8.so:_RINvMs6_NtCs9uhsTK9sLQH_9hashbrown3rawINtB6_8RawTablejE14reserve_rehashNCINvNtNtCs42Kw8IjNYDo_8indexmap3map4core8get_hashNtNtNtCsbnIUe8x9cNz_12rustc_middle2ty12generic_args10GenericArguE0ECs25h6OjkxBzy_18rustc_hir_analysis
librustc_driver-f8caf2bfd7396df8.so:_RINvMs6_NtCs9uhsTK9sLQH_9hashbrown3rawINtB6_8RawTablejE14reserve_rehashNCINvNtNtCs42Kw8IjNYDo_8indexmap3map4core8get_hashNtNtNtCsbnIUe8x9cNz_12rustc_middle2ty6consts5ConstNtNtCs2IzmDjFIpnY_12rustc_public2ty9TyConstIdE0EB2N_
librustc_driver-f8caf2bfd7396df8.so:_RINvMs6_NtCs9uhsTK9sLQH_9hashbrown3rawINtB6_8RawTablejE14reserve_rehashNCINvNtNtCs42Kw8IjNYDo_8indexmap3map4core8get_hashNtNtNtCsbnIUe8x9cNz_12rustc_middle2ty6region11BoundRegionNtB1X_6RegionE0EB21_
librustc_driver-f8caf2bfd7396df8.so:_RINvMs6_NtCs9uhsTK9sLQH_9hashbrown3rawINtB6_8RawTablejE14reserve_rehashNCINvNtNtCs42Kw8IjNYDo_8indexmap3map4core8get_hashNtNtNtCsbnIUe8x9cNz_12rustc_middle2ty6region15BoundRegionKinduE0EB21_
librustc_driver-f8caf2bfd7396df8.so:_RINvMs6_NtCs9uhsTK9sLQH_9hashbrown3rawINtB6_8RawTablejE14reserve_rehashNCINvNtNtCs42Kw8IjNYDo_8indexmap3map4core8get_hashNtNtNtCsbnIUe8x9cNz_12rustc_middle2ty6region19LateParamRegionKindB1V_E0ECs25h6OjkxBzy_18rustc_hir_analysis
librustc_driver-f8caf2bfd7396df8.so:_RINvMs6_NtCs9uhsTK9sLQH_9hashbrown3rawINtB6_8RawTablejE14reserve_rehashNCINvNtNtCs42Kw8IjNYDo_8indexmap3map4core8get_hashNtNtNtCsbnIUe8x9cNz_12rustc_middle2ty6region6RegionB1V_E0ECs25h6OjkxBzy_18rustc_hir_analysis
librustc_driver-f8caf2bfd7396df8.so:_RINvMs6_NtCs9uhsTK9sLQH_9hashbrown3rawINtB6_8RawTablejE14reserve_rehashNCINvNtNtCs42Kw8IjNYDo_8indexmap3map4core8get_hashNtNtNtCsbnIUe8x9cNz_12rustc_middle2ty6region6RegionINtNtCs19MuVdBY7V6_5alloc3vec3VecB1V_EE0ECs25h6OjkxBzy_18rustc_hir_analysis
librustc_driver-f8caf2bfd7396df8.so:_RINvMs6_NtCs9uhsTK9sLQH_9hashbrown3rawINtB6_8RawTablejE14reserve_rehashNCINvNtNtCs42Kw8IjNYDo_8indexmap3map4core8get_hashNtNtNtCsbnIUe8x9cNz_12rustc_middle2ty6region6RegionNtNtCs2t38KIHyE4j_13rustc_type_ir11region_kind9RegionVidE0ECsfTLCRcPlsnU_14rustc_borrowck
librustc_driver-f8caf2bfd7396df8.so:_RINvMs6_NtCs9uhsTK9sLQH_9hashbrown3rawINtB6_8RawTablejE14reserve_rehashNCINvNtNtCs42Kw8IjNYDo_8indexmap3map4core8get_hashNtNtNtCsbnIUe8x9cNz_12rustc_middle2ty6region6RegionNtNtNtNtCs1rNb7bG4Xia_11rustc_infer5infer18region_constraints10leak_check13LeakCheckNodeE0EB2S_
librustc_driver-f8caf2bfd7396df8.so:_RINvMs6_NtCs9uhsTK9sLQH_9hashbrown3rawINtB6_8RawTablejE14reserve_rehashNCINvNtNtCs42Kw8IjNYDo_8indexmap3map4core8get_hashNtNtNtCsbnIUe8x9cNz_12rustc_middle2ty6region6RegionuE0ECscglkemFQPVF_21rustc_trait_selection
librustc_driver-f8caf2bfd7396df8.so:_RINvMs6_NtCs9uhsTK9sLQH_9hashbrown3rawINtB6_8RawTablejE14reserve_rehashNCINvNtNtCs42Kw8IjNYDo_8indexmap3map4core8get_hashNtNtNtCsbnIUe8x9cNz_12rustc_middle2ty8instance8InstanceNtNtNtCs2IzmDjFIpnY_12rustc_public3mir4mono11InstanceDefE0EB2U_
librustc_driver-f8caf2bfd7396df8.so:_RINvMs6_NtCs9uhsTK9sLQH_9hashbrown3rawINtB6_8RawTablejE14reserve_rehashNCINvNtNtCs42Kw8IjNYDo_8indexmap3map4core8get_hashNtNtNtCsbnIUe8x9cNz_12rustc_middle2ty8instance8InstanceRNtNtNtCseuJrGsAzkDK_18rustc_codegen_llvm4llvm3ffi5ValueE0EB2V_
librustc_driver-f8caf2bfd7396df8.so:_RINvMs6_NtCs9uhsTK9sLQH_9hashbrown3rawINtB6_8RawTablejE14reserve_rehashNCINvNtNtCs42Kw8IjNYDo_8indexmap3map4core8get_hashNtNtNtCsbnIUe8x9cNz_12rustc_middle2ty9predicate6ClauseuE0ECs25h6OjkxBzy_18rustc_hir_analysis
librustc_driver-f8caf2bfd7396df8.so:_RINvMs6_NtCs9uhsTK9sLQH_9hashbrown3rawINtB6_8RawTablejE14reserve_rehashNCINvNtNtCs42Kw8IjNYDo_8indexmap3map4core8get_hashNtNtNtCsbnIUe8x9cNz_12rustc_middle2ty9predicate9PredicateuE0ECscglkemFQPVF_21rustc_trait_selection
librustc_driver-f8caf2bfd7396df8.so:_RINvMs6_NtCs9uhsTK9sLQH_9hashbrown3rawINtB6_8RawTablejE14reserve_rehashNCINvNtNtCs42Kw8IjNYDo_8indexmap3map4core8get_hashNtNtNtCsbnIUe8x9cNz_12rustc_middle3mir4mono8MonoItemNtB1X_12MonoItemDataE0ECshohWIpJhPWk_18rustc_monomorphize
librustc_driver-f8caf2bfd7396df8.so:_RINvMs6_NtCs9uhsTK9sLQH_9hashbrown3rawINtB6_8RawTablejE14reserve_rehashNCINvNtNtCs42Kw8IjNYDo_8indexmap3map4core8get_hashNtNtNtCsbnIUe8x9cNz_12rustc_middle3mir4mono8MonoItemNtNtCsjdyqsEEf0cE_10rustc_span13span_encoding4SpanE0ECshohWIpJhPWk_18rustc_monomorphize
librustc_driver-f8caf2bfd7396df8.so:_RINvMs6_NtCs9uhsTK9sLQH_9hashbrown3rawINtB6_8RawTablejE14reserve_rehashNCINvNtNtCs42Kw8IjNYDo_8indexmap3map4core8get_hashNtNtNtCsbnIUe8x9cNz_12rustc_middle3mir4mono8MonoItemuE0ECshohWIpJhPWk_18rustc_monomorphize
librustc_driver-f8caf2bfd7396df8.so:_RINvMs6_NtCs9uhsTK9sLQH_9hashbrown3rawINtB6_8RawTablejE14reserve_rehashNCINvNtNtCs42Kw8IjNYDo_8indexmap3map4core8get_hashNtNtNtCsbnIUe8x9cNz_12rustc_middle3mir6consts5ConstNtNtCs2IzmDjFIpnY_12rustc_public2ty10MirConstIdE0EB2O_
librustc_driver-f8caf2bfd7396df8.so:_RINvMs6_NtCs9uhsTK9sLQH_9hashbrown3rawINtB6_8RawTablejE14reserve_rehashNCINvNtNtCs42Kw8IjNYDo_8indexmap3map4core8get_hashNtNtNtCsbnIUe8x9cNz_12rustc_middle3mir6syntax5PlaceNtB1X_14FakeBorrowKindE0ECs9KgQoMCEFyf_15rustc_mir_build
librustc_driver-f8caf2bfd7396df8.so:_RINvMs6_NtCs9uhsTK9sLQH_9hashbrown3rawINtB6_8RawTablejE14reserve_rehashNCINvNtNtCs42Kw8IjNYDo_8indexmap3map4core8get_hashNtNtNtCsbnIUe8x9cNz_12rustc_middle3mir6syntax5PlaceuE0ECsfTLCRcPlsnU_14rustc_borrowck
librustc_driver-f8caf2bfd7396df8.so:_RINvMs6_NtCs9uhsTK9sLQH_9hashbrown3rawINtB6_8RawTablejE14reserve_rehashNCINvNtNtCs42Kw8IjNYDo_8indexmap3map4core8get_hashNtNtNtCsbnIUe8x9cNz_12rustc_middle3mir8coverage18BasicCoverageBlockNtB1X_9CounterIdE0ECs3pEzLKeUfxb_19rustc_mir_transform
librustc_driver-f8caf2bfd7396df8.so:_RINvMs6_NtCs9uhsTK9sLQH_9hashbrown3rawINtB6_8RawTablejE14reserve_rehashNCINvNtNtCs42Kw8IjNYDo_8indexmap3map4core8get_hashNtNtNtCsbnIUe8x9cNz_12rustc_middle3mir9interpret7AllocIdNtNtNtCs2IzmDjFIpnY_12rustc_public3mir5alloc7AllocIdE0EB2V_
librustc_driver-f8caf2bfd7396df8.so:_RINvMs6_NtCs9uhsTK9sLQH_9hashbrown3rawINtB6_8RawTablejE14reserve_rehashNCINvNtNtCs42Kw8IjNYDo_8indexmap3map4core8get_hashNtNtNtCsbnIUe8x9cNz_12rustc_middle3mir9interpret7AllocIdTINtNtNtCs70IT0j5QNpU_16rustc_const_eval9interpret6memory10MemoryKindNtNtNtB2X_10const_eval7machine10MemoryKindENtNtB1X_10allocation10AllocationEE0EB2X_
librustc_driver-f8caf2bfd7396df8.so:_RINvMs6_NtCs9uhsTK9sLQH_9hashbrown3rawINtB6_8RawTablejE14reserve_rehashNCINvNtNtCs42Kw8IjNYDo_8indexmap3map4core8get_hashNtNtNtCsbnIUe8x9cNz_12rustc_middle3mir9interpret7AllocIdTNtCs3WhD79dQ5JG_9rustc_abi4SizeNtB2S_5AlignEE0ECs70IT0j5QNpU_16rustc_const_eval
librustc_driver-f8caf2bfd7396df8.so:_RINvMs6_NtCs9uhsTK9sLQH_9hashbrown3rawINtB6_8RawTablejE14reserve_rehashNCINvNtNtCs42Kw8IjNYDo_8indexmap3map4core8get_hashNtNtNtCsbnIUe8x9cNz_12rustc_middle3mir9interpret7AllocIduE0EB21_
librustc_driver-f8caf2bfd7396df8.so:_RINvMs6_NtCs9uhsTK9sLQH_9hashbrown3rawINtB6_8RawTablejE14reserve_rehashNCINvNtNtCs42Kw8IjNYDo_8indexmap3map4core8get_hashNtNtNtCsbnIUe8x9cNz_12rustc_middle3mir9interpret7AllocIdzE0ECs70IT0j5QNpU_16rustc_const_eval
librustc_driver-f8caf2bfd7396df8.so:_RINvMs6_NtCs9uhsTK9sLQH_9hashbrown3rawINtB6_8RawTablejE14reserve_rehashNCINvNtNtCs42Kw8IjNYDo_8indexmap3map4core8get_hashNtNtNtCsbnIUe8x9cNz_12rustc_middle6middle18resolve_bound_vars11ResolvedArgNtNtCsjdyqsEEf0cE_10rustc_span6def_id10LocalDefIdE0ECs25h6OjkxBzy_18rustc_hir_analysis
librustc_driver-f8caf2bfd7396df8.so:_RINvMs6_NtCs9uhsTK9sLQH_9hashbrown3rawINtB6_8RawTablejE14reserve_rehashNCINvNtNtCs42Kw8IjNYDo_8indexmap3map4core8get_hashNtNtNtCsbnIUe8x9cNz_12rustc_middle6middle6region5ScopeB1V_E0EB21_
librustc_driver-f8caf2bfd7396df8.so:_RINvMs6_NtCs9uhsTK9sLQH_9hashbrown3rawINtB6_8RawTablejE14reserve_rehashNCINvNtNtCs42Kw8IjNYDo_8indexmap3map4core8get_hashNtNtNtCscglkemFQPVF_21rustc_trait_selection15error_reporting5infer10TyCategoryINtNtB1g_3set8IndexSetNtNtCsjdyqsEEf0cE_10rustc_span13span_encoding4SpanINtNtCs9WsFjTlRn02_4core4hash18BuildHasherDefaultNtCsiHaVk9ZDPzl_10rustc_hash8FxHasherEEE0EB21_
librustc_driver-f8caf2bfd7396df8.so:_RINvMs6_NtCs9uhsTK9sLQH_9hashbrown3rawINtB6_8RawTablejE14reserve_rehashNCINvNtNtCs42Kw8IjNYDo_8indexmap3map4core8get_hashNtNtNtCscglkemFQPVF_21rustc_trait_selection6traits10auto_trait12RegionTargetNtB1X_10RegionDepsE0EB21_
librustc_driver-f8caf2bfd7396df8.so:_RINvMs6_NtCs9uhsTK9sLQH_9hashbrown3rawINtB6_8RawTablejE14reserve_rehashNCINvNtNtCs42Kw8IjNYDo_8indexmap3map4core8get_hashNtNtNtCscglkemFQPVF_21rustc_trait_selection6traits10auto_trait12RegionTargetuE0EB21_
librustc_driver-f8caf2bfd7396df8.so:_RINvMs6_NtCs9uhsTK9sLQH_9hashbrown3rawINtB6_8RawTablejE14reserve_rehashNCINvNtNtCs42Kw8IjNYDo_8indexmap3map4core8get_hashNtNtNtCscglkemFQPVF_21rustc_trait_selection6traits6select24IntercrateAmbiguityCauseuE0EB21_
librustc_driver-f8caf2bfd7396df8.so:_RINvMs6_NtCs9uhsTK9sLQH_9hashbrown3rawINtB6_8RawTablejE14reserve_rehashNCINvNtNtCs42Kw8IjNYDo_8indexmap3map4core8get_hashNtNtNtCsfTLCRcPlsnU_14rustc_borrowck8polonius13loan_liveness13LocalizedNodeuE0EB21_
librustc_driver-f8caf2bfd7396df8.so:_RINvMs6_NtCs9uhsTK9sLQH_9hashbrown3rawINtB6_8RawTablejE14reserve_rehashNCINvNtNtCs42Kw8IjNYDo_8indexmap3map4core8get_hashNtNtNtCshF5AtUv7kVK_18rustc_query_system9dep_graph5graph12DepNodeIndexNtNtB21_5query15QuerySideEffectE0ECsbnIUe8x9cNz_12rustc_middle
librustc_driver-f8caf2bfd7396df8.so:_RINvMs6_NtCs9uhsTK9sLQH_9hashbrown3rawINtB6_8RawTablejE14reserve_rehashNCINvNtNtCs42Kw8IjNYDo_8indexmap3map4core8get_hashNtNtNtCshF5AtUv7kVK_18rustc_query_system9dep_graph8dep_node13WorkProductIdNtNtB1Z_5graph11WorkProductE0ECsjcIbwyOWlC2_17rustc_codegen_ssa
librustc_driver-f8caf2bfd7396df8.so:_RINvMs6_NtCs9uhsTK9sLQH_9hashbrown3rawINtB6_8RawTablejE14reserve_rehashNCINvNtNtCs42Kw8IjNYDo_8indexmap3map4core8get_hashNtNtNtCshF5AtUv7kVK_18rustc_query_system9dep_graph8dep_node7DepKinduE0ECs8tAGCjRPvUB_17rustc_incremental
librustc_driver-f8caf2bfd7396df8.so:_RINvMs6_NtCs9uhsTK9sLQH_9hashbrown3rawINtB6_8RawTablejE14reserve_rehashNCINvNtNtCs42Kw8IjNYDo_8indexmap3map4core8get_hashNtNtNtCskY7KG58jvqp_15rustc_transmute6layout3dfa5StateINtB1X_11TransitionsNtNtNtCsbnIUe8x9cNz_12rustc_middle2ty6region6RegionNtB3b_2TyEE0EB21_
librustc_driver-f8caf2bfd7396df8.so:_RINvMs6_NtCs9uhsTK9sLQH_9hashbrown3rawINtB6_8RawTablejE14reserve_rehashNCINvNtNtCs42Kw8IjNYDo_8indexmap3map4core8get_hashNtNvMNtNtCs25h6OjkxBzy_18rustc_hir_analysis15hir_ty_lowering6errorsDNtB22_12HirTyLowererEL_30report_prohibited_generic_args19ProhibitGenericsArguE0EB24_
librustc_driver-f8caf2bfd7396df8.so:_RINvMs6_NtCs9uhsTK9sLQH_9hashbrown3rawINtB6_8RawTablejE14reserve_rehashNCINvNtNtCs42Kw8IjNYDo_8indexmap3map4core8get_hashRINtNtCs2t38KIHyE4j_13rustc_type_ir6binder6BinderNtNtNtCsbnIUe8x9cNz_12rustc_middle2ty7context6TyCtxtINtNtB21_9predicate8TraitRefB2I_EEINtNtCs19MuVdBY7V6_5alloc3vec3VecNtNtCsjdyqsEEf0cE_10rustc_span6symbol6SymbolEE0ECs25h6OjkxBzy_18rustc_hir_analysis
librustc_driver-f8caf2bfd7396df8.so:_RINvMs6_NtCs9uhsTK9sLQH_9hashbrown3rawINtB6_8RawTablejE14reserve_rehashNCINvNtNtCs42Kw8IjNYDo_8indexmap3map4core8get_hashRNtNtCs2t38KIHyE4j_13rustc_type_ir11region_kind9RegionViduE0ECsfTLCRcPlsnU_14rustc_borrowck
librustc_driver-f8caf2bfd7396df8.so:_RINvMs6_NtCs9uhsTK9sLQH_9hashbrown3rawINtB6_8RawTablejE14reserve_rehashNCINvNtNtCs42Kw8IjNYDo_8indexmap3map4core8get_hashRNtNtNtCshF5AtUv7kVK_18rustc_query_system9dep_graph8dep_node7DepNodeuE0ECs8tAGCjRPvUB_17rustc_incremental
librustc_driver-f8caf2bfd7396df8.so:_RINvMs6_NtCs9uhsTK9sLQH_9hashbrown3rawINtB6_8RawTablejE14reserve_rehashNCINvNtNtCs42Kw8IjNYDo_8indexmap3map4core8get_hashRShuE0ECsf21fn2YBgpG_6object
librustc_driver-f8caf2bfd7396df8.so:_RINvMs6_NtCs9uhsTK9sLQH_9hashbrown3rawINtB6_8RawTablejE14reserve_rehashNCINvNtNtCs42Kw8IjNYDo_8indexmap3map4core8get_hashRShuE0ECsiwa6XAY8u2U_6object
librustc_driver-f8caf2bfd7396df8.so:_RINvMs6_NtCs9uhsTK9sLQH_9hashbrown3rawINtB6_8RawTablejE14reserve_rehashNCINvNtNtCs42Kw8IjNYDo_8indexmap3map4core8get_hashRShuE0ECsjdyqsEEf0cE_10rustc_span
librustc_driver-f8caf2bfd7396df8.so:_RINvMs6_NtCs9uhsTK9sLQH_9hashbrown3rawINtB6_8RawTablejE14reserve_rehashNCINvNtNtCs42Kw8IjNYDo_8indexmap3map4core8get_hashReINtNtCs19MuVdBY7V6_5alloc3vec3VecTB1V_INtNtCs9WsFjTlRn02_4core6option6OptionNtNtCsjdyqsEEf0cE_10rustc_span6def_id5DefIdEB1V_EEE0ECsbnIUe8x9cNz_12rustc_middle
librustc_driver-f8caf2bfd7396df8.so:_RINvMs6_NtCs9uhsTK9sLQH_9hashbrown3rawINtB6_8RawTablejE14reserve_rehashNCINvNtNtCs42Kw8IjNYDo_8indexmap3map4core8get_hashReNtNtCsd1JD1uUqwgV_10rustc_lint7context9LintGroupE0EB21_
librustc_driver-f8caf2bfd7396df8.so:_RINvMs6_NtCs9uhsTK9sLQH_9hashbrown3rawINtB6_8RawTablejE14reserve_rehashNCINvNtNtCs42Kw8IjNYDo_8indexmap3map4core8get_hashReuE0ECs3pEzLKeUfxb_19rustc_mir_transform
librustc_driver-f8caf2bfd7396df8.so:_RINvMs6_NtCs9uhsTK9sLQH_9hashbrown3rawINtB6_8RawTablejE14reserve_rehashNCINvNtNtCs42Kw8IjNYDo_8indexmap3map4core8get_hashTINtNtCs2t38KIHyE4j_13rustc_type_ir6binder6BinderNtNtNtCsbnIUe8x9cNz_12rustc_middle2ty7context6TyCtxtTRINtNtB2M_4list7RawListuNtB2M_2TyEB3X_EEbENtNtNtB2M_5print6pretty13OpaqueFnEntryE0EB2O_
librustc_driver-f8caf2bfd7396df8.so:_RINvMs6_NtCs9uhsTK9sLQH_9hashbrown3rawINtB6_8RawTablejE14reserve_rehashNCINvNtNtCs42Kw8IjNYDo_8indexmap3map4core8get_hashTINtNtCs9WsFjTlRn02_4core6option6OptionNtNtNtCskY7KG58jvqp_15rustc_transmute6layout3dfa5StateEB1W_EB2y_E0EB2E_
librustc_driver-f8caf2bfd7396df8.so:_RINvMs6_NtCs9uhsTK9sLQH_9hashbrown3rawINtB6_8RawTablejE14reserve_rehashNCINvNtNtCs42Kw8IjNYDo_8indexmap3map4core8get_hashTINtNtCs9WsFjTlRn02_4core6option6OptionNtNtNtCskY7KG58jvqp_15rustc_transmute6layout3dfa5StateEB1W_EuE0EB2E_
librustc_driver-f8caf2bfd7396df8.so:_RINvMs6_NtCs9uhsTK9sLQH_9hashbrown3rawINtB6_8RawTablejE14reserve_rehashNCINvNtNtCs42Kw8IjNYDo_8indexmap3map4core8get_hashTNtNtCs2Pf1rSX1q4A_9rustc_hir3def9NamespaceNtNtCsjdyqsEEf0cE_10rustc_span6symbol6SymbolEINtNtCs9WsFjTlRn02_4core6option6OptionNtNtB2G_6def_id5DefIdEE0ECsbnIUe8x9cNz_12rustc_middle
librustc_driver-f8caf2bfd7396df8.so:_RINvMs6_NtCs9uhsTK9sLQH_9hashbrown3rawINtB6_8RawTablejE14reserve_rehashNCINvNtNtCs42Kw8IjNYDo_8indexmap3map4core8get_hashTNtNtCs5CCFvyG5imu_18rustc_mir_dataflow14value_analysis10PlaceIndexB1W_EuE0EB20_
librustc_driver-f8caf2bfd7396df8.so:_RINvMs6_NtCs9uhsTK9sLQH_9hashbrown3rawINtB6_8RawTablejE14reserve_rehashNCINvNtNtCs42Kw8IjNYDo_8indexmap3map4core8get_hashTNtNtCsbnIUe8x9cNz_12rustc_middle2ty2TyNtNtCsjdyqsEEf0cE_10rustc_span13span_encoding4SpanEuE0ECsfTLCRcPlsnU_14rustc_borrowck
librustc_driver-f8caf2bfd7396df8.so:_RINvMs6_NtCs9uhsTK9sLQH_9hashbrown3rawINtB6_8RawTablejE14reserve_rehashNCINvNtNtCs42Kw8IjNYDo_8indexmap3map4core8get_hashTNtNtCsbnIUe8x9cNz_12rustc_middle2ty2TyjEuE0ECs25h6OjkxBzy_18rustc_hir_analysis
librustc_driver-f8caf2bfd7396df8.so:_RINvMs6_NtCs9uhsTK9sLQH_9hashbrown3rawINtB6_8RawTablejE14reserve_rehashNCINvNtNtCs42Kw8IjNYDo_8indexmap3map4core8get_hashTNtNtCsjdyqsEEf0cE_10rustc_span13span_encoding4SpanNtNtCs19MuVdBY7V6_5alloc6string6StringEuE0ECsdEUoebXq6qL_12rustc_errors
librustc_driver-f8caf2bfd7396df8.so:_RINvMs6_NtCs9uhsTK9sLQH_9hashbrown3rawINtB6_8RawTablejE14reserve_rehashNCINvNtNtCs42Kw8IjNYDo_8indexmap3map4core8get_hashTNtNtCsjdyqsEEf0cE_10rustc_span13span_encoding4SpanNtNtNtCsbnIUe8x9cNz_12rustc_middle2ty9predicate9PredicateNtNtB2Q_6traits15ObligationCauseEuE0ECs7VwJBT60bpD_16rustc_hir_typeck
librustc_driver-f8caf2bfd7396df8.so:_RINvMs6_NtCs9uhsTK9sLQH_9hashbrown3rawINtB6_8RawTablejE14reserve_rehashNCINvNtNtCs42Kw8IjNYDo_8indexmap3map4core8get_hashTNtNtCsjdyqsEEf0cE_10rustc_span13span_encoding4SpanReEINtNtCsiN8jfhUhbz9_21rustc_data_structures5unord8UnordSetNtNtCs19MuVdBY7V6_5alloc6string6StringEE0ECs7VwJBT60bpD_16rustc_hir_typeck
librustc_driver-f8caf2bfd7396df8.so:_RINvMs6_NtCs9uhsTK9sLQH_9hashbrown3rawINtB6_8RawTablejE14reserve_rehashNCINvNtNtCs42Kw8IjNYDo_8indexmap3map4core8get_hashTNtNtCsjdyqsEEf0cE_10rustc_span13span_encoding4SpanReEuE0ECs7VwJBT60bpD_16rustc_hir_typeck
librustc_driver-f8caf2bfd7396df8.so:_RINvMs6_NtCs9uhsTK9sLQH_9hashbrown3rawINtB6_8RawTablejE14reserve_rehashNCINvNtNtCs42Kw8IjNYDo_8indexmap3map4core8get_hashTNtNtCsjdyqsEEf0cE_10rustc_span6def_id5DefIdINtNtCs2t38KIHyE4j_13rustc_type_ir6binder6BinderNtNtNtCsbnIUe8x9cNz_12rustc_middle2ty7context6TyCtxtINtNtB2I_9predicate8TraitRefB3p_EEETIB2E_B3p_INtB4i_19ProjectionPredicateB3p_EENtNtB20_13span_encoding4SpanEE0ECs25h6OjkxBzy_18rustc_hir_analysis
librustc_driver-f8caf2bfd7396df8.so:_RINvMs6_NtCs9uhsTK9sLQH_9hashbrown3rawINtB6_8RawTablejE14reserve_rehashNCINvNtNtCs42Kw8IjNYDo_8indexmap3map4core8get_hashTNtNtCsjdyqsEEf0cE_10rustc_span6def_id5DefIdINtNtCs2t38KIHyE4j_13rustc_type_ir6binder6BinderNtNtNtCsbnIUe8x9cNz_12rustc_middle2ty7context6TyCtxtINtNtB2I_9predicate8TraitRefB3p_EEEuE0ECs25h6OjkxBzy_18rustc_hir_analysis
librustc_driver-f8caf2bfd7396df8.so:_RINvMs6_NtCs9uhsTK9sLQH_9hashbrown3rawINtB6_8RawTablejE14reserve_rehashNCINvNtNtCs42Kw8IjNYDo_8indexmap3map4core8get_hashTNtNtCsjdyqsEEf0cE_10rustc_span6def_id5DefIdRINtNtNtCsbnIUe8x9cNz_12rustc_middle2ty4list7RawListuNtNtB2J_12generic_args10GenericArgEEuE0ECs3pEzLKeUfxb_19rustc_mir_transform
librustc_driver-f8caf2bfd7396df8.so:_RINvMs6_NtCs9uhsTK9sLQH_9hashbrown3rawINtB6_8RawTablejE14reserve_rehashNCINvNtNtCs42Kw8IjNYDo_8indexmap3map4core8get_hashTNtNtCsjdyqsEEf0cE_10rustc_span6symbol6SymbolINtNtCs9WsFjTlRn02_4core6option6OptionB1W_EEuE0ECshJoW1joeLxI_13rustc_session
librustc_driver-f8caf2bfd7396df8.so:_RINvMs6_NtCs9uhsTK9sLQH_9hashbrown3rawINtB6_8RawTablejE14reserve_rehashNCINvNtNtCs42Kw8IjNYDo_8indexmap3map4core8get_hashTNtNtCsjdyqsEEf0cE_10rustc_span6symbol6SymbolNtNtNtCsbnIUe8x9cNz_12rustc_middle6middle16exported_symbols16SymbolExportKindEuE0ECsjcIbwyOWlC2_17rustc_codegen_ssa
librustc_driver-f8caf2bfd7396df8.so:_RINvMs6_NtCs9uhsTK9sLQH_9hashbrown3rawINtB6_8RawTablejE14reserve_rehashNCINvNtNtCs42Kw8IjNYDo_8indexmap3map4core8get_hashTNtNtNtCs1rNb7bG4Xia_11rustc_infer5infer18region_constraints11GenericKindNtNtCs2t38KIHyE4j_13rustc_type_ir11region_kind9RegionVidNtNtCsjdyqsEEf0cE_10rustc_span13span_encoding4SpanEuE0ECsfTLCRcPlsnU_14rustc_borrowck
librustc_driver-f8caf2bfd7396df8.so:_RINvMs6_NtCs9uhsTK9sLQH_9hashbrown3rawINtB6_8RawTablejE14reserve_rehashNCINvNtNtCs42Kw8IjNYDo_8indexmap3map4core8get_hashTNtNtNtCs2LLJB4iKe2E_5gimli5write4line10LineStringNtB1Y_11DirectoryIdENtB1Y_8FileInfoE0EB22_
librustc_driver-f8caf2bfd7396df8.so:_RINvMs6_NtCs9uhsTK9sLQH_9hashbrown3rawINtB6_8RawTablejE14reserve_rehashNCINvNtNtCs42Kw8IjNYDo_8indexmap3map4core8get_hashTNtNtNtCsbnIUe8x9cNz_12rustc_middle2ty6region6RegionjEuE0ECs25h6OjkxBzy_18rustc_hir_analysis
librustc_driver-f8caf2bfd7396df8.so:_RINvMs6_NtCs9uhsTK9sLQH_9hashbrown3rawINtB6_8RawTablejE14reserve_rehashNCINvNtNtCs42Kw8IjNYDo_8indexmap3map4core8get_hashTNtNtNtCsbnIUe8x9cNz_12rustc_middle2ty9predicate6ClauseNtNtCsjdyqsEEf0cE_10rustc_span13span_encoding4SpanEuE0ECs25h6OjkxBzy_18rustc_hir_analysis
librustc_driver-f8caf2bfd7396df8.so:_RINvMs6_NtCs9uhsTK9sLQH_9hashbrown3rawINtB6_8RawTablejE14reserve_rehashNCINvNtNtCs42Kw8IjNYDo_8indexmap3map4core8get_hashTNtNtNtCsbnIUe8x9cNz_12rustc_middle2ty9predicate9PredicateNtNtB22_6traits15ObligationCauseEuE0ECs2ERWbPTlodK_16rustc_query_impl
librustc_driver-f8caf2bfd7396df8.so:_RINvMs6_NtCs9uhsTK9sLQH_9hashbrown3rawINtB6_8RawTablejE14reserve_rehashNCINvNtNtCs42Kw8IjNYDo_8indexmap3map4core8get_hashTNtNtNtCsbnIUe8x9cNz_12rustc_middle2ty9predicate9PredicateNtNtB22_6traits15ObligationCauseEuE0ECs7VwJBT60bpD_16rustc_hir_typeck
librustc_driver-f8caf2bfd7396df8.so:_RINvMs6_NtCs9uhsTK9sLQH_9hashbrown3rawINtB6_8RawTablejE14reserve_rehashNCINvNtNtCs42Kw8IjNYDo_8indexmap3map4core8get_hashTNtNtNtCsbnIUe8x9cNz_12rustc_middle3mir6syntax5PlaceNtNtCsjdyqsEEf0cE_10rustc_span13span_encoding4SpanEuE0ECsfTLCRcPlsnU_14rustc_borrowck
librustc_driver-f8caf2bfd7396df8.so:_RINvMs6_NtCs9uhsTK9sLQH_9hashbrown3rawINtB6_8RawTablejE14reserve_rehashNCINvNtNtCs42Kw8IjNYDo_8indexmap3map4core8get_hashTNtNtNtCshF5AtUv7kVK_18rustc_query_system9dep_graph8dep_node7DepKindB1W_EuE0ECs8tAGCjRPvUB_17rustc_incremental
librustc_driver-f8caf2bfd7396df8.so:_RINvMs6_NtCs9uhsTK9sLQH_9hashbrown3rawINtB6_8RawTablejE14reserve_rehashNCINvNtNtCs42Kw8IjNYDo_8indexmap3map4core8get_hashTNtNtNtCskY7KG58jvqp_15rustc_transmute6layout3dfa5StateB1W_EINtB22_6AnswerNtNtNtCsbnIUe8x9cNz_12rustc_middle2ty6region6RegionNtB3b_2TyEE0EB22_
librustc_driver-f8caf2bfd7396df8.so:_RINvMs6_NtCs9uhsTK9sLQH_9hashbrown3rawINtB6_8RawTablejE14reserve_rehashNCINvNtNtCs42Kw8IjNYDo_8indexmap3map4core8get_hashTRNtNtCsjdyqsEEf0cE_10rustc_span6def_id5DefIdRNtNtCsd1JD1uUqwgV_10rustc_lint23impl_trait_overcaptures9ParamKindEuE0EB2J_
librustc_driver-f8caf2bfd7396df8.so:_RINvMs6_NtCs9uhsTK9sLQH_9hashbrown3rawINtB6_8RawTablejE14reserve_rehashNCINvNtNtCs42Kw8IjNYDo_8indexmap3map4core8get_hashTjNtNtCsigzjtJzPjJb_18rustc_ast_lowering6format12ArgumentTypeEINtNtCs9WsFjTlRn02_4core6option6OptionNtNtCsjdyqsEEf0cE_10rustc_span13span_encoding4SpanEE0EB21_
librustc_driver-f8caf2bfd7396df8.so:_RINvMs6_NtCs9uhsTK9sLQH_9hashbrown3rawINtB6_8RawTablejE14reserve_rehashNCINvNtNtCs42Kw8IjNYDo_8indexmap3map4core8get_hashTmNtNtCsjdyqsEEf0cE_10rustc_span6def_id8DefIndexEINtNtCskmy2rFhdDOz_14rustc_metadata5rmeta9LazyArrayTB1X_INtNtCs9WsFjTlRn02_4core6option6OptionINtNtCs2t38KIHyE4j_13rustc_type_ir11fast_reject14SimplifiedTypeNtB1Z_5DefIdEEEEE0EB2N_
librustc_driver-f8caf2bfd7396df8.so:_RINvMs6_NtCs9uhsTK9sLQH_9hashbrown3rawINtB6_8RawTablejE14reserve_rehashNCINvNtNtCs42Kw8IjNYDo_8indexmap3map4core8get_hashjNtNtCsdEUoebXq6qL_12rustc_errors7snippet5StyleE0EB20_
librustc_driver-f8caf2bfd7396df8.so:_RINvMs6_NtCs9uhsTK9sLQH_9hashbrown3rawINtB6_8RawTablejE14reserve_rehashNCINvNtNtCs42Kw8IjNYDo_8indexmap3map4core8get_hashjuE0ECs25h6OjkxBzy_18rustc_hir_analysis
librustc_driver-f8caf2bfd7396df8.so:_RINvMs6_NtCs9uhsTK9sLQH_9hashbrown3rawINtB6_8RawTablejE14reserve_rehashNCINvNtNtCs42Kw8IjNYDo_8indexmap3map4core8get_hashjuE0ECskmy2rFhdDOz_14rustc_metadata
librustc_driver-f8caf2bfd7396df8.so:_RINvMs6_NtCs9uhsTK9sLQH_9hashbrown3rawINtB6_8RawTablejE14reserve_rehashNCINvNtNtCs42Kw8IjNYDo_8indexmap3map4core8get_hashmRNtNtCsjdyqsEEf0cE_10rustc_span13span_encoding4SpanE0ECs25h6OjkxBzy_18rustc_hir_analysis
librustc_driver-f8caf2bfd7396df8.so:_RINvMs6_NtCs9uhsTK9sLQH_9hashbrown3rawINtB6_8RawTablejE14reserve_rehashNCINvNtNtCs42Kw8IjNYDo_8indexmap3map4core8get_hashmuE0ECs25h6OjkxBzy_18rustc_hir_analysis
librustc_driver-f8caf2bfd7396df8.so:_RINvMs8_NtNtNtCs19MuVdBY7V6_5alloc11collections5btree4nodeINtB6_7NodeRefNtNtB6_6marker5OwnedyNtNtNtCsl0orcaMmsPI_5gimli4read6abbrev12AbbreviationNtB1a_4LeafE13from_new_leafNtNtBc_5alloc6GlobalEB1z_
librustc_driver-f8caf2bfd7396df8.so:_RINvMs9_NtNtNtCs19MuVdBY7V6_5alloc11collections5btree4nodeINtB6_7NodeRefNtNtB6_6marker5OwnedyNtNtNtCsl0orcaMmsPI_5gimli4read6abbrev12AbbreviationNtB1a_8InternalE12new_internalNtNtBc_5alloc6GlobalEB1z_
librustc_driver-f8caf2bfd7396df8.so:_RINvMs9_NtNtNtCs19MuVdBY7V6_5alloc11collections5btree4nodeINtB6_7NodeRefNtNtB6_6marker5OwnedyNtNtNtCsl0orcaMmsPI_5gimli4read6abbrev12AbbreviationNtB1a_8InternalE17from_new_internalNtNtBc_5alloc6GlobalEB1z_
librustc_driver-f8caf2bfd7396df8.so:_RINvMsK_NtNtNtCs19MuVdBY7V6_5alloc11collections5btree4nodeINtB6_6HandleINtB6_7NodeRefNtNtB6_6marker3MutyNtNtNtCsl0orcaMmsPI_5gimli4read6abbrev12AbbreviationNtB1n_4LeafENtB1n_4EdgeE6insertNtNtBc_5alloc6GlobalEB1K_
librustc_driver-f8caf2bfd7396df8.so:_RINvMsM_NtNtNtCs19MuVdBY7V6_5alloc11collections5btree4nodeINtB6_6HandleINtB6_7NodeRefNtNtB6_6marker3MutyNtNtNtCsl0orcaMmsPI_5gimli4read6abbrev12AbbreviationNtB1n_8InternalENtB1n_4EdgeE6insertNtNtBc_5alloc6GlobalEB1K_
librustc_driver-f8caf2bfd7396df8.so:_RINvMsN_NtNtNtCs19MuVdBY7V6_5alloc11collections5btree4nodeINtB6_6HandleINtB6_7NodeRefNtNtB6_6marker3MutyNtNtNtCsl0orcaMmsPI_5gimli4read6abbrev12AbbreviationNtB1n_4LeafENtB1n_4EdgeE16insert_recursingNtNtBc_5alloc6GlobalNCNvMs6_NtNtB8_3map5entryINtB3C_11VacantEntryyB1E_E12insert_entry0EB1K_
librustc_driver-f8caf2bfd7396df8.so:_RINvMsV_NtNtNtCs19MuVdBY7V6_5alloc11collections5btree4nodeINtB6_6HandleINtB6_7NodeRefNtNtB6_6marker3MutyNtNtNtCsl0orcaMmsPI_5gimli4read6abbrev12AbbreviationNtB1n_4LeafENtB1n_2KVE5splitNtNtBc_5alloc6GlobalEB1K_
librustc_driver-f8caf2bfd7396df8.so:_RINvMsW_NtNtNtCs19MuVdBY7V6_5alloc11collections5btree4nodeINtB6_6HandleINtB6_7NodeRefNtNtB6_6marker3MutyNtNtNtCsl0orcaMmsPI_5gimli4read6abbrev12AbbreviationNtB1n_8InternalENtB1n_2KVE5splitNtNtBc_5alloc6GlobalEB1K_
librustc_driver-f8caf2bfd7396df8.so:_RINvMs_NtCs7PfduyvR0eU_4jiff5errorNtB5_5Error5adhocNtNtCs19MuVdBY7V6_5alloc6string6StringEB7_
librustc_driver-f8caf2bfd7396df8.so:_RINvMs_NtCs7PfduyvR0eU_4jiff5errorNtB5_5Error5rangeINtNtNtB7_4util8rangeint4ri32Knn3b9ac9ff_Kn3b9ac9ff_EllEB7_
librustc_driver-f8caf2bfd7396df8.so:_RINvMs_NtCs7PfduyvR0eU_4jiff5errorNtB5_5Error5rangeaaaEB7_
librustc_driver-f8caf2bfd7396df8.so:_RINvMs_NtCs7PfduyvR0eU_4jiff5errorNtB5_5Error5rangeannEB7_
librustc_driver-f8caf2bfd7396df8.so:_RINvMs_NtCs7PfduyvR0eU_4jiff5errorNtB5_5Error5rangelllEB7_
librustc_driver-f8caf2bfd7396df8.so:_RINvMs_NtCs7PfduyvR0eU_4jiff5errorNtB5_5Error5rangennnEB7_
librustc_driver-f8caf2bfd7396df8.so:_RINvMs_NtCs7PfduyvR0eU_4jiff5errorNtB5_5Error5rangesssEB7_
