libstd-a4a285076b042e1f.so:_RINvMNtCsc9UXYxZytPG_4core3stre18trim_start_matchesReECs46PeV0vGECM_14rustc_demangle
libstd-a4a285076b042e1f.so:_RINvMNtCsc9UXYxZytPG_4core5sliceSh11copy_withinINtNtNtB5_3ops5range14RangeInclusivejEECsloXJXCvFm1O_11miniz_oxide
libstd-a4a285076b042e1f.so:_RINvMNtCsc9UXYxZytPG_4core6optionINtB3_6OptionRINtNtB5_4cell4CellhEE3zipBI_ECsloXJXCvFm1O_11miniz_oxide
libstd-a4a285076b042e1f.so:_RINvMNtCsc9UXYxZytPG_4core6optionINtB3_6OptionTRINtNtB5_4cell4CellhEBJ_EE3zipBJ_ECsloXJXCvFm1O_11miniz_oxide
libstd-a4a285076b042e1f.so:_RINvMNtNtNtCskIlJ6Bf8u3b_5alloc11collections5btree4nodeINtB3_8LeafNodeyNtNtNtCs55LTYJXEnzY_5gimli4read6abbrev12AbbreviationE3newNtNtB9_5alloc6GlobalEB1d_
libstd-a4a285076b042e1f.so:_RINvMs0_NtNtNtCskIlJ6Bf8u3b_5alloc11collections5btree6searchINtNtB8_4node7NodeRefNtNtBZ_6marker3MutyNtNtNtCs55LTYJXEnzY_5gimli4read6abbrev12AbbreviationNtB1j_14LeafOrInternalE14find_key_indexyEB1G_
libstd-a4a285076b042e1f.so:_RINvMs0_NtNtNtCskIlJ6Bf8u3b_5alloc11collections5btree6searchINtNtB8_4node7NodeRefNtNtBZ_6marker5ImmutyNtNtNtCs55LTYJXEnzY_5gimli4read6abbrev12AbbreviationNtB1j_14LeafOrInternalE14find_key_indexyEB1I_
libstd-a4a285076b042e1f.so:_RINvMs5_NtNtCsc6rNrONHOw_3std2io5errorNtB6_5Error3newNtNtNtCsc9UXYxZytPG_4core3num5error15TryFromIntErrorEBa_
libstd-a4a285076b042e1f.so:_RINvMs5_NtNtCsc6rNrONHOw_3std2io5errorNtB6_5Error3newReEBa_
libstd-a4a285076b042e1f.so:_RINvMs5_NtNtCsc9UXYxZytPG_4core3fmt8buildersNtB6_9DebugList7entriesRNtNtNtCs55LTYJXEnzY_5gimli4read6abbrev22AttributeSpecificationINtNtNtBa_5slice4iter4IterB14_EEB1a_
libstd-a4a285076b042e1f.so:_RINvMs5_NtNtCsc9UXYxZytPG_4core3fmt8buildersNtB6_9DebugList7entriesRhINtNtNtBa_5slice4iter4IterhEECs46PeV0vGECM_14rustc_demangle
libstd-a4a285076b042e1f.so:_RINvMs8_NtNtNtCskIlJ6Bf8u3b_5alloc11collections5btree4nodeINtB6_7NodeRefNtNtB6_6marker5OwnedyNtNtNtCs55LTYJXEnzY_5gimli4read6abbrev12AbbreviationNtB1a_4LeafE13from_new_leafNtNtBc_5alloc6GlobalEB1z_
libstd-a4a285076b042e1f.so:_RINvMs9_NtNtNtCskIlJ6Bf8u3b_5alloc11collections5btree4nodeINtB6_7NodeRefNtNtB6_6marker5OwnedyNtNtNtCs55LTYJXEnzY_5gimli4read6abbrev12AbbreviationNtB1a_8InternalE12new_internalNtNtBc_5alloc6GlobalEB1z_
libstd-a4a285076b042e1f.so:_RINvMs9_NtNtNtCskIlJ6Bf8u3b_5alloc11collections5btree4nodeINtB6_7NodeRefNtNtB6_6marker5OwnedyNtNtNtCs55LTYJXEnzY_5gimli4read6abbrev12AbbreviationNtB1a_8InternalE17from_new_internalNtNtBc_5alloc6GlobalEB1z_
libstd-a4a285076b042e1f.so:_RINvMsK_NtNtNtCskIlJ6Bf8u3b_5alloc11collections5btree4nodeINtB6_6HandleINtB6_7NodeRefNtNtB6_6marker3MutyNtNtNtCs55LTYJXEnzY_5gimli4read6abbrev12AbbreviationNtB1n_4LeafENtB1n_4EdgeE6insertNtNtBc_5alloc6GlobalEB1K_
libstd-a4a285076b042e1f.so:_RINvMsM_NtNtNtCskIlJ6Bf8u3b_5alloc11collections5btree4nodeINtB6_6HandleINtB6_7NodeRefNtNtB6_6marker3MutyNtNtNtCs55LTYJXEnzY_5gimli4read6abbrev12AbbreviationNtB1n_8InternalENtB1n_4EdgeE6insertNtNtBc_5alloc6GlobalEB1K_
libstd-a4a285076b042e1f.so:_RINvMsN_NtNtNtCskIlJ6Bf8u3b_5alloc11collections5btree4nodeINtB6_6HandleINtB6_7NodeRefNtNtB6_6marker3MutyNtNtNtCs55LTYJXEnzY_5gimli4read6abbrev12AbbreviationNtB1n_4LeafENtB1n_4EdgeE16insert_recursingNtNtBc_5alloc6GlobalNCNvMs6_NtNtB8_3map5entryINtB3C_11VacantEntryyB1E_E12insert_entry0EB1K_
libstd-a4a285076b042e1f.so:_RINvMsV_NtNtNtCskIlJ6Bf8u3b_5alloc11collections5btree4nodeINtB6_6HandleINtB6_7NodeRefNtNtB6_6marker3MutyNtNtNtCs55LTYJXEnzY_5gimli4read6abbrev12AbbreviationNtB1n_4LeafENtB1n_2KVE5splitNtNtBc_5alloc6GlobalEB1K_
libstd-a4a285076b042e1f.so:_RINvMsW_NtNtNtCskIlJ6Bf8u3b_5alloc11collections5btree4nodeINtB6_6HandleINtB6_7NodeRefNtNtB6_6marker3MutyNtNtNtCs55LTYJXEnzY_5gimli4read6abbrev12AbbreviationNtB1n_8InternalENtB1n_2KVE5splitNtNtBc_5alloc6GlobalEB1K_
libstd-a4a285076b042e1f.so:_RINvMs_NtNtNtCskIlJ6Bf8u3b_5alloc11collections5btree4nodeINtB5_12InternalNodeyNtNtNtCs55LTYJXEnzY_5gimli4read6abbrev12AbbreviationE3newNtNtBb_5alloc6GlobalEB1k_
libstd-a4a285076b042e1f.so:_RINvMs_NtNtNtCskIlJ6Bf8u3b_5alloc11collections5btree6searchINtNtB7_4node7NodeRefNtNtBY_6marker3MutyNtNtNtCs55LTYJXEnzY_5gimli4read6abbrev12AbbreviationNtB1i_14LeafOrInternalE11search_treeyEB1F_
libstd-a4a285076b042e1f.so:_RINvMs_NtNtNtCskIlJ6Bf8u3b_5alloc11collections5btree6searchINtNtB7_4node7NodeRefNtNtBY_6marker5ImmutyNtNtNtCs55LTYJXEnzY_5gimli4read6abbrev12AbbreviationNtB1i_14LeafOrInternalE11search_treeyEB1H_
libstd-a4a285076b042e1f.so:_RINvMsi_NtNtNtCskIlJ6Bf8u3b_5alloc11collections5btree3mapINtB6_8BTreeMapyNtNtNtCs55LTYJXEnzY_5gimli4read6abbrev12AbbreviationE3getyEB1f_
libstd-a4a285076b042e1f.so:_RINvMsp_NtNtNtCskIlJ6Bf8u3b_5alloc11collections5btree4nodeINtB6_7NodeRefNtNtB6_6marker3MutyNtNtNtCs55LTYJXEnzY_5gimli4read6abbrev12AbbreviationNtB1a_8InternalE30correct_childrens_parent_linksINtNtNtCsc9UXYxZytPG_4core3ops5range14RangeInclusivejEEB1x_
libstd-a4a285076b042e1f.so:_RINvMsp_NtNtNtCskIlJ6Bf8u3b_5alloc11collections5btree4nodeINtB6_7NodeRefNtNtB6_6marker3MutyNtNtNtCs55LTYJXEnzY_5gimli4read6abbrev12AbbreviationNtB1a_8InternalE30correct_childrens_parent_linksINtNtNtCsc9UXYxZytPG_4core3ops5range5RangejEEB1x_
libstd-a4a285076b042e1f.so:_RINvNtCsc6rNrONHOw_3std9panicking11begin_panicReEB4_
libstd-a4a285076b042e1f.so:_RINvNtCsc9UXYxZytPG_4core5slice20copy_from_slice_implhECsloXJXCvFm1O_11miniz_oxide
libstd-a4a285076b042e1f.so:_RINvNtCsc9UXYxZytPG_4core6escape14escape_unicodeKja_ECs46PeV0vGECM_14rustc_demangle
libstd-a4a285076b042e1f.so:_RINvNtCsc9UXYxZytPG_4core9panicking13assert_failedAhj4_RShECsc6rNrONHOw_3std
libstd-a4a285076b042e1f.so:_RINvNtCsc9UXYxZytPG_4core9panicking13assert_failedINtNtB4_6option6OptionjEBM_EB4_
libstd-a4a285076b042e1f.so:_RINvNtCsc9UXYxZytPG_4core9panicking13assert_failedjjEB4_
libstd-a4a285076b042e1f.so:_RINvNtCsc9UXYxZytPG_4core9panicking13assert_failedllECsc6rNrONHOw_3std
libstd-a4a285076b042e1f.so:_RINvNtCsc9UXYxZytPG_4core9panicking13assert_failedssECsc6rNrONHOw_3std
libstd-a4a285076b042e1f.so:_RINvNtCsc9UXYxZytPG_4core9panicking13assert_failedyyEB4_
libstd-a4a285076b042e1f.so:_RINvNtNtCsc6rNrONHOw_3std3sys9backtrace26___rust_end_short_backtraceNCINvNtB6_9panicking11begin_panicReE0zEB6_
libstd-a4a285076b042e1f.so:_RINvNtNtCsc9UXYxZytPG_4core5slice5index5rangeINtNtNtB6_3ops5range14RangeInclusivejEECsloXJXCvFm1O_11miniz_oxide
libstd-a4a285076b042e1f.so:_RINvNtNtNtCsc9UXYxZytPG_4core5slice4sort6stable14driftsort_mainNtNtCs9iPEsoqUGwF_9addr2line4line12LineSequenceNCINvMNtCskIlJ6Bf8u3b_5alloc5sliceSBZ_11sort_by_keyyNCINvMs_B11_NtB11_5Lines5parseINtNtNtCs55LTYJXEnzY_5gimli4read12endian_slice11EndianSliceNtNtB3b_9endianity12LittleEndianEEs_0E0INtNtB1S_3vec3VecBZ_EECsc6rNrONHOw_3std
libstd-a4a285076b042e1f.so:_RINvNtNtNtCsc9UXYxZytPG_4core5slice4sort6stable14driftsort_mainNtNtCs9iPEsoqUGwF_9addr2line4unit9UnitRangeNCINvMNtCskIlJ6Bf8u3b_5alloc5sliceSBZ_11sort_by_keyyNCNvMs_B11_INtB11_8ResUnitsINtNtNtCs55LTYJXEnzY_5gimli4read12endian_slice11EndianSliceNtNtB34_9endianity12LittleEndianEE5parses2_0E0INtNtB1O_3vec3VecBZ_EECsc6rNrONHOw_3std
libstd-a4a285076b042e1f.so:_RINvNtNtNtCsc9UXYxZytPG_4core5slice4sort6stable14driftsort_mainNtNtCs9iPEsoqUGwF_9addr2line8function15FunctionAddressNCINvMNtCskIlJ6Bf8u3b_5alloc5sliceSBZ_11sort_by_keyyNCNvMs0_B11_INtB11_9FunctionsINtNtNtCs55LTYJXEnzY_5gimli4read12endian_slice11EndianSliceNtNtB3h_9endianity12LittleEndianEE5parses_0E0INtNtB1Z_3vec3VecBZ_EECsc6rNrONHOw_3std
libstd-a4a285076b042e1f.so:_RINvNtNtNtCsc9UXYxZytPG_4core5slice4sort6stable14driftsort_mainNtNtCs9iPEsoqUGwF_9addr2line8function22InlinedFunctionAddressNCINvMNtCskIlJ6Bf8u3b_5alloc5sliceSBZ_7sort_byNCNvMs1_B11_INtB11_8FunctionINtNtNtCs55LTYJXEnzY_5gimli4read12endian_slice11EndianSliceNtNtB3h_9endianity12LittleEndianEE5parse0E0INtNtB26_3vec3VecBZ_EECsc6rNrONHOw_3std
libstd-a4a285076b042e1f.so:_RINvNtNtNtCsc9UXYxZytPG_4core5slice4sort6stable14driftsort_mainTNtNtCs55LTYJXEnzY_5gimli6common15DebugInfoOffsetNtB12_18DebugArangesOffsetENCINvMNtCskIlJ6Bf8u3b_5alloc5sliceSBZ_11sort_by_keyB10_NCNvMs_NtCs9iPEsoqUGwF_9addr2line4unitINtB3d_8ResUnitsINtNtNtB14_4read12endian_slice11EndianSliceNtNtB14_9endianity12LittleEndianEE5parse0E0INtNtB2l_3vec3VecBZ_EECsc6rNrONHOw_3std
libstd-a4a285076b042e1f.so:_RINvNtNtNtCskIlJ6Bf8u3b_5alloc11collections5btree4node12slice_insertINtNtNtCsc9UXYxZytPG_4core3ptr8non_null7NonNullINtB2_8LeafNodeyNtNtNtCs55LTYJXEnzY_5gimli4read6abbrev12AbbreviationEEEB2b_
libstd-a4a285076b042e1f.so:_RINvNtNtNtCskIlJ6Bf8u3b_5alloc11collections5btree4node12slice_insertNtNtNtCs55LTYJXEnzY_5gimli4read6abbrev12AbbreviationEB1a_
libstd-a4a285076b042e1f.so:_RINvNtNtNtCskIlJ6Bf8u3b_5alloc11collections5btree4node12slice_insertyECs55LTYJXEnzY_5gimli
libstd-a4a285076b042e1f.so:_RINvNtNtNtCskIlJ6Bf8u3b_5alloc11collections5btree4node13move_to_sliceINtNtNtCsc9UXYxZytPG_4core3ptr8non_null7NonNullINtB2_8LeafNodeyNtNtNtCs55LTYJXEnzY_5gimli4read6abbrev12AbbreviationEEEB2c_
libstd-a4a285076b042e1f.so:_RINvNtNtNtCskIlJ6Bf8u3b_5alloc11collections5btree4node13move_to_sliceNtNtNtCs55LTYJXEnzY_5gimli4read6abbrev12AbbreviationEB1b_
libstd-a4a285076b042e1f.so:_RINvNtNtNtCskIlJ6Bf8u3b_5alloc11collections5btree4node13move_to_sliceyECs55LTYJXEnzY_5gimli
libstd-a4a285076b042e1f.so:_RINvNtNtNtNtCsc9UXYxZytPG_4core5slice4sort6stable9quicksort9quicksortNtNtCs9iPEsoqUGwF_9addr2line4line12LineSequenceNCINvMNtCskIlJ6Bf8u3b_5alloc5sliceSB15_11sort_by_keyyNCINvMs_B17_NtB17_5Lines5parseINtNtNtCs55LTYJXEnzY_5gimli4read12endian_slice11EndianSliceNtNtB3i_9endianity12LittleEndianEEs_0E0ECsc6rNrONHOw_3std
libstd-a4a285076b042e1f.so:_RINvNtNtNtNtCsc9UXYxZytPG_4core5slice4sort6stable9quicksort9quicksortNtNtCs9iPEsoqUGwF_9addr2line4unit9UnitRangeNCINvMNtCskIlJ6Bf8u3b_5alloc5sliceSB15_11sort_by_keyyNCNvMs_B17_INtB17_8ResUnitsINtNtNtCs55LTYJXEnzY_5gimli4read12endian_slice11EndianSliceNtNtB3b_9endianity12LittleEndianEE5parses2_0E0ECsc6rNrONHOw_3std
libstd-a4a285076b042e1f.so:_RINvNtNtNtNtCsc9UXYxZytPG_4core5slice4sort6stable9quicksort9quicksortNtNtCs9iPEsoqUGwF_9addr2line8function15FunctionAddressNCINvMNtCskIlJ6Bf8u3b_5alloc5sliceSB15_11sort_by_keyyNCNvMs0_B17_INtB17_9FunctionsINtNtNtCs55LTYJXEnzY_5gimli4read12endian_slice11EndianSliceNtNtB3o_9endianity12LittleEndianEE5parses_0E0ECsc6rNrONHOw_3std
libstd-a4a285076b042e1f.so:_RINvNtNtNtNtCsc9UXYxZytPG_4core5slice4sort6stable9quicksort9quicksortNtNtCs9iPEsoqUGwF_9addr2line8function22InlinedFunctionAddressNCINvMNtCskIlJ6Bf8u3b_5alloc5sliceSB15_7sort_byNCNvMs1_B17_INtB17_8FunctionINtNtNtCs55LTYJXEnzY_5gimli4read12endian_slice11EndianSliceNtNtB3o_9endianity12LittleEndianEE5parse0E0ECsc6rNrONHOw_3std
libstd-a4a285076b042e1f.so:_RINvNtNtNtNtCsc9UXYxZytPG_4core5slice4sort6stable9quicksort9quicksortTNtNtCs55LTYJXEnzY_5gimli6common15DebugInfoOffsetNtB18_18DebugArangesOffsetENCINvMNtCskIlJ6Bf8u3b_5alloc5sliceSB15_11sort_by_keyB16_NCNvMs_NtCs9iPEsoqUGwF_9addr2line4unitINtB3k_8ResUnitsINtNtNtB1a_4read12endian_slice11EndianSliceNtNtB1a_9endianity12LittleEndianEE5parse0E0ECsc6rNrONHOw_3std
libstd-a4a285076b042e1f.so:_RINvNvMs2_NtCskIlJ6Bf8u3b_5alloc7raw_vecINtB8_11RawVecInnerpE7reserve21do_reserve_and_handleNtNtBa_5alloc6GlobalECs9iPEsoqUGwF_9addr2line
libstd-a4a285076b042e1f.so:_RNvCs46PeV0vGECM_14rustc_demangle12try_demangle
libstd-a4a285076b042e1f.so:_RNvCs46PeV0vGECM_14rustc_demangle8demangle
libstd-a4a285076b042e1f.so:_RNvCs8mP8X8mqjxT_7___rustc10rust_panic
libstd-a4a285076b042e1f.so:_RNvCs8mP8X8mqjxT_7___rustc12___rust_abort
libstd-a4a285076b042e1f.so:_RNvCs8mP8X8mqjxT_7___rustc12___rust_alloc
libstd-a4a285076b042e1f.so:_RNvCs8mP8X8mqjxT_7___rustc14___rust_dealloc
libstd-a4a285076b042e1f.so:_RNvCs8mP8X8mqjxT_7___rustc14___rust_realloc
libstd-a4a285076b042e1f.so:_RNvCs8mP8X8mqjxT_7___rustc17___rust_drop_panic
libstd-a4a285076b042e1f.so:_RNvCs8mP8X8mqjxT_7___rustc17rust_begin_unwind
libstd-a4a285076b042e1f.so:_RNvCs8mP8X8mqjxT_7___rustc18___rust_start_panic
libstd-a4a285076b042e1f.so:_RNvCs8mP8X8mqjxT_7___rustc19___rust_alloc_zeroed
libstd-a4a285076b042e1f.so:_RNvCs8mP8X8mqjxT_7___rustc20___rust_panic_cleanup
libstd-a4a285076b042e1f.so:_RNvCs8mP8X8mqjxT_7___rustc24___rust_foreign_exception
libstd-a4a285076b042e1f.so:_RNvCs8mP8X8mqjxT_7___rustc25___rdl_alloc_error_handler
libstd-a4a285076b042e1f.so:_RNvCs8mP8X8mqjxT_7___rustc26___rust_alloc_error_handler
libstd-a4a285076b042e1f.so:_RNvCs8mP8X8mqjxT_7___rustc35___rust_no_alloc_shim_is_unstable_v2
libstd-a4a285076b042e1f.so:_RNvCs8mP8X8mqjxT_7___rustc42___rust_alloc_error_handler_should_panic_v2
libstd-a4a285076b042e1f.so:_RNvCsdn0omFJY1bK_6adler213adler32_slice
libstd-a4a285076b042e1f.so:_RNvMCsdn0omFJY1bK_6adler2NtB2_7Adler3211write_slice
libstd-a4a285076b042e1f.so:_RNvMNtCs7HZDCChmAB0_9hashbrown3rawNtB2_11Fallibility17capacity_overflow
libstd-a4a285076b042e1f.so:_RNvMNtCs7HZDCChmAB0_9hashbrown3rawNtB2_11Fallibility9alloc_err
libstd-a4a285076b042e1f.so:_RNvMNtCsc6rNrONHOw_3std4timeNtB2_7Instant11checked_add
libstd-a4a285076b042e1f.so:_RNvMNtCsc6rNrONHOw_3std4timeNtB2_7Instant11checked_sub
libstd-a4a285076b042e1f.so:_RNvMNtCsc6rNrONHOw_3std4timeNtB2_7Instant14duration_since
libstd-a4a285076b042e1f.so:_RNvMNtCsc6rNrONHOw_3std4timeNtB2_7Instant22checked_duration_since
libstd-a4a285076b042e1f.so:_RNvMNtCsc6rNrONHOw_3std4timeNtB2_7Instant25saturating_duration_since
libstd-a4a285076b042e1f.so:_RNvMNtCsc6rNrONHOw_3std4timeNtB2_7Instant3now
libstd-a4a285076b042e1f.so:_RNvMNtCsc6rNrONHOw_3std4timeNtB2_7Instant7elapsed
libstd-a4a285076b042e1f.so:_RNvMNtCsc9UXYxZytPG_4core3stre12escape_debug
libstd-a4a285076b042e1f.so:_RNvMNtCsc9UXYxZytPG_4core3stre12substr_range
libstd-a4a285076b042e1f.so:_RNvMNtCsc9UXYxZytPG_4core3stre13from_utf8_mut
libstd-a4a285076b042e1f.so:_RNvMNtCsc9UXYxZytPG_4core3stre22split_at_mut_unchecked
libstd-a4a285076b042e1f.so:_RNvMNtCsc9UXYxZytPG_4core3stre9from_utf8
libstd-a4a285076b042e1f.so:_RNvMNtCsc9UXYxZytPG_4core5sliceSh11starts_withCs46PeV0vGECM_14rustc_demangle
libstd-a4a285076b042e1f.so:_RNvMNtCsc9UXYxZytPG_4core5sliceSh11starts_withCs9iPEsoqUGwF_9addr2line
libstd-a4a285076b042e1f.so:_RNvMNtCsc9UXYxZytPG_4core5sliceSh9ends_withCs9iPEsoqUGwF_9addr2line
libstd-a4a285076b042e1f.so:_RNvMNtCsc9UXYxZytPG_4core6escapeINtB2_15EscapeIterInnerKja_NtB2_12MaybeEscapedE9backslashCs46PeV0vGECM_14rustc_demangle
libstd-a4a285076b042e1f.so:_RNvMNtCskIlJ6Bf8u3b_5alloc6stringNtB2_6String10from_utf16
libstd-a4a285076b042e1f.so:_RNvMNtCskIlJ6Bf8u3b_5alloc6stringNtB2_6String11try_reserve
libstd-a4a285076b042e1f.so:_RNvMNtCskIlJ6Bf8u3b_5alloc6stringNtB2_6String12from_utf16be
libstd-a4a285076b042e1f.so:_RNvMNtCskIlJ6Bf8u3b_5alloc6stringNtB2_6String12from_utf16le
libstd-a4a285076b042e1f.so:_RNvMNtCskIlJ6Bf8u3b_5alloc6stringNtB2_6String15from_utf8_lossy
libstd-a4a285076b042e1f.so:_RNvMNtCskIlJ6Bf8u3b_5alloc6stringNtB2_6String17try_reserve_exact
libstd-a4a285076b042e1f.so:_RNvMNtCskIlJ6Bf8u3b_5alloc6stringNtB2_6String18from_utf16be_lossy
libstd-a4a285076b042e1f.so:_RNvMNtCskIlJ6Bf8u3b_5alloc6stringNtB2_6String18from_utf16le_lossy
libstd-a4a285076b042e1f.so:_RNvMNtCskIlJ6Bf8u3b_5alloc6stringNtB2_6String21from_utf8_lossy_owned
libstd-a4a285076b042e1f.so:_RNvMNtNtCsc6rNrONHOw_3std3net3tcpNtB2_9TcpStream10local_addr
libstd-a4a285076b042e1f.so:_RNvMNtNtCsc6rNrONHOw_3std3net3tcpNtB2_9TcpStream10set_linger
libstd-a4a285076b042e1f.so:_RNvMNtNtCsc6rNrONHOw_3std3net3tcpNtB2_9TcpStream10take_error
libstd-a4a285076b042e1f.so:_RNvMNtNtCsc6rNrONHOw_3std3net3tcpNtB2_9TcpStream11set_nodelay
libstd-a4a285076b042e1f.so:_RNvMNtNtCsc6rNrONHOw_3std3net3tcpNtB2_9TcpStream12read_timeout
libstd-a4a285076b042e1f.so:_RNvMNtNtCsc6rNrONHOw_3std3net3tcpNtB2_9TcpStream13write_timeout
libstd-a4a285076b042e1f.so:_RNvMNtNtCsc6rNrONHOw_3std3net3tcpNtB2_9TcpStream15connect_timeout
libstd-a4a285076b042e1f.so:_RNvMNtNtCsc6rNrONHOw_3std3net3tcpNtB2_9TcpStream15set_nonblocking
libstd-a4a285076b042e1f.so:_RNvMNtNtCsc6rNrONHOw_3std3net3tcpNtB2_9TcpStream16set_read_timeout
libstd-a4a285076b042e1f.so:_RNvMNtNtCsc6rNrONHOw_3std3net3tcpNtB2_9TcpStream17set_write_timeout
libstd-a4a285076b042e1f.so:_RNvMNtNtCsc6rNrONHOw_3std3net3tcpNtB2_9TcpStream3ttl
libstd-a4a285076b042e1f.so:_RNvMNtNtCsc6rNrONHOw_3std3net3tcpNtB2_9TcpStream4peek
libstd-a4a285076b042e1f.so:_RNvMNtNtCsc6rNrONHOw_3std3net3tcpNtB2_9TcpStream6linger
libstd-a4a285076b042e1f.so:_RNvMNtNtCsc6rNrONHOw_3std3net3tcpNtB2_9TcpStream7nodelay
libstd-a4a285076b042e1f.so:_RNvMNtNtCsc6rNrONHOw_3std3net3tcpNtB2_9TcpStream7set_ttl
libstd-a4a285076b042e1f.so:_RNvMNtNtCsc6rNrONHOw_3std3net3tcpNtB2_9TcpStream8shutdown
libstd-a4a285076b042e1f.so:_RNvMNtNtCsc6rNrONHOw_3std3net3tcpNtB2_9TcpStream9peer_addr
libstd-a4a285076b042e1f.so:_RNvMNtNtCsc6rNrONHOw_3std3net3tcpNtB2_9TcpStream9try_clone
libstd-a4a285076b042e1f.so:_RNvMNtNtCsc6rNrONHOw_3std3net3udpNtB2_9UdpSocket10local_addr
libstd-a4a285076b042e1f.so:_RNvMNtNtCsc6rNrONHOw_3std3net3udpNtB2_9UdpSocket10take_error
libstd-a4a285076b042e1f.so:_RNvMNtNtCsc6rNrONHOw_3std3net3udpNtB2_9UdpSocket12read_timeout
libstd-a4a285076b042e1f.so:_RNvMNtNtCsc6rNrONHOw_3std3net3udpNtB2_9UdpSocket13set_broadcast
libstd-a4a285076b042e1f.so:_RNvMNtNtCsc6rNrONHOw_3std3net3udpNtB2_9UdpSocket13write_timeout
libstd-a4a285076b042e1f.so:_RNvMNtNtCsc6rNrONHOw_3std3net3udpNtB2_9UdpSocket15set_nonblocking
libstd-a4a285076b042e1f.so:_RNvMNtNtCsc6rNrONHOw_3std3net3udpNtB2_9UdpSocket16multicast_ttl_v4
libstd-a4a285076b042e1f.so:_RNvMNtNtCsc6rNrONHOw_3std3net3udpNtB2_9UdpSocket16set_read_timeout
libstd-a4a285076b042e1f.so:_RNvMNtNtCsc6rNrONHOw_3std3net3udpNtB2_9UdpSocket17join_multicast_v4
libstd-a4a285076b042e1f.so:_RNvMNtNtCsc6rNrONHOw_3std3net3udpNtB2_9UdpSocket17join_multicast_v6
libstd-a4a285076b042e1f.so:_RNvMNtNtCsc6rNrONHOw_3std3net3udpNtB2_9UdpSocket17multicast_loop_v4
libstd-a4a285076b042e1f.so:_RNvMNtNtCsc6rNrONHOw_3std3net3udpNtB2_9UdpSocket17multicast_loop_v6
libstd-a4a285076b042e1f.so:_RNvMNtNtCsc6rNrONHOw_3std3net3udpNtB2_9UdpSocket17set_write_timeout
libstd-a4a285076b042e1f.so:_RNvMNtNtCsc6rNrONHOw_3std3net3udpNtB2_9UdpSocket18leave_multicast_v4
libstd-a4a285076b042e1f.so:_RNvMNtNtCsc6rNrONHOw_3std3net3udpNtB2_9UdpSocket18leave_multicast_v6
libstd-a4a285076b042e1f.so:_RNvMNtNtCsc6rNrONHOw_3std3net3udpNtB2_9UdpSocket20set_multicast_ttl_v4
libstd-a4a285076b042e1f.so:_RNvMNtNtCsc6rNrONHOw_3std3net3udpNtB2_9UdpSocket21set_multicast_loop_v4
libstd-a4a285076b042e1f.so:_RNvMNtNtCsc6rNrONHOw_3std3net3udpNtB2_9UdpSocket21set_multicast_loop_v6
libstd-a4a285076b042e1f.so:_RNvMNtNtCsc6rNrONHOw_3std3net3udpNtB2_9UdpSocket3ttl
libstd-a4a285076b042e1f.so:_RNvMNtNtCsc6rNrONHOw_3std3net3udpNtB2_9UdpSocket4peek
libstd-a4a285076b042e1f.so:_RNvMNtNtCsc6rNrONHOw_3std3net3udpNtB2_9UdpSocket4recv
libstd-a4a285076b042e1f.so:_RNvMNtNtCsc6rNrONHOw_3std3net3udpNtB2_9UdpSocket4send
libstd-a4a285076b042e1f.so:_RNvMNtNtCsc6rNrONHOw_3std3net3udpNtB2_9UdpSocket7set_ttl
libstd-a4a285076b042e1f.so:_RNvMNtNtCsc6rNrONHOw_3std3net3udpNtB2_9UdpSocket9broadcast
libstd-a4a285076b042e1f.so:_RNvMNtNtCsc6rNrONHOw_3std3net3udpNtB2_9UdpSocket9peek_from
libstd-a4a285076b042e1f.so:_RNvMNtNtCsc6rNrONHOw_3std3net3udpNtB2_9UdpSocket9peer_addr
libstd-a4a285076b042e1f.so:_RNvMNtNtCsc6rNrONHOw_3std3net3udpNtB2_9UdpSocket9recv_from
libstd-a4a285076b042e1f.so:_RNvMNtNtCsc6rNrONHOw_3std3net3udpNtB2_9UdpSocket9try_clone
libstd-a4a285076b042e1f.so:_RNvMNtNtCsc6rNrONHOw_3std6thread2idNtB2_8ThreadId3new
libstd-a4a285076b042e1f.so:_RNvMNtNtCsc6rNrONHOw_3std6thread6scopedNtB2_9ScopeData29decrement_num_running_threads
libstd-a4a285076b042e1f.so:_RNvMNtNtCsc6rNrONHOw_3std6thread6scopedNtB2_9ScopeData29increment_num_running_threads
libstd-a4a285076b042e1f.so:_RNvMNtNtCsc6rNrONHOw_3std6thread7builderNtB2_7Builder4name
libstd-a4a285076b042e1f.so:_RNvMNtNtCsc9UXYxZytPG_4core3num3fmtNtB2_4Part5write
libstd-a4a285076b042e1f.so:_RNvMNtNtCsc9UXYxZytPG_4core3num9diy_floatNtB2_2Fp12normalize_to
libstd-a4a285076b042e1f.so:_RNvMNtNtCsc9UXYxZytPG_4core5alloc6layoutNtB2_6Layout19is_size_align_valid
libstd-a4a285076b042e1f.so:_RNvMNtNtCskIlJ6Bf8u3b_5alloc3ffi5c_strNtB2_19FromVecWithNulError8as_bytes
libstd-a4a285076b042e1f.so:_RNvMNtNtNtCs3jZe4LgnEve_6object4read2pe10relocationNtB2_23RelocationBlockIterator4next
libstd-a4a285076b042e1f.so:_RNvMNtNtNtCs3jZe4LgnEve_6object4read2pe14data_directoryNtB2_15DataDirectories3get
libstd-a4a285076b042e1f.so:_RNvMNtNtNtCs3jZe4LgnEve_6object4read2pe14data_directoryNtB2_15DataDirectories5parse
libstd-a4a285076b042e1f.so:_RNvMNtNtNtCs3jZe4LgnEve_6object4read2pe6importNtB2_11ImportTable4name
libstd-a4a285076b042e1f.so:_RNvMNtNtNtCs3jZe4LgnEve_6object4read2pe6importNtB2_11ImportTable9hint_name
libstd-a4a285076b042e1f.so:_RNvMNtNtNtCs3jZe4LgnEve_6object4read2pe8resourceNtB2_17ResourceDirectory4root
libstd-a4a285076b042e1f.so:_RNvMNtNtNtCs3jZe4LgnEve_6object4read3elf10relocationNtB2_18RelocationSections3get
libstd-a4a285076b042e1f.so:_RNvMNtNtNtCsc6rNrONHOw_3std2os5linux7processNtB2_5PidFd4kill
libstd-a4a285076b042e1f.so:_RNvMNtNtNtCsc6rNrONHOw_3std2os5linux7processNtB2_5PidFd4wait
libstd-a4a285076b042e1f.so:_RNvMNtNtNtCsc6rNrONHOw_3std2os5linux7processNtB2_5PidFd8try_wait
libstd-a4a285076b042e1f.so:_RNvMNtNtNtCsc6rNrONHOw_3std3sys2fd4unixNtB2_8FileDesc11read_buf_at
libstd-a4a285076b042e1f.so:_RNvMNtNtNtCsc6rNrONHOw_3std3sys2fd4unixNtB2_8FileDesc11read_to_end
libstd-a4a285076b042e1f.so:_RNvMNtNtNtCsc6rNrONHOw_3std3sys2fd4unixNtB2_8FileDesc11set_cloexec
libstd-a4a285076b042e1f.so:_RNvMNtNtNtCsc6rNrONHOw_3std3sys2fd4unixNtB2_8FileDesc13read_vectored
libstd-a4a285076b042e1f.so:_RNvMNtNtNtCsc6rNrONHOw_3std3sys2fd4unixNtB2_8FileDesc14write_vectored
libstd-a4a285076b042e1f.so:_RNvMNtNtNtCsc6rNrONHOw_3std3sys2fd4unixNtB2_8FileDesc15set_nonblocking
libstd-a4a285076b042e1f.so:_RNvMNtNtNtCsc6rNrONHOw_3std3sys2fd4unixNtB2_8FileDesc16read_vectored_at
libstd-a4a285076b042e1f.so:_RNvMNtNtNtCsc6rNrONHOw_3std3sys2fd4unixNtB2_8FileDesc17write_vectored_at
libstd-a4a285076b042e1f.so:_RNvMNtNtNtCsc6rNrONHOw_3std3sys2fd4unixNtB2_8FileDesc4read
libstd-a4a285076b042e1f.so:_RNvMNtNtNtCsc6rNrONHOw_3std3sys2fd4unixNtB2_8FileDesc5write
libstd-a4a285076b042e1f.so:_RNvMNtNtNtCsc6rNrONHOw_3std3sys2fd4unixNtB2_8FileDesc7read_at
libstd-a4a285076b042e1f.so:_RNvMNtNtNtCsc6rNrONHOw_3std3sys2fd4unixNtB2_8FileDesc8read_buf
libstd-a4a285076b042e1f.so:_RNvMNtNtNtCsc6rNrONHOw_3std3sys2fd4unixNtB2_8FileDesc8write_at
libstd-a4a285076b042e1f.so:_RNvMNtNtNtCsc6rNrONHOw_3std4sync4mpmc7contextNtB2_7Context3new
libstd-a4a285076b042e1f.so:_RNvMNtNtNtCsc6rNrONHOw_3std4sync6poison7condvarNtB2_7Condvar10notify_all
libstd-a4a285076b042e1f.so:_RNvMNtNtNtCsc6rNrONHOw_3std4sync6poison7condvarNtB2_7Condvar10notify_one
libstd-a4a285076b042e1f.so:_RNvMNtNtNtCsc6rNrONHOw_3std4sync9nonpoison7condvarNtB2_7Condvar10notify_all
libstd-a4a285076b042e1f.so:_RNvMNtNtNtCsc6rNrONHOw_3std4sync9nonpoison7condvarNtB2_7Condvar10notify_one
libstd-a4a285076b042e1f.so:_RNvMNtNtNtCsc9UXYxZytPG_4core3num6bignum5testsNtB2_6Big8x310bit_length
libstd-a4a285076b042e1f.so:_RNvMNtNtNtCsc9UXYxZytPG_4core3num6bignum5testsNtB2_6Big8x310mul_digits
libstd-a4a285076b042e1f.so:_RNvMNtNtNtCsc9UXYxZytPG_4core3num6bignum5testsNtB2_6Big8x313div_rem_small
libstd-a4a285076b042e1f.so:_RNvMNtNtNtCsc9UXYxZytPG_4core3num6bignum5testsNtB2_6Big8x33add
libstd-a4a285076b042e1f.so:_RNvMNtNtNtCsc9UXYxZytPG_4core3num6bignum5testsNtB2_6Big8x33sub
libstd-a4a285076b042e1f.so:_RNvMNtNtNtCsc9UXYxZytPG_4core3num6bignum5testsNtB2_6Big8x36digits
libstd-a4a285076b042e1f.so:_RNvMNtNtNtCsc9UXYxZytPG_4core3num6bignum5testsNtB2_6Big8x37get_bit
libstd-a4a285076b042e1f.so:_RNvMNtNtNtCsc9UXYxZytPG_4core3num6bignum5testsNtB2_6Big8x37is_zero
libstd-a4a285076b042e1f.so:_RNvMNtNtNtCsc9UXYxZytPG_4core3num6bignum5testsNtB2_6Big8x38from_u64
libstd-a4a285076b042e1f.so:_RNvMNtNtNtCsc9UXYxZytPG_4core3num6bignum5testsNtB2_6Big8x38mul_pow2
libstd-a4a285076b042e1f.so:_RNvMNtNtNtCsc9UXYxZytPG_4core3num6bignum5testsNtB2_6Big8x38mul_pow5
libstd-a4a285076b042e1f.so:_RNvMNtNtNtCsc9UXYxZytPG_4core3num6bignum5testsNtB2_6Big8x39add_small
libstd-a4a285076b042e1f.so:_RNvMNtNtNtCsc9UXYxZytPG_4core3num6bignum5testsNtB2_6Big8x39mul_small
libstd-a4a285076b042e1f.so:_RNvMNtNtNtCsc9UXYxZytPG_4core4iter8adapters3zipINtB2_3ZipINtNtNtB8_5slice4iter4ItertEINtBW_7IterMutmEE9super_nthCsloXJXCvFm1O_11miniz_oxide
libstd-a4a285076b042e1f.so:_RNvMNtNtNtCsdaeiFxXW69W_10std_detect6detect4arch3x86NtB2_7Feature6to_str
libstd-a4a285076b042e1f.so:_RNvMNtNtNtNtCsc6rNrONHOw_3std2io8buffered9bufreader6bufferNtB2_6Buffer9backshift
libstd-a4a285076b042e1f.so:_RNvMNtNtNtNtCsc6rNrONHOw_3std2os4unix3net4addrNtB2_10SocketAddr10is_unnamed
libstd-a4a285076b042e1f.so:_RNvMNtNtNtNtCsc6rNrONHOw_3std2os4unix3net4addrNtB2_10SocketAddr11as_pathname
libstd-a4a285076b042e1f.so:_RNvMNtNtNtNtCsc6rNrONHOw_3std3sys4sync5mutex5futexNtB2_5Mutex14lock_contended
libstd-a4a285076b042e1f.so:_RNvMNtNtNtNtCsc6rNrONHOw_3std3sys4sync5mutex5futexNtB2_5Mutex4wake
libstd-a4a285076b042e1f.so:_RNvMNtNtNtNtCsc6rNrONHOw_3std3sys4sync6rwlock5futexNtB2_6RwLock14read_contended
libstd-a4a285076b042e1f.so:_RNvMNtNtNtNtCsc6rNrONHOw_3std3sys4sync6rwlock5futexNtB2_6RwLock15write_contended
libstd-a4a285076b042e1f.so:_RNvMNtNtNtNtCsc6rNrONHOw_3std3sys4sync6rwlock5futexNtB2_6RwLock22wake_writer_or_readers
libstd-a4a285076b042e1f.so:_RNvMNtNtNtNtCsc6rNrONHOw_3std3sys4sync7condvar5futexNtB2_7Condvar12wait_timeout
libstd-a4a285076b042e1f.so:_RNvMNtNtNtNtCsc6rNrONHOw_3std3sys4sync7condvar5futexNtB2_7Condvar4wait
libstd-a4a285076b042e1f.so:_RNvMNtNtNtNtNtCsc6rNrONHOw_3std3sys3net10connection6socket4unixNtB2_6Socket3new
libstd-a4a285076b042e1f.so:_RNvMNvMs_NtNtNtCsc6rNrONHOw_3std2io8buffered9bufwriterINtB7_9BufWriterpE9flush_bufNtB2_8BufGuard9remaining
libstd-a4a285076b042e1f.so:_RNvMs0_NtCsc9UXYxZytPG_4core6escapeINtB5_15EscapeIterInnerKja_NtB5_12MaybeEscapedE4nextCs46PeV0vGECM_14rustc_demangle
libstd-a4a285076b042e1f.so:_RNvMs0_NtCskIlJ6Bf8u3b_5alloc7raw_vecINtB5_6RawVecINtNtB7_3vec3VechEE8grow_oneCsc6rNrONHOw_3std
libstd-a4a285076b042e1f.so:_RNvMs0_NtCskIlJ6Bf8u3b_5alloc7raw_vecINtB5_6RawVecINtNtB7_5boxed3BoxDINtNtNtCsc9UXYxZytPG_4core3ops8function5FnMutuEp6OutputINtNtB1c_6result6ResultuNtNtNtCsc6rNrONHOw_3std2io5error5ErrorENtNtB1c_6marker4SendNtB31_4SyncEL_EE8grow_oneB2s_
libstd-a4a285076b042e1f.so:_RNvMs0_NtCskIlJ6Bf8u3b_5alloc7raw_vecINtB5_6RawVecINtNtCs9iPEsoqUGwF_9addr2line4unit7ResUnitINtNtNtCs55LTYJXEnzY_5gimli4read12endian_slice11EndianSliceNtNtB1z_9endianity12LittleEndianEEE8grow_oneCsc6rNrONHOw_3std
libstd-a4a285076b042e1f.so:_RNvMs0_NtCskIlJ6Bf8u3b_5alloc7raw_vecINtB5_6RawVecINtNtCs9iPEsoqUGwF_9addr2line4unit7SupUnitINtNtNtCs55LTYJXEnzY_5gimli4read12endian_slice11EndianSliceNtNtB1z_9endianity12LittleEndianEEE8grow_oneCsc6rNrONHOw_3std
libstd-a4a285076b042e1f.so:_RNvMs0_NtCskIlJ6Bf8u3b_5alloc7raw_vecINtB5_6RawVecINtNtCs9iPEsoqUGwF_9addr2line8function12LazyFunctionINtNtNtCs55LTYJXEnzY_5gimli4read12endian_slice11EndianSliceNtNtB1J_9endianity12LittleEndianEEE8grow_oneCsc6rNrONHOw_3std
libstd-a4a285076b042e1f.so:_RNvMs0_NtCskIlJ6Bf8u3b_5alloc7raw_vecINtB5_6RawVecINtNtCs9iPEsoqUGwF_9addr2line8function15InlinedFunctionINtNtNtCs55LTYJXEnzY_5gimli4read12endian_slice11EndianSliceNtNtB1M_9endianity12LittleEndianEEE8grow_oneCsc6rNrONHOw_3std
libstd-a4a285076b042e1f.so:_RNvMs0_NtCskIlJ6Bf8u3b_5alloc7raw_vecINtB5_6RawVecINtNtNtCs55LTYJXEnzY_5gimli4read4line9FileEntryINtNtBR_12endian_slice11EndianSliceNtNtBT_9endianity12LittleEndianEjEE8grow_oneCsc6rNrONHOw_3std
libstd-a4a285076b042e1f.so:_RNvMs0_NtCskIlJ6Bf8u3b_5alloc7raw_vecINtB5_6RawVecINtNtNtCs55LTYJXEnzY_5gimli4read4unit14AttributeValueINtNtBR_12endian_slice11EndianSliceNtNtBT_9endianity12LittleEndianEjEE8grow_oneCsc6rNrONHOw_3std
libstd-a4a285076b042e1f.so:_RNvMs0_NtCskIlJ6Bf8u3b_5alloc7raw_vecINtB5_6RawVecNtNtB7_6string6StringE8grow_oneCsc6rNrONHOw_3std
libstd-a4a285076b042e1f.so:_RNvMs0_NtCskIlJ6Bf8u3b_5alloc7raw_vecINtB5_6RawVecNtNtCs9iPEsoqUGwF_9addr2line4line12LineSequenceE8grow_oneCsc6rNrONHOw_3std
libstd-a4a285076b042e1f.so:_RNvMs0_NtCskIlJ6Bf8u3b_5alloc7raw_vecINtB5_6RawVecNtNtCs9iPEsoqUGwF_9addr2line4line7LineRowE8grow_oneCsc6rNrONHOw_3std
libstd-a4a285076b042e1f.so:_RNvMs0_NtCskIlJ6Bf8u3b_5alloc7raw_vecINtB5_6RawVecNtNtCs9iPEsoqUGwF_9addr2line4unit9UnitRangeE8grow_oneCsc6rNrONHOw_3std
libstd-a4a285076b042e1f.so:_RNvMs0_NtCskIlJ6Bf8u3b_5alloc7raw_vecINtB5_6RawVecNtNtCs9iPEsoqUGwF_9addr2line8function15FunctionAddressE8grow_oneCsc6rNrONHOw_3std
libstd-a4a285076b042e1f.so:_RNvMs0_NtCskIlJ6Bf8u3b_5alloc7raw_vecINtB5_6RawVecNtNtCs9iPEsoqUGwF_9addr2line8function22InlinedFunctionAddressE8grow_oneCsc6rNrONHOw_3std
libstd-a4a285076b042e1f.so:_RNvMs0_NtCskIlJ6Bf8u3b_5alloc7raw_vecINtB5_6RawVecNtNtCsc6rNrONHOw_3std9backtrace14BacktraceFrameE8grow_oneBQ_
libstd-a4a285076b042e1f.so:_RNvMs0_NtCskIlJ6Bf8u3b_5alloc7raw_vecINtB5_6RawVecNtNtCsc6rNrONHOw_3std9backtrace15BacktraceSymbolE8grow_oneBQ_
libstd-a4a285076b042e1f.so:_RNvMs0_NtCskIlJ6Bf8u3b_5alloc7raw_vecINtB5_6RawVecNtNtNtCs55LTYJXEnzY_5gimli4read4line15FileEntryFormatE8grow_oneCsc6rNrONHOw_3std
libstd-a4a285076b042e1f.so:_RNvMs0_NtCskIlJ6Bf8u3b_5alloc7raw_vecINtB5_6RawVecNtNtNtCs55LTYJXEnzY_5gimli4read6abbrev12AbbreviationE8grow_oneBS_
libstd-a4a285076b042e1f.so:_RNvMs0_NtCskIlJ6Bf8u3b_5alloc7raw_vecINtB5_6RawVecNtNtNtCs55LTYJXEnzY_5gimli4read6abbrev22AttributeSpecificationE8grow_oneBS_
libstd-a4a285076b042e1f.so:_RNvMs0_NtCskIlJ6Bf8u3b_5alloc7raw_vecINtB5_6RawVecNtNtNtCsc6rNrONHOw_3std3ffi6os_str8OsStringE8grow_oneBS_
libstd-a4a285076b042e1f.so:_RNvMs0_NtCskIlJ6Bf8u3b_5alloc7raw_vecINtB5_6RawVecNtNtNtNtCs3jZe4LgnEve_6object4read2pe6export6ExportE8grow_oneBU_
libstd-a4a285076b042e1f.so:_RNvMs0_NtCskIlJ6Bf8u3b_5alloc7raw_vecINtB5_6RawVecNtNtNtNtCsc6rNrONHOw_3std12backtrace_rs9symbolize5gimli7LibraryE8grow_oneBU_
libstd-a4a285076b042e1f.so:_RNvMs0_NtCskIlJ6Bf8u3b_5alloc7raw_vecINtB5_6RawVecNtNtNtNtNtCsc6rNrONHOw_3std12backtrace_rs9symbolize5gimli19parse_running_mmaps9MapsEntryE8grow_oneBW_
libstd-a4a285076b042e1f.so:_RNvMs0_NtCskIlJ6Bf8u3b_5alloc7raw_vecINtB5_6RawVecNtNtNtNtNtCsc6rNrONHOw_3std12backtrace_rs9symbolize5gimli4mmap4MmapE8grow_oneBW_
libstd-a4a285076b042e1f.so:_RNvMs0_NtCskIlJ6Bf8u3b_5alloc7raw_vecINtB5_6RawVecPaE8grow_oneCsc6rNrONHOw_3std
libstd-a4a285076b042e1f.so:_RNvMs0_NtCskIlJ6Bf8u3b_5alloc7raw_vecINtB5_6RawVecRINtNtCs9iPEsoqUGwF_9addr2line8function15InlinedFunctionINtNtNtCs55LTYJXEnzY_5gimli4read12endian_slice11EndianSliceNtNtB1N_9endianity12LittleEndianEEE8grow_oneCsc6rNrONHOw_3std
libstd-a4a285076b042e1f.so:_RNvMs0_NtCskIlJ6Bf8u3b_5alloc7raw_vecINtB5_6RawVecTNtNtCs55LTYJXEnzY_5gimli6common15DebugInfoOffsetNtBP_18DebugArangesOffsetEE8grow_oneCsc6rNrONHOw_3std
libstd-a4a285076b042e1f.so:_RNvMs0_NtCskIlJ6Bf8u3b_5alloc7raw_vecINtB5_6RawVecTNtNtNtCsc6rNrONHOw_3std3ffi6os_str8OsStringBN_EE8grow_oneBT_
libstd-a4a285076b042e1f.so:_RNvMs0_NtCskIlJ6Bf8u3b_5alloc7raw_vecINtB5_6RawVecTOhFUKCBN_EuENtNtCsc6rNrONHOw_3std5alloc6SystemE8grow_oneB13_
libstd-a4a285076b042e1f.so:_RNvMs0_NtCskIlJ6Bf8u3b_5alloc7raw_vecINtB5_6RawVechE8grow_oneB7_
libstd-a4a285076b042e1f.so:_RNvMs0_NtNtCsc6rNrONHOw_3std3ffi6os_strNtB5_8OsString17into_boxed_os_str
libstd-a4a285076b042e1f.so:_RNvMs0_NtNtCsc6rNrONHOw_3std4sync4onceNtB5_4Once10wait_force
libstd-a4a285076b042e1f.so:_RNvMs0_NtNtCsc6rNrONHOw_3std4sync4onceNtB5_4Once4wait
libstd-a4a285076b042e1f.so:_RNvMs0_NtNtCsc6rNrONHOw_3std4sync7barrierNtB5_7Barrier4wait
libstd-a4a285076b042e1f.so:_RNvMs0_NtNtCsc9UXYxZytPG_4core3fmt3numo11format_into
libstd-a4a285076b042e1f.so:_RNvMs0_NtNtCsc9UXYxZytPG_4core3fmt3numo4__fmt
libstd-a4a285076b042e1f.so:_RNvMs0_NtNtNtCs3jZe4LgnEve_6object4read2pe8resourceNtNtBb_2pe27ImageResourceDirectoryEntry4data
libstd-a4a285076b042e1f.so:_RNvMs0_NtNtNtCsc6rNrONHOw_3std2os2fd5ownedNtB5_10BorrowedFd18try_clone_to_owned
libstd-a4a285076b042e1f.so:_RNvMs0_NtNtNtCsc6rNrONHOw_3std3sys6thread4unixNtB5_6Thread3new
libstd-a4a285076b042e1f.so:_RNvMs0_NtNtNtCsc6rNrONHOw_3std3sys6thread4unixNtB5_6Thread4join
libstd-a4a285076b042e1f.so:_RNvMs0_NtNtNtCsc9UXYxZytPG_4core3fmt3num3imph4__fmt
libstd-a4a285076b042e1f.so:_RNvMs0_NtNtNtCseLWYKOMA8NS_6memchr4arch3all6twowayNtB5_5Shift7forward
libstd-a4a285076b042e1f.so:_RNvMs0_NtNtNtCseLWYKOMA8NS_6memchr4arch3all6twowayNtB5_5Shift7reverse
libstd-a4a285076b042e1f.so:_RNvMs0_NtNtNtNtCsc6rNrONHOw_3std2os4unix3net6streamNtB5_10UnixStream10local_addr
libstd-a4a285076b042e1f.so:_RNvMs0_NtNtNtNtCsc6rNrONHOw_3std2os4unix3net6streamNtB5_10UnixStream10take_error
libstd-a4a285076b042e1f.so:_RNvMs0_NtNtNtNtCsc6rNrONHOw_3std2os4unix3net6streamNtB5_10UnixStream12connect_addr
libstd-a4a285076b042e1f.so:_RNvMs0_NtNtNtNtCsc6rNrONHOw_3std2os4unix3net6streamNtB5_10UnixStream12read_timeout
libstd-a4a285076b042e1f.so:_RNvMs0_NtNtNtNtCsc6rNrONHOw_3std2os4unix3net6streamNtB5_10UnixStream13write_timeout
libstd-a4a285076b042e1f.so:_RNvMs0_NtNtNtNtCsc6rNrONHOw_3std2os4unix3net6streamNtB5_10UnixStream15set_nonblocking
libstd-a4a285076b042e1f.so:_RNvMs0_NtNtNtNtCsc6rNrONHOw_3std2os4unix3net6streamNtB5_10UnixStream16set_read_timeout
libstd-a4a285076b042e1f.so:_RNvMs0_NtNtNtNtCsc6rNrONHOw_3std2os4unix3net6streamNtB5_10UnixStream17set_write_timeout
libstd-a4a285076b042e1f.so:_RNvMs0_NtNtNtNtCsc6rNrONHOw_3std2os4unix3net6streamNtB5_10UnixStream28recv_vectored_with_ancillary
libstd-a4a285076b042e1f.so:_RNvMs0_NtNtNtNtCsc6rNrONHOw_3std2os4unix3net6streamNtB5_10UnixStream28send_vectored_with_ancillary
libstd-a4a285076b042e1f.so:_RNvMs0_NtNtNtNtCsc6rNrONHOw_3std2os4unix3net6streamNtB5_10UnixStream4pair
libstd-a4a285076b042e1f.so:_RNvMs0_NtNtNtNtCsc6rNrONHOw_3std2os4unix3net6streamNtB5_10UnixStream4peek
libstd-a4a285076b042e1f.so:_RNvMs0_NtNtNtNtCsc6rNrONHOw_3std2os4unix3net6streamNtB5_10UnixStream8set_mark
libstd-a4a285076b042e1f.so:_RNvMs0_NtNtNtNtCsc6rNrONHOw_3std2os4unix3net6streamNtB5_10UnixStream8shutdown
libstd-a4a285076b042e1f.so:_RNvMs0_NtNtNtNtCsc6rNrONHOw_3std2os4unix3net6streamNtB5_10UnixStream9peer_addr
libstd-a4a285076b042e1f.so:_RNvMs0_NtNtNtNtCsc6rNrONHOw_3std2os4unix3net6streamNtB5_10UnixStream9peer_cred
libstd-a4a285076b042e1f.so:_RNvMs0_NtNtNtNtCsc6rNrONHOw_3std2os4unix3net6streamNtB5_10UnixStream9try_clone
libstd-a4a285076b042e1f.so:_RNvMs0_NtNtNtNtCsc6rNrONHOw_3std2os4unix3net8datagramNtB5_12UnixDatagram10local_addr
libstd-a4a285076b042e1f.so:_RNvMs0_NtNtNtNtCsc6rNrONHOw_3std2os4unix3net8datagramNtB5_12UnixDatagram10take_error
libstd-a4a285076b042e1f.so:_RNvMs0_NtNtNtNtCsc6rNrONHOw_3std2os4unix3net8datagramNtB5_12UnixDatagram12connect_addr
libstd-a4a285076b042e1f.so:_RNvMs0_NtNtNtNtCsc6rNrONHOw_3std2os4unix3net8datagramNtB5_12UnixDatagram12read_timeout
libstd-a4a285076b042e1f.so:_RNvMs0_NtNtNtNtCsc6rNrONHOw_3std2os4unix3net8datagramNtB5_12UnixDatagram12send_to_addr
libstd-a4a285076b042e1f.so:_RNvMs0_NtNtNtNtCsc6rNrONHOw_3std2os4unix3net8datagramNtB5_12UnixDatagram13write_timeout
libstd-a4a285076b042e1f.so:_RNvMs0_NtNtNtNtCsc6rNrONHOw_3std2os4unix3net8datagramNtB5_12UnixDatagram15set_nonblocking
libstd-a4a285076b042e1f.so:_RNvMs0_NtNtNtNtCsc6rNrONHOw_3std2os4unix3net8datagramNtB5_12UnixDatagram16set_read_timeout
libstd-a4a285076b042e1f.so:_RNvMs0_NtNtNtNtCsc6rNrONHOw_3std2os4unix3net8datagramNtB5_12UnixDatagram17set_write_timeout
libstd-a4a285076b042e1f.so:_RNvMs0_NtNtNtNtCsc6rNrONHOw_3std2os4unix3net8datagramNtB5_12UnixDatagram28recv_vectored_with_ancillary
libstd-a4a285076b042e1f.so:_RNvMs0_NtNtNtNtCsc6rNrONHOw_3std2os4unix3net8datagramNtB5_12UnixDatagram28send_vectored_with_ancillary
libstd-a4a285076b042e1f.so:_RNvMs0_NtNtNtNtCsc6rNrONHOw_3std2os4unix3net8datagramNtB5_12UnixDatagram33recv_vectored_with_ancillary_from
libstd-a4a285076b042e1f.so:_RNvMs0_NtNtNtNtCsc6rNrONHOw_3std2os4unix3net8datagramNtB5_12UnixDatagram4pair
libstd-a4a285076b042e1f.so:_RNvMs0_NtNtNtNtCsc6rNrONHOw_3std2os4unix3net8datagramNtB5_12UnixDatagram4peek
libstd-a4a285076b042e1f.so:_RNvMs0_NtNtNtNtCsc6rNrONHOw_3std2os4unix3net8datagramNtB5_12UnixDatagram4recv
libstd-a4a285076b042e1f.so:_RNvMs0_NtNtNtNtCsc6rNrONHOw_3std2os4unix3net8datagramNtB5_12UnixDatagram4send
libstd-a4a285076b042e1f.so:_RNvMs0_NtNtNtNtCsc6rNrONHOw_3std2os4unix3net8datagramNtB5_12UnixDatagram7unbound
libstd-a4a285076b042e1f.so:_RNvMs0_NtNtNtNtCsc6rNrONHOw_3std2os4unix3net8datagramNtB5_12UnixDatagram8set_mark
libstd-a4a285076b042e1f.so:_RNvMs0_NtNtNtNtCsc6rNrONHOw_3std2os4unix3net8datagramNtB5_12UnixDatagram8shutdown
libstd-a4a285076b042e1f.so:_RNvMs0_NtNtNtNtCsc6rNrONHOw_3std2os4unix3net8datagramNtB5_12UnixDatagram9bind_addr
libstd-a4a285076b042e1f.so:_RNvMs0_NtNtNtNtCsc6rNrONHOw_3std2os4unix3net8datagramNtB5_12UnixDatagram9peek_from
libstd-a4a285076b042e1f.so:_RNvMs0_NtNtNtNtCsc6rNrONHOw_3std2os4unix3net8datagramNtB5_12UnixDatagram9peer_addr
libstd-a4a285076b042e1f.so:_RNvMs0_NtNtNtNtCsc6rNrONHOw_3std2os4unix3net8datagramNtB5_12UnixDatagram9recv_from
libstd-a4a285076b042e1f.so:_RNvMs0_NtNtNtNtCsc6rNrONHOw_3std2os4unix3net8datagramNtB5_12UnixDatagram9try_clone
libstd-a4a285076b042e1f.so:_RNvMs0_NtNtNtNtCsc6rNrONHOw_3std3sys4sync4once5futexNtB5_4Once4call
libstd-a4a285076b042e1f.so:_RNvMs16_NtCsc6rNrONHOw_3std4pathNtB6_4Path10__ends_with
libstd-a4a285076b042e1f.so:_RNvMs16_NtCsc6rNrONHOw_3std4pathNtB6_4Path10components
libstd-a4a285076b042e1f.so:_RNvMs16_NtCsc6rNrONHOw_3std4pathNtB6_4Path10is_symlink
libstd-a4a285076b042e1f.so:_RNvMs16_NtCsc6rNrONHOw_3std4pathNtB6_4Path11file_prefix
libstd-a4a285076b042e1f.so:_RNvMs16_NtCsc6rNrONHOw_3std4pathNtB6_4Path11is_absolute
libstd-a4a285076b042e1f.so:_RNvMs16_NtCsc6rNrONHOw_3std4pathNtB6_4Path11to_path_buf
libstd-a4a285076b042e1f.so:_RNvMs16_NtCsc6rNrONHOw_3std4pathNtB6_4Path12__starts_with
libstd-a4a285076b042e1f.so:_RNvMs16_NtCsc6rNrONHOw_3std4pathNtB6_4Path13__strip_prefix
libstd-a4a285076b042e1f.so:_RNvMs16_NtCsc6rNrONHOw_3std4pathNtB6_4Path13into_path_buf
libstd-a4a285076b042e1f.so:_RNvMs16_NtCsc6rNrONHOw_3std4pathNtB6_4Path15__with_extension
libstd-a4a285076b042e1f.so:_RNvMs16_NtCsc6rNrONHOw_3std4pathNtB6_4Path15__with_file_name
libstd-a4a285076b042e1f.so:_RNvMs16_NtCsc6rNrONHOw_3std4pathNtB6_4Path19normalize_lexically
libstd-a4a285076b042e1f.so:_RNvMs16_NtCsc6rNrONHOw_3std4pathNtB6_4Path5__join
libstd-a4a285076b042e1f.so:_RNvMs16_NtCsc6rNrONHOw_3std4pathNtB6_4Path6is_dir
libstd-a4a285076b042e1f.so:_RNvMs16_NtCsc6rNrONHOw_3std4pathNtB6_4Path6parent
libstd-a4a285076b042e1f.so:_RNvMs16_NtCsc6rNrONHOw_3std4pathNtB6_4Path7is_file
libstd-a4a285076b042e1f.so:_RNvMs16_NtCsc6rNrONHOw_3std4pathNtB6_4Path9extension
libstd-a4a285076b042e1f.so:_RNvMs16_NtCsc6rNrONHOw_3std4pathNtB6_4Path9file_name
libstd-a4a285076b042e1f.so:_RNvMs16_NtCsc6rNrONHOw_3std4pathNtB6_4Path9file_stem
libstd-a4a285076b042e1f.so:_RNvMs16_NtCskIlJ6Bf8u3b_5alloc6stringNtB6_5Drain6as_str
libstd-a4a285076b042e1f.so:_RNvMs1_NtNtCsc6rNrONHOw_3std2io5stdioNtB5_5Stdin4lock
libstd-a4a285076b042e1f.so:_RNvMs1_NtNtCsc6rNrONHOw_3std2io5stdioNtB5_5Stdin5lines
libstd-a4a285076b042e1f.so:_RNvMs1_NtNtCsc6rNrONHOw_3std2io5stdioNtB5_5Stdin9read_line
libstd-a4a285076b042e1f.so:_RNvMs1_NtNtCsc9UXYxZytPG_4core3fmt3numn11format_into
libstd-a4a285076b042e1f.so:_RNvMs1_NtNtCsc9UXYxZytPG_4core3fmt8buildersNtB5_11DebugStruct21finish_non_exhaustive
libstd-a4a285076b042e1f.so:_RNvMs1_NtNtCsc9UXYxZytPG_4core3fmt8buildersNtB5_11DebugStruct5field
libstd-a4a285076b042e1f.so:_RNvMs1_NtNtCsc9UXYxZytPG_4core3fmt8buildersNtB5_11DebugStruct6finish
libstd-a4a285076b042e1f.so:_RNvMs1_NtNtCsc9UXYxZytPG_4core3net6parserNtNtB7_7ip_addr8Ipv4Addr11parse_ascii
libstd-a4a285076b042e1f.so:_RNvMs1_NtNtNtCs3jZe4LgnEve_6object4read2pe6exportNtB5_11ExportTable14forward_string
libstd-a4a285076b042e1f.so:_RNvMs1_NtNtNtCs3jZe4LgnEve_6object4read2pe6exportNtB5_11ExportTable15parse_directory
libstd-a4a285076b042e1f.so:_RNvMs1_NtNtNtCs3jZe4LgnEve_6object4read2pe6exportNtB5_11ExportTable15target_by_index
libstd-a4a285076b042e1f.so:_RNvMs1_NtNtNtCs3jZe4LgnEve_6object4read2pe6exportNtB5_11ExportTable17name_from_pointer
libstd-a4a285076b042e1f.so:_RNvMs1_NtNtNtCs3jZe4LgnEve_6object4read2pe6exportNtB5_11ExportTable17target_by_ordinal
libstd-a4a285076b042e1f.so:_RNvMs1_NtNtNtCs3jZe4LgnEve_6object4read2pe6exportNtB5_11ExportTable18address_by_ordinal
libstd-a4a285076b042e1f.so:_RNvMs1_NtNtNtCs3jZe4LgnEve_6object4read2pe6exportNtB5_11ExportTable19target_from_address
libstd-a4a285076b042e1f.so:_RNvMs1_NtNtNtCs3jZe4LgnEve_6object4read2pe6exportNtB5_11ExportTable5parse
libstd-a4a285076b042e1f.so:_RNvMs1_NtNtNtCs3jZe4LgnEve_6object4read2pe6exportNtB5_11ExportTable7exports
libstd-a4a285076b042e1f.so:_RNvMs1_NtNtNtCs3jZe4LgnEve_6object4read2pe6exportNtB5_11ExportTable9name_iter
libstd-a4a285076b042e1f.so:_RNvMs1_NtNtNtCsc9UXYxZytPG_4core3fmt3num3impa11format_into
libstd-a4a285076b042e1f.so:_RNvMs1_NtNtNtCseLWYKOMA8NS_6memchr4arch3all6twowayNtB5_6Suffix7forward
libstd-a4a285076b042e1f.so:_RNvMs1_NtNtNtCseLWYKOMA8NS_6memchr4arch3all6twowayNtB5_6Suffix7reverse
libstd-a4a285076b042e1f.so:_RNvMs1b_NtCs55LTYJXEnzY_5gimli9constantsNtB6_4DwAt13static_string
libstd-a4a285076b042e1f.so:_RNvMs1n_NtCs55LTYJXEnzY_5gimli9constantsNtB6_6DwForm13static_string
libstd-a4a285076b042e1f.so:_RNvMs2V_NtCs55LTYJXEnzY_5gimli9constantsNtB6_6DwLang13static_string
libstd-a4a285076b042e1f.so:_RNvMs2_NtCsc6rNrONHOw_3std2fsNtB5_4File11lock_shared
libstd-a4a285076b042e1f.so:_RNvMs2_NtCsc6rNrONHOw_3std2fsNtB5_4File15set_permissions
libstd-a4a285076b042e1f.so:_RNvMs2_NtCsc6rNrONHOw_3std2fsNtB5_4File15try_lock_shared
libstd-a4a285076b042e1f.so:_RNvMs2_NtCsc6rNrONHOw_3std2fsNtB5_4File4lock
libstd-a4a285076b042e1f.so:_RNvMs2_NtCsc6rNrONHOw_3std2fsNtB5_4File6unlock
libstd-a4a285076b042e1f.so:_RNvMs2_NtCsc6rNrONHOw_3std2fsNtB5_4File7set_len
libstd-a4a285076b042e1f.so:_RNvMs2_NtCsc6rNrONHOw_3std2fsNtB5_4File8metadata
libstd-a4a285076b042e1f.so:_RNvMs2_NtCsc6rNrONHOw_3std2fsNtB5_4File8sync_all
libstd-a4a285076b042e1f.so:_RNvMs2_NtCsc6rNrONHOw_3std2fsNtB5_4File8try_lock
libstd-a4a285076b042e1f.so:_RNvMs2_NtCsc6rNrONHOw_3std2fsNtB5_4File9set_times
libstd-a4a285076b042e1f.so:_RNvMs2_NtCsc6rNrONHOw_3std2fsNtB5_4File9sync_data
libstd-a4a285076b042e1f.so:_RNvMs2_NtCsc6rNrONHOw_3std2fsNtB5_4File9try_clone
libstd-a4a285076b042e1f.so:_RNvMs2_NtCsc6rNrONHOw_3std2ioNtB5_10IoSliceMut10into_slice
libstd-a4a285076b042e1f.so:_RNvMs2_NtCsc6rNrONHOw_3std9backtraceNtB5_9Backtrace13force_capture
libstd-a4a285076b042e1f.so:_RNvMs2_NtCsc6rNrONHOw_3std9backtraceNtB5_9Backtrace7capture
libstd-a4a285076b042e1f.so:_RNvMs2_NtCskIlJ6Bf8u3b_5alloc4wtf8NtB5_7Wtf8Buf11into_string
libstd-a4a285076b042e1f.so:_RNvMs2_NtCskIlJ6Bf8u3b_5alloc4wtf8NtB5_7Wtf8Buf17into_string_lossy
libstd-a4a285076b042e1f.so:_RNvMs2_NtCskIlJ6Bf8u3b_5alloc4wtf8NtB5_7Wtf8Buf25push_code_point_unchecked
libstd-a4a285076b042e1f.so:_RNvMs2_NtCskIlJ6Bf8u3b_5alloc4wtf8NtB5_7Wtf8Buf5clear
libstd-a4a285076b042e1f.so:_RNvMs2_NtCskIlJ6Bf8u3b_5alloc4wtf8NtB5_7Wtf8Buf8from_box
libstd-a4a285076b042e1f.so:_RNvMs2_NtCskIlJ6Bf8u3b_5alloc4wtf8NtB5_7Wtf8Buf9from_wide
libstd-a4a285076b042e1f.so:_RNvMs2_NtCskIlJ6Bf8u3b_5alloc7raw_vecNtB5_11RawVecInner10deallocateCs55LTYJXEnzY_5gimli
libstd-a4a285076b042e1f.so:_RNvMs2_NtCskIlJ6Bf8u3b_5alloc7raw_vecNtB5_11RawVecInner11finish_growCs55LTYJXEnzY_5gimli
libstd-a4a285076b042e1f.so:_RNvMs2_NtCskIlJ6Bf8u3b_5alloc7raw_vecNtB5_11RawVecInner14grow_amortizedCs55LTYJXEnzY_5gimli
libstd-a4a285076b042e1f.so:_RNvMs2_NtCskIlJ6Bf8u3b_5alloc7raw_vecNtB5_11RawVecInner15try_allocate_inCs55LTYJXEnzY_5gimli
libstd-a4a285076b042e1f.so:_RNvMs2_NtNtCsc6rNrONHOw_3std2io4pipeNtB5_10PipeReader9try_clone
libstd-a4a285076b042e1f.so:_RNvMs2_NtNtCsc9UXYxZytPG_4core3fmt8buildersNtB5_10DebugTuple21finish_non_exhaustive
libstd-a4a285076b042e1f.so:_RNvMs2_NtNtCsc9UXYxZytPG_4core3fmt8buildersNtB5_10DebugTuple5field
libstd-a4a285076b042e1f.so:_RNvMs2_NtNtCsc9UXYxZytPG_4core3fmt8buildersNtB5_10DebugTuple6finish
libstd-a4a285076b042e1f.so:_RNvMs2_NtNtCsc9UXYxZytPG_4core3num6bignumNtB5_8Big32x4010bit_length
libstd-a4a285076b042e1f.so:_RNvMs2_NtNtCsc9UXYxZytPG_4core3num6bignumNtB5_8Big32x4010mul_digits
libstd-a4a285076b042e1f.so:_RNvMs2_NtNtCsc9UXYxZytPG_4core3num6bignumNtB5_8Big32x4013div_rem_small
libstd-a4a285076b042e1f.so:_RNvMs2_NtNtCsc9UXYxZytPG_4core3num6bignumNtB5_8Big32x403add
libstd-a4a285076b042e1f.so:_RNvMs2_NtNtCsc9UXYxZytPG_4core3num6bignumNtB5_8Big32x403sub
libstd-a4a285076b042e1f.so:_RNvMs2_NtNtCsc9UXYxZytPG_4core3num6bignumNtB5_8Big32x406digits
libstd-a4a285076b042e1f.so:_RNvMs2_NtNtCsc9UXYxZytPG_4core3num6bignumNtB5_8Big32x407get_bit
libstd-a4a285076b042e1f.so:_RNvMs2_NtNtCsc9UXYxZytPG_4core3num6bignumNtB5_8Big32x407is_zero
libstd-a4a285076b042e1f.so:_RNvMs2_NtNtCsc9UXYxZytPG_4core3num6bignumNtB5_8Big32x408from_u64
libstd-a4a285076b042e1f.so:_RNvMs2_NtNtCsc9UXYxZytPG_4core3num6bignumNtB5_8Big32x408mul_pow2
libstd-a4a285076b042e1f.so:_RNvMs2_NtNtCsc9UXYxZytPG_4core3num6bignumNtB5_8Big32x408mul_pow5
libstd-a4a285076b042e1f.so:_RNvMs2_NtNtCsc9UXYxZytPG_4core3num6bignumNtB5_8Big32x409add_small
libstd-a4a285076b042e1f.so:_RNvMs2_NtNtCsc9UXYxZytPG_4core3num6bignumNtB5_8Big32x409mul_small
libstd-a4a285076b042e1f.so:_RNvMs2_NtNtNtCs3jZe4LgnEve_6object4read2pe8resourceNtB5_12ResourceName15to_string_lossy
libstd-a4a285076b042e1f.so:_RNvMs2_NtNtNtCs3jZe4LgnEve_6object4read2pe8resourceNtB5_12ResourceName4data
libstd-a4a285076b042e1f.so:_RNvMs2_NtNtNtCs3jZe4LgnEve_6object4read2pe8resourceNtB5_12ResourceName8raw_data
libstd-a4a285076b042e1f.so:_RNvMs2_NtNtNtCsc9UXYxZytPG_4core3fmt3num3imph11format_into
libstd-a4a285076b042e1f.so:_RNvMs3_NtCs55LTYJXEnzY_5gimli4archNtB5_3Arm13register_name
libstd-a4a285076b042e1f.so:_RNvMs3_NtCs55LTYJXEnzY_5gimli4archNtB5_3Arm16name_to_register
libstd-a4a285076b042e1f.so:_RNvMs3_NtCsc6rNrONHOw_3std9backtraceNtB5_9Backtrace6frames
libstd-a4a285076b042e1f.so:_RNvMs3_NtCskIlJ6Bf8u3b_5alloc3stre12to_lowercase
libstd-a4a285076b042e1f.so:_RNvMs3_NtCskIlJ6Bf8u3b_5alloc3stre12to_uppercase
libstd-a4a285076b042e1f.so:_RNvMs3_NtNtCsc6rNrONHOw_3std2io4pipeNtB5_10PipeWriter9try_clone
libstd-a4a285076b042e1f.so:_RNvMs3_NtNtCsc9UXYxZytPG_4core3ffi5c_strNtB5_4CStr19from_bytes_with_nul
libstd-a4a285076b042e1f.so:_RNvMs3_NtNtCsc9UXYxZytPG_4core3ffi5c_strNtB5_4CStr20from_bytes_until_nul
libstd-a4a285076b042e1f.so:_RNvMs3_NtNtCsc9UXYxZytPG_4core3ffi5c_strNtB5_4CStr6to_str
libstd-a4a285076b042e1f.so:_RNvMs3_NtNtCsc9UXYxZytPG_4core3net6parserNtNtB7_7ip_addr8Ipv6Addr11parse_ascii
libstd-a4a285076b042e1f.so:_RNvMs4_NtNtCs55LTYJXEnzY_5gimli4read6abbrevNtB5_13Abbreviations6insert
libstd-a4a285076b042e1f.so:_RNvMs4_NtNtCsc9UXYxZytPG_4core3fmt8buildersNtB5_8DebugSet21finish_non_exhaustive
libstd-a4a285076b042e1f.so:_RNvMs4_NtNtCsc9UXYxZytPG_4core3fmt8buildersNtB5_8DebugSet5entry
libstd-a4a285076b042e1f.so:_RNvMs4_NtNtCsc9UXYxZytPG_4core3fmt8buildersNtB5_8DebugSet6finish
libstd-a4a285076b042e1f.so:_RNvMs4_NtNtNtCs3jZe4LgnEve_6object4read2pe6importNtB5_20DelayLoadImportTable4name
libstd-a4a285076b042e1f.so:_RNvMs4_NtNtNtCs3jZe4LgnEve_6object4read2pe6importNtB5_20DelayLoadImportTable9hint_name
libstd-a4a285076b042e1f.so:_RNvMs5P_NtCs55LTYJXEnzY_5gimli9constantsNtB6_4DwOp13static_string
libstd-a4a285076b042e1f.so:_RNvMs5_NtCsc6rNrONHOw_3std4timeNtB5_10SystemTime11checked_add
libstd-a4a285076b042e1f.so:_RNvMs5_NtCsc6rNrONHOw_3std4timeNtB5_10SystemTime11checked_sub
libstd-a4a285076b042e1f.so:_RNvMs5_NtCsc6rNrONHOw_3std4timeNtB5_10SystemTime14duration_since
libstd-a4a285076b042e1f.so:_RNvMs5_NtCsc6rNrONHOw_3std4timeNtB5_10SystemTime3now
libstd-a4a285076b042e1f.so:_RNvMs5_NtCsc6rNrONHOw_3std4timeNtB5_10SystemTime7elapsed
libstd-a4a285076b042e1f.so:_RNvMs5_NtCskIlJ6Bf8u3b_5alloc4wtf8NtNtCsc9UXYxZytPG_4core4wtf84Wtf810clone_into
libstd-a4a285076b042e1f.so:_RNvMs5_NtCskIlJ6Bf8u3b_5alloc4wtf8NtNtCsc9UXYxZytPG_4core4wtf84Wtf815to_string_lossy
libstd-a4a285076b042e1f.so:_RNvMs5_NtCskIlJ6Bf8u3b_5alloc4wtf8NtNtCsc9UXYxZytPG_4core4wtf84Wtf87into_rc
libstd-a4a285076b042e1f.so:_RNvMs5_NtCskIlJ6Bf8u3b_5alloc4wtf8NtNtCsc9UXYxZytPG_4core4wtf84Wtf88into_arc
libstd-a4a285076b042e1f.so:_RNvMs5_NtCskIlJ6Bf8u3b_5alloc4wtf8NtNtCsc9UXYxZytPG_4core4wtf84Wtf88into_box
libstd-a4a285076b042e1f.so:_RNvMs5_NtCskIlJ6Bf8u3b_5alloc4wtf8NtNtCsc9UXYxZytPG_4core4wtf84Wtf88to_owned
libstd-a4a285076b042e1f.so:_RNvMs5_NtNtCs55LTYJXEnzY_5gimli4read6abbrevNtB5_12Abbreviation3new
libstd-a4a285076b042e1f.so:_RNvMs5_NtNtCsc6rNrONHOw_3std2io5errorNtB5_5Error4__new
libstd-a4a285076b042e1f.so:_RNvMs5_NtNtCsc9UXYxZytPG_4core3fmt8buildersNtB5_9DebugList21finish_non_exhaustive
libstd-a4a285076b042e1f.so:_RNvMs5_NtNtCsc9UXYxZytPG_4core3fmt8buildersNtB5_9DebugList5entry
libstd-a4a285076b042e1f.so:_RNvMs5_NtNtCsc9UXYxZytPG_4core3fmt8buildersNtB5_9DebugList6finish
libstd-a4a285076b042e1f.so:_RNvMs5_NtNtCsc9UXYxZytPG_4core3net6parserNtNtB7_11socket_addr12SocketAddrV411parse_ascii
libstd-a4a285076b042e1f.so:_RNvMs5_NtNtNtCs3jZe4LgnEve_6object4read2pe6importNtB5_27DelayLoadDescriptorIterator4next
libstd-a4a285076b042e1f.so:_RNvMs5_NtNtNtCs3jZe4LgnEve_6object4read3elf10attributesNtB5_22AttributeIndexIterator4next
libstd-a4a285076b042e1f.so:_RNvMs5_NtNtNtCsc9UXYxZytPG_4core3fmt3num3impt4__fmt
libstd-a4a285076b042e1f.so:_RNvMs5_NtNtNtNtCsc6rNrONHOw_3std2os4unix3net9ancillaryNtB5_15SocketAncillary7add_fds
libstd-a4a285076b042e1f.so:_RNvMs5_NtNtNtNtCsc6rNrONHOw_3std2os4unix3net9ancillaryNtB5_15SocketAncillary8messages
libstd-a4a285076b042e1f.so:_RNvMs5_NtNtNtNtCsc6rNrONHOw_3std2os4unix3net9ancillaryNtB5_15SocketAncillary9add_creds
libstd-a4a285076b042e1f.so:_RNvMs6_NtNtCs55LTYJXEnzY_5gimli4read6abbrevNtB5_10Attributes4push
libstd-a4a285076b042e1f.so:_RNvMs6_NtNtCsc9UXYxZytPG_4core3fmt8buildersNtB5_8DebugMap21finish_non_exhaustive
libstd-a4a285076b042e1f.so:_RNvMs6_NtNtCsc9UXYxZytPG_4core3fmt8buildersNtB5_8DebugMap3key
libstd-a4a285076b042e1f.so:_RNvMs6_NtNtCsc9UXYxZytPG_4core3fmt8buildersNtB5_8DebugMap5entry
libstd-a4a285076b042e1f.so:_RNvMs6_NtNtCsc9UXYxZytPG_4core3fmt8buildersNtB5_8DebugMap5value
libstd-a4a285076b042e1f.so:_RNvMs6_NtNtCsc9UXYxZytPG_4core3fmt8buildersNtB5_8DebugMap6finish
libstd-a4a285076b042e1f.so:_RNvMs6_NtNtNtCs3jZe4LgnEve_6object4read2pe7sectionNtNtNtB9_4coff7section12SectionTable16pe_file_range_at
libstd-a4a285076b042e1f.so:_RNvMs6_NtNtNtCs3jZe4LgnEve_6object4read2pe7sectionNtNtNtB9_4coff7section12SectionTable18section_containing
libstd-a4a285076b042e1f.so:_RNvMs6_NtNtNtCsc9UXYxZytPG_4core3fmt3num3imps11format_into
libstd-a4a285076b042e1f.so:_RNvMs6_NtNtNtNtCskIlJ6Bf8u3b_5alloc11collections5btree3map5entryINtB5_11VacantEntryyNtNtNtCs55LTYJXEnzY_5gimli4read6abbrev12AbbreviationE12insert_entryB1q_
libstd-a4a285076b042e1f.so:_RNvMs7_NtNtCsc6rNrONHOw_3std3net3tcpNtB5_11TcpListener10local_addr
libstd-a4a285076b042e1f.so:_RNvMs7_NtNtCsc6rNrONHOw_3std3net3tcpNtB5_11TcpListener10take_error
libstd-a4a285076b042e1f.so:_RNvMs7_NtNtCsc6rNrONHOw_3std3net3tcpNtB5_11TcpListener11set_only_v6
libstd-a4a285076b042e1f.so:_RNvMs7_NtNtCsc6rNrONHOw_3std3net3tcpNtB5_11TcpListener15set_nonblocking
libstd-a4a285076b042e1f.so:_RNvMs7_NtNtCsc6rNrONHOw_3std3net3tcpNtB5_11TcpListener3ttl
libstd-a4a285076b042e1f.so:_RNvMs7_NtNtCsc6rNrONHOw_3std3net3tcpNtB5_11TcpListener6accept
libstd-a4a285076b042e1f.so:_RNvMs7_NtNtCsc6rNrONHOw_3std3net3tcpNtB5_11TcpListener7only_v6
libstd-a4a285076b042e1f.so:_RNvMs7_NtNtCsc6rNrONHOw_3std3net3tcpNtB5_11TcpListener7set_ttl
libstd-a4a285076b042e1f.so:_RNvMs7_NtNtCsc6rNrONHOw_3std3net3tcpNtB5_11TcpListener9try_clone
libstd-a4a285076b042e1f.so:_RNvMs7_NtNtCsc9UXYxZytPG_4core3net6parserNtNtB7_11socket_addr12SocketAddrV611parse_ascii
libstd-a4a285076b042e1f.so:_RNvMs7_NtNtNtCs3jZe4LgnEve_6object4read2pe7sectionNtNtBb_2pe18ImageSectionHeader13pe_file_range
libstd-a4a285076b042e1f.so:_RNvMs7_NtNtNtCs3jZe4LgnEve_6object4read2pe7sectionNtNtBb_2pe18ImageSectionHeader16pe_file_range_at
libstd-a4a285076b042e1f.so:_RNvMs7_NtNtNtCs3jZe4LgnEve_6object4read3elf10attributesNtB5_15AttributeReader11read_string
libstd-a4a285076b042e1f.so:_RNvMs7_NtNtNtCs3jZe4LgnEve_6object4read3elf10attributesNtB5_15AttributeReader12read_integer
libstd-a4a285076b042e1f.so:_RNvMs7_NtNtNtCs3jZe4LgnEve_6object4read3elf10attributesNtB5_15AttributeReader8read_tag
libstd-a4a285076b042e1f.so:_RNvMs7_NtNtNtCsc9UXYxZytPG_4core3fmt3num3impt11format_into
libstd-a4a285076b042e1f.so:_RNvMs7_NtNtNtNtCskIlJ6Bf8u3b_5alloc11collections5btree3map5entryINtB5_13OccupiedEntryyNtNtNtCs55LTYJXEnzY_5gimli4read6abbrev12AbbreviationE8into_mutB1s_
libstd-a4a285076b042e1f.so:_RNvMs8_NtCsc6rNrONHOw_3std2ioNtB5_7IoSlice8as_slice
libstd-a4a285076b042e1f.so:_RNvMs8_NtCsc6rNrONHOw_3std4pathNtB5_10Components7as_path
libstd-a4a285076b042e1f.so:_RNvMs8_NtNtNtCs3jZe4LgnEve_6object4read4coff7sectionNtNtBb_2pe18ImageSectionHeader11name_offset
libstd-a4a285076b042e1f.so:_RNvMs8_NtNtNtCs3jZe4LgnEve_6object4read4coff7sectionNtNtBb_2pe18ImageSectionHeader8raw_name
libstd-a4a285076b042e1f.so:_RNvMs9_NtCs55LTYJXEnzY_5gimli4archNtB5_7AArch6413register_name
libstd-a4a285076b042e1f.so:_RNvMs9_NtCs55LTYJXEnzY_5gimli4archNtB5_7AArch6416name_to_register
libstd-a4a285076b042e1f.so:_RNvMs9_NtNtCsc9UXYxZytPG_4core3net6parserNtNtB7_11socket_addr10SocketAddr11parse_ascii
libstd-a4a285076b042e1f.so:_RNvMsA_NtCsc6rNrONHOw_3std2fsNtB5_10DirBuilder7__create
libstd-a4a285076b042e1f.so:_RNvMsD_NtCs55LTYJXEnzY_5gimli4archNtB5_6X86_6413register_name
libstd-a4a285076b042e1f.so:_RNvMsD_NtCs55LTYJXEnzY_5gimli4archNtB5_6X86_6416name_to_register
libstd-a4a285076b042e1f.so:_RNvMsD_NtNtCskIlJ6Bf8u3b_5alloc3ffi5c_strNtNtNtCsc9UXYxZytPG_4core3ffi5c_str4CStr13into_c_string
libstd-a4a285076b042e1f.so:_RNvMsD_NtNtCskIlJ6Bf8u3b_5alloc3ffi5c_strNtNtNtCsc9UXYxZytPG_4core3ffi5c_str4CStr15to_string_lossy
libstd-a4a285076b042e1f.so:_RNvMsJ_NtCs55LTYJXEnzY_5gimli4archNtB5_9PowerPc6413register_name
libstd-a4a285076b042e1f.so:_RNvMsJ_NtCs55LTYJXEnzY_5gimli4archNtB5_9PowerPc6416name_to_register
libstd-a4a285076b042e1f.so:_RNvMsJ_NtNtNtCskIlJ6Bf8u3b_5alloc11collections5btree4nodeINtB5_6HandleINtB5_7NodeRefNtNtB5_6marker3MutyNtNtNtCs55LTYJXEnzY_5gimli4read6abbrev12AbbreviationNtB1m_4LeafENtB1m_4EdgeE10insert_fitB1J_
libstd-a4a285076b042e1f.so:_RNvMsL_NtNtNtCskIlJ6Bf8u3b_5alloc11collections5btree4nodeINtB5_6HandleINtB5_7NodeRefNtNtB5_6marker3MutyNtNtNtCs55LTYJXEnzY_5gimli4read6abbrev12AbbreviationNtB1m_8InternalENtB1m_4EdgeE19correct_parent_linkB1J_
libstd-a4a285076b042e1f.so:_RNvMsM_NtNtNtCskIlJ6Bf8u3b_5alloc11collections5btree4nodeINtB5_6HandleINtB5_7NodeRefNtNtB5_6marker3MutyNtNtNtCs55LTYJXEnzY_5gimli4read6abbrev12AbbreviationNtB1m_8InternalENtB1m_4EdgeE10insert_fitB1J_
libstd-a4a285076b042e1f.so:_RNvMsN_NtCsc6rNrONHOw_3std7processNtB5_15ExitStatusError12code_nonzero
libstd-a4a285076b042e1f.so:_RNvMsN_NtCsc6rNrONHOw_3std7processNtB5_15ExitStatusError4code
libstd-a4a285076b042e1f.so:_RNvMsO_NtNtNtCskIlJ6Bf8u3b_5alloc11collections5btree4nodeINtB5_6HandleINtB5_7NodeRefNtNtB5_6marker3MutyNtNtNtCs55LTYJXEnzY_5gimli4read6abbrev12AbbreviationNtB1m_8InternalENtB1m_4EdgeE7descendB1J_
libstd-a4a285076b042e1f.so:_RNvMsO_NtNtNtCskIlJ6Bf8u3b_5alloc11collections5btree4nodeINtB5_6HandleINtB5_7NodeRefNtNtB5_6marker5ImmutyNtNtNtCs55LTYJXEnzY_5gimli4read6abbrev12AbbreviationNtB1m_8InternalENtB1m_4EdgeE7descendB1L_
libstd-a4a285076b042e1f.so:_RNvMsP_NtNtNtCskIlJ6Bf8u3b_5alloc11collections5btree4nodeINtB5_6HandleINtB5_7NodeRefNtNtB5_6marker5ImmutyNtNtNtCs55LTYJXEnzY_5gimli4read6abbrev12AbbreviationNtB1m_14LeafOrInternalENtB1m_2KVE7into_kvB1L_
libstd-a4a285076b042e1f.so:_RNvMsQ_NtNtNtCskIlJ6Bf8u3b_5alloc11collections5btree4nodeINtB5_6HandleINtB5_7NodeRefNtNtB5_6marker3MutyNtNtNtCs55LTYJXEnzY_5gimli4read6abbrev12AbbreviationNtB1m_14LeafOrInternalENtB1m_2KVE12into_val_mutB1J_
libstd-a4a285076b042e1f.so:_RNvMsS_NtCs7HZDCChmAB0_9hashbrown3rawNtB5_18RawIterHashIndices3new
libstd-a4a285076b042e1f.so:_RNvMsS_NtCsc6rNrONHOw_3std7processNtB5_8ExitCode12exit_process
libstd-a4a285076b042e1f.so:_RNvMsU_NtNtNtCskIlJ6Bf8u3b_5alloc11collections5btree4nodeINtB5_6HandleINtB5_7NodeRefNtNtB5_6marker3MutyNtNtNtCs55LTYJXEnzY_5gimli4read6abbrev12AbbreviationNtB1m_4LeafENtB1m_2KVE15split_leaf_dataB1J_
libstd-a4a285076b042e1f.so:_RNvMsU_NtNtNtCskIlJ6Bf8u3b_5alloc11collections5btree4nodeINtB5_6HandleINtB5_7NodeRefNtNtB5_6marker3MutyNtNtNtCs55LTYJXEnzY_5gimli4read6abbrev12AbbreviationNtB1m_8InternalENtB1m_2KVE15split_leaf_dataB1J_
libstd-a4a285076b042e1f.so:_RNvMsY_NtCsc6rNrONHOw_3std7processNtB5_5Child16wait_with_output
libstd-a4a285076b042e1f.so:_RNvMsY_NtCsc6rNrONHOw_3std7processNtB5_5Child4kill
libstd-a4a285076b042e1f.so:_RNvMsY_NtCsc6rNrONHOw_3std7processNtB5_5Child4wait
libstd-a4a285076b042e1f.so:_RNvMsY_NtCsc6rNrONHOw_3std7processNtB5_5Child8try_wait
libstd-a4a285076b042e1f.so:_RNvMsZ_NtCs55LTYJXEnzY_5gimli9constantsNtB5_5DwTag13static_string
libstd-a4a285076b042e1f.so:_RNvMs_NtCs55LTYJXEnzY_5gimli4readNtB4_5Error11description
libstd-a4a285076b042e1f.so:_RNvMs_NtCs9iPEsoqUGwF_9addr2line4lineNtB4_5Lines13find_location
libstd-a4a285076b042e1f.so:_RNvMs_NtCs9iPEsoqUGwF_9addr2line4lineNtB4_5Lines19find_location_range
libstd-a4a285076b042e1f.so:_RNvMs_NtCsc9UXYxZytPG_4core3fmtNtB4_17FormattingOptions8get_fill
libstd-a4a285076b042e1f.so:_RNvMs_NtCskIlJ6Bf8u3b_5alloc3vecINtB4_3VechE7reserveCs9iPEsoqUGwF_9addr2line
libstd-a4a285076b042e1f.so:_RNvMs_NtCskIlJ6Bf8u3b_5alloc5boxedINtB4_3BoxINtNtNtNtB6_11collections5btree4node12InternalNodeyNtNtNtCs55LTYJXEnzY_5gimli4read6abbrev12AbbreviationEE13new_uninit_inB1B_
libstd-a4a285076b042e1f.so:_RNvMs_NtCskIlJ6Bf8u3b_5alloc5boxedINtB4_3BoxINtNtNtNtB6_11collections5btree4node12InternalNodeyNtNtNtCs55LTYJXEnzY_5gimli4read6abbrev12AbbreviationEE17try_new_uninit_inB1B_
libstd-a4a285076b042e1f.so:_RNvMs_NtCskIlJ6Bf8u3b_5alloc5boxedINtB4_3BoxINtNtNtNtB6_11collections5btree4node8LeafNodeyNtNtNtCs55LTYJXEnzY_5gimli4read6abbrev12AbbreviationEE13new_uninit_inB1w_
libstd-a4a285076b042e1f.so:_RNvMs_NtCskIlJ6Bf8u3b_5alloc5boxedINtB4_3BoxINtNtNtNtB6_11collections5btree4node8LeafNodeyNtNtNtCs55LTYJXEnzY_5gimli4read6abbrev12AbbreviationEE17try_new_uninit_inB1w_
libstd-a4a285076b042e1f.so:_RNvMs_NtCskIlJ6Bf8u3b_5alloc6stringNtB4_13FromUtf8Error15into_utf8_lossy
libstd-a4a285076b042e1f.so:_RNvMs_NtCskIlJ6Bf8u3b_5alloc6stringNtB4_13FromUtf8Error8as_bytes
libstd-a4a285076b042e1f.so:_RNvMs_NtNtCs3jZe4LgnEve_6object4read4utilNtB4_5Bytes12read_sleb128
libstd-a4a285076b042e1f.so:_RNvMs_NtNtCs3jZe4LgnEve_6object4read4utilNtB4_5Bytes12read_uleb128
libstd-a4a285076b042e1f.so:_RNvMs_NtNtCs55LTYJXEnzY_5gimli4read5valueNtB4_5Value11reinterpret
libstd-a4a285076b042e1f.so:_RNvMs_NtNtCs55LTYJXEnzY_5gimli4read5valueNtB4_5Value2or
libstd-a4a285076b042e1f.so:_RNvMs_NtNtCs55LTYJXEnzY_5gimli4read5valueNtB4_5Value3and
libstd-a4a285076b042e1f.so:_RNvMs_NtNtCs55LTYJXEnzY_5gimli4read5valueNtB4_5Value3div
libstd-a4a285076b042e1f.so:_RNvMs_NtNtCs55LTYJXEnzY_5gimli4read5valueNtB4_5Value3not
libstd-a4a285076b042e1f.so:_RNvMs_NtNtCs55LTYJXEnzY_5gimli4read5valueNtB4_5Value3rem
libstd-a4a285076b042e1f.so:_RNvMs_NtNtCs55LTYJXEnzY_5gimli4read5valueNtB4_5Value3shl
libstd-a4a285076b042e1f.so:_RNvMs_NtNtCs55LTYJXEnzY_5gimli4read5valueNtB4_5Value3shr
libstd-a4a285076b042e1f.so:_RNvMs_NtNtCs55LTYJXEnzY_5gimli4read5valueNtB4_5Value3xor
libstd-a4a285076b042e1f.so:_RNvMs_NtNtCs55LTYJXEnzY_5gimli4read5valueNtB4_5Value4shra
libstd-a4a285076b042e1f.so:_RNvMs_NtNtCs55LTYJXEnzY_5gimli4read5valueNtB4_5Value7convert
libstd-a4a285076b042e1f.so:_RNvMs_NtNtCsc6rNrONHOw_3std12backtrace_rs9symbolizeNtB4_6Symbol12filename_raw
libstd-a4a285076b042e1f.so:_RNvMs_NtNtCsc6rNrONHOw_3std12backtrace_rs9symbolizeNtB4_6Symbol4name
libstd-a4a285076b042e1f.so:_RNvMs_NtNtCsc6rNrONHOw_3std6thread6threadNtB4_6Thread12park_timeout
libstd-a4a285076b042e1f.so:_RNvMs_NtNtCsc6rNrONHOw_3std6thread6threadNtB4_6Thread3new
libstd-a4a285076b042e1f.so:_RNvMs_NtNtCsc6rNrONHOw_3std6thread6threadNtB4_6Thread4name
libstd-a4a285076b042e1f.so:_RNvMs_NtNtCsc6rNrONHOw_3std6thread6threadNtB4_6Thread4park
libstd-a4a285076b042e1f.so:_RNvMs_NtNtCsc6rNrONHOw_3std6thread6threadNtB4_6Thread8from_raw
libstd-a4a285076b042e1f.so:_RNvMs_NtNtCsc6rNrONHOw_3std6thread9spawnhookNtB4_15ChildSpawnHooks3run
libstd-a4a285076b042e1f.so:_RNvMs_NtNtCsc9UXYxZytPG_4core3fmt8buildersNtB4_10PadAdapter4wrap
libstd-a4a285076b042e1f.so:_RNvMs_NtNtCsc9UXYxZytPG_4core3net6parserNtNtB6_7ip_addr6IpAddr11parse_ascii
libstd-a4a285076b042e1f.so:_RNvMs_NtNtCsc9UXYxZytPG_4core3num3fmtNtB4_9Formatted3len
libstd-a4a285076b042e1f.so:_RNvMs_NtNtCsc9UXYxZytPG_4core3num3fmtNtB4_9Formatted5write
libstd-a4a285076b042e1f.so:_RNvMs_NtNtCskIlJ6Bf8u3b_5alloc3ffi5c_strNtB4_7CString10into_bytes
libstd-a4a285076b042e1f.so:_RNvMs_NtNtCskIlJ6Bf8u3b_5alloc3ffi5c_strNtB4_7CString11into_string
libstd-a4a285076b042e1f.so:_RNvMs_NtNtCskIlJ6Bf8u3b_5alloc3ffi5c_strNtB4_7CString16into_boxed_c_str
libstd-a4a285076b042e1f.so:_RNvMs_NtNtCskIlJ6Bf8u3b_5alloc3ffi5c_strNtB4_7CString17from_vec_with_nul
libstd-a4a285076b042e1f.so:_RNvMs_NtNtCskIlJ6Bf8u3b_5alloc3ffi5c_strNtB4_7CString18from_vec_unchecked
libstd-a4a285076b042e1f.so:_RNvMs_NtNtCskIlJ6Bf8u3b_5alloc3ffi5c_strNtB4_7CString19__from_vec_unchecked
libstd-a4a285076b042e1f.so:_RNvMs_NtNtCskIlJ6Bf8u3b_5alloc3ffi5c_strNtB4_7CString19into_bytes_with_nul
libstd-a4a285076b042e1f.so:_RNvMs_NtNtCskIlJ6Bf8u3b_5alloc3ffi5c_strNtB4_7CString27from_vec_with_nul_unchecked
libstd-a4a285076b042e1f.so:_RNvMs_NtNtCskIlJ6Bf8u3b_5alloc3ffi5c_strNtB4_7CString8from_raw
libstd-a4a285076b042e1f.so:_RNvMs_NtNtNtCs3jZe4LgnEve_6object4read2pe14data_directoryNtNtBa_2pe18ImageDataDirectory10file_range
libstd-a4a285076b042e1f.so:_RNvMs_NtNtNtCs3jZe4LgnEve_6object4read2pe6importNtB4_24ImportDescriptorIterator4next
libstd-a4a285076b042e1f.so:_RNvMs_NtNtNtCsc6rNrONHOw_3std2io8buffered9bufwriterINtB4_9BufWriterNtNtB8_5stdio9StdoutRawE10write_coldBa_
libstd-a4a285076b042e1f.so:_RNvMs_NtNtNtCsc6rNrONHOw_3std2io8buffered9bufwriterINtB4_9BufWriterNtNtB8_5stdio9StdoutRawE14write_all_coldBa_
libstd-a4a285076b042e1f.so:_RNvMs_NtNtNtCsc6rNrONHOw_3std2os2fd5ownedNtB4_7OwnedFd9try_clone
libstd-a4a285076b042e1f.so:_RNvMs_NtNtNtCsc6rNrONHOw_3std3sys7process3envNtB4_10CommandEnv3set
libstd-a4a285076b042e1f.so:_RNvMs_NtNtNtCsc6rNrONHOw_3std3sys7process3envNtB4_10CommandEnv6remove
libstd-a4a285076b042e1f.so:_RNvMs_NtNtNtCsc9UXYxZytPG_4core3num7dec2flt11decimal_seqNtB4_10DecimalSeq10left_shift
libstd-a4a285076b042e1f.so:_RNvMs_NtNtNtCsc9UXYxZytPG_4core3num7dec2flt11decimal_seqNtB4_10DecimalSeq11right_shift
libstd-a4a285076b042e1f.so:_RNvMs_NtNtNtCsc9UXYxZytPG_4core3num7dec2flt11decimal_seqNtB4_10DecimalSeq4trim
libstd-a4a285076b042e1f.so:_RNvMs_NtNtNtCsc9UXYxZytPG_4core3num7dec2flt11decimal_seqNtB4_10DecimalSeq5round
libstd-a4a285076b042e1f.so:_RNvMs_NtNtNtNtCsc6rNrONHOw_3std2os4unix3net8listenerNtB4_12UnixListener10local_addr
libstd-a4a285076b042e1f.so:_RNvMs_NtNtNtNtCsc6rNrONHOw_3std2os4unix3net8listenerNtB4_12UnixListener10take_error
libstd-a4a285076b042e1f.so:_RNvMs_NtNtNtNtCsc6rNrONHOw_3std2os4unix3net8listenerNtB4_12UnixListener15set_nonblocking
libstd-a4a285076b042e1f.so:_RNvMs_NtNtNtNtCsc6rNrONHOw_3std2os4unix3net8listenerNtB4_12UnixListener6accept
libstd-a4a285076b042e1f.so:_RNvMs_NtNtNtNtCsc6rNrONHOw_3std2os4unix3net8listenerNtB4_12UnixListener9bind_addr
libstd-a4a285076b042e1f.so:_RNvMs_NtNtNtNtCsc6rNrONHOw_3std2os4unix3net8listenerNtB4_12UnixListener9try_clone
libstd-a4a285076b042e1f.so:_RNvMs_NtNtNtNtCsc6rNrONHOw_3std3sys7process4unix6commonNtB4_7Command3arg
libstd-a4a285076b042e1f.so:_RNvMs_NtNtNtNtCsc6rNrONHOw_3std3sys7process4unix6commonNtB4_7Command3cwd
libstd-a4a285076b042e1f.so:_RNvMs_NtNtNtNtCsc6rNrONHOw_3std3sys7process4unix6commonNtB4_7Command3new
libstd-a4a285076b042e1f.so:_RNvMs_NtNtNtNtCsc6rNrONHOw_3std3sys7process4unix6commonNtB4_7Command5stdin
libstd-a4a285076b042e1f.so:_RNvMs_NtNtNtNtCsc6rNrONHOw_3std3sys7process4unix6commonNtB4_7Command6chroot
libstd-a4a285076b042e1f.so:_RNvMs_NtNtNtNtCsc6rNrONHOw_3std3sys7process4unix6commonNtB4_7Command6stderr
libstd-a4a285076b042e1f.so:_RNvMs_NtNtNtNtCsc6rNrONHOw_3std3sys7process4unix6commonNtB4_7Command6stdout
libstd-a4a285076b042e1f.so:_RNvMs_NtNtNtNtCsc6rNrONHOw_3std3sys7process4unix6commonNtB4_7Command8pre_exec
libstd-a4a285076b042e1f.so:_RNvMs_NtNtNtNtCsc6rNrONHOw_3std3sys7process4unix6commonNtB4_7Command9set_arg_0
libstd-a4a285076b042e1f.so:_RNvMsa_NtCs3jZe4LgnEve_6object4readNtB5_9ObjectMap3get
libstd-a4a285076b042e1f.so:_RNvMsa_NtCsc9UXYxZytPG_4core3fmtNtB5_9Formatter10debug_list
libstd-a4a285076b042e1f.so:_RNvMsa_NtCsc9UXYxZytPG_4core3fmtNtB5_9Formatter11debug_tuple
libstd-a4a285076b042e1f.so:_RNvMsa_NtCsc9UXYxZytPG_4core3fmtNtB5_9Formatter12debug_struct
libstd-a4a285076b042e1f.so:_RNvMsa_NtCsc9UXYxZytPG_4core3fmtNtB5_9Formatter12pad_integral
libstd-a4a285076b042e1f.so:_RNvMsa_NtCsc9UXYxZytPG_4core3fmtNtB5_9Formatter25debug_tuple_field1_finish
libstd-a4a285076b042e1f.so:_RNvMsa_NtCsc9UXYxZytPG_4core3fmtNtB5_9Formatter25debug_tuple_field2_finish
libstd-a4a285076b042e1f.so:_RNvMsa_NtCsc9UXYxZytPG_4core3fmtNtB5_9Formatter25debug_tuple_field3_finish
libstd-a4a285076b042e1f.so:_RNvMsa_NtCsc9UXYxZytPG_4core3fmtNtB5_9Formatter25debug_tuple_field4_finish
libstd-a4a285076b042e1f.so:_RNvMsa_NtCsc9UXYxZytPG_4core3fmtNtB5_9Formatter25debug_tuple_field5_finish
libstd-a4a285076b042e1f.so:_RNvMsa_NtCsc9UXYxZytPG_4core3fmtNtB5_9Formatter25debug_tuple_fields_finish
libstd-a4a285076b042e1f.so:_RNvMsa_NtCsc9UXYxZytPG_4core3fmtNtB5_9Formatter26debug_struct_field1_finish
libstd-a4a285076b042e1f.so:_RNvMsa_NtCsc9UXYxZytPG_4core3fmtNtB5_9Formatter26debug_struct_field2_finish
libstd-a4a285076b042e1f.so:_RNvMsa_NtCsc9UXYxZytPG_4core3fmtNtB5_9Formatter26debug_struct_field3_finish
libstd-a4a285076b042e1f.so:_RNvMsa_NtCsc9UXYxZytPG_4core3fmtNtB5_9Formatter26debug_struct_field4_finish
libstd-a4a285076b042e1f.so:_RNvMsa_NtCsc9UXYxZytPG_4core3fmtNtB5_9Formatter26debug_struct_field5_finish
libstd-a4a285076b042e1f.so:_RNvMsa_NtCsc9UXYxZytPG_4core3fmtNtB5_9Formatter26debug_struct_fields_finish
libstd-a4a285076b042e1f.so:_RNvMsa_NtCsc9UXYxZytPG_4core3fmtNtB5_9Formatter3pad
libstd-a4a285076b042e1f.so:_RNvMsa_NtCsc9UXYxZytPG_4core3fmtNtB5_9Formatter4fill
libstd-a4a285076b042e1f.so:_RNvMsa_NtCsc9UXYxZytPG_4core3fmtNtB5_9Formatter9debug_map
libstd-a4a285076b042e1f.so:_RNvMsa_NtCsc9UXYxZytPG_4core3fmtNtB5_9Formatter9debug_set
libstd-a4a285076b042e1f.so:_RNvMsa_NtCsc9UXYxZytPG_4core3fmtNtB5_9Formatter9write_str
libstd-a4a285076b042e1f.so:_RNvMsa_NtNtCsc6rNrONHOw_3std2io5stdioNtB5_6Stdout4lock
libstd-a4a285076b042e1f.so:_RNvMsa_NtNtNtCsc9UXYxZytPG_4core3fmt3num3impm4__fmt
libstd-a4a285076b042e1f.so:_RNvMsa_NtNtNtNtCsc6rNrONHOw_3std3sys3net10connection6socketNtB5_9UdpSocket7send_to
libstd-a4a285076b042e1f.so:_RNvMsb_NtNtNtCsc9UXYxZytPG_4core3fmt3num3impl11format_into
libstd-a4a285076b042e1f.so:_RNvMsc_NtNtNtCsc9UXYxZytPG_4core3fmt3num3impm11format_into
libstd-a4a285076b042e1f.so:_RNvMse_NtNtNtCs3jZe4LgnEve_6object4read3elf10relocationNtB5_12CrelIterator3new
libstd-a4a285076b042e1f.so:_RNvMsf_NtCs55LTYJXEnzY_5gimli4archNtB5_9LoongArch13register_name
libstd-a4a285076b042e1f.so:_RNvMsf_NtCs55LTYJXEnzY_5gimli4archNtB5_9LoongArch16name_to_register
libstd-a4a285076b042e1f.so:_RNvMsf_NtNtNtCsc9UXYxZytPG_4core3fmt3num3impj4__fmt
libstd-a4a285076b042e1f.so:_RNvMsg_NtCsc6rNrONHOw_3std2fsNtB5_11OpenOptions5__open
libstd-a4a285076b042e1f.so:_RNvMsg_NtNtNtCsc9UXYxZytPG_4core3fmt3num3impi11format_into
libstd-a4a285076b042e1f.so:_RNvMsg_NtNtNtCskIlJ6Bf8u3b_5alloc11collections5btree4nodeINtB5_7NodeRefNtNtB5_6marker5ImmutyNtNtNtCs55LTYJXEnzY_5gimli4read6abbrev12AbbreviationNtB19_14LeafOrInternalE4keysB1y_
libstd-a4a285076b042e1f.so:_RNvMsh_NtNtNtCsc9UXYxZytPG_4core3fmt3num3impj11format_into
libstd-a4a285076b042e1f.so:_RNvMsi_NtCs3jZe4LgnEve_6object4readNtB5_13RelocationMap8relocate
libstd-a4a285076b042e1f.so:_RNvMsi_NtNtNtCsc6rNrONHOw_3std3sys2fs4unixNtB5_4File13read_vectored
libstd-a4a285076b042e1f.so:_RNvMsi_NtNtNtCsc6rNrONHOw_3std3sys2fs4unixNtB5_4File4read
libstd-a4a285076b042e1f.so:_RNvMsi_NtNtNtCsc6rNrONHOw_3std3sys2fs4unixNtB5_4File8read_buf
libstd-a4a285076b042e1f.so:_RNvMsi_NtNtNtCskIlJ6Bf8u3b_5alloc11collections5btree3mapINtB5_8BTreeMapyNtNtNtCs55LTYJXEnzY_5gimli4read6abbrev12AbbreviationE5entryB1e_
libstd-a4a285076b042e1f.so:_RNvMsj_NtCsc6rNrONHOw_3std2fsNtB5_8Metadata7created
libstd-a4a285076b042e1f.so:_RNvMsj_NtCsc6rNrONHOw_3std2fsNtB5_8Metadata8accessed
libstd-a4a285076b042e1f.so:_RNvMsj_NtCsc6rNrONHOw_3std2fsNtB5_8Metadata8modified
libstd-a4a285076b042e1f.so:_RNvMsk_NtCsc6rNrONHOw_3std7processNtB5_7Command11get_program
libstd-a4a285076b042e1f.so:_RNvMsk_NtCsc6rNrONHOw_3std7processNtB5_7Command15get_current_dir
libstd-a4a285076b042e1f.so:_RNvMsk_NtCsc6rNrONHOw_3std7processNtB5_7Command5spawn
libstd-a4a285076b042e1f.so:_RNvMsk_NtCsc6rNrONHOw_3std7processNtB5_7Command6output
libstd-a4a285076b042e1f.so:_RNvMsk_NtCsc6rNrONHOw_3std7processNtB5_7Command6status
libstd-a4a285076b042e1f.so:_RNvMsk_NtCsc6rNrONHOw_3std7processNtB5_7Command8get_args
libstd-a4a285076b042e1f.so:_RNvMsk_NtCsc6rNrONHOw_3std7processNtB5_7Command9env_clear
libstd-a4a285076b042e1f.so:_RNvMsk_NtNtCsc6rNrONHOw_3std2io5stdioNtB5_6Stderr4lock
libstd-a4a285076b042e1f.so:_RNvMsk_NtNtNtCsc9UXYxZytPG_4core3fmt3num3impy4__fmt
libstd-a4a285076b042e1f.so:_RNvMsl_NtCs55LTYJXEnzY_5gimli4archNtB5_4MIPS13register_name
libstd-a4a285076b042e1f.so:_RNvMsl_NtCs55LTYJXEnzY_5gimli4archNtB5_4MIPS16name_to_register
libstd-a4a285076b042e1f.so:_RNvMsl_NtNtCsc6rNrONHOw_3std3ffi6os_strNtB5_5OsStr14into_os_string
libstd-a4a285076b042e1f.so:_RNvMsl_NtNtCsc6rNrONHOw_3std3ffi6os_strNtB5_5OsStr18to_ascii_lowercase
libstd-a4a285076b042e1f.so:_RNvMsl_NtNtCsc6rNrONHOw_3std3ffi6os_strNtB5_5OsStr18to_ascii_uppercase
libstd-a4a285076b042e1f.so:_RNvMsl_NtNtNtCsc9UXYxZytPG_4core3fmt3num3impx11format_into
libstd-a4a285076b042e1f.so:_RNvMsm_NtNtNtCsc9UXYxZytPG_4core3fmt3num3impy11format_into
libstd-a4a285076b042e1f.so:_RNvMsn_NtCskIlJ6Bf8u3b_5alloc4syncINtB5_3ArcINtNtNtCs55LTYJXEnzY_5gimli4read5dwarf5DwarfINtNtBL_12endian_slice11EndianSliceNtNtBN_9endianity12LittleEndianEEE9drop_slowCsc6rNrONHOw_3std
libstd-a4a285076b042e1f.so:_RNvMsn_NtCskIlJ6Bf8u3b_5alloc4syncINtB5_3ArcINtNtNtNtCsc6rNrONHOw_3std4sync6poison5mutex5MutexINtNtB7_3vec3VechEEE9drop_slowBP_
libstd-a4a285076b042e1f.so:_RNvMsn_NtCskIlJ6Bf8u3b_5alloc4syncINtB5_3ArcNtNtNtCs55LTYJXEnzY_5gimli4read6abbrev13AbbreviationsE9drop_slowCsc6rNrONHOw_3std
libstd-a4a285076b042e1f.so:_RNvMsn_NtCskIlJ6Bf8u3b_5alloc4syncINtB5_3ArcNtNtNtCsc6rNrONHOw_3std6thread6thread5InnerNtNtBM_5alloc6SystemE9drop_slowBM_
libstd-a4a285076b042e1f.so:_RNvMsn_NtCskIlJ6Bf8u3b_5alloc4syncINtB5_3ArcNtNtNtCsc6rNrONHOw_3std6thread9spawnhook9SpawnHookE9drop_slowBM_
libstd-a4a285076b042e1f.so:_RNvMsn_NtCskIlJ6Bf8u3b_5alloc4syncINtB5_3ArcNtNtNtNtCsc6rNrONHOw_3std3sys2fs4unix12InnerReadDirE9drop_slowBO_
libstd-a4a285076b042e1f.so:_RNvMsr_NtCs55LTYJXEnzY_5gimli4archNtB5_5RiscV13register_name
libstd-a4a285076b042e1f.so:_RNvMsr_NtCs55LTYJXEnzY_5gimli4archNtB5_5RiscV16name_to_register
libstd-a4a285076b042e1f.so:_RNvMsr_NtCsc6rNrONHOw_3std4pathNtB5_7PathBuf14__add_extension
libstd-a4a285076b042e1f.so:_RNvMsr_NtCsc6rNrONHOw_3std4pathNtB5_7PathBuf14__set_extension
libstd-a4a285076b042e1f.so:_RNvMsr_NtCsc6rNrONHOw_3std4pathNtB5_7PathBuf14__set_file_name
libstd-a4a285076b042e1f.so:_RNvMsr_NtCsc6rNrONHOw_3std4pathNtB5_7PathBuf16pop_trailing_sep
libstd-a4a285076b042e1f.so:_RNvMsr_NtCsc6rNrONHOw_3std4pathNtB5_7PathBuf16set_trailing_sep
libstd-a4a285076b042e1f.so:_RNvMsr_NtCsc6rNrONHOw_3std4pathNtB5_7PathBuf17push_trailing_sep
libstd-a4a285076b042e1f.so:_RNvMsr_NtCsc6rNrONHOw_3std4pathNtB5_7PathBuf3pop
libstd-a4a285076b042e1f.so:_RNvMsr_NtCsc6rNrONHOw_3std4pathNtB5_7PathBuf5__push
libstd-a4a285076b042e1f.so:_RNvMst_NtCsc6rNrONHOw_3std7processNtB5_6Output7exit_ok
libstd-a4a285076b042e1f.so:_RNvMsu_NtNtCsc9UXYxZytPG_4core3str7patternNtB5_11StrSearcher3new
libstd-a4a285076b042e1f.so:_RNvMsu_NtNtNtCskIlJ6Bf8u3b_5alloc11collections5btree4nodeINtB5_7NodeRefNtNtB5_6marker3MutyNtNtNtCs55LTYJXEnzY_5gimli4read6abbrev12AbbreviationNtB19_4LeafE16push_with_handleB1w_
libstd-a4a285076b042e1f.so:_RNvMsv_NtNtNtCskIlJ6Bf8u3b_5alloc11collections5btree4nodeINtB5_7NodeRefNtNtB5_6marker3MutyNtNtNtCs55LTYJXEnzY_5gimli4read6abbrev12AbbreviationNtB19_8InternalE4pushB1w_
libstd-a4a285076b042e1f.so:_RNvMsx_NtCs55LTYJXEnzY_5gimli4archNtB5_3X8616name_to_register
libstd-a4a285076b042e1f.so:_RNvMsx_NtCsc6rNrONHOw_3std2fsNtB5_8DirEntry4path
libstd-a4a285076b042e1f.so:_RNvMsx_NtCsc6rNrONHOw_3std2fsNtB5_8DirEntry8metadata
libstd-a4a285076b042e1f.so:_RNvMsx_NtCsc6rNrONHOw_3std2fsNtB5_8DirEntry9file_name
libstd-a4a285076b042e1f.so:_RNvMsx_NtCsc6rNrONHOw_3std2fsNtB5_8DirEntry9file_type
libstd-a4a285076b042e1f.so:_RNvNCNKNvNtNtCsc6rNrONHOw_3std6thread9spawnhook11SPAWN_HOOKS0023___RUST_STD_INTERNAL_VAL
libstd-a4a285076b042e1f.so:_RNvNCNKNvNvMNtNtCsc6rNrONHOw_3std4hash6randomNtBa_11RandomState3new4KEYS0s_023___RUST_STD_INTERNAL_VAL
libstd-a4a285076b042e1f.so:_RNvNCNKNvNvMNtNtNtCsc6rNrONHOw_3std4sync4mpmc7contextNtBa_7Context4with7CONTEXT0023___RUST_STD_INTERNAL_VAL
libstd-a4a285076b042e1f.so:_RNvNCNKNvNvNtNtNtCsc6rNrONHOw_3std4sync4mpmc5waker17current_thread_id5DUMMY0s_023___RUST_STD_INTERNAL_VAL
libstd-a4a285076b042e1f.so:_RNvNCNvNtNtCsc6rNrONHOw_3std6thread9lifecycle15spawn_unchecked03MIN
libstd-a4a285076b042e1f.so:_RNvNtCs7HZDCChmAB0_9hashbrown3raw18maximum_buckets_in
libstd-a4a285076b042e1f.so:_RNvNtCs9iPEsoqUGwF_9addr2line4line9path_push
libstd-a4a285076b042e1f.so:_RNvNtCs9iPEsoqUGwF_9addr2line5frame13demangle_auto
libstd-a4a285076b042e1f.so:_RNvNtCsc6rNrONHOw_3std2rt19lang_start_internal
libstd-a4a285076b042e1f.so:_RNvNtCsc6rNrONHOw_3std3env11current_dir
libstd-a4a285076b042e1f.so:_RNvNtCsc6rNrONHOw_3std3env11current_exe
libstd-a4a285076b042e1f.so:_RNvNtCsc6rNrONHOw_3std3env4__var
libstd-a4a285076b042e1f.so:_RNvNtCsc6rNrONHOw_3std3env4args
libstd-a4a285076b042e1f.so:_RNvNtCsc6rNrONHOw_3std3env4vars
libstd-a4a285076b042e1f.so:_RNvNtCsc6rNrONHOw_3std3env7__var_os
libstd-a4a285076b042e1f.so:_RNvNtCsc6rNrONHOw_3std3env7args_os
libstd-a4a285076b042e1f.so:_RNvNtCsc6rNrONHOw_3std3env7vars_os
libstd-a4a285076b042e1f.so:_RNvNtCsc6rNrONHOw_3std3env8home_dir
libstd-a4a285076b042e1f.so:_RNvNtCsc6rNrONHOw_3std3env8temp_dir
libstd-a4a285076b042e1f.so:_RNvNtCsc6rNrONHOw_3std4path18compare_components
libstd-a4a285076b042e1f.so:_RNvNtCsc6rNrONHOw_3std5alloc20set_alloc_error_hook
libstd-a4a285076b042e1f.so:_RNvNtCsc6rNrONHOw_3std5alloc24default_alloc_error_hook
libstd-a4a285076b042e1f.so:_RNvNtCsc6rNrONHOw_3std5alloc4HOOK
libstd-a4a285076b042e1f.so:_RNvNtCsc6rNrONHOw_3std5alloc8rust_oom
libstd-a4a285076b042e1f.so:_RNvNtCsc6rNrONHOw_3std5panic13resume_unwind
libstd-a4a285076b042e1f.so:_RNvNtCsc6rNrONHOw_3std5panic19get_backtrace_style
libstd-a4a285076b042e1f.so:_RNvNtCsc6rNrONHOw_3std5panic19set_backtrace_style
libstd-a4a285076b042e1f.so:_RNvNtCsc6rNrONHOw_3std7process2id
libstd-a4a285076b042e1f.so:_RNvNtCsc6rNrONHOw_3std7process4exit
libstd-a4a285076b042e1f.so:_RNvNtCsc6rNrONHOw_3std7process5abort
libstd-a4a285076b042e1f.so:_RNvNtCsc6rNrONHOw_3std9panicking11EMPTY_PANIC
libstd-a4a285076b042e1f.so:_RNvNtCsc6rNrONHOw_3std9panicking12default_hook
libstd-a4a285076b042e1f.so:_RNvNtCsc6rNrONHOw_3std9panicking14payload_as_str
libstd-a4a285076b042e1f.so:_RNvNtCsc6rNrONHOw_3std9panicking15panic_with_hook
libstd-a4a285076b042e1f.so:_RNvNtCsc6rNrONHOw_3std9panicking4HOOK
libstd-a4a285076b042e1f.so:_RNvNtCsc6rNrONHOw_3std9panicking8set_hook
libstd-a4a285076b042e1f.so:_RNvNtCsc6rNrONHOw_3std9panicking9take_hook
libstd-a4a285076b042e1f.so:_RNvNtCsc9UXYxZytPG_4core3fmt17pointer_fmt_inner
libstd-a4a285076b042e1f.so:_RNvNtCsc9UXYxZytPG_4core3fmt5write
libstd-a4a285076b042e1f.so:_RNvNtCsc9UXYxZytPG_4core3num22from_ascii_radix_panic
libstd-a4a285076b042e1f.so:_RNvNtCsc9UXYxZytPG_4core3str16slice_error_fail
libstd-a4a285076b042e1f.so:_RNvNtCsc9UXYxZytPG_4core3str19slice_error_fail_ct
libstd-a4a285076b042e1f.so:_RNvNtCsc9UXYxZytPG_4core3str19slice_error_fail_rt
libstd-a4a285076b042e1f.so:_RNvNtCsc9UXYxZytPG_4core4cell22panic_already_borrowed
libstd-a4a285076b042e1f.so:_RNvNtCsc9UXYxZytPG_4core4cell30panic_already_mutably_borrowed
libstd-a4a285076b042e1f.so:_RNvNtCsc9UXYxZytPG_4core4wtf816slice_error_fail
libstd-a4a285076b042e1f.so:_RNvNtCsc9UXYxZytPG_4core5ascii14escape_default
libstd-a4a285076b042e1f.so:_RNvNtCsc9UXYxZytPG_4core6option13expect_failed
libstd-a4a285076b042e1f.so:_RNvNtCsc9UXYxZytPG_4core6option13unwrap_failed
libstd-a4a285076b042e1f.so:_RNvNtCsc9UXYxZytPG_4core6result13unwrap_failed
libstd-a4a285076b042e1f.so:_RNvNtCsc9UXYxZytPG_4core9panicking14panic_nounwind
libstd-a4a285076b042e1f.so:_RNvNtCsc9UXYxZytPG_4core9panicking15const_panic_fmt
libstd-a4a285076b042e1f.so:_RNvNtCsc9UXYxZytPG_4core9panicking16panic_in_cleanup
libstd-a4a285076b042e1f.so:_RNvNtCsc9UXYxZytPG_4core9panicking18panic_bounds_check
libstd-a4a285076b042e1f.so:_RNvNtCsc9UXYxZytPG_4core9panicking18panic_nounwind_fmt
libstd-a4a285076b042e1f.so:_RNvNtCsc9UXYxZytPG_4core9panicking19assert_failed_inner
libstd-a4a285076b042e1f.so:_RNvNtCsc9UXYxZytPG_4core9panicking19panic_cannot_unwind
libstd-a4a285076b042e1f.so:_RNvNtCsc9UXYxZytPG_4core9panicking26panic_nounwind_nobacktrace
libstd-a4a285076b042e1f.so:_RNvNtCsc9UXYxZytPG_4core9panicking30panic_null_pointer_dereference
libstd-a4a285076b042e1f.so:_RNvNtCsc9UXYxZytPG_4core9panicking31panic_invalid_enum_construction
libstd-a4a285076b042e1f.so:_RNvNtCsc9UXYxZytPG_4core9panicking36panic_misaligned_pointer_dereference
libstd-a4a285076b042e1f.so:_RNvNtCsc9UXYxZytPG_4core9panicking5panic
libstd-a4a285076b042e1f.so:_RNvNtCsc9UXYxZytPG_4core9panicking9panic_fmt
libstd-a4a285076b042e1f.so:_RNvNtCskIlJ6Bf8u3b_5alloc2rc32rc_inner_layout_for_value_layout
libstd-a4a285076b042e1f.so:_RNvNtCskIlJ6Bf8u3b_5alloc4sync18STATIC_INNER_SLICE
libstd-a4a285076b042e1f.so:_RNvNtCskIlJ6Bf8u3b_5alloc4sync32arcinner_layout_for_value_layout
libstd-a4a285076b042e1f.so:_RNvNtCskIlJ6Bf8u3b_5alloc5alloc18handle_alloc_error
libstd-a4a285076b042e1f.so:_RNvNtCskIlJ6Bf8u3b_5alloc7raw_vec12handle_error
libstd-a4a285076b042e1f.so:_RNvNtCsloXJXCvFm1O_11miniz_oxide6shared14update_adler32
libstd-a4a285076b042e1f.so:_RNvNtNtCs3jZe4LgnEve_6object4read7archive16parse_u64_digits
libstd-a4a285076b042e1f.so:_RNvNtNtCs3jZe4LgnEve_6object4read7archive24parse_sysv_extended_name
libstd-a4a285076b042e1f.so:_RNvNtNtCsc6rNrONHOw_3std2io5stdio18set_output_capture
libstd-a4a285076b042e1f.so:_RNvNtNtCsc6rNrONHOw_3std2io5stdio22try_set_output_capture
libstd-a4a285076b042e1f.so:_RNvNtNtCsc6rNrONHOw_3std2io5stdio23attempt_print_to_stderr
libstd-a4a285076b042e1f.so:_RNvNtNtCsc6rNrONHOw_3std2io5stdio5stdin
libstd-a4a285076b042e1f.so:_RNvNtNtCsc6rNrONHOw_3std2io5stdio6__print
libstd-a4a285076b042e1f.so:_RNvNtNtCsc6rNrONHOw_3std2io5stdio6stdout
libstd-a4a285076b042e1f.so:_RNvNtNtCsc6rNrONHOw_3std2io5stdio7__eprint
libstd-a4a285076b042e1f.so:_RNvNtNtCsc6rNrONHOw_3std3net8hostname8hostname
libstd-a4a285076b042e1f.so:_RNvNtNtCsc6rNrONHOw_3std3sys2fs10remove_dir
libstd-a4a285076b042e1f.so:_RNvNtNtCsc6rNrONHOw_3std3sys2fs11remove_file
libstd-a4a285076b042e1f.so:_RNvNtNtCsc6rNrONHOw_3std3sys2fs12canonicalize
libstd-a4a285076b042e1f.so:_RNvNtNtCsc6rNrONHOw_3std3sys2fs14remove_dir_all
libstd-a4a285076b042e1f.so:_RNvNtNtCsc6rNrONHOw_3std3sys2fs15set_permissions
libstd-a4a285076b042e1f.so:_RNvNtNtCsc6rNrONHOw_3std3sys2fs16symlink_metadata
libstd-a4a285076b042e1f.so:_RNvNtNtCsc6rNrONHOw_3std3sys2fs18set_times_nofollow
libstd-a4a285076b042e1f.so:_RNvNtNtCsc6rNrONHOw_3std3sys2fs24set_permissions_nofollow
libstd-a4a285076b042e1f.so:_RNvNtNtCsc6rNrONHOw_3std3sys2fs4copy
libstd-a4a285076b042e1f.so:_RNvNtNtCsc6rNrONHOw_3std3sys2fs6exists
libstd-a4a285076b042e1f.so:_RNvNtNtCsc6rNrONHOw_3std3sys2fs6rename
libstd-a4a285076b042e1f.so:_RNvNtNtCsc6rNrONHOw_3std3sys2fs7symlink
libstd-a4a285076b042e1f.so:_RNvNtNtCsc6rNrONHOw_3std3sys2fs8metadata
libstd-a4a285076b042e1f.so:_RNvNtNtCsc6rNrONHOw_3std3sys2fs8read_dir
libstd-a4a285076b042e1f.so:_RNvNtNtCsc6rNrONHOw_3std3sys2fs9hard_link
libstd-a4a285076b042e1f.so:_RNvNtNtCsc6rNrONHOw_3std3sys2fs9read_link
libstd-a4a285076b042e1f.so:_RNvNtNtCsc6rNrONHOw_3std3sys2fs9set_times
libstd-a4a285076b042e1f.so:_RNvNtNtCsc6rNrONHOw_3std3sys5alloc16realloc_fallback
libstd-a4a285076b042e1f.so:_RNvNtNtCsc6rNrONHOw_3std3sys9backtrace4lock
libstd-a4a285076b042e1f.so:_RNvNtNtCsc6rNrONHOw_3std4sync9lazy_lock14panic_poisoned
libstd-a4a285076b042e1f.so:_RNvNtNtCsc6rNrONHOw_3std6thread5local18panic_access_error
libstd-a4a285076b042e1f.so:_RNvNtNtCsc6rNrONHOw_3std6thread7current18current_or_unnamed
libstd-a4a285076b042e1f.so:_RNvNtNtCsc6rNrONHOw_3std6thread7current7CURRENT
libstd-a4a285076b042e1f.so:_RNvNtNtCsc6rNrONHOw_3std6thread7current7current
libstd-a4a285076b042e1f.so:_RNvNtNtCsc6rNrONHOw_3std6thread9functions11sleep_until
libstd-a4a285076b042e1f.so:_RNvNtNtCsc6rNrONHOw_3std6thread9functions12park_timeout
libstd-a4a285076b042e1f.so:_RNvNtNtCsc6rNrONHOw_3std6thread9functions15park_timeout_ms
libstd-a4a285076b042e1f.so:_RNvNtNtCsc6rNrONHOw_3std6thread9functions21available_parallelism
libstd-a4a285076b042e1f.so:_RNvNtNtCsc6rNrONHOw_3std6thread9functions4park
libstd-a4a285076b042e1f.so:_RNvNtNtCsc6rNrONHOw_3std6thread9functions5sleep
libstd-a4a285076b042e1f.so:_RNvNtNtCsc6rNrONHOw_3std6thread9functions8sleep_ms
libstd-a4a285076b042e1f.so:_RNvNtNtCsc6rNrONHOw_3std6thread9functions9yield_now
libstd-a4a285076b042e1f.so:_RNvNtNtCsc6rNrONHOw_3std6thread9spawnhook15run_spawn_hooks
libstd-a4a285076b042e1f.so:_RNvNtNtCsc6rNrONHOw_3std9panicking11panic_count17is_zero_slow_path
libstd-a4a285076b042e1f.so:_RNvNtNtCsc6rNrONHOw_3std9panicking11panic_count18GLOBAL_PANIC_COUNT
libstd-a4a285076b042e1f.so:_RNvNtNtCsc6rNrONHOw_3std9panicking11panic_count19finished_panic_hook
libstd-a4a285076b042e1f.so:_RNvNtNtCsc6rNrONHOw_3std9panicking11panic_count8decrease
libstd-a4a285076b042e1f.so:_RNvNtNtCsc6rNrONHOw_3std9panicking11panic_count8increase
libstd-a4a285076b042e1f.so:_RNvNtNtCsc6rNrONHOw_3std9panicking11panic_count9get_count
libstd-a4a285076b042e1f.so:_RNvNtNtCsc9UXYxZytPG_4core3num14overflow_panic3add
libstd-a4a285076b042e1f.so:_RNvNtNtCsc9UXYxZytPG_4core3num14overflow_panic3div
libstd-a4a285076b042e1f.so:_RNvNtNtCsc9UXYxZytPG_4core3num14overflow_panic3mul
libstd-a4a285076b042e1f.so:_RNvNtNtCsc9UXYxZytPG_4core3num14overflow_panic3neg
libstd-a4a285076b042e1f.so:_RNvNtNtCsc9UXYxZytPG_4core3num14overflow_panic3rem
libstd-a4a285076b042e1f.so:_RNvNtNtCsc9UXYxZytPG_4core3num14overflow_panic3shl
libstd-a4a285076b042e1f.so:_RNvNtNtCsc9UXYxZytPG_4core3num14overflow_panic3shr
libstd-a4a285076b042e1f.so:_RNvNtNtCsc9UXYxZytPG_4core3num14overflow_panic3sub
libstd-a4a285076b042e1f.so:_RNvNtNtCsc9UXYxZytPG_4core3num7flt2dec17digits_to_dec_str
libstd-a4a285076b042e1f.so:_RNvNtNtCsc9UXYxZytPG_4core3num7flt2dec17digits_to_exp_str
libstd-a4a285076b042e1f.so:_RNvNtNtCsc9UXYxZytPG_4core3num7flt2dec8round_up
libstd-a4a285076b042e1f.so:_RNvNtNtCsc9UXYxZytPG_4core3num8int_sqrt27panic_for_negative_argument
libstd-a4a285076b042e1f.so:_RNvNtNtCsc9UXYxZytPG_4core3num9int_log1030panic_for_nonpositive_argument
libstd-a4a285076b042e1f.so:_RNvNtNtCsc9UXYxZytPG_4core3str5count14do_count_chars
libstd-a4a285076b042e1f.so:_RNvNtNtCsc9UXYxZytPG_4core3str5count23char_count_general_case
libstd-a4a285076b042e1f.so:_RNvNtNtCsc9UXYxZytPG_4core3str6traits23str_index_overflow_fail
libstd-a4a285076b042e1f.so:_RNvNtNtCsc9UXYxZytPG_4core3str8converts13from_utf8_mut
libstd-a4a285076b042e1f.so:_RNvNtNtCsc9UXYxZytPG_4core3str8converts9from_utf8
libstd-a4a285076b042e1f.so:_RNvNtNtCsc9UXYxZytPG_4core4cell4lazy14panic_poisoned
libstd-a4a285076b042e1f.so:_RNvNtNtCsc9UXYxZytPG_4core5slice5index16into_slice_range
libstd-a4a285076b042e1f.so:_RNvNtNtCsc9UXYxZytPG_4core5slice5index16slice_index_fail
libstd-a4a285076b042e1f.so:_RNvNtNtCsc9UXYxZytPG_4core5slice6memchr14memchr_aligned
libstd-a4a285076b042e1f.so:_RNvNtNtCsc9UXYxZytPG_4core5slice6memchr7memrchr
libstd-a4a285076b042e1f.so:_RNvNtNtCsc9UXYxZytPG_4core7unicode9printable12is_printable
libstd-a4a285076b042e1f.so:_RNvNtNtCsc9UXYxZytPG_4core9panicking11panic_const23panic_const_div_by_zero
libstd-a4a285076b042e1f.so:_RNvNtNtCsc9UXYxZytPG_4core9panicking11panic_const23panic_const_gen_fn_none
libstd-a4a285076b042e1f.so:_RNvNtNtCsc9UXYxZytPG_4core9panicking11panic_const23panic_const_rem_by_zero
libstd-a4a285076b042e1f.so:_RNvNtNtCsc9UXYxZytPG_4core9panicking11panic_const24panic_const_add_overflow
libstd-a4a285076b042e1f.so:_RNvNtNtCsc9UXYxZytPG_4core9panicking11panic_const24panic_const_div_overflow
libstd-a4a285076b042e1f.so:_RNvNtNtCsc9UXYxZytPG_4core9panicking11panic_const24panic_const_mul_overflow
libstd-a4a285076b042e1f.so:_RNvNtNtCsc9UXYxZytPG_4core9panicking11panic_const24panic_const_neg_overflow
libstd-a4a285076b042e1f.so:_RNvNtNtCsc9UXYxZytPG_4core9panicking11panic_const24panic_const_rem_overflow
libstd-a4a285076b042e1f.so:_RNvNtNtCsc9UXYxZytPG_4core9panicking11panic_const24panic_const_shl_overflow
libstd-a4a285076b042e1f.so:_RNvNtNtCsc9UXYxZytPG_4core9panicking11panic_const24panic_const_shr_overflow
libstd-a4a285076b042e1f.so:_RNvNtNtCsc9UXYxZytPG_4core9panicking11panic_const24panic_const_sub_overflow
libstd-a4a285076b042e1f.so:_RNvNtNtCsc9UXYxZytPG_4core9panicking11panic_const28panic_const_async_fn_resumed
libstd-a4a285076b042e1f.so:_RNvNtNtCsc9UXYxZytPG_4core9panicking11panic_const28panic_const_gen_fn_none_drop
libstd-a4a285076b042e1f.so:_RNvNtNtCsc9UXYxZytPG_4core9panicking11panic_const29panic_const_coroutine_resumed
libstd-a4a285076b042e1f.so:_RNvNtNtCsc9UXYxZytPG_4core9panicking11panic_const29panic_const_gen_fn_none_panic
libstd-a4a285076b042e1f.so:_RNvNtNtCsc9UXYxZytPG_4core9panicking11panic_const32panic_const_async_gen_fn_resumed
libstd-a4a285076b042e1f.so:_RNvNtNtCsc9UXYxZytPG_4core9panicking11panic_const33panic_const_async_fn_resumed_drop
libstd-a4a285076b042e1f.so:_RNvNtNtCsc9UXYxZytPG_4core9panicking11panic_const34panic_const_async_fn_resumed_panic
libstd-a4a285076b042e1f.so:_RNvNtNtCsc9UXYxZytPG_4core9panicking11panic_const34panic_const_coroutine_resumed_drop
libstd-a4a285076b042e1f.so:_RNvNtNtCsc9UXYxZytPG_4core9panicking11panic_const35panic_const_coroutine_resumed_panic
libstd-a4a285076b042e1f.so:_RNvNtNtCsc9UXYxZytPG_4core9panicking11panic_const37panic_const_async_gen_fn_resumed_drop
libstd-a4a285076b042e1f.so:_RNvNtNtCsc9UXYxZytPG_4core9panicking11panic_const38panic_const_async_gen_fn_resumed_panic
libstd-a4a285076b042e1f.so:_RNvNtNtCsdaeiFxXW69W_10std_detect6detect5cache21detect_and_initialize
libstd-a4a285076b042e1f.so:_RNvNtNtCsdaeiFxXW69W_10std_detect6detect5cache5CACHE
libstd-a4a285076b042e1f.so:_RNvNtNtCseLWYKOMA8NS_6memchr6memmem8searcher21searcher_kind_two_way
libstd-a4a285076b042e1f.so:_RNvNtNtCseLWYKOMA8NS_6memchr6memmem8searcher22searcher_kind_one_byte
libstd-a4a285076b042e1f.so:_RNvNtNtCseLWYKOMA8NS_6memchr6memmem8searcher23prefilter_kind_fallback
libstd-a4a285076b042e1f.so:_RNvNtNtCseLWYKOMA8NS_6memchr6memmem8searcher36searcher_kind_two_way_with_prefilter
libstd-a4a285076b042e1f.so:_RNvNtNtCsloXJXCvFm1O_11miniz_oxide7inflate4core10decompress
libstd-a4a285076b042e1f.so:_RNvNtNtNtCsc6rNrONHOw_3std12backtrace_rs9symbolize5gimli7resolve
libstd-a4a285076b042e1f.so:_RNvNtNtNtCsc6rNrONHOw_3std2os4unix7process9parent_id
libstd-a4a285076b042e1f.so:_RNvNtNtNtCsc6rNrONHOw_3std3sys2fs4unix5chown
libstd-a4a285076b042e1f.so:_RNvNtNtNtCsc6rNrONHOw_3std3sys2fs4unix6chroot
libstd-a4a285076b042e1f.so:_RNvNtNtNtCsc6rNrONHOw_3std3sys2fs4unix6fchown
libstd-a4a285076b042e1f.so:_RNvNtNtNtCsc6rNrONHOw_3std3sys2fs4unix6lchown
libstd-a4a285076b042e1f.so:_RNvNtNtNtCsc6rNrONHOw_3std3sys2fs4unix6mkfifo
libstd-a4a285076b042e1f.so:_RNvNtNtNtCsc6rNrONHOw_3std3sys3env4unix6setenv
libstd-a4a285076b042e1f.so:_RNvNtNtNtCsc6rNrONHOw_3std3sys3env4unix8unsetenv
libstd-a4a285076b042e1f.so:_RNvNtNtNtCsc6rNrONHOw_3std3sys4path4unix8absolute
libstd-a4a285076b042e1f.so:_RNvNtNtNtCsc6rNrONHOw_3std3sys6random5linux19hashmap_random_keys
libstd-a4a285076b042e1f.so:_RNvNtNtNtCsc6rNrONHOw_3std6thread7current2id2ID
libstd-a4a285076b042e1f.so:_RNvNtNtNtCsc9UXYxZytPG_4core3num7dec2flt11decimal_seq17parse_decimal_seq
libstd-a4a285076b042e1f.so:_RNvNtNtNtCsc9UXYxZytPG_4core3num7dec2flt5parse12parse_number
libstd-a4a285076b042e1f.so:_RNvNtNtNtCsc9UXYxZytPG_4core3num7dec2flt6lemire22compute_product_approx
libstd-a4a285076b042e1f.so:_RNvNtNtNtCsc9UXYxZytPG_4core7unicode12unicode_data10alphabetic11lookup_slow
libstd-a4a285076b042e1f.so:_RNvNtNtNtCsc9UXYxZytPG_4core7unicode12unicode_data11conversions8to_lower
libstd-a4a285076b042e1f.so:_RNvNtNtNtCsc9UXYxZytPG_4core7unicode12unicode_data11conversions8to_upper
libstd-a4a285076b042e1f.so:_RNvNtNtNtCsc9UXYxZytPG_4core7unicode12unicode_data11white_space14WHITESPACE_MAP
libstd-a4a285076b042e1f.so:_RNvNtNtNtCsc9UXYxZytPG_4core7unicode12unicode_data14case_ignorable11lookup_slow
libstd-a4a285076b042e1f.so:_RNvNtNtNtCsc9UXYxZytPG_4core7unicode12unicode_data15grapheme_extend11lookup_slow
libstd-a4a285076b042e1f.so:_RNvNtNtNtCsc9UXYxZytPG_4core7unicode12unicode_data1n11lookup_slow
libstd-a4a285076b042e1f.so:_RNvNtNtNtCsc9UXYxZytPG_4core7unicode12unicode_data5cased11lookup_slow
libstd-a4a285076b042e1f.so:_RNvNtNtNtCsc9UXYxZytPG_4core7unicode12unicode_data9lowercase14BITSET_MAPPING
libstd-a4a285076b042e1f.so:_RNvNtNtNtCsc9UXYxZytPG_4core7unicode12unicode_data9lowercase16BITSET_CANONICAL
libstd-a4a285076b042e1f.so:_RNvNtNtNtCsc9UXYxZytPG_4core7unicode12unicode_data9lowercase17BITSET_CHUNKS_MAP
libstd-a4a285076b042e1f.so:_RNvNtNtNtCsc9UXYxZytPG_4core7unicode12unicode_data9lowercase19BITSET_INDEX_CHUNKS
libstd-a4a285076b042e1f.so:_RNvNtNtNtCsc9UXYxZytPG_4core7unicode12unicode_data9lowercase6lookup
libstd-a4a285076b042e1f.so:_RNvNtNtNtCsc9UXYxZytPG_4core7unicode12unicode_data9uppercase14BITSET_MAPPING
libstd-a4a285076b042e1f.so:_RNvNtNtNtCsc9UXYxZytPG_4core7unicode12unicode_data9uppercase16BITSET_CANONICAL
libstd-a4a285076b042e1f.so:_RNvNtNtNtCsc9UXYxZytPG_4core7unicode12unicode_data9uppercase17BITSET_CHUNKS_MAP
libstd-a4a285076b042e1f.so:_RNvNtNtNtCsc9UXYxZytPG_4core7unicode12unicode_data9uppercase19BITSET_INDEX_CHUNKS
libstd-a4a285076b042e1f.so:_RNvNtNtNtCsc9UXYxZytPG_4core7unicode12unicode_data9uppercase6lookup
libstd-a4a285076b042e1f.so:_RNvNtNtNtCseLWYKOMA8NS_6memchr4arch3all9rabinkarp12is_equal_raw
libstd-a4a285076b042e1f.so:_RNvNtNtNtNtCsc6rNrONHOw_3std2os4unix3net4addr11sockaddr_un
libstd-a4a285076b042e1f.so:_RNvNtNtNtNtCsc6rNrONHOw_3std2os4unix3net9ancillary31send_vectored_with_ancillary_to
libstd-a4a285076b042e1f.so:_RNvNtNtNtNtCsc6rNrONHOw_3std3sys12thread_local11destructors10linux_like8register
libstd-a4a285076b042e1f.so:_RNvNtNtNtNtCsc6rNrONHOw_3std3sys2io11kernel_copy5linux15sendfile_splice
libstd-a4a285076b042e1f.so:_RNvNtNtNtNtCsc6rNrONHOw_3std3sys2io11kernel_copy5linux18copy_regular_files
libstd-a4a285076b042e1f.so:_RNvNtNtNtNtCsc6rNrONHOw_3std3sys3pal4unix2os5chdir
libstd-a4a285076b042e1f.so:_RNvNtNtNtNtCsc6rNrONHOw_3std3sys3pal4unix4pipe9anon_pipe
libstd-a4a285076b042e1f.so:_RNvNtNtNtNtCsc6rNrONHOw_3std3sys3pal4unix5futex10futex_wake
libstd-a4a285076b042e1f.so:_RNvNtNtNtNtCsc6rNrONHOw_3std3sys3pal4unix5futex14futex_wake_all
libstd-a4a285076b042e1f.so:_RNvNtNtNtNtCsc6rNrONHOw_3std3sys4args4unix3imp15ARGV_INIT_ARRAY
libstd-a4a285076b042e1f.so:_RNvNtNtNtNtCsc9UXYxZytPG_4core3num7flt2dec8strategy5grisu12CACHED_POW10
libstd-a4a285076b042e1f.so:_RNvNtNtNtNtCsc9UXYxZytPG_4core3num7flt2dec8strategy5grisu12cached_power
libstd-a4a285076b042e1f.so:_RNvNtNtNtNtCsc9UXYxZytPG_4core3num7flt2dec8strategy5grisu12format_exact
libstd-a4a285076b042e1f.so:_RNvNtNtNtNtCsc9UXYxZytPG_4core3num7flt2dec8strategy5grisu15format_shortest
libstd-a4a285076b042e1f.so:_RNvNtNtNtNtCsc9UXYxZytPG_4core3num7flt2dec8strategy5grisu16format_exact_opt
libstd-a4a285076b042e1f.so:_RNvNtNtNtNtCsc9UXYxZytPG_4core3num7flt2dec8strategy5grisu19format_shortest_opt
libstd-a4a285076b042e1f.so:_RNvNtNtNtNtCsc9UXYxZytPG_4core3num7flt2dec8strategy6dragon12format_exact
libstd-a4a285076b042e1f.so:_RNvNtNtNtNtCsc9UXYxZytPG_4core3num7flt2dec8strategy6dragon15format_shortest
libstd-a4a285076b042e1f.so:_RNvNtNtNtNtCsc9UXYxZytPG_4core3num7flt2dec8strategy6dragon9mul_pow10
libstd-a4a285076b042e1f.so:_RNvNtNtNtNtCsc9UXYxZytPG_4core5slice4sort6shared9smallsort22panic_on_ord_violation
libstd-a4a285076b042e1f.so:_RNvNtNtNtNtCsc9UXYxZytPG_4core5slice4sort6stable5drift11sqrt_approx
libstd-a4a285076b042e1f.so:_RNvNvMNtCsc9UXYxZytPG_4core5sliceSp16align_to_offsets3gcd
libstd-a4a285076b042e1f.so:_RNvNvMNtNtNtCs3jZe4LgnEve_6object4read4coff6importNtB4_10ImportFile5parse12strip_prefix
libstd-a4a285076b042e1f.so:_RNvNvMs3_NtNtNtNtCsc6rNrONHOw_3std3sys3net10connection6socketNtB7_9TcpStream7connect5inner
libstd-a4a285076b042e1f.so:_RNvNvMs6_NtNtCsc9UXYxZytPG_4core4task4wakeNtB7_5Waker11from_fn_ptr6VTABLE
libstd-a4a285076b042e1f.so:_RNvNvMs7_NtNtNtCsc6rNrONHOw_3std3sys6os_str5bytesNtB7_5Slice21check_public_boundary9slow_path
libstd-a4a285076b042e1f.so:_RNvNvMs7_NtNtNtNtCsc6rNrONHOw_3std3sys3net10connection6socketNtB7_11TcpListener4bind5inner
libstd-a4a285076b042e1f.so:_RNvNvMs_NtCskIlJ6Bf8u3b_5alloc3vecINtB6_3VecppE10insert_mut13assert_failed
libstd-a4a285076b042e1f.so:_RNvNvMs_NtCskIlJ6Bf8u3b_5alloc3vecINtB6_3VecppE11swap_remove13assert_failed
libstd-a4a285076b042e1f.so:_RNvNvMs_NtCskIlJ6Bf8u3b_5alloc3vecINtB6_3VecppE6remove13assert_failed
libstd-a4a285076b042e1f.so:_RNvNvMs_NtCskIlJ6Bf8u3b_5alloc3vecINtB6_3VecppE9split_off13assert_failed
libstd-a4a285076b042e1f.so:_RNvNvMsa_NtNtNtNtCsc6rNrONHOw_3std3sys3net10connection6socketNtB7_9UdpSocket4bind5inner
libstd-a4a285076b042e1f.so:_RNvNvMsa_NtNtNtNtCsc6rNrONHOw_3std3sys3net10connection6socketNtB7_9UdpSocket7connect5inner
libstd-a4a285076b042e1f.so:_RNvNvMsb_NtNtCsc9UXYxZytPG_4core4task4wakeNtB7_10LocalWaker11from_fn_ptr6VTABLE
libstd-a4a285076b042e1f.so:_RNvNvNtCsc6rNrONHOw_3std2fs14read_to_string5inner
libstd-a4a285076b042e1f.so:_RNvNvNtCsc6rNrONHOw_3std2fs4read5inner
libstd-a4a285076b042e1f.so:_RNvNvNtCsc6rNrONHOw_3std2fs5write5inner
libstd-a4a285076b042e1f.so:_RNvNvNtCsc6rNrONHOw_3std9panicking12catch_unwind7cleanup
libstd-a4a285076b042e1f.so:_RNvNvNtCsc9UXYxZytPG_4core5slice20copy_from_slice_impl17len_mismatch_fail
libstd-a4a285076b042e1f.so:_RNvNvNtCskIlJ6Bf8u3b_5alloc3fmt6format12format_inner
libstd-a4a285076b042e1f.so:_RNvNvNtCskIlJ6Bf8u3b_5alloc5alloc18handle_alloc_error8ct_error
libstd-a4a285076b042e1f.so:_RNvNvNtNtCsc6rNrONHOw_3std2io5stdio6stderr8INSTANCE
libstd-a4a285076b042e1f.so:_RNvNvNtNtNtNtCsc6rNrONHOw_3std3sys3pal4unix2os11split_paths12into_pathbuf
libstd-a4a285076b042e1f.so:_RNvNvNtNtNtNtCsc6rNrONHOw_3std3sys4args4unix3imp15ARGV_INIT_ARRAY12init_wrapper
libstd-a4a285076b042e1f.so:_RNvNvNvMNtCsc9UXYxZytPG_4core3f32f5clamp8do_panic7runtime
libstd-a4a285076b042e1f.so:_RNvNvNvMNtCsc9UXYxZytPG_4core3f64d5clamp8do_panic7runtime
libstd-a4a285076b042e1f.so:_RNvNvNvNtCsc9UXYxZytPG_4core3mem11conjure_zst8do_panic7runtime
libstd-a4a285076b042e1f.so:_RNvNvNvNtCsc9UXYxZytPG_4core3num22from_ascii_radix_panic8do_panic7runtime
libstd-a4a285076b042e1f.so:_RNvNvNvNtCsc9UXYxZytPG_4core4cell22panic_already_borrowed8do_panic7runtime
libstd-a4a285076b042e1f.so:_RNvNvNvNtCsc9UXYxZytPG_4core4cell30panic_already_mutably_borrowed8do_panic7runtime
libstd-a4a285076b042e1f.so:_RNvNvNvNtNtCsc9UXYxZytPG_4core4char7methods15encode_utf8_raw8do_panic7runtime
libstd-a4a285076b042e1f.so:_RNvNvNvNtNtCsc9UXYxZytPG_4core4char7methods16encode_utf16_raw8do_panic7runtime
libstd-a4a285076b042e1f.so:_RNvNvNvNtNtCsc9UXYxZytPG_4core5slice5index16slice_index_fail8do_panic7runtime
libstd-a4a285076b042e1f.so:_RNvNvNvNtNtCsc9UXYxZytPG_4core5slice5index16slice_index_fails0_8do_panic7runtime
libstd-a4a285076b042e1f.so:_RNvNvNvNtNtCsc9UXYxZytPG_4core5slice5index16slice_index_fails1_8do_panic7runtime
libstd-a4a285076b042e1f.so:_RNvNvNvNtNtCsc9UXYxZytPG_4core5slice5index16slice_index_fails_8do_panic7runtime
libstd-a4a285076b042e1f.so:_RNvNvNvNvNtCsc9UXYxZytPG_4core5slice20copy_from_slice_impl17len_mismatch_fail8do_panic7runtime
libstd-a4a285076b042e1f.so:_RNvXNtCs46PeV0vGECM_14rustc_demangle2v0NtB2_8DemangleNtNtCsc9UXYxZytPG_4core3fmt7Display3fmt
libstd-a4a285076b042e1f.so:_RNvXNtCs46PeV0vGECM_14rustc_demangle6legacyNtB2_8DemangleNtNtCsc9UXYxZytPG_4core3fmt7Display3fmt
libstd-a4a285076b042e1f.so:_RNvXNtCsc6rNrONHOw_3std2ioNtB2_5GuardNtNtNtCsc9UXYxZytPG_4core3ops4drop4Drop4drop
libstd-a4a285076b042e1f.so:_RNvXNtCsc6rNrONHOw_3std3envNtB2_4VarsNtNtNtNtCsc9UXYxZytPG_4core4iter6traits8iterator8Iterator4next
libstd-a4a285076b042e1f.so:_RNvXNtCsc6rNrONHOw_3std3envNtB2_4VarsNtNtNtNtCsc9UXYxZytPG_4core4iter6traits8iterator8Iterator9size_hint
libstd-a4a285076b042e1f.so:_RNvXNtCsc6rNrONHOw_3std6randomNtB2_19DefaultRandomSourceNtNtCsc9UXYxZytPG_4core6random12RandomSource10fill_bytes
libstd-a4a285076b042e1f.so:_RNvXNtCsc6rNrONHOw_3std9backtraceNtB2_9BacktraceNtNtCsc9UXYxZytPG_4core3fmt5Debug3fmt
libstd-a4a285076b042e1f.so:_RNvXNtCsc9UXYxZytPG_4core3ffiNtB2_6c_voidNtNtB4_3fmt5Debug3fmt
libstd-a4a285076b042e1f.so:_RNvXNtCsc9UXYxZytPG_4core3fmtQNtB2_9FormatterNtB2_5Write9write_strCs46PeV0vGECM_14rustc_demangle
libstd-a4a285076b042e1f.so:_RNvXNtCsc9UXYxZytPG_4core3patcNtB2_12RangePattern7sub_one
libstd-a4a285076b042e1f.so:_RNvXNtCskIlJ6Bf8u3b_5alloc4wtf8NtB2_7Wtf8BufNtNtNtCsc9UXYxZytPG_4core3ops5deref5Deref5deref
libstd-a4a285076b042e1f.so:_RNvXNtNtCs3jZe4LgnEve_6object4read4utilNtB2_5BytesNtNtCsc9UXYxZytPG_4core3fmt5Debug3fmt
libstd-a4a285076b042e1f.so:_RNvXNtNtCs3jZe4LgnEve_6object4read8read_refRShNtB2_7ReadRef19read_bytes_at_until
libstd-a4a285076b042e1f.so:_RNvXNtNtCsc6rNrONHOw_3std2io5errorNtB2_5ErrorNtNtCsc9UXYxZytPG_4core3fmt5Debug3fmt
libstd-a4a285076b042e1f.so:_RNvXNtNtCsc6rNrONHOw_3std2io5stdioNtB2_8StdinRawNtB4_4Read10read_exact
libstd-a4a285076b042e1f.so:_RNvXNtNtCsc6rNrONHOw_3std2io5stdioNtB2_8StdinRawNtB4_4Read11read_to_end
libstd-a4a285076b042e1f.so:_RNvXNtNtCsc6rNrONHOw_3std2io5stdioNtB2_8StdinRawNtB4_4Read13read_vectored
libstd-a4a285076b042e1f.so:_RNvXNtNtCsc6rNrONHOw_3std2io5stdioNtB2_8StdinRawNtB4_4Read14read_buf_exact
libstd-a4a285076b042e1f.so:_RNvXNtNtCsc6rNrONHOw_3std2io5stdioNtB2_8StdinRawNtB4_4Read14read_to_string
libstd-a4a285076b042e1f.so:_RNvXNtNtCsc6rNrONHOw_3std2io5stdioNtB2_8StdinRawNtB4_4Read4read
libstd-a4a285076b042e1f.so:_RNvXNtNtCsc6rNrONHOw_3std2io5stdioNtB2_8StdinRawNtB4_4Read8read_buf
libstd-a4a285076b042e1f.so:_RNvXNtNtCsc6rNrONHOw_3std4sync9nonpoisonNtB2_10WouldBlockNtNtCsc9UXYxZytPG_4core3fmt5Debug3fmt
libstd-a4a285076b042e1f.so:_RNvXNtNtCsc6rNrONHOw_3std6thread9functionsNtB2_10PanicGuardNtNtNtCsc9UXYxZytPG_4core3ops4drop4Drop4drop
libstd-a4a285076b042e1f.so:_RNvXNtNtCsc6rNrONHOw_3std6thread9spawnhookNtB2_10SpawnHooksNtNtNtCsc9UXYxZytPG_4core3ops4drop4Drop4drop
libstd-a4a285076b042e1f.so:_RNvXNtNtCsc9UXYxZytPG_4core2io12borrowed_bufNtB2_11BorrowedBufNtNtB6_3fmt5Debug3fmt
libstd-a4a285076b042e1f.so:_RNvXNtNtCsc9UXYxZytPG_4core3ffi5c_strNtB2_21FromBytesWithNulErrorNtNtB6_3fmt7Display3fmt
libstd-a4a285076b042e1f.so:_RNvXNtNtCsc9UXYxZytPG_4core3fmt3numoNtB4_7Display3fmt
libstd-a4a285076b042e1f.so:_RNvXNtNtCsc9UXYxZytPG_4core3num5errorNtB2_15TryFromIntErrorNtNtB6_3fmt7Display3fmt
libstd-a4a285076b042e1f.so:_RNvXNtNtCsc9UXYxZytPG_4core3num6bignumhNtB2_7FullOps12full_div_rem
libstd-a4a285076b042e1f.so:_RNvXNtNtCsc9UXYxZytPG_4core3ops5rangeNtB2_9RangeFullNtNtB6_3fmt5Debug3fmt
libstd-a4a285076b042e1f.so:_RNvXNtNtNtCsc6rNrONHOw_3std2os4unix2fsNtNtB8_2fs4FileNtB2_7FileExt11read_buf_at
libstd-a4a285076b042e1f.so:_RNvXNtNtNtCsc6rNrONHOw_3std2os4unix2fsNtNtB8_2fs4FileNtB2_7FileExt16read_vectored_at
libstd-a4a285076b042e1f.so:_RNvXNtNtNtCsc6rNrONHOw_3std2os4unix2fsNtNtB8_2fs4FileNtB2_7FileExt17write_vectored_at
libstd-a4a285076b042e1f.so:_RNvXNtNtNtCsc6rNrONHOw_3std2os4unix2fsNtNtB8_2fs4FileNtB2_7FileExt7read_at
libstd-a4a285076b042e1f.so:_RNvXNtNtNtCsc6rNrONHOw_3std2os4unix2fsNtNtB8_2fs4FileNtB2_7FileExt8write_at
libstd-a4a285076b042e1f.so:_RNvXNtNtNtCsc6rNrONHOw_3std2os4unix7processNtNtB8_7process7CommandNtB2_10CommandExt4exec
libstd-a4a285076b042e1f.so:_RNvXNtNtNtCsc6rNrONHOw_3std2os4unix7processNtNtB8_7process7CommandNtB2_10CommandExt6groups
libstd-a4a285076b042e1f.so:_RNvXNtNtNtCsc6rNrONHOw_3std3sys7process3envNtB2_10CommandEnvNtNtCsc9UXYxZytPG_4core3fmt5Debug3fmt
libstd-a4a285076b042e1f.so:_RNvXNtNtNtCsc6rNrONHOw_3std6thread6thread18thread_name_stringNtB2_16ThreadNameStringINtNtCsc9UXYxZytPG_4core7convert4FromNtNtCskIlJ6Bf8u3b_5alloc6string6StringE4from
libstd-a4a285076b042e1f.so:_RNvXNtNtNtCsc9UXYxZytPG_4core3fmt3num3imphNtB6_7Display3fmt
libstd-a4a285076b042e1f.so:_RNvXNtNtNtNtCsc6rNrONHOw_3std2os3net9linux_ext6socketNtNtNtNtB8_4unix3net8datagram12UnixDatagramNtB2_13UnixSocketExt12set_passcred
libstd-a4a285076b042e1f.so:_RNvXNtNtNtNtCsc6rNrONHOw_3std2os3net9linux_ext6socketNtNtNtNtB8_4unix3net8datagram12UnixDatagramNtB2_13UnixSocketExt8passcred
libstd-a4a285076b042e1f.so:_RNvXNtNtNtNtCsc6rNrONHOw_3std2os4unix3net8listenerNtB2_12UnixListenerNtNtCsc9UXYxZytPG_4core3fmt5Debug3fmt
libstd-a4a285076b042e1f.so:_RNvXNtNtNtNtCsc6rNrONHOw_3std3sys2fs4unix3cfmNtB2_18CachedFileMetadataNtNtBa_2io4Read11read_to_end
libstd-a4a285076b042e1f.so:_RNvXNtNtNtNtCsc6rNrONHOw_3std3sys2fs4unix3cfmNtB2_18CachedFileMetadataNtNtBa_2io4Read13read_vectored
libstd-a4a285076b042e1f.so:_RNvXNtNtNtNtCsc6rNrONHOw_3std3sys2fs4unix3cfmNtB2_18CachedFileMetadataNtNtBa_2io4Read14read_to_string
libstd-a4a285076b042e1f.so:_RNvXNtNtNtNtCsc6rNrONHOw_3std3sys2fs4unix3cfmNtB2_18CachedFileMetadataNtNtBa_2io4Read4read
libstd-a4a285076b042e1f.so:_RNvXNtNtNtNtCsc6rNrONHOw_3std3sys2fs4unix3cfmNtB2_18CachedFileMetadataNtNtBa_2io4Read8read_buf
libstd-a4a285076b042e1f.so:_RNvXNtNtNtNtCsc6rNrONHOw_3std3sys3pal4unix2osNtB2_14JoinPathsErrorNtNtCsc9UXYxZytPG_4core3fmt7Display3fmt
libstd-a4a285076b042e1f.so:_RNvXNtNtNtNtCsgD73w63XKKY_4libc3new10linux_uapi5linux3canNtB2_35___c_anonymous_sockaddr_can_can_addrNtNtCsc9UXYxZytPG_4core3fmt5Debug3fmt
libstd-a4a285076b042e1f.so:_RNvXNtNtNtNtNtCsc6rNrONHOw_3std3sys3pal4unix14stack_overflow11thread_infoNtB2_12UnlockOnDropNtNtNtCsc9UXYxZytPG_4core3ops4drop4Drop4drop
libstd-a4a285076b042e1f.so:_RNvXNtNtNtNtNtCsc6rNrONHOw_3std3sys7process4unix4unix15linux_child_extNtNtBc_7process5ChildNtNtNtNtBc_2os5linux7process8ChildExt10into_pidfd
libstd-a4a285076b042e1f.so:_RNvXNvMNtCskIlJ6Bf8u3b_5alloc6stringNtB5_6String6retainNtB2_12SetLenOnDropNtNtNtCsc9UXYxZytPG_4core3ops4drop4Drop4drop
libstd-a4a285076b042e1f.so:_RNvXNvMNtNtCsc6rNrONHOw_3std3sys9backtraceNtB5_13BacktraceLock5printNtB2_16DisplayBacktraceNtNtCsc9UXYxZytPG_4core3fmt7Display3fmt
libstd-a4a285076b042e1f.so:_RNvXNvMNtNtNtNtCsc6rNrONHOw_3std3sys7process4unix4unixNtNtB7_6common7Command11posix_spawnNtB2_21PosixSpawnFileActionsNtNtNtCsc9UXYxZytPG_4core3ops4drop4Drop4drop
libstd-a4a285076b042e1f.so:_RNvXNvNtCsc6rNrONHOw_3std9panicking13resume_unwindNtB2_9RewrapBoxNtNtCsc9UXYxZytPG_4core5panic12PanicPayload8take_box
libstd-a4a285076b042e1f.so:_RNvXNvNtCsc9UXYxZytPG_4core4hint20select_unpredictableINtB2_11DropOnPanicjENtNtNtB6_3ops4drop4Drop4dropCs9iPEsoqUGwF_9addr2line
libstd-a4a285076b042e1f.so:_RNvXNvNtCsc9UXYxZytPG_4core9panicking21assert_matches_failedNtB2_7PatternNtNtB6_3fmt5Debug3fmt
libstd-a4a285076b042e1f.so:_RNvXNvXs7_NtCsc6rNrONHOw_3std4pathNtB8_10ComponentsNtNtCsc9UXYxZytPG_4core3fmt5Debug3fmtNtB2_11DebugHelperBN_3fmt
libstd-a4a285076b042e1f.so:_RNvXNvXsb_NtCsc6rNrONHOw_3std4pathNtB8_4IterNtNtCsc9UXYxZytPG_4core3fmt5Debug3fmtNtB2_11DebugHelperBG_3fmt
libstd-a4a285076b042e1f.so:_RNvXNvXsd_NtCsc9UXYxZytPG_4core4wtf8NtB8_10EncodeWideNtNtBa_3fmt5Debug3fmtNtB2_8CodeUnitBP_3fmt
libstd-a4a285076b042e1f.so:_RNvXs0_Cs46PeV0vGECM_14rustc_demangleINtB5_21SizeLimitedFmtAdapterQNtNtCsc9UXYxZytPG_4core3fmt9FormatterENtB15_5Write9write_strB5_
libstd-a4a285076b042e1f.so:_RNvXs0_Csdn0omFJY1bK_6adler2NtB5_7Adler32NtNtCsc9UXYxZytPG_4core4hash6Hasher5write
libstd-a4a285076b042e1f.so:_RNvXs0_NtCs46PeV0vGECM_14rustc_demangle2v0NtB5_5IdentNtNtCsc9UXYxZytPG_4core3fmt7Display3fmt
libstd-a4a285076b042e1f.so:_RNvXs0_NtCs9iPEsoqUGwF_9addr2line4lineNtB5_21LineLocationRangeIterNtNtNtNtCsc9UXYxZytPG_4core4iter6traits8iterator8Iterator4next
libstd-a4a285076b042e1f.so:_RNvXs0_NtCsc6rNrONHOw_3std2fsNtB5_12TryLockErrorNtNtCsc9UXYxZytPG_4core3fmt7Display3fmt
libstd-a4a285076b042e1f.so:_RNvXs0_NtCsc6rNrONHOw_3std3envNtB5_6VarsOsNtNtNtNtCsc9UXYxZytPG_4core4iter6traits8iterator8Iterator4next
libstd-a4a285076b042e1f.so:_RNvXs0_NtCsc6rNrONHOw_3std3envNtB5_6VarsOsNtNtNtNtCsc9UXYxZytPG_4core4iter6traits8iterator8Iterator9size_hint
libstd-a4a285076b042e1f.so:_RNvXs0_NtCsc6rNrONHOw_3std4timeNtB5_7InstantINtNtNtCsc9UXYxZytPG_4core3ops5arith9AddAssignNtNtBN_4time8DurationE10add_assign
libstd-a4a285076b042e1f.so:_RNvXs0_NtCsc6rNrONHOw_3std9backtraceNtB5_15BacktraceSymbolNtNtCsc9UXYxZytPG_4core3fmt5Debug3fmt
libstd-a4a285076b042e1f.so:_RNvXs0_NtCsc9UXYxZytPG_4core3anyDNtB5_3AnyNtNtB7_6marker4SendEL_NtNtB7_3fmt5Debug3fmt
libstd-a4a285076b042e1f.so:_RNvXs0_NtCskIlJ6Bf8u3b_5alloc6stringNtB5_13FromUtf8ErrorNtNtCsc9UXYxZytPG_4core3fmt7Display3fmt
libstd-a4a285076b042e1f.so:_RNvXs0_NtNtCs3jZe4LgnEve_6object4read4utilNtB5_9DebugByteNtNtCsc9UXYxZytPG_4core3fmt5Debug3fmt
libstd-a4a285076b042e1f.so:_RNvXs0_NtNtCsc6rNrONHOw_3std12backtrace_rs9symbolizeNtB5_6SymbolNtNtCsc9UXYxZytPG_4core3fmt5Debug3fmt
libstd-a4a285076b042e1f.so:_RNvXs0_NtNtCsc6rNrONHOw_3std2io5errorNtB5_5ErrorINtNtCsc9UXYxZytPG_4core7convert4FromNtNtNtCskIlJ6Bf8u3b_5alloc3ffi5c_str8NulErrorE4from
libstd-a4a285076b042e1f.so:_RNvXs0_NtNtCsc6rNrONHOw_3std2io5stdioNtB5_9StderrRawNtB7_5Write14write_vectored
libstd-a4a285076b042e1f.so:_RNvXs0_NtNtCsc6rNrONHOw_3std2io5stdioNtB5_9StderrRawNtB7_5Write18write_all_vectored
libstd-a4a285076b042e1f.so:_RNvXs0_NtNtCsc6rNrONHOw_3std2io5stdioNtB5_9StderrRawNtB7_5Write5flush
libstd-a4a285076b042e1f.so:_RNvXs0_NtNtCsc6rNrONHOw_3std2io5stdioNtB5_9StderrRawNtB7_5Write5write
libstd-a4a285076b042e1f.so:_RNvXs0_NtNtCsc6rNrONHOw_3std2io5stdioNtB5_9StderrRawNtB7_5Write9write_all
libstd-a4a285076b042e1f.so:_RNvXs0_NtNtCsc6rNrONHOw_3std2io5stdioNtB5_9StderrRawNtB7_5Write9write_fmt
libstd-a4a285076b042e1f.so:_RNvXs0_NtNtCsc6rNrONHOw_3std3net3tcpNtB5_9TcpStreamNtNtB9_2io5Write14write_vectored
libstd-a4a285076b042e1f.so:_RNvXs0_NtNtCsc6rNrONHOw_3std3net3tcpNtB5_9TcpStreamNtNtB9_2io5Write5write
libstd-a4a285076b042e1f.so:_RNvXs0_NtNtCsc6rNrONHOw_3std6thread5localNtB5_11AccessErrorNtNtCsc9UXYxZytPG_4core3fmt7Display3fmt
libstd-a4a285076b042e1f.so:_RNvXs0_NtNtCsc6rNrONHOw_3std6thread6threadNtB5_6ThreadNtNtCsc9UXYxZytPG_4core3fmt5Debug3fmt
libstd-a4a285076b042e1f.so:_RNvXs0_NtNtCsc9UXYxZytPG_4core3ffi5c_strNtB5_22FromBytesUntilNulErrorNtNtB9_3fmt7Display3fmt
libstd-a4a285076b042e1f.so:_RNvXs0_NtNtCsc9UXYxZytPG_4core3fmt8buildersNtB5_10PadAdapterNtB7_5Write10write_char
libstd-a4a285076b042e1f.so:_RNvXs0_NtNtCsc9UXYxZytPG_4core3fmt8buildersNtB5_10PadAdapterNtB7_5Write9write_str
libstd-a4a285076b042e1f.so:_RNvXs0_NtNtCsc9UXYxZytPG_4core3net6parserNtNtB7_7ip_addr6IpAddrNtNtNtB9_3str6traits7FromStr8from_str
libstd-a4a285076b042e1f.so:_RNvXs0_NtNtCsc9UXYxZytPG_4core3num6bignummNtB5_7FullOps12full_div_rem
libstd-a4a285076b042e1f.so:_RNvXs0_NtNtCsc9UXYxZytPG_4core3num7dec2fltC3f16NtNtNtB9_3str6traits7FromStr8from_str
libstd-a4a285076b042e1f.so:_RNvXs0_NtNtCsc9UXYxZytPG_4core3str5lossyNtB5_5DebugNtNtB9_3fmt5Debug3fmt
libstd-a4a285076b042e1f.so:_RNvXs0_NtNtCsc9UXYxZytPG_4core5alloc6layoutNtB5_11LayoutErrorNtNtB9_3fmt7Display3fmt
libstd-a4a285076b042e1f.so:_RNvXs0_NtNtCsc9UXYxZytPG_4core5ascii10ascii_charNtB5_9AsciiCharNtNtB9_3fmt7Display3fmt
libstd-a4a285076b042e1f.so:_RNvXs0_NtNtCsc9UXYxZytPG_4core5slice5asciiNtB5_11EscapeAsciiNtNtNtNtB9_4iter6traits12double_ended19DoubleEndedIterator9next_back
libstd-a4a285076b042e1f.so:_RNvXs0_NtNtNtCs3jZe4LgnEve_6object4read2pe6exportNtB5_12ExportTargetNtNtCsc9UXYxZytPG_4core3fmt5Debug3fmt
libstd-a4a285076b042e1f.so:_RNvXs0_NtNtNtCs3jZe4LgnEve_6object4read2pe6importNtB5_24ImportDescriptorIteratorNtNtNtNtCsc9UXYxZytPG_4core4iter6traits8iterator8Iterator4next
libstd-a4a285076b042e1f.so:_RNvXs0_NtNtNtCsc6rNrONHOw_3std2os4unix7processNtNtBb_7process15ExitStatusErrorNtB5_13ExitStatusExt8from_raw
libstd-a4a285076b042e1f.so:_RNvXs0_NtNtNtCsc6rNrONHOw_3std3sys7process3envNtB5_11CommandEnvsNtNtNtNtCsc9UXYxZytPG_4core4iter6traits8iterator8Iterator4next
libstd-a4a285076b042e1f.so:_RNvXs0_NtNtNtCsc9UXYxZytPG_4core3num7dec2flt5floatdNtB5_8RawFloat15pow10_fast_path
libstd-a4a285076b042e1f.so:_RNvXs0_NtNtNtCseLWYKOMA8NS_6memchr4arch3all10packedpairNtB5_20DefaultFrequencyRankNtB5_22HeuristicFrequencyRank4rank
libstd-a4a285076b042e1f.so:_RNvXs0_NtNtNtNtCsc6rNrONHOw_3std12backtrace_rs9symbolize5gimli4mmapNtB5_4MmapNtNtNtCsc9UXYxZytPG_4core3ops4drop4Drop4drop
libstd-a4a285076b042e1f.so:_RNvXs0_NtNtNtNtCsc6rNrONHOw_3std2os4unix3net4addrNtB5_10SocketAddrNtNtNtNtBb_3net9linux_ext4addr13SocketAddrExt16as_abstract_name
libstd-a4a285076b042e1f.so:_RNvXs0_NtNtNtNtCsc6rNrONHOw_3std3sys7process4unix4unixNtB5_10ExitStatusNtNtCsc9UXYxZytPG_4core3fmt5Debug3fmt
libstd-a4a285076b042e1f.so:_RNvXs0_NtNtNtNtNtCsc6rNrONHOw_3std3sys7process4unix6common13cstring_arrayNtB5_12CStringArrayNtNtCsc9UXYxZytPG_4core3fmt5Debug3fmt
libstd-a4a285076b042e1f.so:_RNvXs0_NvMs_NtNtCskIlJ6Bf8u3b_5alloc3ffi5c_strNtBa_7CString3newReNtB5_11SpecNewImpl13spec_new_impl
libstd-a4a285076b042e1f.so:_RNvXs0_NvNtCsc6rNrONHOw_3std9panicking13panic_handlerNtB5_19FormatStringPayloadNtNtCsc9UXYxZytPG_4core3fmt7Display3fmt
libstd-a4a285076b042e1f.so:_RNvXs0_NvXsf_NtNtCskIlJ6Bf8u3b_5alloc5boxed7convertINtBd_3BoxDNtNtCsc9UXYxZytPG_4core5error5ErrorNtNtB12_6marker4SendNtB1z_4SyncEL_EINtNtB12_7convert4FromNtNtBf_6string6StringE4fromNtB5_11StringErrorNtNtB12_3fmt5Debug3fmt
libstd-a4a285076b042e1f.so:_RNvXs10_NtCs55LTYJXEnzY_5gimli9constantsNtB6_5DwTagNtNtCsc9UXYxZytPG_4core3fmt7Display3fmt
libstd-a4a285076b042e1f.so:_RNvXs10_NtNtCsc9UXYxZytPG_4core3fmt3numnNtB8_8LowerExp3fmt
libstd-a4a285076b042e1f.so:_RNvXs11_NtNtCsc9UXYxZytPG_4core3fmt3numoNtB8_8LowerExp3fmt
libstd-a4a285076b042e1f.so:_RNvXs11_NtNtCsc9UXYxZytPG_4core3num7nonzeroINtB6_7NonZerotENtNtNtBa_3str6traits7FromStr8from_str
libstd-a4a285076b042e1f.so:_RNvXs12_NtCskIlJ6Bf8u3b_5alloc6stringNtB6_5DrainNtNtCsc9UXYxZytPG_4core3fmt5Debug3fmt
libstd-a4a285076b042e1f.so:_RNvXs12_NtNtCsc9UXYxZytPG_4core3fmt3numnNtB8_8UpperExp3fmt
libstd-a4a285076b042e1f.so:_RNvXs13_NtNtCsc9UXYxZytPG_4core3fmt3numoNtB8_8UpperExp3fmt
libstd-a4a285076b042e1f.so:_RNvXs13_NtNtCsc9UXYxZytPG_4core3num11niche_typesNtB6_15NonZeroI16InnerNtNtBa_3fmt5Debug3fmt
libstd-a4a285076b042e1f.so:_RNvXs14_NtNtCsc9UXYxZytPG_4core3net7ip_addrNtB6_8Ipv4AddrNtNtNtBa_3ops3bit12BitAndAssign13bitand_assign
libstd-a4a285076b042e1f.so:_RNvXs14_NtNtCsc9UXYxZytPG_4core4sync6atomicNtB6_9AtomicI32NtNtBa_3fmt5Debug3fmt
libstd-a4a285076b042e1f.so:_RNvXs15_NtCskIlJ6Bf8u3b_5alloc6stringNtB6_5DrainNtNtNtCsc9UXYxZytPG_4core3ops4drop4Drop4drop
libstd-a4a285076b042e1f.so:_RNvXs15_NtNtCsc9UXYxZytPG_4core3net7ip_addrNtB6_8Ipv4AddrINtNtNtBa_3ops3bit12BitAndAssignRBF_E13bitand_assign
libstd-a4a285076b042e1f.so:_RNvXs17_NtCskIlJ6Bf8u3b_5alloc6stringNtB6_5DrainINtNtCsc9UXYxZytPG_4core7convert5AsRefeE6as_ref
libstd-a4a285076b042e1f.so:_RNvXs18_NtCskIlJ6Bf8u3b_5alloc6stringNtB6_5DrainINtNtCsc9UXYxZytPG_4core7convert5AsRefShE6as_ref
libstd-a4a285076b042e1f.so:_RNvXs18_NtNtCsc9UXYxZytPG_4core3num7nonzeroINtB6_7NonZeromENtNtNtBa_3str6traits7FromStr8from_str
libstd-a4a285076b042e1f.so:_RNvXs19_NtCsc6rNrONHOw_3std4pathNtB6_4PathNtNtCsc9UXYxZytPG_4core3fmt5Debug3fmt
libstd-a4a285076b042e1f.so:_RNvXs19_NtCskIlJ6Bf8u3b_5alloc6stringNtB6_5DrainNtNtNtNtCsc9UXYxZytPG_4core4iter6traits8iterator8Iterator9size_hint
libstd-a4a285076b042e1f.so:_RNvXs19_NtNtCsc9UXYxZytPG_4core4sync6atomicNtB6_9AtomicU32NtNtBa_3fmt5Debug3fmt
libstd-a4a285076b042e1f.so:_RNvXs1A_NtCs55LTYJXEnzY_5gimli9constantsNtB6_5DwAteNtNtCsc9UXYxZytPG_4core3fmt7Display3fmt
libstd-a4a285076b042e1f.so:_RNvXs1A_NtNtCsc9UXYxZytPG_4core3num7nonzeroINtB6_7NonZeroaENtNtNtBa_3str6traits7FromStr8from_str
libstd-a4a285076b042e1f.so:_RNvXs1E_NtNtCsc9UXYxZytPG_4core3num7nonzeroINtB6_7NonZerosENtNtNtBa_3str6traits7FromStr8from_str
libstd-a4a285076b042e1f.so:_RNvXs1I_NtNtCsc9UXYxZytPG_4core3num7nonzeroINtB6_7NonZerolENtNtNtBa_3str6traits7FromStr8from_str
libstd-a4a285076b042e1f.so:_RNvXs1K_NtNtNtCskIlJ6Bf8u3b_5alloc11collections5btree3mapNtB6_17UnorderedKeyErrorNtNtCsc9UXYxZytPG_4core3fmt7Display3fmt
libstd-a4a285076b042e1f.so:_RNvXs1M_NtCs55LTYJXEnzY_5gimli9constantsNtB6_5DwLleNtNtCsc9UXYxZytPG_4core3fmt7Display3fmt
libstd-a4a285076b042e1f.so:_RNvXs1M_NtNtCsc9UXYxZytPG_4core3num7nonzeroINtB6_7NonZeroxENtNtNtBa_3str6traits7FromStr8from_str
libstd-a4a285076b042e1f.so:_RNvXs1Q_NtNtCsc9UXYxZytPG_4core3num7nonzeroINtB6_7NonZeronENtNtNtBa_3str6traits7FromStr8from_str
libstd-a4a285076b042e1f.so:_RNvXs1U_NtNtCsc9UXYxZytPG_4core3num7nonzeroINtB6_7NonZeroiENtNtNtBa_3str6traits7FromStr8from_str
libstd-a4a285076b042e1f.so:_RNvXs1Y_NtCs55LTYJXEnzY_5gimli9constantsNtB6_4DwDsNtNtCsc9UXYxZytPG_4core3fmt7Display3fmt
libstd-a4a285076b042e1f.so:_RNvXs1_Cs46PeV0vGECM_14rustc_demangleNtB5_8DemangleNtNtCsc9UXYxZytPG_4core3fmt7Display3fmt
libstd-a4a285076b042e1f.so:_RNvXs1_NtCsc6rNrONHOw_3std2ioNtB5_10IoSliceMutNtNtCsc9UXYxZytPG_4core3fmt5Debug3fmt
libstd-a4a285076b042e1f.so:_RNvXs1_NtCsc6rNrONHOw_3std3envNtB5_6VarsOsNtNtCsc9UXYxZytPG_4core3fmt5Debug3fmt
libstd-a4a285076b042e1f.so:_RNvXs1_NtCsc6rNrONHOw_3std4timeNtB5_7InstantINtNtNtCsc9UXYxZytPG_4core3ops5arith3SubNtNtBN_4time8DurationE3sub
libstd-a4a285076b042e1f.so:_RNvXs1_NtCsc6rNrONHOw_3std7processNtB5_5ChildINtNtB7_10sys_common9IntoInnerNtNtNtNtNtB7_3sys7process4unix4unix7ProcessE10into_inner
libstd-a4a285076b042e1f.so:_RNvXs1_NtCsc6rNrONHOw_3std9backtraceNtB5_11BytesOrWideNtNtCsc9UXYxZytPG_4core3fmt5Debug3fmt
libstd-a4a285076b042e1f.so:_RNvXs1_NtCsc9UXYxZytPG_4core3anyDNtB5_3AnyNtNtB7_6marker4SendNtBG_4SyncEL_NtNtB7_3fmt5Debug3fmt
libstd-a4a285076b042e1f.so:_RNvXs1_NtCsc9UXYxZytPG_4core4wtf8NtB5_4Wtf8NtNtB7_3fmt5Debug3fmt
libstd-a4a285076b042e1f.so:_RNvXs1_NtCsc9UXYxZytPG_4core5cloneNtNtNtB7_3ffi5c_str4CStrNtB5_13CloneToUninit15clone_to_uninit
libstd-a4a285076b042e1f.so:_RNvXs1_NtCseLWYKOMA8NS_6memchr6memmemNtB5_11FindRevIterNtNtNtNtCsc9UXYxZytPG_4core4iter6traits8iterator8Iterator4next
libstd-a4a285076b042e1f.so:_RNvXs1_NtCskIlJ6Bf8u3b_5alloc11collectionsNtB5_15TryReserveErrorNtNtCsc9UXYxZytPG_4core3fmt7Display3fmt
libstd-a4a285076b042e1f.so:_RNvXs1_NtCskIlJ6Bf8u3b_5alloc4wtf8NtB5_7Wtf8BufNtNtCsc9UXYxZytPG_4core3fmt7Display3fmt
libstd-a4a285076b042e1f.so:_RNvXs1_NtCskIlJ6Bf8u3b_5alloc6stringNtB5_14FromUtf16ErrorNtNtCsc9UXYxZytPG_4core3fmt7Display3fmt
libstd-a4a285076b042e1f.so:_RNvXs1_NtCskIlJ6Bf8u3b_5alloc7raw_vecINtB5_6RawVecNtNtNtCs55LTYJXEnzY_5gimli4read6abbrev22AttributeSpecificationENtNtNtCsc9UXYxZytPG_4core3ops4drop4Drop4dropBS_
libstd-a4a285076b042e1f.so:_RNvXs1_NtCskIlJ6Bf8u3b_5alloc7raw_vecINtB5_6RawVechENtNtNtCsc9UXYxZytPG_4core3ops4drop4Drop4dropCs55LTYJXEnzY_5gimli
libstd-a4a285076b042e1f.so:_RNvXs1_NtNtCs3jZe4LgnEve_6object4read4utilNtB5_8DebugLenNtNtCsc9UXYxZytPG_4core3fmt5Debug3fmt
libstd-a4a285076b042e1f.so:_RNvXs1_NtNtCsc6rNrONHOw_3std3net3tcpRNtB5_9TcpStreamNtNtB9_2io4Read13read_vectored
libstd-a4a285076b042e1f.so:_RNvXs1_NtNtCsc6rNrONHOw_3std3net3tcpRNtB5_9TcpStreamNtNtB9_2io4Read4read
libstd-a4a285076b042e1f.so:_RNvXs1_NtNtCsc6rNrONHOw_3std3net3tcpRNtB5_9TcpStreamNtNtB9_2io4Read8read_buf
libstd-a4a285076b042e1f.so:_RNvXs1_NtNtCsc6rNrONHOw_3std4sync4onceNtB5_4OnceNtNtCsc9UXYxZytPG_4core3fmt5Debug3fmt
libstd-a4a285076b042e1f.so:_RNvXs1_NtNtCsc6rNrONHOw_3std4sync7barrierNtB5_17BarrierWaitResultNtNtCsc9UXYxZytPG_4core3fmt5Debug3fmt
libstd-a4a285076b042e1f.so:_RNvXs1_NtNtCsc9UXYxZytPG_4core3ffi5c_strNtB5_4CStrNtNtB9_3fmt5Debug3fmt
libstd-a4a285076b042e1f.so:_RNvXs1_NtNtCsc9UXYxZytPG_4core3mem15transmutabilityNtB5_6AssumeNtNtNtB9_3ops5arith3Sub3sub
libstd-a4a285076b042e1f.so:_RNvXs1_NtNtCsc9UXYxZytPG_4core3num6bignumyNtB5_7FullOps12full_div_rem
libstd-a4a285076b042e1f.so:_RNvXs1_NtNtCsc9UXYxZytPG_4core3num7dec2fltfNtNtNtB9_3str6traits7FromStr8from_str
libstd-a4a285076b042e1f.so:_RNvXs1_NtNtCsc9UXYxZytPG_4core3str5errorNtB5_14ParseBoolErrorNtNtB9_3fmt7Display3fmt
libstd-a4a285076b042e1f.so:_RNvXs1_NtNtCsc9UXYxZytPG_4core4char6decodeNtB5_16DecodeUtf16ErrorNtNtB9_3fmt7Display3fmt
libstd-a4a285076b042e1f.so:_RNvXs1_NtNtCsc9UXYxZytPG_4core4task4wakeNtB5_7ContextNtNtB9_3fmt5Debug3fmt
libstd-a4a285076b042e1f.so:_RNvXs1_NtNtCsc9UXYxZytPG_4core5ascii10ascii_charNtB5_9AsciiCharNtNtB9_3fmt5Debug3fmt
libstd-a4a285076b042e1f.so:_RNvXs1_NtNtCsc9UXYxZytPG_4core5panic8locationNtB5_8LocationNtNtB9_3cmp10PartialOrd11partial_cmp
libstd-a4a285076b042e1f.so:_RNvXs1_NtNtCsc9UXYxZytPG_4core6marker8varianceNtB5_24PhantomCovariantLifetimeNtNtB9_3fmt5Debug3fmt
libstd-a4a285076b042e1f.so:_RNvXs1_NtNtNtCsc6rNrONHOw_3std12backtrace_rs9backtrace9libunwindNtB5_5FrameNtNtCsc9UXYxZytPG_4core5clone5Clone5clone
libstd-a4a285076b042e1f.so:_RNvXs1_NtNtNtCsc6rNrONHOw_3std2os4unix7processNtNtBb_7process5ChildNtB5_8ChildExt11send_signal
libstd-a4a285076b042e1f.so:_RNvXs1_NtNtNtCsc6rNrONHOw_3std3sys4args6commonNtB5_4ArgsNtNtCsc9UXYxZytPG_4core3fmt5Debug3fmt
libstd-a4a285076b042e1f.so:_RNvXs1_NtNtNtCsc6rNrONHOw_3std3sys5stdio4unixNtB5_6StdoutNtNtBb_2io5Write14write_vectored
libstd-a4a285076b042e1f.so:_RNvXs1_NtNtNtCsc6rNrONHOw_3std3sys5stdio4unixNtB5_6StdoutNtNtBb_2io5Write5write
libstd-a4a285076b042e1f.so:_RNvXs1_NtNtNtCsc6rNrONHOw_3std3sys6os_str5bytesNtB5_3BufNtNtCsc9UXYxZytPG_4core3fmt5Debug3fmt
libstd-a4a285076b042e1f.so:_RNvXs1_NtNtNtCsc6rNrONHOw_3std3sys6thread4unixNtB5_6ThreadNtNtNtCsc9UXYxZytPG_4core3ops4drop4Drop4drop
libstd-a4a285076b042e1f.so:_RNvXs1_NtNtNtCsc9UXYxZytPG_4core3num6bignum5testsNtB5_6Big8x3NtNtBb_3cmp10PartialOrd11partial_cmp
libstd-a4a285076b042e1f.so:_RNvXs1_NtNtNtCsc9UXYxZytPG_4core4iter8adapters6copiedINtB5_6CopiedINtNtNtBb_5slice4iter4IterhEENtNtNtB9_6traits10exact_size17ExactSizeIterator3lenCs46PeV0vGECM_14rustc_demangle
libstd-a4a285076b042e1f.so:_RNvXs1_NtNtNtNtCsc6rNrONHOw_3std2os4unix3net4addrNtB5_10SocketAddrNtNtCsc9UXYxZytPG_4core3fmt5Debug3fmt
libstd-a4a285076b042e1f.so:_RNvXs1_NtNtNtNtCsc6rNrONHOw_3std2os4unix3net6streamNtB5_10UnixStreamNtNtBd_2io4Read13read_vectored
libstd-a4a285076b042e1f.so:_RNvXs1_NtNtNtNtCsc6rNrONHOw_3std2os4unix3net6streamNtB5_10UnixStreamNtNtBd_2io4Read4read
libstd-a4a285076b042e1f.so:_RNvXs1_NtNtNtNtCsc6rNrONHOw_3std2os4unix3net6streamNtB5_10UnixStreamNtNtBd_2io4Read8read_buf
libstd-a4a285076b042e1f.so:_RNvXs1_NtNtNtNtCsc6rNrONHOw_3std2os4unix3net9ancillaryNtB5_9ScmRightsNtNtNtNtCsc9UXYxZytPG_4core4iter6traits8iterator8Iterator4next
libstd-a4a285076b042e1f.so:_RNvXs1_NtNtNtNtCsc6rNrONHOw_3std3sys3pal4unix4pipeNtB5_8AnonPipeNtNtNtNtBd_2os2fd5owned4AsFd5as_fd
libstd-a4a285076b042e1f.so:_RNvXs1_NvMs_NtNtCskIlJ6Bf8u3b_5alloc3ffi5c_strNtBa_7CString3newQShNtB5_11SpecNewImpl13spec_new_impl
libstd-a4a285076b042e1f.so:_RNvXs1_NvNtCsc6rNrONHOw_3std9panicking13panic_handlerNtB5_16StaticStrPayloadNtNtCsc9UXYxZytPG_4core5panic12PanicPayload8take_box
libstd-a4a285076b042e1f.so:_RNvXs1a_NtCsc6rNrONHOw_3std4pathNtB6_7DisplayNtNtCsc9UXYxZytPG_4core3fmt5Debug3fmt
libstd-a4a285076b042e1f.so:_RNvXs1a_NtNtCsc9UXYxZytPG_4core3net7ip_addrNtB6_8Ipv4AddrNtNtNtBa_3ops3bit11BitOrAssign12bitor_assign
libstd-a4a285076b042e1f.so:_RNvXs1a_NtNtCsc9UXYxZytPG_4core3num11niche_typesNtB6_15NonZeroI32InnerNtNtBa_3fmt5Debug3fmt
libstd-a4a285076b042e1f.so:_RNvXs1b_NtCsc6rNrONHOw_3std4pathNtB6_7DisplayNtNtCsc9UXYxZytPG_4core3fmt7Display3fmt
libstd-a4a285076b042e1f.so:_RNvXs1b_NtNtCsc9UXYxZytPG_4core3net7ip_addrNtB6_8Ipv4AddrINtNtNtBa_3ops3bit11BitOrAssignRBF_E12bitor_assign
libstd-a4a285076b042e1f.so:_RNvXs1c_NtCs55LTYJXEnzY_5gimli9constantsNtB6_4DwAtNtNtCsc9UXYxZytPG_4core3fmt7Display3fmt
libstd-a4a285076b042e1f.so:_RNvXs1e_NtNtCsc9UXYxZytPG_4core4sync6atomicNtB6_9AtomicI64NtNtBa_3fmt5Debug3fmt
libstd-a4a285076b042e1f.so:_RNvXs1f_NtNtCsc9UXYxZytPG_4core3num7nonzeroINtB6_7NonZeroyENtNtNtBa_3str6traits7FromStr8from_str
libstd-a4a285076b042e1f.so:_RNvXs1g_NtCsc9UXYxZytPG_4core3fmtRNtNtNtB8_3num5error12IntErrorKindNtB6_5Debug3fmtCs46PeV0vGECM_14rustc_demangle
libstd-a4a285076b042e1f.so:_RNvXs1g_NtCsc9UXYxZytPG_4core3fmtRNtNtNtCs55LTYJXEnzY_5gimli4read6abbrev22AttributeSpecificationNtB6_5Debug3fmtBC_
libstd-a4a285076b042e1f.so:_RNvXs1g_NtCsc9UXYxZytPG_4core3fmtReNtB6_5Debug3fmtCs46PeV0vGECM_14rustc_demangle
libstd-a4a285076b042e1f.so:_RNvXs1g_NtCsc9UXYxZytPG_4core3fmtRhNtB6_5Debug3fmtCs46PeV0vGECM_14rustc_demangle
libstd-a4a285076b042e1f.so:_RNvXs1g_NtCsc9UXYxZytPG_4core3fmtRtNtB6_5Debug3fmtCs55LTYJXEnzY_5gimli
libstd-a4a285076b042e1f.so:_RNvXs1g_NtCsc9UXYxZytPG_4core3fmtRuNtB6_5Debug3fmtCs46PeV0vGECM_14rustc_demangle
libstd-a4a285076b042e1f.so:_RNvXs1g_NtCsc9UXYxZytPG_4core3fmtRxNtB6_5Debug3fmtCs55LTYJXEnzY_5gimli
libstd-a4a285076b042e1f.so:_RNvXs1g_NtNtCsc9UXYxZytPG_4core3net7ip_addrNtB6_8Ipv6AddrNtNtNtBa_3ops3bit12BitAndAssign13bitand_assign
libstd-a4a285076b042e1f.so:_RNvXs1h_NtCsc9UXYxZytPG_4core3fmtQShNtB6_5Debug3fmtCs46PeV0vGECM_14rustc_demangle
libstd-a4a285076b042e1f.so:_RNvXs1h_NtNtCsc9UXYxZytPG_4core3net7ip_addrNtB6_8Ipv6AddrINtNtNtBa_3ops3bit12BitAndAssignRBF_E13bitand_assign
libstd-a4a285076b042e1f.so:_RNvXs1h_NtNtCsc9UXYxZytPG_4core3num11niche_typesNtB6_15NonZeroI64InnerNtNtBa_3fmt5Debug3fmt
libstd-a4a285076b042e1f.so:_RNvXs1i_NtCsc9UXYxZytPG_4core3fmtRNtCs46PeV0vGECM_14rustc_demangle13DemangleStyleNtB6_7Display3fmtBy_
libstd-a4a285076b042e1f.so:_RNvXs1i_NtCsc9UXYxZytPG_4core3fmtReNtB6_7Display3fmtCs46PeV0vGECM_14rustc_demangle
libstd-a4a285076b042e1f.so:_RNvXs1j_NtNtCsc9UXYxZytPG_4core4sync6atomicNtB6_9AtomicU64NtNtBa_3fmt5Debug3fmt
libstd-a4a285076b042e1f.so:_RNvXs1m_NtNtCsc9UXYxZytPG_4core3net7ip_addrNtB6_8Ipv6AddrNtNtNtBa_3ops3bit11BitOrAssign12bitor_assign
libstd-a4a285076b042e1f.so:_RNvXs1m_NtNtCsc9UXYxZytPG_4core3num7nonzeroINtB6_7NonZerooENtNtNtBa_3str6traits7FromStr8from_str
libstd-a4a285076b042e1f.so:_RNvXs1n_NtNtCsc9UXYxZytPG_4core3net7ip_addrNtB6_8Ipv6AddrINtNtNtBa_3ops3bit11BitOrAssignRBF_E12bitor_assign
libstd-a4a285076b042e1f.so:_RNvXs1o_NtCs55LTYJXEnzY_5gimli9constantsNtB6_6DwFormNtNtCsc9UXYxZytPG_4core3fmt7Display3fmt
libstd-a4a285076b042e1f.so:_RNvXs1o_NtNtCsc9UXYxZytPG_4core3num11niche_typesNtB6_16NonZeroI128InnerNtNtBa_3fmt5Debug3fmt
libstd-a4a285076b042e1f.so:_RNvXs1o_NtNtCsc9UXYxZytPG_4core4sync6atomicNtB6_11AtomicIsizeNtNtBa_3fmt5Debug3fmt
libstd-a4a285076b042e1f.so:_RNvXs1t_NtNtCsc9UXYxZytPG_4core3num7nonzeroINtB6_7NonZerojENtNtNtBa_3str6traits7FromStr8from_str
libstd-a4a285076b042e1f.so:_RNvXs1t_NtNtCsc9UXYxZytPG_4core4sync6atomicNtB6_11AtomicUsizeNtNtBa_3fmt5Debug3fmt
libstd-a4a285076b042e1f.so:_RNvXs1u_NtCsc6rNrONHOw_3std4pathNtB6_16StripPrefixErrorNtNtCsc9UXYxZytPG_4core3fmt7Display3fmt
libstd-a4a285076b042e1f.so:_RNvXs1v_NtNtCsc9UXYxZytPG_4core3num11niche_typesNtB6_16NonZeroCharInnerNtNtBa_3fmt5Debug3fmt
libstd-a4a285076b042e1f.so:_RNvXs1w_NtCsc6rNrONHOw_3std4pathNtB6_14NormalizeErrorNtNtCsc9UXYxZytPG_4core3fmt7Display3fmt
libstd-a4a285076b042e1f.so:_RNvXs20_NtNtCsc9UXYxZytPG_4core3str4iterNtB6_11EscapeDebugNtNtBa_3fmt7Display3fmt
libstd-a4a285076b042e1f.so:_RNvXs23_NtNtCsc9UXYxZytPG_4core3str4iterNtB6_13EscapeDefaultNtNtBa_3fmt7Display3fmt
libstd-a4a285076b042e1f.so:_RNvXs26_NtNtCsc9UXYxZytPG_4core3str4iterNtB6_13EscapeUnicodeNtNtBa_3fmt7Display3fmt
libstd-a4a285076b042e1f.so:_RNvXs2K_NtCs55LTYJXEnzY_5gimli9constantsNtB6_12DwVirtualityNtNtCsc9UXYxZytPG_4core3fmt7Display3fmt
libstd-a4a285076b042e1f.so:_RNvXs2R_NtNtCsc9UXYxZytPG_4core3num11niche_typesNtB6_13U32NotAllOnesNtNtBa_3fmt5Debug3fmt
libstd-a4a285076b042e1f.so:_RNvXs2W_NtCs55LTYJXEnzY_5gimli9constantsNtB6_6DwLangNtNtCsc9UXYxZytPG_4core3fmt7Display3fmt
libstd-a4a285076b042e1f.so:_RNvXs2Y_NtNtCsc9UXYxZytPG_4core3num11niche_typesNtB6_13I32NotAllOnesNtNtBa_3fmt5Debug3fmt
libstd-a4a285076b042e1f.so:_RNvXs2_Cs46PeV0vGECM_14rustc_demangleNtB5_8DemangleNtNtCsc9UXYxZytPG_4core3fmt5Debug3fmt
libstd-a4a285076b042e1f.so:_RNvXs2_NtCs55LTYJXEnzY_5gimli9constantsNtB5_6DwSectNtNtCsc9UXYxZytPG_4core3fmt7Display3fmt
libstd-a4a285076b042e1f.so:_RNvXs2_NtCsc6rNrONHOw_3std3envNtB5_8VarErrorNtNtCsc9UXYxZytPG_4core3fmt7Display3fmt
libstd-a4a285076b042e1f.so:_RNvXs2_NtCsc6rNrONHOw_3std4timeNtB5_7InstantINtNtNtCsc9UXYxZytPG_4core3ops5arith9SubAssignNtNtBN_4time8DurationE10sub_assign
libstd-a4a285076b042e1f.so:_RNvXs2_NtCsc6rNrONHOw_3std7processNtB5_5ChildNtNtCsc9UXYxZytPG_4core3fmt5Debug3fmt
libstd-a4a285076b042e1f.so:_RNvXs2_NtCsc9UXYxZytPG_4core4bstrNtB5_7ByteStrNtNtB7_3fmt5Debug3fmt
libstd-a4a285076b042e1f.so:_RNvXs2_NtCsc9UXYxZytPG_4core4charNtB5_13EscapeUnicodeNtNtB7_3fmt7Display3fmt
libstd-a4a285076b042e1f.so:_RNvXs2_NtCsc9UXYxZytPG_4core4wtf8NtB5_4Wtf8NtNtB7_3fmt7Display3fmt
libstd-a4a285076b042e1f.so:_RNvXs2_NtNtCs3jZe4LgnEve_6object4read4utilNtB5_10ByteStringNtNtCsc9UXYxZytPG_4core3fmt5Debug3fmt
libstd-a4a285076b042e1f.so:_RNvXs2_NtNtCs3jZe4LgnEve_6object4read7archiveNtB5_21ArchiveSymbolIteratorNtNtNtNtCsc9UXYxZytPG_4core4iter6traits8iterator8Iterator4next
libstd-a4a285076b042e1f.so:_RNvXs2_NtNtCs3jZe4LgnEve_6object4read7archiveNtB5_21ArchiveSymbolIteratorNtNtNtNtCsc9UXYxZytPG_4core4iter6traits8iterator8Iterator9size_hint
libstd-a4a285076b042e1f.so:_RNvXs2_NtNtCs55LTYJXEnzY_5gimli4read12endian_sliceNtB5_10DebugBytesNtNtCsc9UXYxZytPG_4core3fmt5Debug3fmt
libstd-a4a285076b042e1f.so:_RNvXs2_NtNtCsc6rNrONHOw_3std12backtrace_rs9symbolizeNtB5_10SymbolNameNtNtCsc9UXYxZytPG_4core3fmt7Display3fmt
libstd-a4a285076b042e1f.so:_RNvXs2_NtNtCsc6rNrONHOw_3std2io5stdioNtB5_5StdinNtNtCsc9UXYxZytPG_4core3fmt5Debug3fmt
libstd-a4a285076b042e1f.so:_RNvXs2_NtNtCsc6rNrONHOw_3std3net3tcpRNtB5_9TcpStreamNtNtB9_2io5Write14write_vectored
libstd-a4a285076b042e1f.so:_RNvXs2_NtNtCsc6rNrONHOw_3std3net3tcpRNtB5_9TcpStreamNtNtB9_2io5Write5write
libstd-a4a285076b042e1f.so:_RNvXs2_NtNtCsc6rNrONHOw_3std3net3udpNtB5_9UdpSocketNtNtCsc9UXYxZytPG_4core3fmt5Debug3fmt
libstd-a4a285076b042e1f.so:_RNvXs2_NtNtCsc6rNrONHOw_3std6thread6scopedNtB5_5ScopeNtNtCsc9UXYxZytPG_4core3fmt5Debug3fmt
libstd-a4a285076b042e1f.so:_RNvXs2_NtNtCsc9UXYxZytPG_4core3fmt3numjNtB7_6Binary3fmt
libstd-a4a285076b042e1f.so:_RNvXs2_NtNtCsc9UXYxZytPG_4core3fmt5floatfNtB7_5Debug3fmt
libstd-a4a285076b042e1f.so:_RNvXs2_NtNtCsc9UXYxZytPG_4core3net6parserNtNtB7_7ip_addr8Ipv4AddrNtNtNtB9_3str6traits7FromStr8from_str
libstd-a4a285076b042e1f.so:_RNvXs2_NtNtCsc9UXYxZytPG_4core3net7ip_addrNtB5_6IpAddrNtNtB9_3fmt7Display3fmt
libstd-a4a285076b042e1f.so:_RNvXs2_NtNtCsc9UXYxZytPG_4core3num7dec2fltdNtNtNtB9_3str6traits7FromStr8from_str
libstd-a4a285076b042e1f.so:_RNvXs2_NtNtCsc9UXYxZytPG_4core3str5lossyNtB5_10Utf8ChunksNtNtNtNtB9_4iter6traits8iterator8Iterator4next
libstd-a4a285076b042e1f.so:_RNvXs2_NtNtCsc9UXYxZytPG_4core5slice3cmpSNtNtNtCs55LTYJXEnzY_5gimli4read6abbrev22AttributeSpecificationINtB5_14SlicePartialEqBD_E5equalBJ_
libstd-a4a285076b042e1f.so:_RNvXs2_NtNtCsc9UXYxZytPG_4core5slice5asciiNtB5_11EscapeAsciiNtNtB9_3fmt7Display3fmt
libstd-a4a285076b042e1f.so:_RNvXs2_NtNtCskIlJ6Bf8u3b_5alloc3ffi5c_strNtB5_7CStringNtNtCsc9UXYxZytPG_4core3fmt5Debug3fmt
libstd-a4a285076b042e1f.so:_RNvXs2_NtNtCskIlJ6Bf8u3b_5alloc3vec11spec_extendINtB7_3VechEINtB5_10SpecExtendRhINtNtNtCsc9UXYxZytPG_4core5slice4iter4IterhEE11spec_extendCs9iPEsoqUGwF_9addr2line
libstd-a4a285076b042e1f.so:_RNvXs2_NtNtNtCsc6rNrONHOw_3std12backtrace_rs9backtrace9libunwindNtB5_4BombNtNtNtCsc9UXYxZytPG_4core3ops4drop4Drop4drop
libstd-a4a285076b042e1f.so:_RNvXs2_NtNtNtCsc6rNrONHOw_3std2io8buffered9bufwriterNtB5_14WriterPanickedNtNtCsc9UXYxZytPG_4core3fmt7Display3fmt
libstd-a4a285076b042e1f.so:_RNvXs2_NtNtNtCsc6rNrONHOw_3std3sys3env6commonNtB5_3EnvNtNtNtNtCsc9UXYxZytPG_4core4iter6traits8iterator8Iterator4next
libstd-a4a285076b042e1f.so:_RNvXs2_NtNtNtCsc6rNrONHOw_3std3sys3env6commonNtB5_3EnvNtNtNtNtCsc9UXYxZytPG_4core4iter6traits8iterator8Iterator9size_hint
libstd-a4a285076b042e1f.so:_RNvXs2_NtNtNtCsc6rNrONHOw_3std3sys6os_str5bytesNtB5_3BufNtNtCsc9UXYxZytPG_4core3fmt7Display3fmt
libstd-a4a285076b042e1f.so:_RNvXs2_NtNtNtCsc9UXYxZytPG_4core3num6bignum5testsNtB5_6Big8x3NtNtBb_3cmp3Ord3cmp
libstd-a4a285076b042e1f.so:_RNvXs2_NtNtNtNtCsc6rNrONHOw_3std2os4unix3net6streamRNtB5_10UnixStreamNtNtBd_2io4Read13read_vectored
libstd-a4a285076b042e1f.so:_RNvXs2_NtNtNtNtCsc6rNrONHOw_3std2os4unix3net6streamRNtB5_10UnixStreamNtNtBd_2io4Read4read
libstd-a4a285076b042e1f.so:_RNvXs2_NtNtNtNtCsc6rNrONHOw_3std2os4unix3net6streamRNtB5_10UnixStreamNtNtBd_2io4Read8read_buf
libstd-a4a285076b042e1f.so:_RNvXs2_NtNtNtNtCsc6rNrONHOw_3std2os4unix3net9ancillaryNtB5_14ScmCredentialsNtNtNtNtCsc9UXYxZytPG_4core4iter6traits8iterator8Iterator4next
libstd-a4a285076b042e1f.so:_RNvXs2_NtNtNtNtCsc6rNrONHOw_3std3sys3net10connection6socketNtB5_10LookupHostNtNtNtCsc9UXYxZytPG_4core3ops4drop4Drop4drop
libstd-a4a285076b042e1f.so:_RNvXs2_NtNtNtNtNtCsc6rNrONHOw_3std3sys3net10connection6socket4unixNtB5_6SocketNtNtNtNtBf_2os2fd5owned4AsFd5as_fd
libstd-a4a285076b042e1f.so:_RNvXs2_NtNtNtNtNtCsc6rNrONHOw_3std3sys3pal4unix5linux5pidfdNtB5_5PidFdNtNtNtNtBf_2os2fd3raw9FromRawFd11from_raw_fd
libstd-a4a285076b042e1f.so:_RNvXs2_NvNtCsc6rNrONHOw_3std9panicking13panic_handlerNtB5_16StaticStrPayloadNtNtCsc9UXYxZytPG_4core3fmt7Display3fmt
libstd-a4a285076b042e1f.so:_RNvXs2a_NtCs55LTYJXEnzY_5gimli9constantsNtB6_5DwEndNtNtCsc9UXYxZytPG_4core3fmt7Display3fmt
libstd-a4a285076b042e1f.so:_RNvXs2a_NtNtNtNtCsgD73w63XKKY_4libc4unix10linux_like5linux3gnuNtB6_38___c_anonymous_ptrace_syscall_info_dataNtNtCsc9UXYxZytPG_4core3fmt5Debug3fmt
libstd-a4a285076b042e1f.so:_RNvXs2k_NtNtCsc9UXYxZytPG_4core3num11niche_typesNtB6_14UsizeNoHighBitNtNtBa_3fmt5Debug3fmt
libstd-a4a285076b042e1f.so:_RNvXs2m_NtCs55LTYJXEnzY_5gimli9constantsNtB6_8DwAccessNtNtCsc9UXYxZytPG_4core3fmt7Display3fmt
libstd-a4a285076b042e1f.so:_RNvXs2r_NtNtCsc9UXYxZytPG_4core3num11niche_typesNtB6_17NonZeroUsizeInnerNtNtBa_3fmt5Debug3fmt
libstd-a4a285076b042e1f.so:_RNvXs2y_NtCs55LTYJXEnzY_5gimli9constantsNtB6_5DwVisNtNtCsc9UXYxZytPG_4core3fmt7Display3fmt
libstd-a4a285076b042e1f.so:_RNvXs2y_NtNtCsc9UXYxZytPG_4core3num11niche_typesNtB6_17NonZeroIsizeInnerNtNtBa_3fmt5Debug3fmt
libstd-a4a285076b042e1f.so:_RNvXs35_NtNtCsc9UXYxZytPG_4core3num11niche_typesNtB6_13U64NotAllOnesNtNtBa_3fmt5Debug3fmt
libstd-a4a285076b042e1f.so:_RNvXs38_NtCs55LTYJXEnzY_5gimli9constantsNtB6_6DwAddrNtNtCsc9UXYxZytPG_4core3fmt7Display3fmt
libstd-a4a285076b042e1f.so:_RNvXs3I_NtCs55LTYJXEnzY_5gimli9constantsNtB6_5DwInlNtNtCsc9UXYxZytPG_4core3fmt7Display3fmt
libstd-a4a285076b042e1f.so:_RNvXs3U_NtCs55LTYJXEnzY_5gimli9constantsNtB6_5DwOrdNtNtCsc9UXYxZytPG_4core3fmt7Display3fmt
libstd-a4a285076b042e1f.so:_RNvXs3_NtCsc6rNrONHOw_3std4timeNtB5_7InstantNtNtNtCsc9UXYxZytPG_4core3ops5arith3Sub3sub
libstd-a4a285076b042e1f.so:_RNvXs3_NtCsc6rNrONHOw_3std7processNtB5_10ChildStdinNtNtB7_2io5Write14write_vectored
libstd-a4a285076b042e1f.so:_RNvXs3_NtCsc6rNrONHOw_3std7processNtB5_10ChildStdinNtNtB7_2io5Write5write
libstd-a4a285076b042e1f.so:_RNvXs3_NtCsc9UXYxZytPG_4core4bstrNtB5_7ByteStrNtNtB7_3fmt7Display3fmt
libstd-a4a285076b042e1f.so:_RNvXs3_NtCsc9UXYxZytPG_4core5asciiNtB5_13EscapeDefaultNtNtB7_3fmt7Display3fmt
libstd-a4a285076b042e1f.so:_RNvXs3_NtNtCs55LTYJXEnzY_5gimli4read12endian_sliceNtB5_9DebugByteNtNtCsc9UXYxZytPG_4core3fmt5Debug3fmt
libstd-a4a285076b042e1f.so:_RNvXs3_NtNtCsc6rNrONHOw_3std12backtrace_rs9symbolizeNtB5_10SymbolNameNtNtCsc9UXYxZytPG_4core3fmt5Debug3fmt
libstd-a4a285076b042e1f.so:_RNvXs3_NtNtCsc6rNrONHOw_3std2io5errorNtB5_9ErrorKindNtNtCsc9UXYxZytPG_4core3fmt7Display3fmt
libstd-a4a285076b042e1f.so:_RNvXs3_NtNtCsc6rNrONHOw_3std2io5stdioNtB5_5StdinNtB7_4Read10read_exact
libstd-a4a285076b042e1f.so:_RNvXs3_NtNtCsc6rNrONHOw_3std2io5stdioNtB5_5StdinNtB7_4Read11read_to_end
libstd-a4a285076b042e1f.so:_RNvXs3_NtNtCsc6rNrONHOw_3std2io5stdioNtB5_5StdinNtB7_4Read13read_vectored
libstd-a4a285076b042e1f.so:_RNvXs3_NtNtCsc6rNrONHOw_3std2io5stdioNtB5_5StdinNtB7_4Read14read_buf_exact
libstd-a4a285076b042e1f.so:_RNvXs3_NtNtCsc6rNrONHOw_3std2io5stdioNtB5_5StdinNtB7_4Read14read_to_string
libstd-a4a285076b042e1f.so:_RNvXs3_NtNtCsc6rNrONHOw_3std2io5stdioNtB5_5StdinNtB7_4Read4read
libstd-a4a285076b042e1f.so:_RNvXs3_NtNtCsc6rNrONHOw_3std2io5stdioNtB5_5StdinNtB7_4Read8read_buf
libstd-a4a285076b042e1f.so:_RNvXs3_NtNtCsc6rNrONHOw_3std4sync4onceNtB5_9OnceStateNtNtCsc9UXYxZytPG_4core3fmt5Debug3fmt
libstd-a4a285076b042e1f.so:_RNvXs3_NtNtCsc9UXYxZytPG_4core3fmt3numiNtB7_6Binary3fmt
libstd-a4a285076b042e1f.so:_RNvXs3_NtNtCsc9UXYxZytPG_4core3fmt5floatfNtB7_7Display3fmt
libstd-a4a285076b042e1f.so:_RNvXs3_NtNtCsc9UXYxZytPG_4core3net7ip_addrNtB5_6IpAddrNtNtB9_3fmt5Debug3fmt
libstd-a4a285076b042e1f.so:_RNvXs3_NtNtCsc9UXYxZytPG_4core3num5errorNtB5_13ParseIntErrorNtNtB9_3fmt7Display3fmt
libstd-a4a285076b042e1f.so:_RNvXs3_NtNtCsc9UXYxZytPG_4core5panic8locationNtB5_8LocationNtNtB9_3fmt5Debug3fmt
libstd-a4a285076b042e1f.so:_RNvXs3_NtNtCsc9UXYxZytPG_4core5slice5asciiNtB5_11EscapeAsciiNtNtB9_3fmt5Debug3fmt
libstd-a4a285076b042e1f.so:_RNvXs3_NtNtNtCsc6rNrONHOw_3std2io8buffered9bufwriterNtB5_14WriterPanickedNtNtCsc9UXYxZytPG_4core3fmt5Debug3fmt
libstd-a4a285076b042e1f.so:_RNvXs3_NtNtNtCsc6rNrONHOw_3std2os5linux7processNtB5_5PidFdNtNtNtB9_2fd3raw9FromRawFd11from_raw_fd
libstd-a4a285076b042e1f.so:_RNvXs3_NtNtNtCsc6rNrONHOw_3std3sys2fd4unixNtB5_8FileDescNtNtNtNtBb_2os2fd5owned4AsFd5as_fd
libstd-a4a285076b042e1f.so:_RNvXs3_NtNtNtCsc6rNrONHOw_3std3sys5stdio4unixNtB5_6StderrNtNtBb_2io5Write14write_vectored
libstd-a4a285076b042e1f.so:_RNvXs3_NtNtNtCsc6rNrONHOw_3std3sys5stdio4unixNtB5_6StderrNtNtBb_2io5Write5write
libstd-a4a285076b042e1f.so:_RNvXs3_NtNtNtCsc6rNrONHOw_3std3sys6os_str5bytesNtB5_5SliceNtNtCsc9UXYxZytPG_4core3fmt5Debug3fmt
libstd-a4a285076b042e1f.so:_RNvXs3_NtNtNtCsc9UXYxZytPG_4core3fmt3num3imptNtB9_7Display3fmt
libstd-a4a285076b042e1f.so:_RNvXs3_NtNtNtCsc9UXYxZytPG_4core4iter8adapters3zipINtB5_3ZipINtNtNtBb_5slice4iter4ItertEINtBZ_7IterMutmEEINtB5_7ZipImplBW_B1o_E3newCsloXJXCvFm1O_11miniz_oxide
libstd-a4a285076b042e1f.so:_RNvXs3_NtNtNtNtCsc6rNrONHOw_3std2os4unix3net6streamNtB5_10UnixStreamNtNtBd_2io5Write14write_vectored
libstd-a4a285076b042e1f.so:_RNvXs3_NtNtNtNtCsc6rNrONHOw_3std2os4unix3net6streamNtB5_10UnixStreamNtNtBd_2io5Write5write
libstd-a4a285076b042e1f.so:_RNvXs3_NtNtNtNtCsc6rNrONHOw_3std3sys2io11kernel_copy5linuxNtNtBd_2fs4FileNtB5_8CopyRead10properties
libstd-a4a285076b042e1f.so:_RNvXs3_NtNtNtNtCsc6rNrONHOw_3std3sys3pal4unix4pipeNtB5_8AnonPipeNtNtNtNtBd_2os2fd3raw9FromRawFd11from_raw_fd
libstd-a4a285076b042e1f.so:_RNvXs3_NtNtNtNtCsc6rNrONHOw_3std3sys3pal4unix4timeNtB5_7InstantNtNtCsc9UXYxZytPG_4core3fmt5Debug3fmt
libstd-a4a285076b042e1f.so:_RNvXs3_NtNtNtNtCsc6rNrONHOw_3std3sys7process4unix4unixNtB5_10ExitStatusNtNtCsc9UXYxZytPG_4core3fmt7Display3fmt
libstd-a4a285076b042e1f.so:_RNvXs3_NtNtNtNtNtCsc6rNrONHOw_3std3sys7process4unix6common13cstring_arrayNtB5_12CStringArrayNtNtNtCsc9UXYxZytPG_4core3ops4drop4Drop4drop
libstd-a4a285076b042e1f.so:_RNvXs3c_NtNtCsc9UXYxZytPG_4core3num11niche_typesNtB6_13I64NotAllOnesNtNtBa_3fmt5Debug3fmt
libstd-a4a285076b042e1f.so:_RNvXs3k_NtCs55LTYJXEnzY_5gimli9constantsNtB6_4DwIdNtNtCsc9UXYxZytPG_4core3fmt7Display3fmt
libstd-a4a285076b042e1f.so:_RNvXs3w_NtCs55LTYJXEnzY_5gimli9constantsNtB6_4DwCcNtNtCsc9UXYxZytPG_4core3fmt7Display3fmt
libstd-a4a285076b042e1f.so:_RNvXs3z_NtNtCsc9UXYxZytPG_4core3num11niche_typesNtB6_14CodePointInnerNtNtBa_3fmt5Debug3fmt
libstd-a4a285076b042e1f.so:_RNvXs46_NtCs55LTYJXEnzY_5gimli9constantsNtB6_5DwDscNtNtCsc9UXYxZytPG_4core3fmt7Display3fmt
libstd-a4a285076b042e1f.so:_RNvXs4G_NtCs55LTYJXEnzY_5gimli9constantsNtB6_5DwLnsNtNtCsc9UXYxZytPG_4core3fmt7Display3fmt
libstd-a4a285076b042e1f.so:_RNvXs4S_NtCs55LTYJXEnzY_5gimli9constantsNtB6_5DwLneNtNtCsc9UXYxZytPG_4core3fmt7Display3fmt
libstd-a4a285076b042e1f.so:_RNvXs4_NtCs3jZe4LgnEve_6object4readNtB5_12SectionIndexNtNtCsc9UXYxZytPG_4core3fmt7Display3fmt
libstd-a4a285076b042e1f.so:_RNvXs4_NtCsc6rNrONHOw_3std3envNtB5_10SplitPathsNtNtNtNtCsc9UXYxZytPG_4core4iter6traits8iterator8Iterator4next
libstd-a4a285076b042e1f.so:_RNvXs4_NtCsc6rNrONHOw_3std4timeNtB5_7InstantNtNtCsc9UXYxZytPG_4core3fmt5Debug3fmt
libstd-a4a285076b042e1f.so:_RNvXs4_NtCsc6rNrONHOw_3std7processRNtB5_10ChildStdinNtNtB7_2io5Write14write_vectored
libstd-a4a285076b042e1f.so:_RNvXs4_NtCsc6rNrONHOw_3std7processRNtB5_10ChildStdinNtNtB7_2io5Write5write
libstd-a4a285076b042e1f.so:_RNvXs4_NtCsc6rNrONHOw_3std9backtraceNtB5_9BacktraceNtNtCsc9UXYxZytPG_4core3fmt7Display3fmt
libstd-a4a285076b042e1f.so:_RNvXs4_NtCsc9UXYxZytPG_4core3pataNtB5_12RangePattern7sub_one
libstd-a4a285076b042e1f.so:_RNvXs4_NtCsc9UXYxZytPG_4core5asciiNtB5_13EscapeDefaultNtNtB7_3fmt5Debug3fmt
libstd-a4a285076b042e1f.so:_RNvXs4_NtCsc9UXYxZytPG_4core5errorNtB5_7RequestNtNtB7_3fmt5Debug3fmt
libstd-a4a285076b042e1f.so:_RNvXs4_NtCskIlJ6Bf8u3b_5alloc6stringNtB5_6StringNtNtCsc9UXYxZytPG_4core5clone5Clone10clone_from
libstd-a4a285076b042e1f.so:_RNvXs4_NtCskIlJ6Bf8u3b_5alloc6stringNtB5_6StringNtNtCsc9UXYxZytPG_4core5clone5Clone5clone
libstd-a4a285076b042e1f.so:_RNvXs4_NtNtCs55LTYJXEnzY_5gimli4read12endian_sliceNtB5_8DebugLenNtNtCsc9UXYxZytPG_4core3fmt5Debug3fmt
libstd-a4a285076b042e1f.so:_RNvXs4_NtNtCsc6rNrONHOw_3std2io4copyINtNtCskIlJ6Bf8u3b_5alloc3vec3VechENtB5_18BufferedWriterSpec11buffer_size
libstd-a4a285076b042e1f.so:_RNvXs4_NtNtCsc6rNrONHOw_3std2io4pipeRNtB5_10PipeReaderNtB7_4Read11read_to_end
libstd-a4a285076b042e1f.so:_RNvXs4_NtNtCsc6rNrONHOw_3std2io4pipeRNtB5_10PipeReaderNtB7_4Read13read_vectored
libstd-a4a285076b042e1f.so:_RNvXs4_NtNtCsc6rNrONHOw_3std2io4pipeRNtB5_10PipeReaderNtB7_4Read4read
libstd-a4a285076b042e1f.so:_RNvXs4_NtNtCsc6rNrONHOw_3std2io4pipeRNtB5_10PipeReaderNtB7_4Read8read_buf
libstd-a4a285076b042e1f.so:_RNvXs4_NtNtCsc6rNrONHOw_3std2io5stdioRNtB5_5StdinNtB7_4Read10read_exact
libstd-a4a285076b042e1f.so:_RNvXs4_NtNtCsc6rNrONHOw_3std2io5stdioRNtB5_5StdinNtB7_4Read11read_to_end
libstd-a4a285076b042e1f.so:_RNvXs4_NtNtCsc6rNrONHOw_3std2io5stdioRNtB5_5StdinNtB7_4Read13read_vectored
libstd-a4a285076b042e1f.so:_RNvXs4_NtNtCsc6rNrONHOw_3std2io5stdioRNtB5_5StdinNtB7_4Read14read_buf_exact
libstd-a4a285076b042e1f.so:_RNvXs4_NtNtCsc6rNrONHOw_3std2io5stdioRNtB5_5StdinNtB7_4Read14read_to_string
libstd-a4a285076b042e1f.so:_RNvXs4_NtNtCsc6rNrONHOw_3std2io5stdioRNtB5_5StdinNtB7_4Read4read
libstd-a4a285076b042e1f.so:_RNvXs4_NtNtCsc6rNrONHOw_3std2io5stdioRNtB5_5StdinNtB7_4Read8read_buf
libstd-a4a285076b042e1f.so:_RNvXs4_NtNtCsc6rNrONHOw_3std3net11socket_addrTRetENtB5_13ToSocketAddrs15to_socket_addrs
libstd-a4a285076b042e1f.so:_RNvXs4_NtNtCsc6rNrONHOw_3std4hash6randomNtB5_11RandomStateNtNtCsc9UXYxZytPG_4core3fmt5Debug3fmt
libstd-a4a285076b042e1f.so:_RNvXs4_NtNtCsc9UXYxZytPG_4core3fmt3numjNtB7_5Octal3fmt
libstd-a4a285076b042e1f.so:_RNvXs4_NtNtCsc9UXYxZytPG_4core3fmt5floatfNtB7_8LowerExp3fmt
libstd-a4a285076b042e1f.so:_RNvXs4_NtNtCsc9UXYxZytPG_4core3net11socket_addrNtB5_10SocketAddrNtNtB9_3fmt7Display3fmt
libstd-a4a285076b042e1f.so:_RNvXs4_NtNtCsc9UXYxZytPG_4core3net6parserNtNtB7_7ip_addr8Ipv6AddrNtNtNtB9_3str6traits7FromStr8from_str
libstd-a4a285076b042e1f.so:_RNvXs4_NtNtCsc9UXYxZytPG_4core3str5lossyNtB5_10Utf8ChunksNtNtB9_3fmt5Debug3fmt
libstd-a4a285076b042e1f.so:_RNvXs4_NtNtCseLWYKOMA8NS_6memchr6memmem8searcherNtB5_9PrefilterNtNtCsc9UXYxZytPG_4core3fmt5Debug3fmt
libstd-a4a285076b042e1f.so:_RNvXs4_NtNtCskIlJ6Bf8u3b_5alloc3ffi5c_strNtB5_7CStringNtNtCsc9UXYxZytPG_4core7default7Default7default
libstd-a4a285076b042e1f.so:_RNvXs4_NtNtNtCsc6rNrONHOw_3std3sys6os_str5bytesNtB5_5SliceNtNtCsc9UXYxZytPG_4core3fmt7Display3fmt
libstd-a4a285076b042e1f.so:_RNvXs4_NtNtNtCsc9UXYxZytPG_4core3fmt3num3impsNtB9_7Display3fmt
libstd-a4a285076b042e1f.so:_RNvXs4_NtNtNtNtCsc6rNrONHOw_3std2os4unix3net6streamRNtB5_10UnixStreamNtNtBd_2io5Write14write_vectored
libstd-a4a285076b042e1f.so:_RNvXs4_NtNtNtNtCsc6rNrONHOw_3std2os4unix3net6streamRNtB5_10UnixStreamNtNtBd_2io5Write5write
libstd-a4a285076b042e1f.so:_RNvXs4_NtNtNtNtCsc6rNrONHOw_3std2os4unix3net9ancillaryNtB5_8MessagesNtNtNtNtCsc9UXYxZytPG_4core4iter6traits8iterator8Iterator4next
libstd-a4a285076b042e1f.so:_RNvXs4_NtNtNtNtCsc6rNrONHOw_3std3sys2io11kernel_copy5linuxRNtNtBd_2fs4FileNtB5_8CopyRead10properties
libstd-a4a285076b042e1f.so:_RNvXs4_NtNtNtNtNtCsc6rNrONHOw_3std3sys7process4unix6common13cstring_arrayNtB5_11CStringIterNtNtNtNtCsc9UXYxZytPG_4core4iter6traits8iterator8Iterator4next
libstd-a4a285076b042e1f.so:_RNvXs4_NtNtNtNtNtCsc6rNrONHOw_3std3sys7process4unix6common13cstring_arrayNtB5_11CStringIterNtNtNtNtCsc9UXYxZytPG_4core4iter6traits8iterator8Iterator9size_hint
libstd-a4a285076b042e1f.so:_RNvXs4i_NtCs55LTYJXEnzY_5gimli9constantsNtB6_5DwIdxNtNtCsc9UXYxZytPG_4core3fmt7Display3fmt
libstd-a4a285076b042e1f.so:_RNvXs4u_NtCs55LTYJXEnzY_5gimli9constantsNtB6_11DwDefaultedNtNtCsc9UXYxZytPG_4core3fmt7Display3fmt
libstd-a4a285076b042e1f.so:_RNvXs54_NtCs55LTYJXEnzY_5gimli9constantsNtB6_6DwLnctNtNtCsc9UXYxZytPG_4core3fmt7Display3fmt
libstd-a4a285076b042e1f.so:_RNvXs5E_NtCs55LTYJXEnzY_5gimli9constantsNtB6_5DwRleNtNtCsc9UXYxZytPG_4core3fmt7Display3fmt
libstd-a4a285076b042e1f.so:_RNvXs5Q_NtCs55LTYJXEnzY_5gimli9constantsNtB6_4DwOpNtNtCsc9UXYxZytPG_4core3fmt7Display3fmt
libstd-a4a285076b042e1f.so:_RNvXs5_NtCs3jZe4LgnEve_6object4readNtB5_11SymbolIndexNtNtCsc9UXYxZytPG_4core3fmt7Display3fmt
libstd-a4a285076b042e1f.so:_RNvXs5_NtCsc6rNrONHOw_3std3envNtB5_10SplitPathsNtNtCsc9UXYxZytPG_4core3fmt5Debug3fmt
libstd-a4a285076b042e1f.so:_RNvXs5_NtCsc9UXYxZytPG_4core3patsNtB5_12RangePattern7sub_one
libstd-a4a285076b042e1f.so:_RNvXs5_NtNtCsc6rNrONHOw_3std2io4pipeNtB5_10PipeReaderNtB7_4Read11read_to_end
libstd-a4a285076b042e1f.so:_RNvXs5_NtNtCsc6rNrONHOw_3std2io4pipeNtB5_10PipeReaderNtB7_4Read13read_vectored
libstd-a4a285076b042e1f.so:_RNvXs5_NtNtCsc6rNrONHOw_3std2io4pipeNtB5_10PipeReaderNtB7_4Read4read
libstd-a4a285076b042e1f.so:_RNvXs5_NtNtCsc6rNrONHOw_3std2io4pipeNtB5_10PipeReaderNtB7_4Read8read_buf
libstd-a4a285076b042e1f.so:_RNvXs5_NtNtCsc6rNrONHOw_3std3net11socket_addrTNtNtCskIlJ6Bf8u3b_5alloc6string6StringtENtB5_13ToSocketAddrs15to_socket_addrs
libstd-a4a285076b042e1f.so:_RNvXs5_NtNtCsc9UXYxZytPG_4core3fmt3numiNtB7_5Octal3fmt
libstd-a4a285076b042e1f.so:_RNvXs5_NtNtCsc9UXYxZytPG_4core3fmt5floatfNtB7_8UpperExp3fmt
libstd-a4a285076b042e1f.so:_RNvXs5_NtNtCsc9UXYxZytPG_4core3net11socket_addrNtB5_10SocketAddrNtNtB9_3fmt5Debug3fmt
libstd-a4a285076b042e1f.so:_RNvXs5_NtNtCsc9UXYxZytPG_4core3num6bignumNtB5_8Big32x40NtNtB9_3cmp10PartialOrd11partial_cmp
libstd-a4a285076b042e1f.so:_RNvXs5_NtNtCsc9UXYxZytPG_4core4char7convertNtB5_14ParseCharErrorNtNtB9_3fmt7Display3fmt
libstd-a4a285076b042e1f.so:_RNvXs5_NtNtCsc9UXYxZytPG_4core6marker8varianceNtB5_28PhantomContravariantLifetimeNtNtB9_3fmt5Debug3fmt
libstd-a4a285076b042e1f.so:_RNvXs5_NtNtNtCsc6rNrONHOw_3std2os4unix2fsNtNtBb_2fs8DirEntryNtB5_12DirEntryExt213file_name_ref
libstd-a4a285076b042e1f.so:_RNvXs5_NtNtNtCsc6rNrONHOw_3std2os5linux7processNtB5_5PidFdNtNtNtB9_2fd5owned4AsFd5as_fd
libstd-a4a285076b042e1f.so:_RNvXs5_NtNtNtCsc9UXYxZytPG_4core3num6bignum5testsNtB5_6Big8x3NtNtBb_3fmt5Debug3fmt
libstd-a4a285076b042e1f.so:_RNvXs5_NtNtNtNtCsc6rNrONHOw_3std3sys2io11kernel_copy5linuxNtNtBd_2fs4FileNtB5_9CopyWrite10properties
libstd-a4a285076b042e1f.so:_RNvXs5_NtNtNtNtCsc6rNrONHOw_3std3sys7process4unix4unixNtB5_15ExitStatusErrorNtNtCsc9UXYxZytPG_4core3fmt5Debug3fmt
libstd-a4a285076b042e1f.so:_RNvXs5_NtNtNtNtNtCsc6rNrONHOw_3std3sys3net10connection6socket4unixNtB5_6SocketNtNtNtNtBf_2os2fd3raw9FromRawFd11from_raw_fd
libstd-a4a285076b042e1f.so:_RNvXs5_NtNtNtNtNtCsc6rNrONHOw_3std3sys7process4unix6common13cstring_arrayNtB5_11CStringIterNtNtNtNtCsc9UXYxZytPG_4core4iter6traits10exact_size17ExactSizeIterator3len
libstd-a4a285076b042e1f.so:_RNvXs5g_NtCs55LTYJXEnzY_5gimli9constantsNtB6_9DwMacinfoNtNtCsc9UXYxZytPG_4core3fmt7Display3fmt
libstd-a4a285076b042e1f.so:_RNvXs5s_NtCs55LTYJXEnzY_5gimli9constantsNtB6_7DwMacroNtNtCsc9UXYxZytPG_4core3fmt7Display3fmt
libstd-a4a285076b042e1f.so:_RNvXs62_NtCs55LTYJXEnzY_5gimli9constantsNtB6_6DwEhPeNtNtCsc9UXYxZytPG_4core3fmt7Display3fmt
libstd-a4a285076b042e1f.so:_RNvXs6_NtCsc6rNrONHOw_3std2fsNtB5_4FileNtNtCsc9UXYxZytPG_4core3fmt5Debug3fmt
libstd-a4a285076b042e1f.so:_RNvXs6_NtCsc6rNrONHOw_3std3envNtB5_14JoinPathsErrorNtNtCsc9UXYxZytPG_4core3fmt7Display3fmt
libstd-a4a285076b042e1f.so:_RNvXs6_NtCsc6rNrONHOw_3std4timeNtB5_10SystemTimeINtNtNtCsc9UXYxZytPG_4core3ops5arith3AddNtNtBR_4time8DurationE3add
libstd-a4a285076b042e1f.so:_RNvXs6_NtCsc9UXYxZytPG_4core3patlNtB5_12RangePattern7sub_one
libstd-a4a285076b042e1f.so:_RNvXs6_NtNtCsc6rNrONHOw_3std2io4pipeRNtB5_10PipeWriterNtB7_5Write14write_vectored
libstd-a4a285076b042e1f.so:_RNvXs6_NtNtCsc6rNrONHOw_3std2io4pipeRNtB5_10PipeWriterNtB7_5Write5write
libstd-a4a285076b042e1f.so:_RNvXs6_NtNtCsc6rNrONHOw_3std2io4utilNtB5_6RepeatNtNtCsc9UXYxZytPG_4core3fmt5Debug3fmt
libstd-a4a285076b042e1f.so:_RNvXs6_NtNtCsc6rNrONHOw_3std2io5errorNtNtB5_13repr_unpacked4ReprNtNtCsc9UXYxZytPG_4core3fmt5Debug3fmt
libstd-a4a285076b042e1f.so:_RNvXs6_NtNtCsc6rNrONHOw_3std2io5stdioNtB5_9StdinLockNtB7_4Read10read_exact
libstd-a4a285076b042e1f.so:_RNvXs6_NtNtCsc6rNrONHOw_3std2io5stdioNtB5_9StdinLockNtB7_4Read11read_to_end
libstd-a4a285076b042e1f.so:_RNvXs6_NtNtCsc6rNrONHOw_3std2io5stdioNtB5_9StdinLockNtB7_4Read13read_vectored
libstd-a4a285076b042e1f.so:_RNvXs6_NtNtCsc6rNrONHOw_3std2io5stdioNtB5_9StdinLockNtB7_4Read14read_buf_exact
libstd-a4a285076b042e1f.so:_RNvXs6_NtNtCsc6rNrONHOw_3std2io5stdioNtB5_9StdinLockNtB7_4Read14read_to_string
libstd-a4a285076b042e1f.so:_RNvXs6_NtNtCsc6rNrONHOw_3std2io5stdioNtB5_9StdinLockNtB7_4Read4read
libstd-a4a285076b042e1f.so:_RNvXs6_NtNtCsc6rNrONHOw_3std2io5stdioNtB5_9StdinLockNtB7_4Read8read_buf
libstd-a4a285076b042e1f.so:_RNvXs6_NtNtCsc6rNrONHOw_3std3net11socket_addreNtB5_13ToSocketAddrs15to_socket_addrs
libstd-a4a285076b042e1f.so:_RNvXs6_NtNtCsc6rNrONHOw_3std3net3tcpNtB5_9TcpStreamNtNtCsc9UXYxZytPG_4core3fmt5Debug3fmt
libstd-a4a285076b042e1f.so:_RNvXs6_NtNtCsc9UXYxZytPG_4core3fmt3numjNtB7_8LowerHex3fmt
libstd-a4a285076b042e1f.so:_RNvXs6_NtNtCsc9UXYxZytPG_4core3fmt5floatdNtB7_5Debug3fmt
libstd-a4a285076b042e1f.so:_RNvXs6_NtNtCsc9UXYxZytPG_4core3net11socket_addrNtB5_12SocketAddrV4NtNtB9_3fmt7Display3fmt
libstd-a4a285076b042e1f.so:_RNvXs6_NtNtCsc9UXYxZytPG_4core3net6parserNtNtB7_11socket_addr12SocketAddrV4NtNtNtB9_3str6traits7FromStr8from_str
libstd-a4a285076b042e1f.so:_RNvXs6_NtNtCsc9UXYxZytPG_4core3net7ip_addrNtB5_8Ipv4AddrNtNtB9_3fmt7Display3fmt
libstd-a4a285076b042e1f.so:_RNvXs6_NtNtCsc9UXYxZytPG_4core3num6bignumNtB5_8Big32x40NtNtB9_3cmp3Ord3cmp
libstd-a4a285076b042e1f.so:_RNvXs6_NtNtNtCs3jZe4LgnEve_6object4read2pe6importNtB5_27DelayLoadDescriptorIteratorNtNtNtNtCsc9UXYxZytPG_4core4iter6traits8iterator8Iterator4next
libstd-a4a285076b042e1f.so:_RNvXs6_NtNtNtCs3jZe4LgnEve_6object4read3elf10attributesNtB5_22AttributeIndexIteratorNtNtNtNtCsc9UXYxZytPG_4core4iter6traits8iterator8Iterator4next
libstd-a4a285076b042e1f.so:_RNvXs6_NtNtNtCsc6rNrONHOw_3std2os2fd5ownedNtB5_10BorrowedFdNtNtCsc9UXYxZytPG_4core3fmt5Debug3fmt
libstd-a4a285076b042e1f.so:_RNvXs6_NtNtNtCsc6rNrONHOw_3std3sys2fd4unixNtB5_8FileDescNtNtNtNtBb_2os2fd3raw9FromRawFd11from_raw_fd
libstd-a4a285076b042e1f.so:_RNvXs6_NtNtNtNtCsc6rNrONHOw_3std3sys2io11kernel_copy5linuxRNtNtBd_2fs4FileNtB5_9CopyWrite10properties
libstd-a4a285076b042e1f.so:_RNvXs6_NtNtNtNtCsc6rNrONHOw_3std3sys3net10connection6socketNtB5_9TcpStreamNtNtCsc9UXYxZytPG_4core3fmt5Debug3fmt
libstd-a4a285076b042e1f.so:_RNvXs7_NtCsc6rNrONHOw_3std2fsRNtB5_4FileNtNtB7_2io4Read11read_to_end
libstd-a4a285076b042e1f.so:_RNvXs7_NtCsc6rNrONHOw_3std2fsRNtB5_4FileNtNtB7_2io4Read14read_to_string
libstd-a4a285076b042e1f.so:_RNvXs7_NtCsc6rNrONHOw_3std2ioNtB5_7IoSliceNtNtCsc9UXYxZytPG_4core3fmt5Debug3fmt
libstd-a4a285076b042e1f.so:_RNvXs7_NtCsc6rNrONHOw_3std4pathNtB5_10ComponentsNtNtCsc9UXYxZytPG_4core3fmt5Debug3fmt
libstd-a4a285076b042e1f.so:_RNvXs7_NtCsc6rNrONHOw_3std4timeNtB5_10SystemTimeINtNtNtCsc9UXYxZytPG_4core3ops5arith9AddAssignNtNtBR_4time8DurationE10add_assign
libstd-a4a285076b042e1f.so:_RNvXs7_NtCsc9UXYxZytPG_4core3fmtNtB5_9ArgumentsNtB5_5Debug3fmt
libstd-a4a285076b042e1f.so:_RNvXs7_NtCsc9UXYxZytPG_4core3patxNtB5_12RangePattern7sub_one
libstd-a4a285076b042e1f.so:_RNvXs7_NtNtCs55LTYJXEnzY_5gimli4read6abbrevNtB5_10AttributesNtNtCsc9UXYxZytPG_4core3fmt5Debug3fmt
libstd-a4a285076b042e1f.so:_RNvXs7_NtNtCsc6rNrONHOw_3std2io4pipeNtB5_10PipeWriterNtB7_5Write14write_vectored
libstd-a4a285076b042e1f.so:_RNvXs7_NtNtCsc6rNrONHOw_3std2io4pipeNtB5_10PipeWriterNtB7_5Write5write
libstd-a4a285076b042e1f.so:_RNvXs7_NtNtCsc6rNrONHOw_3std2io5errorNtB5_5ErrorNtNtCsc9UXYxZytPG_4core3fmt7Display3fmt
libstd-a4a285076b042e1f.so:_RNvXs7_NtNtCsc9UXYxZytPG_4core3fmt3numiNtB7_8LowerHex3fmt
libstd-a4a285076b042e1f.so:_RNvXs7_NtNtCsc9UXYxZytPG_4core3fmt5floatdNtB7_7Display3fmt
libstd-a4a285076b042e1f.so:_RNvXs7_NtNtCsc9UXYxZytPG_4core3net11socket_addrNtB5_12SocketAddrV4NtNtB9_3fmt5Debug3fmt
libstd-a4a285076b042e1f.so:_RNvXs7_NtNtCsc9UXYxZytPG_4core3net7ip_addrNtB5_8Ipv4AddrNtNtB9_3fmt5Debug3fmt
libstd-a4a285076b042e1f.so:_RNvXs7_NtNtCsc9UXYxZytPG_4core4sync6atomicNtB5_10AtomicBoolNtNtB9_3fmt5Debug3fmt
libstd-a4a285076b042e1f.so:_RNvXs7_NtNtCskIlJ6Bf8u3b_5alloc3ffi5c_strINtNtB9_5boxed3BoxNtNtNtCsc9UXYxZytPG_4core3ffi5c_str4CStrEINtNtB11_7convert4FromRBV_E4from
libstd-a4a285076b042e1f.so:_RNvXs7_NtNtNtCsc6rNrONHOw_3std2os2fd5ownedNtB5_7OwnedFdNtNtCsc9UXYxZytPG_4core3fmt5Debug3fmt
libstd-a4a285076b042e1f.so:_RNvXs7_NtNtNtNtCsc6rNrONHOw_3std2os4unix3net8listenerNtB5_8IncomingNtNtNtNtCsc9UXYxZytPG_4core4iter6traits8iterator8Iterator4next
libstd-a4a285076b042e1f.so:_RNvXs7_NtNtNtNtCsc6rNrONHOw_3std3sys7process4unix6commonNtB5_7CommandNtNtCsc9UXYxZytPG_4core3fmt5Debug3fmt
libstd-a4a285076b042e1f.so:_RNvXs8_NtCsc6rNrONHOw_3std2fsRNtB5_4FileNtNtB7_2io5Write14write_vectored
libstd-a4a285076b042e1f.so:_RNvXs8_NtCsc6rNrONHOw_3std2fsRNtB5_4FileNtNtB7_2io5Write5write
libstd-a4a285076b042e1f.so:_RNvXs8_NtCsc6rNrONHOw_3std4timeNtB5_10SystemTimeINtNtNtCsc9UXYxZytPG_4core3ops5arith3SubNtNtBR_4time8DurationE3sub
libstd-a4a285076b042e1f.so:_RNvXs8_NtCsc6rNrONHOw_3std7processNtB5_10ChildStdinNtNtCsc9UXYxZytPG_4core3fmt5Debug3fmt
libstd-a4a285076b042e1f.so:_RNvXs8_NtCsc9UXYxZytPG_4core3fmtNtB5_9ArgumentsNtB5_7Display3fmt
libstd-a4a285076b042e1f.so:_RNvXs8_NtCsc9UXYxZytPG_4core3patnNtB5_12RangePattern7sub_one
libstd-a4a285076b042e1f.so:_RNvXs8_NtCsc9UXYxZytPG_4core5errorNtB5_6SourceNtNtNtNtB7_4iter6traits8iterator8Iterator4next
libstd-a4a285076b042e1f.so:_RNvXs8_NtNtCs55LTYJXEnzY_5gimli4read6abbrevNtB5_10AttributesNtNtCsc9UXYxZytPG_4core3cmp9PartialEq2eq
libstd-a4a285076b042e1f.so:_RNvXs8_NtNtCsc6rNrONHOw_3std2io5errorNtB5_5ErrorNtNtCsc9UXYxZytPG_4core5error5Error5cause
libstd-a4a285076b042e1f.so:_RNvXs8_NtNtCsc6rNrONHOw_3std2io5errorNtB5_5ErrorNtNtCsc9UXYxZytPG_4core5error5Error6source
libstd-a4a285076b042e1f.so:_RNvXs8_NtNtCsc6rNrONHOw_3std2io5stdioNtB5_9StdinLockNtB7_7BufRead10read_until
libstd-a4a285076b042e1f.so:_RNvXs8_NtNtCsc6rNrONHOw_3std2io5stdioNtB5_9StdinLockNtB7_7BufRead7consume
libstd-a4a285076b042e1f.so:_RNvXs8_NtNtCsc6rNrONHOw_3std2io5stdioNtB5_9StdinLockNtB7_7BufRead8fill_buf
libstd-a4a285076b042e1f.so:_RNvXs8_NtNtCsc6rNrONHOw_3std2io5stdioNtB5_9StdinLockNtB7_7BufRead9read_line
libstd-a4a285076b042e1f.so:_RNvXs8_NtNtCsc6rNrONHOw_3std3net3tcpNtB5_8IncomingNtNtNtNtCsc9UXYxZytPG_4core4iter6traits8iterator8Iterator4next
libstd-a4a285076b042e1f.so:_RNvXs8_NtNtCsc9UXYxZytPG_4core3fmt3numjNtB7_8UpperHex3fmt
libstd-a4a285076b042e1f.so:_RNvXs8_NtNtCsc9UXYxZytPG_4core3fmt5floatdNtB7_8LowerExp3fmt
libstd-a4a285076b042e1f.so:_RNvXs8_NtNtCsc9UXYxZytPG_4core3net11socket_addrNtB5_12SocketAddrV6NtNtB9_3fmt7Display3fmt
libstd-a4a285076b042e1f.so:_RNvXs8_NtNtCsc9UXYxZytPG_4core3net6parserNtNtB7_11socket_addr12SocketAddrV6NtNtNtB9_3str6traits7FromStr8from_str
libstd-a4a285076b042e1f.so:_RNvXs8_NtNtCsc9UXYxZytPG_4core4char7convertNtB5_16CharTryFromErrorNtNtB9_3fmt7Display3fmt
libstd-a4a285076b042e1f.so:_RNvXs8_NtNtCskIlJ6Bf8u3b_5alloc3ffi5c_strINtNtB9_5boxed3BoxNtNtNtCsc9UXYxZytPG_4core3ffi5c_str4CStrEINtNtB11_7convert4FromQBV_E4from
libstd-a4a285076b042e1f.so:_RNvXs8_NtNtNtCsc9UXYxZytPG_4core3fmt3num3impmNtB9_7Display3fmt
libstd-a4a285076b042e1f.so:_RNvXs8_NtNtNtNtCsc6rNrONHOw_3std3sys7process4unix6commonNtB5_8ExitCodeNtNtCsc9UXYxZytPG_4core3fmt5Debug3fmt
libstd-a4a285076b042e1f.so:_RNvXs9_NtCsc6rNrONHOw_3std2fsRNtB5_4FileNtNtB7_2io4Seek10stream_len
libstd-a4a285076b042e1f.so:_RNvXs9_NtCsc6rNrONHOw_3std2fsRNtB5_4FileNtNtB7_2io4Seek15stream_position
libstd-a4a285076b042e1f.so:_RNvXs9_NtCsc6rNrONHOw_3std2fsRNtB5_4FileNtNtB7_2io4Seek4seek
libstd-a4a285076b042e1f.so:_RNvXs9_NtCsc6rNrONHOw_3std4timeNtB5_10SystemTimeINtNtNtCsc9UXYxZytPG_4core3ops5arith9SubAssignNtNtBR_4time8DurationE10sub_assign
libstd-a4a285076b042e1f.so:_RNvXs9_NtCsc6rNrONHOw_3std7processNtB5_11ChildStdoutNtNtB7_2io4Read11read_to_end
libstd-a4a285076b042e1f.so:_RNvXs9_NtCsc6rNrONHOw_3std7processNtB5_11ChildStdoutNtNtB7_2io4Read13read_vectored
libstd-a4a285076b042e1f.so:_RNvXs9_NtCsc6rNrONHOw_3std7processNtB5_11ChildStdoutNtNtB7_2io4Read4read
libstd-a4a285076b042e1f.so:_RNvXs9_NtCsc6rNrONHOw_3std7processNtB5_11ChildStdoutNtNtB7_2io4Read8read_buf
libstd-a4a285076b042e1f.so:_RNvXs9_NtCsc9UXYxZytPG_4core3patiNtB5_12RangePattern7sub_one
libstd-a4a285076b042e1f.so:_RNvXs9_NtCsc9UXYxZytPG_4core5sliceNtB5_19GetDisjointMutErrorNtNtB7_3fmt7Display3fmt
libstd-a4a285076b042e1f.so:_RNvXs9_NtNtCsc6rNrONHOw_3std2io5stdioNtB5_9StdinLockNtNtCsc9UXYxZytPG_4core3fmt5Debug3fmt
libstd-a4a285076b042e1f.so:_RNvXs9_NtNtCsc6rNrONHOw_3std3ffi6os_strNtB5_8OsStringNtNtCsc9UXYxZytPG_4core3fmt5Debug3fmt
libstd-a4a285076b042e1f.so:_RNvXs9_NtNtCsc6rNrONHOw_3std3net11socket_addrNtNtCskIlJ6Bf8u3b_5alloc6string6StringNtB5_13ToSocketAddrs15to_socket_addrs
libstd-a4a285076b042e1f.so:_RNvXs9_NtNtCsc9UXYxZytPG_4core3fmt3numiNtB7_8UpperHex3fmt
libstd-a4a285076b042e1f.so:_RNvXs9_NtNtCsc9UXYxZytPG_4core3fmt5floatdNtB7_8UpperExp3fmt
libstd-a4a285076b042e1f.so:_RNvXs9_NtNtCsc9UXYxZytPG_4core3net11socket_addrNtB5_12SocketAddrV6NtNtB9_3fmt5Debug3fmt
libstd-a4a285076b042e1f.so:_RNvXs9_NtNtCsc9UXYxZytPG_4core3num6bignumNtB5_8Big32x40NtNtB9_3fmt5Debug3fmt
libstd-a4a285076b042e1f.so:_RNvXs9_NtNtCsc9UXYxZytPG_4core4task4wakeNtB5_5WakerNtNtB9_3fmt5Debug3fmt
libstd-a4a285076b042e1f.so:_RNvXs9_NtNtCsc9UXYxZytPG_4core6marker8varianceNtB5_24PhantomInvariantLifetimeNtNtB9_3fmt5Debug3fmt
libstd-a4a285076b042e1f.so:_RNvXs9_NtNtNtCs3jZe4LgnEve_6object4read5macho10dyld_cacheNtB5_14DyldRelocationNtNtCsc9UXYxZytPG_4core3fmt5Debug3fmt
libstd-a4a285076b042e1f.so:_RNvXs9_NtNtNtCs3jZe4LgnEve_6object4read5xcoff6symbolNtNtBb_5xcoff8Symbol32NtB5_6Symbol11name_offset
libstd-a4a285076b042e1f.so:_RNvXs9_NtNtNtCsc6rNrONHOw_3std3sys2fs4unixNtB5_8FileTypeNtNtCsc9UXYxZytPG_4core3fmt5Debug3fmt
libstd-a4a285076b042e1f.so:_RNvXs9_NtNtNtCsc9UXYxZytPG_4core3fmt3num3implNtB9_7Display3fmt
libstd-a4a285076b042e1f.so:_RNvXs9_NtNtNtNtCsc6rNrONHOw_3std3sys3net10connection6socketNtB5_11TcpListenerNtNtCsc9UXYxZytPG_4core3fmt5Debug3fmt
libstd-a4a285076b042e1f.so:_RNvXsA_NtNtCsc9UXYxZytPG_4core3fmt3numyNtB7_5Octal3fmt
libstd-a4a285076b042e1f.so:_RNvXsA_NtNtNtCsc6rNrONHOw_3std2os2fd5ownedNtNtNtBb_2io4pipe10PipeWriterNtB5_4AsFd5as_fd
libstd-a4a285076b042e1f.so:_RNvXsA_NtNtNtCsc9UXYxZytPG_4core3fmt3num3impjNtB9_8LowerExp3fmt
libstd-a4a285076b042e1f.so:_RNvXsB_NtNtCsc9UXYxZytPG_4core3fmt3numxNtB7_5Octal3fmt
libstd-a4a285076b042e1f.so:_RNvXsB_NtNtCsc9UXYxZytPG_4core3num11niche_typesNtB5_15NonZeroU32InnerNtNtB9_3fmt5Debug3fmt
libstd-a4a285076b042e1f.so:_RNvXsB_NtNtNtCsc9UXYxZytPG_4core3fmt3num3impiNtB9_8UpperExp3fmt
libstd-a4a285076b042e1f.so:_RNvXsC_NtCs55LTYJXEnzY_5gimli9constantsNtB5_5DwCfaNtNtCsc9UXYxZytPG_4core3fmt7Display3fmt
libstd-a4a285076b042e1f.so:_RNvXsC_NtNtCsc9UXYxZytPG_4core3fmt3numyNtB7_8LowerHex3fmt
libstd-a4a285076b042e1f.so:_RNvXsC_NtNtNtCsc9UXYxZytPG_4core3fmt3num3impjNtB9_8UpperExp3fmt
libstd-a4a285076b042e1f.so:_RNvXsD_NtCskIlJ6Bf8u3b_5alloc3vecINtB5_3VechEINtNtCsc9UXYxZytPG_4core7convert4FromReE4from
libstd-a4a285076b042e1f.so:_RNvXsD_NtNtCsc6rNrONHOw_3std3ffi6os_strReINtNtCsc9UXYxZytPG_4core7convert7TryFromRNtB5_5OsStrE8try_from
libstd-a4a285076b042e1f.so:_RNvXsD_NtNtCsc9UXYxZytPG_4core3fmt3numxNtB7_8LowerHex3fmt
libstd-a4a285076b042e1f.so:_RNvXsD_NtNtNtCsc9UXYxZytPG_4core3fmt3num3impxNtB9_8LowerExp3fmt
libstd-a4a285076b042e1f.so:_RNvXsE_NtCsc9UXYxZytPG_4core4charNtB5_11ToUppercaseNtNtNtNtB7_4iter6traits8iterator8Iterator10advance_by
libstd-a4a285076b042e1f.so:_RNvXsE_NtCsc9UXYxZytPG_4core4charNtB5_11ToUppercaseNtNtNtNtB7_4iter6traits8iterator8Iterator24___iterator_get_unchecked
libstd-a4a285076b042e1f.so:_RNvXsE_NtCsc9UXYxZytPG_4core4charNtB5_11ToUppercaseNtNtNtNtB7_4iter6traits8iterator8Iterator4last
libstd-a4a285076b042e1f.so:_RNvXsE_NtCsc9UXYxZytPG_4core4charNtB5_11ToUppercaseNtNtNtNtB7_4iter6traits8iterator8Iterator4next
libstd-a4a285076b042e1f.so:_RNvXsE_NtCsc9UXYxZytPG_4core4charNtB5_11ToUppercaseNtNtNtNtB7_4iter6traits8iterator8Iterator5count
libstd-a4a285076b042e1f.so:_RNvXsE_NtNtCsc9UXYxZytPG_4core3fmt3numyNtB7_8UpperHex3fmt
libstd-a4a285076b042e1f.so:_RNvXsE_NtNtNtCsc9UXYxZytPG_4core3fmt3num3impyNtB9_8LowerExp3fmt
libstd-a4a285076b042e1f.so:_RNvXsF_NtCsc9UXYxZytPG_4core4charNtB5_11ToUppercaseNtNtNtNtB7_4iter6traits12double_ended19DoubleEndedIterator15advance_back_by
libstd-a4a285076b042e1f.so:_RNvXsF_NtCsc9UXYxZytPG_4core4charNtB5_11ToUppercaseNtNtNtNtB7_4iter6traits12double_ended19DoubleEndedIterator9next_back
libstd-a4a285076b042e1f.so:_RNvXsF_NtNtCsc9UXYxZytPG_4core3fmt3numxNtB7_8UpperHex3fmt
libstd-a4a285076b042e1f.so:_RNvXsF_NtNtNtCsc9UXYxZytPG_4core3fmt3num3impxNtB9_8UpperExp3fmt
libstd-a4a285076b042e1f.so:_RNvXsG_NtCsc6rNrONHOw_3std4pathNtB5_7PathBufNtNtCsc9UXYxZytPG_4core3fmt5Debug3fmt
libstd-a4a285076b042e1f.so:_RNvXsG_NtNtCsc9UXYxZytPG_4core3fmt3numoNtB7_6Binary3fmt
libstd-a4a285076b042e1f.so:_RNvXsG_NtNtNtCsc9UXYxZytPG_4core3fmt3num3impyNtB9_8UpperExp3fmt
libstd-a4a285076b042e1f.so:_RNvXsH_NtNtCsc9UXYxZytPG_4core3fmt3numnNtB7_6Binary3fmt
libstd-a4a285076b042e1f.so:_RNvXsI_NtNtCsc9UXYxZytPG_4core3fmt3numoNtB7_5Octal3fmt
libstd-a4a285076b042e1f.so:_RNvXsI_NtNtCsc9UXYxZytPG_4core3num11niche_typesNtB5_15NonZeroU64InnerNtNtB9_3fmt5Debug3fmt
libstd-a4a285076b042e1f.so:_RNvXsJ_NtNtCsc9UXYxZytPG_4core3fmt3numnNtB7_5Octal3fmt
libstd-a4a285076b042e1f.so:_RNvXsK_NtCskIlJ6Bf8u3b_5alloc6stringNtB5_6StringINtNtCsc9UXYxZytPG_4core7convert4FromINtNtB7_5boxed3BoxeEE4from
libstd-a4a285076b042e1f.so:_RNvXsK_NtNtCsc9UXYxZytPG_4core3fmt3numoNtB7_8LowerHex3fmt
libstd-a4a285076b042e1f.so:_RNvXsK_NtNtCsc9UXYxZytPG_4core4sync6atomicNtB5_8AtomicI8NtNtB9_3fmt5Debug3fmt
libstd-a4a285076b042e1f.so:_RNvXsL_NtCsc6rNrONHOw_3std7processNtB5_10ExitStatusNtNtCsc9UXYxZytPG_4core3fmt7Display3fmt
libstd-a4a285076b042e1f.so:_RNvXsL_NtCskIlJ6Bf8u3b_5alloc6stringINtNtB7_5boxed3BoxeEINtNtCsc9UXYxZytPG_4core7convert4FromNtB5_6StringE4from
libstd-a4a285076b042e1f.so:_RNvXsL_NtNtCsc9UXYxZytPG_4core3fmt3numnNtB7_8LowerHex3fmt
libstd-a4a285076b042e1f.so:_RNvXsM_NtCskIlJ6Bf8u3b_5alloc6stringNtB5_6StringINtNtCsc9UXYxZytPG_4core7convert4FromINtNtB7_6borrow3CoweEE4from
libstd-a4a285076b042e1f.so:_RNvXsM_NtNtCsc9UXYxZytPG_4core3fmt3numoNtB7_8UpperHex3fmt
libstd-a4a285076b042e1f.so:_RNvXsN_NtNtCsc9UXYxZytPG_4core3fmt3numnNtB7_8UpperHex3fmt
libstd-a4a285076b042e1f.so:_RNvXsN_NtNtCsc9UXYxZytPG_4core3str4iterNtB5_11EncodeUtf16NtNtB9_3fmt5Debug3fmt
libstd-a4a285076b042e1f.so:_RNvXsO_NtCs55LTYJXEnzY_5gimli9constantsNtB5_10DwChildrenNtNtCsc9UXYxZytPG_4core3fmt7Display3fmt
libstd-a4a285076b042e1f.so:_RNvXsO_NtNtCsc6rNrONHOw_3std3ffi6os_strNtB5_5OsStrNtNtCsc9UXYxZytPG_4core3fmt5Debug3fmt
libstd-a4a285076b042e1f.so:_RNvXsP_NtCsc6rNrONHOw_3std7processNtB5_15ExitStatusErrorNtNtCsc9UXYxZytPG_4core3fmt7Display3fmt
libstd-a4a285076b042e1f.so:_RNvXsP_NtNtCsc6rNrONHOw_3std3ffi6os_strNtB5_7DisplayNtNtCsc9UXYxZytPG_4core3fmt5Debug3fmt
libstd-a4a285076b042e1f.so:_RNvXsP_NtNtCsc9UXYxZytPG_4core3num11niche_typesNtB5_16NonZeroU128InnerNtNtB9_3fmt5Debug3fmt
libstd-a4a285076b042e1f.so:_RNvXsP_NtNtCsc9UXYxZytPG_4core4sync6atomicNtB5_8AtomicU8NtNtB9_3fmt5Debug3fmt
libstd-a4a285076b042e1f.so:_RNvXsQ_NtNtCsc6rNrONHOw_3std3ffi6os_strNtB5_7DisplayNtNtCsc9UXYxZytPG_4core3fmt7Display3fmt
libstd-a4a285076b042e1f.so:_RNvXsR_NtCs7HZDCChmAB0_9hashbrown3rawNtB5_18RawIterHashIndicesNtNtCsc9UXYxZytPG_4core7default7Default7default
libstd-a4a285076b042e1f.so:_RNvXsU_NtCs7HZDCChmAB0_9hashbrown3rawNtB5_18RawIterHashIndicesNtNtNtNtCsc9UXYxZytPG_4core4iter6traits8iterator8Iterator4next
libstd-a4a285076b042e1f.so:_RNvXsU_NtNtCsc9UXYxZytPG_4core3num7nonzeroINtB5_7NonZerohENtNtNtB9_3str6traits7FromStr8from_str
libstd-a4a285076b042e1f.so:_RNvXsU_NtNtCsc9UXYxZytPG_4core4sync6atomicNtB5_9AtomicI16NtNtB9_3fmt5Debug3fmt
libstd-a4a285076b042e1f.so:_RNvXsV_NtCskIlJ6Bf8u3b_5alloc6stringNtB5_6StringINtNtCsc9UXYxZytPG_4core7convert7TryFromINtNtB7_3vec3VechEE8try_from
libstd-a4a285076b042e1f.so:_RNvXsW_NtNtCsc9UXYxZytPG_4core3num11niche_typesNtB5_14NonZeroI8InnerNtNtB9_3fmt5Debug3fmt
libstd-a4a285076b042e1f.so:_RNvXsX_NtCsc9UXYxZytPG_4core5arrayAhj2_NtNtB7_7default7Default7defaultCsloXJXCvFm1O_11miniz_oxide
libstd-a4a285076b042e1f.so:_RNvXsX_NtCskIlJ6Bf8u3b_5alloc6stringNtB5_9IntoCharsNtNtCsc9UXYxZytPG_4core3fmt5Debug3fmt
libstd-a4a285076b042e1f.so:_RNvXsZ_NtNtCsc9UXYxZytPG_4core4sync6atomicNtB5_9AtomicU16NtNtB9_3fmt5Debug3fmt
libstd-a4a285076b042e1f.so:_RNvXs_Cs46PeV0vGECM_14rustc_demangleNtB4_13DemangleStyleNtNtCsc9UXYxZytPG_4core3fmt7Display3fmt
libstd-a4a285076b042e1f.so:_RNvXs_NtCsc6rNrONHOw_3std2fsNtB4_12TryLockErrorNtNtCsc9UXYxZytPG_4core3fmt5Debug3fmt
libstd-a4a285076b042e1f.so:_RNvXs_NtCsc6rNrONHOw_3std3envNtB4_4VarsNtNtCsc9UXYxZytPG_4core3fmt5Debug3fmt
libstd-a4a285076b042e1f.so:_RNvXs_NtCsc6rNrONHOw_3std4timeNtB4_7InstantINtNtNtCsc9UXYxZytPG_4core3ops5arith3AddNtNtBM_4time8DurationE3add
libstd-a4a285076b042e1f.so:_RNvXs_NtCsc6rNrONHOw_3std5panicNtB4_13PanicHookInfoNtNtCsc9UXYxZytPG_4core3fmt7Display3fmt
libstd-a4a285076b042e1f.so:_RNvXs_NtCsc6rNrONHOw_3std9backtraceNtB4_14BacktraceFrameNtNtCsc9UXYxZytPG_4core3fmt5Debug3fmt
libstd-a4a285076b042e1f.so:_RNvXs_NtCsc9UXYxZytPG_4core3anyDNtB4_3AnyEL_NtNtB6_3fmt5Debug3fmt
libstd-a4a285076b042e1f.so:_RNvXs_NtCsc9UXYxZytPG_4core5allocNtB4_10AllocErrorNtNtB6_3fmt7Display3fmt
libstd-a4a285076b042e1f.so:_RNvXs_NtCseLWYKOMA8NS_6memchr6memmemNtB4_8FindIterNtNtNtNtCsc9UXYxZytPG_4core4iter6traits8iterator8Iterator4next
libstd-a4a285076b042e1f.so:_RNvXs_NtCseLWYKOMA8NS_6memchr6memmemNtB4_8FindIterNtNtNtNtCsc9UXYxZytPG_4core4iter6traits8iterator8Iterator9size_hint
libstd-a4a285076b042e1f.so:_RNvXs_NtCskIlJ6Bf8u3b_5alloc4wtf8NtB4_7Wtf8BufNtNtNtCsc9UXYxZytPG_4core3ops5deref8DerefMut9deref_mut
libstd-a4a285076b042e1f.so:_RNvXs_NtNtCs7HZDCChmAB0_9hashbrown7control3tagNtB4_3TagNtNtCsc9UXYxZytPG_4core3fmt5Debug3fmt
libstd-a4a285076b042e1f.so:_RNvXs_NtNtCsc6rNrONHOw_3std10sys_common4wstrNtB4_9WStrUnitsNtNtNtNtCsc9UXYxZytPG_4core4iter6traits8iterator8Iterator4next
libstd-a4a285076b042e1f.so:_RNvXs_NtNtCsc6rNrONHOw_3std12backtrace_rs9backtraceNtB4_5FrameNtNtCsc9UXYxZytPG_4core3fmt5Debug3fmt
libstd-a4a285076b042e1f.so:_RNvXs_NtNtCsc6rNrONHOw_3std2io5stdioNtB4_9StdoutRawNtB6_5Write14write_vectored
libstd-a4a285076b042e1f.so:_RNvXs_NtNtCsc6rNrONHOw_3std2io5stdioNtB4_9StdoutRawNtB6_5Write18write_all_vectored
libstd-a4a285076b042e1f.so:_RNvXs_NtNtCsc6rNrONHOw_3std2io5stdioNtB4_9StdoutRawNtB6_5Write5flush
libstd-a4a285076b042e1f.so:_RNvXs_NtNtCsc6rNrONHOw_3std2io5stdioNtB4_9StdoutRawNtB6_5Write5write
libstd-a4a285076b042e1f.so:_RNvXs_NtNtCsc6rNrONHOw_3std2io5stdioNtB4_9StdoutRawNtB6_5Write9write_all
libstd-a4a285076b042e1f.so:_RNvXs_NtNtCsc6rNrONHOw_3std2io5stdioNtB4_9StdoutRawNtB6_5Write9write_fmt
libstd-a4a285076b042e1f.so:_RNvXs_NtNtCsc6rNrONHOw_3std3net3tcpNtB4_9TcpStreamNtNtB8_2io4Read13read_vectored
libstd-a4a285076b042e1f.so:_RNvXs_NtNtCsc6rNrONHOw_3std3net3tcpNtB4_9TcpStreamNtNtB8_2io4Read4read
libstd-a4a285076b042e1f.so:_RNvXs_NtNtCsc6rNrONHOw_3std3net3tcpNtB4_9TcpStreamNtNtB8_2io4Read8read_buf
libstd-a4a285076b042e1f.so:_RNvXs_NtNtCsc6rNrONHOw_3std4sync7barrierNtB4_7BarrierNtNtCsc9UXYxZytPG_4core3fmt5Debug3fmt
libstd-a4a285076b042e1f.so:_RNvXs_NtNtCsc6rNrONHOw_3std4sync9nonpoisonNtB4_10WouldBlockNtNtCsc9UXYxZytPG_4core3fmt7Display3fmt
libstd-a4a285076b042e1f.so:_RNvXs_NtNtCsc6rNrONHOw_3std6thread5localNtB4_11AccessErrorNtNtCsc9UXYxZytPG_4core3fmt5Debug3fmt
libstd-a4a285076b042e1f.so:_RNvXs_NtNtCsc9UXYxZytPG_4core3fmt3numnNtB6_7Display3fmt
libstd-a4a285076b042e1f.so:_RNvXs_NtNtCsc9UXYxZytPG_4core3num6bignumtNtB4_7FullOps12full_div_rem
libstd-a4a285076b042e1f.so:_RNvXs_NtNtCsc9UXYxZytPG_4core3num7dec2fltNtB4_15ParseFloatErrorNtNtB8_3fmt7Display3fmt
libstd-a4a285076b042e1f.so:_RNvXs_NtNtCsc9UXYxZytPG_4core3ptr9alignmentNtB4_9AlignmentNtNtB8_3fmt5Debug3fmt
libstd-a4a285076b042e1f.so:_RNvXs_NtNtCsc9UXYxZytPG_4core3str4iterNtB4_5CharsNtNtB8_3fmt5Debug3fmt
libstd-a4a285076b042e1f.so:_RNvXs_NtNtCsc9UXYxZytPG_4core3str5errorNtB4_9Utf8ErrorNtNtB8_3fmt7Display3fmt
libstd-a4a285076b042e1f.so:_RNvXs_NtNtCsc9UXYxZytPG_4core5panic10panic_infoNtB4_9PanicInfoNtNtB8_3fmt7Display3fmt
libstd-a4a285076b042e1f.so:_RNvXs_NtNtCseLWYKOMA8NS_6memchr6memmem8searcherNtB4_8SearcherNtNtCsc9UXYxZytPG_4core3fmt5Debug3fmt
libstd-a4a285076b042e1f.so:_RNvXs_NtNtNtCs3jZe4LgnEve_6object4read2pe10relocationNtB4_23RelocationBlockIteratorNtNtNtNtCsc9UXYxZytPG_4core4iter6traits8iterator8Iterator4next
libstd-a4a285076b042e1f.so:_RNvXs_NtNtNtCs3jZe4LgnEve_6object4read2pe6exportNtB4_6ExportNtNtCsc9UXYxZytPG_4core3fmt5Debug3fmt
libstd-a4a285076b042e1f.so:_RNvXs_NtNtNtCsc6rNrONHOw_3std3sys2fd4unixRNtB4_8FileDescNtNtBa_2io4Read13read_vectored
libstd-a4a285076b042e1f.so:_RNvXs_NtNtNtCsc6rNrONHOw_3std3sys2fd4unixRNtB4_8FileDescNtNtBa_2io4Read4read
libstd-a4a285076b042e1f.so:_RNvXs_NtNtNtCsc6rNrONHOw_3std3sys2fd4unixRNtB4_8FileDescNtNtBa_2io4Read8read_buf
libstd-a4a285076b042e1f.so:_RNvXs_NtNtNtCsc6rNrONHOw_3std3sys3env6commonNtB4_3EnvNtNtCsc9UXYxZytPG_4core3fmt5Debug3fmt
libstd-a4a285076b042e1f.so:_RNvXs_NtNtNtCsc6rNrONHOw_3std3sys5stdio4unixNtB4_5StdinNtNtBa_2io4Read13read_vectored
libstd-a4a285076b042e1f.so:_RNvXs_NtNtNtCsc6rNrONHOw_3std3sys5stdio4unixNtB4_5StdinNtNtBa_2io4Read4read
libstd-a4a285076b042e1f.so:_RNvXs_NtNtNtCsc6rNrONHOw_3std3sys5stdio4unixNtB4_5StdinNtNtBa_2io4Read8read_buf
libstd-a4a285076b042e1f.so:_RNvXs_NtNtNtCsc6rNrONHOw_3std4sync4mpmc4zeroNtB4_9ZeroTokenNtNtCsc9UXYxZytPG_4core3fmt5Debug3fmt
libstd-a4a285076b042e1f.so:_RNvXs_NtNtNtCsc6rNrONHOw_3std4sync6poison7condvarNtB4_7CondvarNtNtCsc9UXYxZytPG_4core3fmt5Debug3fmt
libstd-a4a285076b042e1f.so:_RNvXs_NtNtNtCsc6rNrONHOw_3std4sync9nonpoison7condvarNtB4_7CondvarNtNtCsc9UXYxZytPG_4core3fmt5Debug3fmt
libstd-a4a285076b042e1f.so:_RNvXs_NtNtNtCsc9UXYxZytPG_4core3fmt3num3impaNtB8_7Display3fmt
libstd-a4a285076b042e1f.so:_RNvXs_NtNtNtCsc9UXYxZytPG_4core3num7dec2flt5floatfNtB4_8RawFloat15pow10_fast_path
libstd-a4a285076b042e1f.so:_RNvXs_NtNtNtCsc9UXYxZytPG_4core4iter8adapters6copiedINtB4_6CopiedINtNtB6_4take4TakeINtNtNtBa_5slice4iter4IterhEEENtNtNtB8_6traits8iterator8Iterator4nextCs55LTYJXEnzY_5gimli
libstd-a4a285076b042e1f.so:_RNvXs_NtNtNtNtCsc6rNrONHOw_3std12backtrace_rs9symbolize5gimli19parse_running_mmapsNtB4_9MapsEntryNtNtNtCsc9UXYxZytPG_4core3str6traits7FromStr8from_str
libstd-a4a285076b042e1f.so:_RNvXs_NtNtNtNtCsc6rNrONHOw_3std12backtrace_rs9symbolize5gimli4mmapNtB4_4MmapNtNtNtCsc9UXYxZytPG_4core3ops5deref5Deref5deref
libstd-a4a285076b042e1f.so:_RNvXs_NtNtNtNtCsc6rNrONHOw_3std2os3net9linux_ext3tcpNtNtNtBc_3net3tcp9TcpStreamNtB4_12TcpStreamExt11deferaccept
libstd-a4a285076b042e1f.so:_RNvXs_NtNtNtNtCsc6rNrONHOw_3std2os3net9linux_ext3tcpNtNtNtBc_3net3tcp9TcpStreamNtB4_12TcpStreamExt12set_quickack
libstd-a4a285076b042e1f.so:_RNvXs_NtNtNtNtCsc6rNrONHOw_3std2os3net9linux_ext3tcpNtNtNtBc_3net3tcp9TcpStreamNtB4_12TcpStreamExt15set_deferaccept
libstd-a4a285076b042e1f.so:_RNvXs_NtNtNtNtCsc6rNrONHOw_3std2os3net9linux_ext3tcpNtNtNtBc_3net3tcp9TcpStreamNtB4_12TcpStreamExt8quickack
libstd-a4a285076b042e1f.so:_RNvXs_NtNtNtNtCsc6rNrONHOw_3std2os3net9linux_ext6socketNtNtNtNtBa_4unix3net6stream10UnixStreamNtB4_13UnixSocketExt12set_passcred
libstd-a4a285076b042e1f.so:_RNvXs_NtNtNtNtCsc6rNrONHOw_3std2os3net9linux_ext6socketNtNtNtNtBa_4unix3net6stream10UnixStreamNtB4_13UnixSocketExt8passcred
libstd-a4a285076b042e1f.so:_RNvXs_NtNtNtNtCsc6rNrONHOw_3std2os4unix3net6streamNtB4_10UnixStreamNtNtCsc9UXYxZytPG_4core3fmt5Debug3fmt
libstd-a4a285076b042e1f.so:_RNvXs_NtNtNtNtCsc6rNrONHOw_3std2os4unix3net8datagramNtB4_12UnixDatagramNtNtCsc9UXYxZytPG_4core3fmt5Debug3fmt
libstd-a4a285076b042e1f.so:_RNvXs_NtNtNtNtCsc6rNrONHOw_3std3sys2fs4unix3cfmNtB4_18CachedFileMetadataNtNtBc_2io5Write14write_vectored
libstd-a4a285076b042e1f.so:_RNvXs_NtNtNtNtCsc6rNrONHOw_3std3sys2fs4unix3cfmNtB4_18CachedFileMetadataNtNtBc_2io5Write5write
libstd-a4a285076b042e1f.so:_RNvXs_NtNtNtNtCsc6rNrONHOw_3std3sys3net10connection6socketNtB4_10LookupHostNtNtNtNtCsc9UXYxZytPG_4core4iter6traits8iterator8Iterator4next
libstd-a4a285076b042e1f.so:_RNvXs_NtNtNtNtCsc6rNrONHOw_3std3sys3pal4unix14stack_overflowNtB4_7HandlerNtNtNtCsc9UXYxZytPG_4core3ops4drop4Drop4drop
libstd-a4a285076b042e1f.so:_RNvXs_NtNtNtNtCsc6rNrONHOw_3std3sys3pal4unix4timeNtB4_10SystemTimeNtNtCsc9UXYxZytPG_4core3fmt5Debug3fmt
libstd-a4a285076b042e1f.so:_RNvXs_NtNtNtNtCsc6rNrONHOw_3std3sys4sync4once5futexNtB4_15CompletionGuardNtNtNtCsc9UXYxZytPG_4core3ops4drop4Drop4drop
libstd-a4a285076b042e1f.so:_RNvXs_NtNtNtNtNtCsc6rNrONHOw_3std3sys7process4unix6common13cstring_arrayNtB4_12CStringArrayINtNtNtCsc9UXYxZytPG_4core3ops5index5IndexjE5index
libstd-a4a285076b042e1f.so:_RNvXs_NvMNtNtNtNtCsc6rNrONHOw_3std3sys7process4unix4unixNtNtB9_6common7Command11posix_spawnNtB4_14PosixSpawnattrNtNtNtCsc9UXYxZytPG_4core3ops4drop4Drop4drop
libstd-a4a285076b042e1f.so:_RNvXs_NvMs_NtNtCskIlJ6Bf8u3b_5alloc3ffi5c_strNtB9_7CString3newRShNtB4_11SpecNewImpl13spec_new_impl
libstd-a4a285076b042e1f.so:_RNvXs_NvMs_NtNtNtCsc6rNrONHOw_3std2io8buffered9bufwriterINtB9_9BufWriterpE9flush_bufNtB4_8BufGuardNtNtNtCsc9UXYxZytPG_4core3ops4drop4Drop4drop
libstd-a4a285076b042e1f.so:_RNvXs_NvNtCsc6rNrONHOw_3std9panicking13panic_handlerNtB4_19FormatStringPayloadNtNtCsc9UXYxZytPG_4core5panic12PanicPayload3get
libstd-a4a285076b042e1f.so:_RNvXs_NvNtCsc6rNrONHOw_3std9panicking13panic_handlerNtB4_19FormatStringPayloadNtNtCsc9UXYxZytPG_4core5panic12PanicPayload8take_box
libstd-a4a285076b042e1f.so:_RNvXs_NvNtCsc6rNrONHOw_3std9panicking13resume_unwindNtB4_9RewrapBoxNtNtCsc9UXYxZytPG_4core3fmt7Display3fmt
libstd-a4a285076b042e1f.so:_RNvXs_NvXsf_NtNtCskIlJ6Bf8u3b_5alloc5boxed7convertINtBc_3BoxDNtNtCsc9UXYxZytPG_4core5error5ErrorNtNtB11_6marker4SendNtB1y_4SyncEL_EINtNtB11_7convert4FromNtNtBe_6string6StringE4fromNtB4_11StringErrorNtNtB11_3fmt7Display3fmt
libstd-a4a285076b042e1f.so:_RNvXsa2_NtNtNtCsgD73w63XKKY_4libc4unix10linux_like5linuxNtB6_22___c_anonymous_ifr_ifruNtNtCsc9UXYxZytPG_4core3fmt5Debug3fmt
libstd-a4a285076b042e1f.so:_RNvXsa_NtCsc6rNrONHOw_3std2fsNtB5_4FileNtNtB7_2io4Read11read_to_end
libstd-a4a285076b042e1f.so:_RNvXsa_NtCsc6rNrONHOw_3std2fsNtB5_4FileNtNtB7_2io4Read13read_vectored
libstd-a4a285076b042e1f.so:_RNvXsa_NtCsc6rNrONHOw_3std2fsNtB5_4FileNtNtB7_2io4Read14read_to_string
libstd-a4a285076b042e1f.so:_RNvXsa_NtCsc6rNrONHOw_3std2fsNtB5_4FileNtNtB7_2io4Read4read
libstd-a4a285076b042e1f.so:_RNvXsa_NtCsc6rNrONHOw_3std2fsNtB5_4FileNtNtB7_2io4Read8read_buf
libstd-a4a285076b042e1f.so:_RNvXsa_NtCsc6rNrONHOw_3std3envNtB5_4ArgsNtNtNtNtCsc9UXYxZytPG_4core4iter6traits8iterator8Iterator4next
libstd-a4a285076b042e1f.so:_RNvXsa_NtCsc6rNrONHOw_3std4timeNtB5_10SystemTimeNtNtCsc9UXYxZytPG_4core3fmt5Debug3fmt
libstd-a4a285076b042e1f.so:_RNvXsa_NtCsc9UXYxZytPG_4core3anyNtB5_6TypeIdNtNtB7_3fmt5Debug3fmt
libstd-a4a285076b042e1f.so:_RNvXsa_NtCsc9UXYxZytPG_4core3pathNtB5_12RangePattern7sub_one
libstd-a4a285076b042e1f.so:_RNvXsa_NtCsc9UXYxZytPG_4core4timeNtB5_8DurationNtNtB7_3fmt5Debug3fmt
libstd-a4a285076b042e1f.so:_RNvXsa_NtCsc9UXYxZytPG_4core4wtf8NtB5_14Wtf8CodePointsNtNtB7_3fmt5Debug3fmt
libstd-a4a285076b042e1f.so:_RNvXsa_NtNtCs55LTYJXEnzY_5gimli4read6abbrevNtB5_10AttributesNtNtNtCsc9UXYxZytPG_4core3ops5deref5Deref5deref
libstd-a4a285076b042e1f.so:_RNvXsa_NtNtCsc6rNrONHOw_3std3net3tcpNtB5_12IntoIncomingNtNtNtNtCsc9UXYxZytPG_4core4iter6traits8iterator8Iterator4next
libstd-a4a285076b042e1f.so:_RNvXsa_NtNtCsc9UXYxZytPG_4core3fmt3numhNtB7_6Binary3fmt
libstd-a4a285076b042e1f.so:_RNvXsa_NtNtCsc9UXYxZytPG_4core3fmt5floatC3f16NtB7_5Debug3fmt
libstd-a4a285076b042e1f.so:_RNvXsa_NtNtCsc9UXYxZytPG_4core3net6parserNtNtB7_11socket_addr10SocketAddrNtNtNtB9_3str6traits7FromStr8from_str
libstd-a4a285076b042e1f.so:_RNvXsa_NtNtNtCs3jZe4LgnEve_6object4read5macho10dyld_cacheNtB5_18DyldRelocationAuthNtNtCsc9UXYxZytPG_4core3fmt5Debug3fmt
libstd-a4a285076b042e1f.so:_RNvXsaa_NtNtNtCsgD73w63XKKY_4libc4unix10linux_like5linuxNtB6_22___c_anonymous_ifc_ifcuNtNtCsc9UXYxZytPG_4core3fmt5Debug3fmt
libstd-a4a285076b042e1f.so:_RNvXsau_NtNtNtCsgD73w63XKKY_4libc4unix10linux_like5linuxNtB6_13tpacket_req_uNtNtCsc9UXYxZytPG_4core3fmt5Debug3fmt
libstd-a4a285076b042e1f.so:_RNvXsay_NtNtNtCsgD73w63XKKY_4libc4unix10linux_like5linuxNtB6_19tpacket_bd_header_uNtNtCsc9UXYxZytPG_4core3fmt5Debug3fmt
libstd-a4a285076b042e1f.so:_RNvXsb0_NtNtNtCsgD73w63XKKY_4libc4unix10linux_like5linuxNtB6_10iwreq_dataNtNtCsc9UXYxZytPG_4core3fmt5Debug3fmt
libstd-a4a285076b042e1f.so:_RNvXsb8_NtNtNtCsgD73w63XKKY_4libc4unix10linux_like5linuxNtB6_19___c_anonymous_iwreqNtNtCsc9UXYxZytPG_4core3fmt5Debug3fmt
libstd-a4a285076b042e1f.so:_RNvXsb_NtCsc6rNrONHOw_3std2fsNtB5_4FileNtNtB7_2io5Write14write_vectored
libstd-a4a285076b042e1f.so:_RNvXsb_NtCsc6rNrONHOw_3std2fsNtB5_4FileNtNtB7_2io5Write5write
libstd-a4a285076b042e1f.so:_RNvXsb_NtCsc6rNrONHOw_3std4pathNtB5_4IterNtNtCsc9UXYxZytPG_4core3fmt5Debug3fmt
libstd-a4a285076b042e1f.so:_RNvXsb_NtCsc9UXYxZytPG_4core3fmtNtB5_9FormatterNtB5_5Write10write_char
libstd-a4a285076b042e1f.so:_RNvXsb_NtCsc9UXYxZytPG_4core3fmtNtB5_9FormatterNtB5_5Write9write_str
libstd-a4a285076b042e1f.so:_RNvXsb_NtCsc9UXYxZytPG_4core3pattNtB5_12RangePattern7sub_one
libstd-a4a285076b042e1f.so:_RNvXsb_NtCsc9UXYxZytPG_4core4timeNtB5_21TryFromFloatSecsErrorNtNtB7_3fmt7Display3fmt
libstd-a4a285076b042e1f.so:_RNvXsb_NtNtCsc9UXYxZytPG_4core3fmt3numaNtB7_6Binary3fmt
libstd-a4a285076b042e1f.so:_RNvXsb_NtNtCsc9UXYxZytPG_4core3fmt5floatC3f16NtB7_7Display3fmt
libstd-a4a285076b042e1f.so:_RNvXsb_NtNtCsc9UXYxZytPG_4core3net6parserNtB5_14AddrParseErrorNtNtB9_3fmt7Display3fmt
libstd-a4a285076b042e1f.so:_RNvXsb_NtNtNtCsc6rNrONHOw_3std3sys2fs4unixNtB5_15FilePermissionsNtNtCsc9UXYxZytPG_4core3fmt5Debug3fmt
libstd-a4a285076b042e1f.so:_RNvXsb_NtNtNtNtCsc6rNrONHOw_3std3sys7process4unix6commonNtB5_11CommandArgsNtNtNtNtCsc9UXYxZytPG_4core4iter6traits8iterator8Iterator4next
libstd-a4a285076b042e1f.so:_RNvXsb_NtNtNtNtCsc6rNrONHOw_3std3sys7process4unix6commonNtB5_11CommandArgsNtNtNtNtCsc9UXYxZytPG_4core4iter6traits8iterator8Iterator9size_hint
libstd-a4a285076b042e1f.so:_RNvXsbg_NtNtNtCsgD73w63XKKY_4libc4unix10linux_like5linuxNtB6_34___c_anonymous_ptp_perout_request_1NtNtCsc9UXYxZytPG_4core3fmt5Debug3fmt
libstd-a4a285076b042e1f.so:_RNvXsbk_NtNtNtCsgD73w63XKKY_4libc4unix10linux_like5linuxNtB6_34___c_anonymous_ptp_perout_request_2NtNtCsc9UXYxZytPG_4core3fmt5Debug3fmt
libstd-a4a285076b042e1f.so:_RNvXsbw_NtNtNtCsgD73w63XKKY_4libc4unix10linux_like5linuxNtB6_35___c_anonymous_xsk_tx_metadata_unionNtNtCsc9UXYxZytPG_4core3fmt5Debug3fmt
libstd-a4a285076b042e1f.so:_RNvXsc_NtCsc6rNrONHOw_3std2fsNtB5_4FileNtNtB7_2io4Seek10stream_len
libstd-a4a285076b042e1f.so:_RNvXsc_NtCsc6rNrONHOw_3std2fsNtB5_4FileNtNtB7_2io4Seek15stream_position
libstd-a4a285076b042e1f.so:_RNvXsc_NtCsc6rNrONHOw_3std2fsNtB5_4FileNtNtB7_2io4Seek4seek
libstd-a4a285076b042e1f.so:_RNvXsc_NtCsc6rNrONHOw_3std3envNtB5_4ArgsNtNtNtNtCsc9UXYxZytPG_4core4iter6traits12double_ended19DoubleEndedIterator9next_back
libstd-a4a285076b042e1f.so:_RNvXsc_NtCsc9UXYxZytPG_4core3fmtNtB5_5ErrorNtB5_7Display3fmt
libstd-a4a285076b042e1f.so:_RNvXsc_NtCsc9UXYxZytPG_4core3patmNtB5_12RangePattern7sub_one
libstd-a4a285076b042e1f.so:_RNvXsc_NtNtCsc9UXYxZytPG_4core3ffi7va_listNtB5_10VaListImplNtNtB9_3fmt5Debug3fmt
libstd-a4a285076b042e1f.so:_RNvXsc_NtNtCsc9UXYxZytPG_4core3fmt3numhNtB7_5Octal3fmt
libstd-a4a285076b042e1f.so:_RNvXsc_NtNtCsc9UXYxZytPG_4core3fmt5floatC3f16NtB7_8LowerExp3fmt
libstd-a4a285076b042e1f.so:_RNvXsc_NtNtCsc9UXYxZytPG_4core3num11niche_typesNtB5_11NanosecondsNtNtB9_3fmt5Debug3fmt
libstd-a4a285076b042e1f.so:_RNvXsc_NtNtNtCsc6rNrONHOw_3std3sys2fs4unixNtB5_7ReadDirNtNtCsc9UXYxZytPG_4core3fmt5Debug3fmt
libstd-a4a285076b042e1f.so:_RNvXsc_NtNtNtNtCsc6rNrONHOw_3std3sys3net10connection6socketNtB5_9UdpSocketNtNtCsc9UXYxZytPG_4core3fmt5Debug3fmt
libstd-a4a285076b042e1f.so:_RNvXsc_NtNtNtNtCsc6rNrONHOw_3std3sys7process4unix6commonNtB5_11CommandArgsNtNtNtNtCsc9UXYxZytPG_4core4iter6traits10exact_size17ExactSizeIterator3len
libstd-a4a285076b042e1f.so:_RNvXsd_NtCsc6rNrONHOw_3std2fsINtNtCskIlJ6Bf8u3b_5alloc4sync3ArcNtB5_4FileENtNtB7_2io4Read11read_to_end
libstd-a4a285076b042e1f.so:_RNvXsd_NtCsc6rNrONHOw_3std2fsINtNtCskIlJ6Bf8u3b_5alloc4sync3ArcNtB5_4FileENtNtB7_2io4Read13read_vectored
libstd-a4a285076b042e1f.so:_RNvXsd_NtCsc6rNrONHOw_3std2fsINtNtCskIlJ6Bf8u3b_5alloc4sync3ArcNtB5_4FileENtNtB7_2io4Read14read_to_string
libstd-a4a285076b042e1f.so:_RNvXsd_NtCsc6rNrONHOw_3std2fsINtNtCskIlJ6Bf8u3b_5alloc4sync3ArcNtB5_4FileENtNtB7_2io4Read4read
libstd-a4a285076b042e1f.so:_RNvXsd_NtCsc6rNrONHOw_3std2fsINtNtCskIlJ6Bf8u3b_5alloc4sync3ArcNtB5_4FileENtNtB7_2io4Read8read_buf
libstd-a4a285076b042e1f.so:_RNvXsd_NtCsc6rNrONHOw_3std3envNtB5_4ArgsNtNtCsc9UXYxZytPG_4core3fmt5Debug3fmt
libstd-a4a285076b042e1f.so:_RNvXsd_NtCsc6rNrONHOw_3std4timeNtB5_15SystemTimeErrorNtNtCsc9UXYxZytPG_4core3fmt7Display3fmt
libstd-a4a285076b042e1f.so:_RNvXsd_NtCsc6rNrONHOw_3std7processNtB5_11ChildStdoutNtNtCsc9UXYxZytPG_4core3fmt5Debug3fmt
libstd-a4a285076b042e1f.so:_RNvXsd_NtCsc9UXYxZytPG_4core3patyNtB5_12RangePattern7sub_one
libstd-a4a285076b042e1f.so:_RNvXsd_NtCsc9UXYxZytPG_4core4wtf8NtB5_10EncodeWideNtNtB7_3fmt5Debug3fmt
libstd-a4a285076b042e1f.so:_RNvXsd_NtNtCsc6rNrONHOw_3std2io5stdioNtB5_6StdoutNtNtCsc9UXYxZytPG_4core3fmt5Debug3fmt
libstd-a4a285076b042e1f.so:_RNvXsd_NtNtCsc9UXYxZytPG_4core3fmt3numaNtB7_5Octal3fmt
libstd-a4a285076b042e1f.so:_RNvXsd_NtNtCsc9UXYxZytPG_4core3fmt5floatC3f16NtB7_8UpperExp3fmt
libstd-a4a285076b042e1f.so:_RNvXsd_NtNtNtCsc6rNrONHOw_3std3sys2fs4unixNtB5_7ReadDirNtNtNtNtCsc9UXYxZytPG_4core4iter6traits8iterator8Iterator4next
libstd-a4a285076b042e1f.so:_RNvXsd_NtNtNtCsc9UXYxZytPG_4core3fmt3num3impjNtB9_7Display3fmt
libstd-a4a285076b042e1f.so:_RNvXsd_NtNtNtNtCsc6rNrONHOw_3std3sys7process4unix6commonNtB5_11CommandArgsNtNtCsc9UXYxZytPG_4core3fmt5Debug3fmt
libstd-a4a285076b042e1f.so:_RNvXse_NtCs55LTYJXEnzY_5gimli9constantsNtB5_8DwSectV2NtNtCsc9UXYxZytPG_4core3fmt7Display3fmt
libstd-a4a285076b042e1f.so:_RNvXse_NtCsc6rNrONHOw_3std2fsINtNtCskIlJ6Bf8u3b_5alloc4sync3ArcNtB5_4FileENtNtB7_2io5Write14write_vectored
libstd-a4a285076b042e1f.so:_RNvXse_NtCsc6rNrONHOw_3std2fsINtNtCskIlJ6Bf8u3b_5alloc4sync3ArcNtB5_4FileENtNtB7_2io5Write5write
libstd-a4a285076b042e1f.so:_RNvXse_NtCsc6rNrONHOw_3std7processNtB5_11ChildStderrNtNtB7_2io4Read11read_to_end
libstd-a4a285076b042e1f.so:_RNvXse_NtCsc6rNrONHOw_3std7processNtB5_11ChildStderrNtNtB7_2io4Read13read_vectored
libstd-a4a285076b042e1f.so:_RNvXse_NtCsc6rNrONHOw_3std7processNtB5_11ChildStderrNtNtB7_2io4Read4read
libstd-a4a285076b042e1f.so:_RNvXse_NtCsc6rNrONHOw_3std7processNtB5_11ChildStderrNtNtB7_2io4Read8read_buf
libstd-a4a285076b042e1f.so:_RNvXse_NtCsc9UXYxZytPG_4core3patoNtB5_12RangePattern7sub_one
libstd-a4a285076b042e1f.so:_RNvXse_NtCsc9UXYxZytPG_4core4charNtB5_15CaseMappingIterNtNtNtNtB7_4iter6traits8iterator8Iterator10advance_by
libstd-a4a285076b042e1f.so:_RNvXse_NtCsc9UXYxZytPG_4core4charNtB5_15CaseMappingIterNtNtNtNtB7_4iter6traits8iterator8Iterator24___iterator_get_unchecked
libstd-a4a285076b042e1f.so:_RNvXse_NtCsc9UXYxZytPG_4core4charNtB5_15CaseMappingIterNtNtNtNtB7_4iter6traits8iterator8Iterator4last
libstd-a4a285076b042e1f.so:_RNvXse_NtCsc9UXYxZytPG_4core4charNtB5_15CaseMappingIterNtNtNtNtB7_4iter6traits8iterator8Iterator4next
libstd-a4a285076b042e1f.so:_RNvXse_NtCsc9UXYxZytPG_4core4charNtB5_15CaseMappingIterNtNtNtNtB7_4iter6traits8iterator8Iterator5count
libstd-a4a285076b042e1f.so:_RNvXse_NtNtCsc6rNrONHOw_3std2io5stdioNtB5_6StdoutNtB7_5Write14write_vectored
libstd-a4a285076b042e1f.so:_RNvXse_NtNtCsc6rNrONHOw_3std2io5stdioNtB5_6StdoutNtB7_5Write18write_all_vectored
libstd-a4a285076b042e1f.so:_RNvXse_NtNtCsc6rNrONHOw_3std2io5stdioNtB5_6StdoutNtB7_5Write5flush
libstd-a4a285076b042e1f.so:_RNvXse_NtNtCsc6rNrONHOw_3std2io5stdioNtB5_6StdoutNtB7_5Write5write
libstd-a4a285076b042e1f.so:_RNvXse_NtNtCsc6rNrONHOw_3std2io5stdioNtB5_6StdoutNtB7_5Write9write_all
libstd-a4a285076b042e1f.so:_RNvXse_NtNtCsc6rNrONHOw_3std2io5stdioNtB5_6StdoutNtB7_5Write9write_fmt
libstd-a4a285076b042e1f.so:_RNvXse_NtNtCsc9UXYxZytPG_4core3fmt3numhNtB7_8LowerHex3fmt
libstd-a4a285076b042e1f.so:_RNvXse_NtNtNtCsc6rNrONHOw_3std3sys2fs4unixNtB5_3DirNtNtNtCsc9UXYxZytPG_4core3ops4drop4Drop4drop
libstd-a4a285076b042e1f.so:_RNvXse_NtNtNtCsc9UXYxZytPG_4core3fmt3num3impiNtB9_7Display3fmt
libstd-a4a285076b042e1f.so:_RNvXsf_NtCsc6rNrONHOw_3std2fsINtNtCskIlJ6Bf8u3b_5alloc4sync3ArcNtB5_4FileENtNtB7_2io4Seek10stream_len
libstd-a4a285076b042e1f.so:_RNvXsf_NtCsc6rNrONHOw_3std2fsINtNtCskIlJ6Bf8u3b_5alloc4sync3ArcNtB5_4FileENtNtB7_2io4Seek15stream_position
libstd-a4a285076b042e1f.so:_RNvXsf_NtCsc6rNrONHOw_3std2fsINtNtCskIlJ6Bf8u3b_5alloc4sync3ArcNtB5_4FileENtNtB7_2io4Seek4seek
libstd-a4a285076b042e1f.so:_RNvXsf_NtCsc9UXYxZytPG_4core3patjNtB5_12RangePattern7sub_one
libstd-a4a285076b042e1f.so:_RNvXsf_NtCsc9UXYxZytPG_4core4charNtB5_15CaseMappingIterNtNtNtNtB7_4iter6traits12double_ended19DoubleEndedIterator15advance_back_by
libstd-a4a285076b042e1f.so:_RNvXsf_NtCsc9UXYxZytPG_4core4charNtB5_15CaseMappingIterNtNtNtNtB7_4iter6traits12double_ended19DoubleEndedIterator9next_back
libstd-a4a285076b042e1f.so:_RNvXsf_NtCskIlJ6Bf8u3b_5alloc5boxedINtB5_3BoxeENtNtCsc9UXYxZytPG_4core5clone5Clone5clone
libstd-a4a285076b042e1f.so:_RNvXsf_NtNtCsc6rNrONHOw_3std2io5stdioRNtB5_6StdoutNtB7_5Write14write_vectored
libstd-a4a285076b042e1f.so:_RNvXsf_NtNtCsc6rNrONHOw_3std2io5stdioRNtB5_6StdoutNtB7_5Write18write_all_vectored
libstd-a4a285076b042e1f.so:_RNvXsf_NtNtCsc6rNrONHOw_3std2io5stdioRNtB5_6StdoutNtB7_5Write5flush
libstd-a4a285076b042e1f.so:_RNvXsf_NtNtCsc6rNrONHOw_3std2io5stdioRNtB5_6StdoutNtB7_5Write5write
libstd-a4a285076b042e1f.so:_RNvXsf_NtNtCsc6rNrONHOw_3std2io5stdioRNtB5_6StdoutNtB7_5Write9write_all
libstd-a4a285076b042e1f.so:_RNvXsf_NtNtCsc6rNrONHOw_3std2io5stdioRNtB5_6StdoutNtB7_5Write9write_fmt
libstd-a4a285076b042e1f.so:_RNvXsf_NtNtCsc6rNrONHOw_3std3net3tcpNtB5_11TcpListenerNtNtCsc9UXYxZytPG_4core3fmt5Debug3fmt
libstd-a4a285076b042e1f.so:_RNvXsf_NtNtCsc9UXYxZytPG_4core3fmt3numaNtB7_8LowerHex3fmt
libstd-a4a285076b042e1f.so:_RNvXsf_NtNtCsc9UXYxZytPG_4core4task4wakeNtB5_10LocalWakerNtNtB9_3fmt5Debug3fmt
libstd-a4a285076b042e1f.so:_RNvXsf_NtNtNtCs3jZe4LgnEve_6object4read3elf10relocationNtB5_12CrelIteratorNtNtNtNtCsc9UXYxZytPG_4core4iter6traits8iterator8Iterator4next
libstd-a4a285076b042e1f.so:_RNvXsf_NtNtNtCsc6rNrONHOw_3std2os2fd3rawNtNtNtBb_2io4pipe10PipeReaderNtB5_9FromRawFd11from_raw_fd
libstd-a4a285076b042e1f.so:_RNvXsg_NtCsc9UXYxZytPG_4core3fmtbNtB5_7Display3fmt
libstd-a4a285076b042e1f.so:_RNvXsg_NtNtCsc9UXYxZytPG_4core3fmt3numhNtB7_8UpperHex3fmt
libstd-a4a285076b042e1f.so:_RNvXsg_NtNtCskIlJ6Bf8u3b_5alloc5boxed7convertINtB7_3BoxDNtNtCsc9UXYxZytPG_4core5error5ErrorEL_EINtNtBW_7convert4FromNtNtB9_6string6StringE4from
libstd-a4a285076b042e1f.so:_RNvXsh_NtCsc9UXYxZytPG_4core3fmteNtB5_5Debug3fmt
libstd-a4a285076b042e1f.so:_RNvXsh_NtCskIlJ6Bf8u3b_5alloc6borrowINtB5_3CoweEINtNtNtCsc9UXYxZytPG_4core3ops5arith9AddAssignReE10add_assign
libstd-a4a285076b042e1f.so:_RNvXsh_NtNtCsc9UXYxZytPG_4core3fmt3numaNtB7_8UpperHex3fmt
libstd-a4a285076b042e1f.so:_RNvXsh_NtNtNtCsc6rNrONHOw_3std3sys2fs4unixNtB5_11OpenOptionsNtNtCsc9UXYxZytPG_4core3fmt5Debug3fmt
libstd-a4a285076b042e1f.so:_RNvXsi_NtCsc6rNrONHOw_3std4pathNtB5_10ComponentsNtNtNtNtCsc9UXYxZytPG_4core4iter6traits8iterator8Iterator4next
libstd-a4a285076b042e1f.so:_RNvXsi_NtCsc6rNrONHOw_3std7processNtB5_11ChildStderrNtNtCsc9UXYxZytPG_4core3fmt5Debug3fmt
libstd-a4a285076b042e1f.so:_RNvXsi_NtCsc9UXYxZytPG_4core3fmteNtB5_7Display3fmt
libstd-a4a285076b042e1f.so:_RNvXsi_NtCskIlJ6Bf8u3b_5alloc6borrowINtB5_3CoweENtNtNtCsc9UXYxZytPG_4core3ops5arith9AddAssign10add_assign
libstd-a4a285076b042e1f.so:_RNvXsi_NtNtCsc6rNrONHOw_3std2io5stdioNtB5_10StdoutLockNtB7_5Write14write_vectored
libstd-a4a285076b042e1f.so:_RNvXsi_NtNtCsc6rNrONHOw_3std2io5stdioNtB5_10StdoutLockNtB7_5Write18write_all_vectored
libstd-a4a285076b042e1f.so:_RNvXsi_NtNtCsc6rNrONHOw_3std2io5stdioNtB5_10StdoutLockNtB7_5Write5flush
libstd-a4a285076b042e1f.so:_RNvXsi_NtNtCsc6rNrONHOw_3std2io5stdioNtB5_10StdoutLockNtB7_5Write5write
libstd-a4a285076b042e1f.so:_RNvXsi_NtNtCsc6rNrONHOw_3std2io5stdioNtB5_10StdoutLockNtB7_5Write9write_all
libstd-a4a285076b042e1f.so:_RNvXsi_NtNtCsc9UXYxZytPG_4core3fmt3numtNtB7_6Binary3fmt
libstd-a4a285076b042e1f.so:_RNvXsi_NtNtCskIlJ6Bf8u3b_5alloc5boxed7convertINtB7_3BoxDNtNtCsc9UXYxZytPG_4core5error5ErrorEL_EINtNtBW_7convert4FromReE4from
libstd-a4a285076b042e1f.so:_RNvXsi_NtNtNtCsc6rNrONHOw_3std2os2fd3rawNtNtNtBb_2io4pipe10PipeWriterNtB5_9FromRawFd11from_raw_fd
libstd-a4a285076b042e1f.so:_RNvXsi_NtNtNtCsc9UXYxZytPG_4core3fmt3num3impyNtB9_7Display3fmt
libstd-a4a285076b042e1f.so:_RNvXsj_NtCsc6rNrONHOw_3std3envNtB5_6ArgsOsNtNtCsc9UXYxZytPG_4core3fmt5Debug3fmt
libstd-a4a285076b042e1f.so:_RNvXsj_NtCsc6rNrONHOw_3std4pathNtB5_10ComponentsNtNtNtNtCsc9UXYxZytPG_4core4iter6traits12double_ended19DoubleEndedIterator9next_back
libstd-a4a285076b042e1f.so:_RNvXsj_NtCsc9UXYxZytPG_4core3fmtcNtB5_5Debug3fmt
libstd-a4a285076b042e1f.so:_RNvXsj_NtNtCsc6rNrONHOw_3std2io5stdioNtB5_10StdoutLockNtNtCsc9UXYxZytPG_4core3fmt5Debug3fmt
libstd-a4a285076b042e1f.so:_RNvXsj_NtNtCsc9UXYxZytPG_4core3fmt3numsNtB7_6Binary3fmt
libstd-a4a285076b042e1f.so:_RNvXsj_NtNtCsc9UXYxZytPG_4core3net7ip_addrNtB5_8Ipv6AddrNtNtB9_3fmt7Display3fmt
libstd-a4a285076b042e1f.so:_RNvXsj_NtNtCskIlJ6Bf8u3b_5alloc5boxed7convertINtB7_3BoxDNtNtCsc9UXYxZytPG_4core5error5ErrorNtNtBW_6marker4SendNtB1t_4SyncEL_EINtNtBW_7convert4FromINtNtB9_6borrow3CoweEE4from
libstd-a4a285076b042e1f.so:_RNvXsj_NtNtNtCsc9UXYxZytPG_4core3fmt3num3impxNtB9_7Display3fmt
libstd-a4a285076b042e1f.so:_RNvXsk_NtCsc6rNrONHOw_3std2fsNtB5_8MetadataNtNtCsc9UXYxZytPG_4core3fmt5Debug3fmt
libstd-a4a285076b042e1f.so:_RNvXsk_NtCsc9UXYxZytPG_4core3fmtcNtB5_7Display3fmt
libstd-a4a285076b042e1f.so:_RNvXsk_NtNtCsc6rNrONHOw_3std3ffi6os_strNtB5_8OsStringNtNtCsc9UXYxZytPG_4core3fmt5Write9write_str
libstd-a4a285076b042e1f.so:_RNvXsk_NtNtCsc9UXYxZytPG_4core3fmt3numtNtB7_5Octal3fmt
libstd-a4a285076b042e1f.so:_RNvXsk_NtNtCsc9UXYxZytPG_4core3net7ip_addrNtB5_8Ipv6AddrNtNtB9_3fmt5Debug3fmt
libstd-a4a285076b042e1f.so:_RNvXsk_NtNtCskIlJ6Bf8u3b_5alloc5boxed7convertINtB7_3BoxDNtNtCsc9UXYxZytPG_4core5error5ErrorEL_EINtNtBW_7convert4FromINtNtB9_6borrow3CoweEE4from
libstd-a4a285076b042e1f.so:_RNvXsk_NtNtNtCsc6rNrONHOw_3std3sys2fs4unixNtB5_10DirBuilderNtNtCsc9UXYxZytPG_4core3fmt5Debug3fmt
libstd-a4a285076b042e1f.so:_RNvXsl_NtCsc6rNrONHOw_3std7processNtB5_7CommandNtNtCsc9UXYxZytPG_4core3fmt5Debug3fmt
libstd-a4a285076b042e1f.so:_RNvXsl_NtCskIlJ6Bf8u3b_5alloc6stringRNtB5_6StringNtNtNtCsc9UXYxZytPG_4core3str7pattern7Pattern13into_searcher
libstd-a4a285076b042e1f.so:_RNvXsl_NtNtCsc9UXYxZytPG_4core3fmt3numsNtB7_5Octal3fmt
libstd-a4a285076b042e1f.so:_RNvXsm_NtCsc9UXYxZytPG_4core4charNtB5_16TryFromCharErrorNtNtB7_3fmt7Display3fmt
libstd-a4a285076b042e1f.so:_RNvXsm_NtNtCsc9UXYxZytPG_4core3fmt3numtNtB7_8LowerHex3fmt
libstd-a4a285076b042e1f.so:_RNvXsm_NtNtNtNtCsc6rNrONHOw_3std3sys2io11kernel_copy5linuxNtNtNtBd_2io5stdio9StdinLockNtB5_8CopyRead10properties
libstd-a4a285076b042e1f.so:_RNvXsn_NtCsc9UXYxZytPG_4core4cellNtB5_11BorrowErrorNtNtB7_3fmt7Display3fmt
libstd-a4a285076b042e1f.so:_RNvXsn_NtNtCsc6rNrONHOw_3std2io5stdioNtB5_6StderrNtNtCsc9UXYxZytPG_4core3fmt5Debug3fmt
libstd-a4a285076b042e1f.so:_RNvXsn_NtNtCsc6rNrONHOw_3std4sync4mpscNtB5_9RecvErrorNtNtCsc9UXYxZytPG_4core3fmt7Display3fmt
libstd-a4a285076b042e1f.so:_RNvXsn_NtNtCsc9UXYxZytPG_4core3fmt3numsNtB7_8LowerHex3fmt
libstd-a4a285076b042e1f.so:_RNvXsn_NtNtCsc9UXYxZytPG_4core3num11niche_typesNtB5_14NonZeroU8InnerNtNtB9_3fmt5Debug3fmt
libstd-a4a285076b042e1f.so:_RNvXsn_NtNtNtCsc9UXYxZytPG_4core3fmt3num3impaNtB9_8LowerExp3fmt
libstd-a4a285076b042e1f.so:_RNvXsn_NtNtNtNtCsc6rNrONHOw_3std3sys2io11kernel_copy5linuxNtNtNtBd_2io5stdio10StdoutLockNtB5_9CopyWrite10properties
libstd-a4a285076b042e1f.so:_RNvXso_NtCsc6rNrONHOw_3std7processNtB5_11CommandArgsNtNtNtNtCsc9UXYxZytPG_4core4iter6traits8iterator8Iterator4next
libstd-a4a285076b042e1f.so:_RNvXso_NtCsc6rNrONHOw_3std7processNtB5_11CommandArgsNtNtNtNtCsc9UXYxZytPG_4core4iter6traits8iterator8Iterator9size_hint
libstd-a4a285076b042e1f.so:_RNvXso_NtCsc9UXYxZytPG_4core4cellNtB5_14BorrowMutErrorNtNtB7_3fmt7Display3fmt
libstd-a4a285076b042e1f.so:_RNvXso_NtCskIlJ6Bf8u3b_5alloc3vecINtB5_3VecNtNtNtCs55LTYJXEnzY_5gimli4read6abbrev22AttributeSpecificationENtNtNtCsc9UXYxZytPG_4core3ops4drop4Drop4dropBL_
libstd-a4a285076b042e1f.so:_RNvXso_NtCskIlJ6Bf8u3b_5alloc3vecINtB5_3VechENtNtNtCsc9UXYxZytPG_4core3ops4drop4Drop4dropCs55LTYJXEnzY_5gimli
libstd-a4a285076b042e1f.so:_RNvXso_NtNtCsc6rNrONHOw_3std2io5stdioNtB5_6StderrNtB7_5Write14write_vectored
libstd-a4a285076b042e1f.so:_RNvXso_NtNtCsc6rNrONHOw_3std2io5stdioNtB5_6StderrNtB7_5Write18write_all_vectored
libstd-a4a285076b042e1f.so:_RNvXso_NtNtCsc6rNrONHOw_3std2io5stdioNtB5_6StderrNtB7_5Write5flush
libstd-a4a285076b042e1f.so:_RNvXso_NtNtCsc6rNrONHOw_3std2io5stdioNtB5_6StderrNtB7_5Write5write
libstd-a4a285076b042e1f.so:_RNvXso_NtNtCsc6rNrONHOw_3std2io5stdioNtB5_6StderrNtB7_5Write9write_all
libstd-a4a285076b042e1f.so:_RNvXso_NtNtCsc6rNrONHOw_3std2io5stdioNtB5_6StderrNtB7_5Write9write_fmt
libstd-a4a285076b042e1f.so:_RNvXso_NtNtCsc9UXYxZytPG_4core3fmt3numtNtB7_8UpperHex3fmt
libstd-a4a285076b042e1f.so:_RNvXso_NtNtNtCsc9UXYxZytPG_4core3fmt3num3imphNtB9_8LowerExp3fmt
libstd-a4a285076b042e1f.so:_RNvXso_NtNtNtNtCsc6rNrONHOw_3std3sys2io11kernel_copy5linuxNtNtNtBd_2io5stdio10StderrLockNtB5_9CopyWrite10properties
libstd-a4a285076b042e1f.so:_RNvXsp_NtCsc6rNrONHOw_3std7processNtB5_11CommandArgsNtNtNtNtCsc9UXYxZytPG_4core4iter6traits10exact_size17ExactSizeIterator3len
libstd-a4a285076b042e1f.so:_RNvXsp_NtNtCsc6rNrONHOw_3std2io5stdioRNtB5_6StderrNtB7_5Write14write_vectored
libstd-a4a285076b042e1f.so:_RNvXsp_NtNtCsc6rNrONHOw_3std2io5stdioRNtB5_6StderrNtB7_5Write18write_all_vectored
libstd-a4a285076b042e1f.so:_RNvXsp_NtNtCsc6rNrONHOw_3std2io5stdioRNtB5_6StderrNtB7_5Write5flush
libstd-a4a285076b042e1f.so:_RNvXsp_NtNtCsc6rNrONHOw_3std2io5stdioRNtB5_6StderrNtB7_5Write5write
libstd-a4a285076b042e1f.so:_RNvXsp_NtNtCsc6rNrONHOw_3std2io5stdioRNtB5_6StderrNtB7_5Write9write_all
libstd-a4a285076b042e1f.so:_RNvXsp_NtNtCsc6rNrONHOw_3std2io5stdioRNtB5_6StderrNtB7_5Write9write_fmt
libstd-a4a285076b042e1f.so:_RNvXsp_NtNtCsc6rNrONHOw_3std4sync4mpscNtB5_12TryRecvErrorNtNtCsc9UXYxZytPG_4core3fmt7Display3fmt
libstd-a4a285076b042e1f.so:_RNvXsp_NtNtCsc9UXYxZytPG_4core3fmt3numsNtB7_8UpperHex3fmt
libstd-a4a285076b042e1f.so:_RNvXsp_NtNtNtCsc9UXYxZytPG_4core3fmt3num3impaNtB9_8UpperExp3fmt
libstd-a4a285076b042e1f.so:_RNvXsq_NtCs55LTYJXEnzY_5gimli9constantsNtB5_4DwUtNtNtCsc9UXYxZytPG_4core3fmt7Display3fmt
libstd-a4a285076b042e1f.so:_RNvXsq_NtCsc6rNrONHOw_3std7processNtB5_11CommandEnvsNtNtNtNtCsc9UXYxZytPG_4core4iter6traits8iterator8Iterator4next
libstd-a4a285076b042e1f.so:_RNvXsq_NtNtCsc9UXYxZytPG_4core3fmt3nummNtB7_6Binary3fmt
libstd-a4a285076b042e1f.so:_RNvXsq_NtNtCskIlJ6Bf8u3b_5alloc3ffi5c_strINtNtB9_5boxed3BoxNtNtNtCsc9UXYxZytPG_4core3ffi5c_str4CStrENtNtB11_7default7Default7default
libstd-a4a285076b042e1f.so:_RNvXsq_NtNtNtCsc9UXYxZytPG_4core3fmt3num3imphNtB9_8UpperExp3fmt
libstd-a4a285076b042e1f.so:_RNvXsr_NtCsc9UXYxZytPG_4core3fmtSNtNtNtCs55LTYJXEnzY_5gimli4read6abbrev22AttributeSpecificationNtB5_5Debug3fmtBB_
libstd-a4a285076b042e1f.so:_RNvXsr_NtCsc9UXYxZytPG_4core3fmtShNtB5_5Debug3fmtCs46PeV0vGECM_14rustc_demangle
libstd-a4a285076b042e1f.so:_RNvXsr_NtNtCsc9UXYxZytPG_4core3fmt3numlNtB7_6Binary3fmt
libstd-a4a285076b042e1f.so:_RNvXsr_NtNtNtCsc9UXYxZytPG_4core3fmt3num3impsNtB9_8LowerExp3fmt
libstd-a4a285076b042e1f.so:_RNvXss_NtCsc6rNrONHOw_3std2fsNtB5_8FileTypeNtNtCsc9UXYxZytPG_4core3fmt5Debug3fmt
libstd-a4a285076b042e1f.so:_RNvXss_NtCsc6rNrONHOw_3std7processNtB5_11CommandEnvsNtNtCsc9UXYxZytPG_4core3fmt5Debug3fmt
libstd-a4a285076b042e1f.so:_RNvXss_NtNtCsc6rNrONHOw_3std2io5stdioNtB5_10StderrLockNtB7_5Write14write_vectored
libstd-a4a285076b042e1f.so:_RNvXss_NtNtCsc6rNrONHOw_3std2io5stdioNtB5_10StderrLockNtB7_5Write18write_all_vectored
libstd-a4a285076b042e1f.so:_RNvXss_NtNtCsc6rNrONHOw_3std2io5stdioNtB5_10StderrLockNtB7_5Write5flush
libstd-a4a285076b042e1f.so:_RNvXss_NtNtCsc6rNrONHOw_3std2io5stdioNtB5_10StderrLockNtB7_5Write5write
libstd-a4a285076b042e1f.so:_RNvXss_NtNtCsc6rNrONHOw_3std2io5stdioNtB5_10StderrLockNtB7_5Write9write_all
libstd-a4a285076b042e1f.so:_RNvXss_NtNtCsc6rNrONHOw_3std4sync4mpscNtB5_16RecvTimeoutErrorNtNtCsc9UXYxZytPG_4core3fmt7Display3fmt
libstd-a4a285076b042e1f.so:_RNvXss_NtNtCsc9UXYxZytPG_4core3fmt3nummNtB7_5Octal3fmt
libstd-a4a285076b042e1f.so:_RNvXss_NtNtCskIlJ6Bf8u3b_5alloc3ffi5c_strNtB5_8NulErrorNtNtCsc9UXYxZytPG_4core3fmt7Display3fmt
libstd-a4a285076b042e1f.so:_RNvXss_NtNtNtCsc6rNrONHOw_3std3sys2fs4unixNtB5_4FileNtNtNtNtBb_2os2fd3raw9FromRawFd11from_raw_fd
libstd-a4a285076b042e1f.so:_RNvXss_NtNtNtCsc9UXYxZytPG_4core3fmt3num3imptNtB9_8LowerExp3fmt
libstd-a4a285076b042e1f.so:_RNvXst_NtCsc6rNrONHOw_3std4pathINtNtCskIlJ6Bf8u3b_5alloc5boxed3BoxNtB5_4PathEINtNtCsc9UXYxZytPG_4core7convert4FromRB12_E4from
libstd-a4a285076b042e1f.so:_RNvXst_NtNtCsc6rNrONHOw_3std2io5stdioNtB5_10StderrLockNtNtCsc9UXYxZytPG_4core3fmt5Debug3fmt
libstd-a4a285076b042e1f.so:_RNvXst_NtNtCsc9UXYxZytPG_4core3fmt3numlNtB7_5Octal3fmt
libstd-a4a285076b042e1f.so:_RNvXst_NtNtCskIlJ6Bf8u3b_5alloc3ffi5c_strNtB5_19FromVecWithNulErrorNtNtCsc9UXYxZytPG_4core3fmt7Display3fmt
libstd-a4a285076b042e1f.so:_RNvXst_NtNtNtCsc6rNrONHOw_3std3sys2fs4unixNtB5_4FileNtNtCsc9UXYxZytPG_4core3fmt5Debug3fmt
libstd-a4a285076b042e1f.so:_RNvXst_NtNtNtCsc9UXYxZytPG_4core3fmt3num3impsNtB9_8UpperExp3fmt
libstd-a4a285076b042e1f.so:_RNvXsu_NtCs7HZDCChmAB0_9hashbrown3rawNtB5_18FullBucketsIndicesNtNtCsc9UXYxZytPG_4core7default7Default7default
libstd-a4a285076b042e1f.so:_RNvXsu_NtCsc6rNrONHOw_3std4pathINtNtCskIlJ6Bf8u3b_5alloc5boxed3BoxNtB5_4PathEINtNtCsc9UXYxZytPG_4core7convert4FromQB12_E4from
libstd-a4a285076b042e1f.so:_RNvXsu_NtCsc6rNrONHOw_3std7processNtB5_6OutputNtNtCsc9UXYxZytPG_4core3fmt5Debug3fmt
libstd-a4a285076b042e1f.so:_RNvXsu_NtCsc9UXYxZytPG_4core4charNtB5_11ToLowercaseNtNtNtNtB7_4iter6traits8iterator8Iterator10advance_by
libstd-a4a285076b042e1f.so:_RNvXsu_NtCsc9UXYxZytPG_4core4charNtB5_11ToLowercaseNtNtNtNtB7_4iter6traits8iterator8Iterator24___iterator_get_unchecked
libstd-a4a285076b042e1f.so:_RNvXsu_NtCsc9UXYxZytPG_4core4charNtB5_11ToLowercaseNtNtNtNtB7_4iter6traits8iterator8Iterator4last
libstd-a4a285076b042e1f.so:_RNvXsu_NtCsc9UXYxZytPG_4core4charNtB5_11ToLowercaseNtNtNtNtB7_4iter6traits8iterator8Iterator4next
libstd-a4a285076b042e1f.so:_RNvXsu_NtCsc9UXYxZytPG_4core4charNtB5_11ToLowercaseNtNtNtNtB7_4iter6traits8iterator8Iterator5count
libstd-a4a285076b042e1f.so:_RNvXsu_NtNtCsc9UXYxZytPG_4core3fmt3nummNtB7_8LowerHex3fmt
libstd-a4a285076b042e1f.so:_RNvXsu_NtNtCsc9UXYxZytPG_4core3num11niche_typesNtB5_15NonZeroU16InnerNtNtB9_3fmt5Debug3fmt
libstd-a4a285076b042e1f.so:_RNvXsu_NtNtNtCsc6rNrONHOw_3std3sys2fs4unixNtB5_4ModeNtNtCsc9UXYxZytPG_4core3fmt5Debug3fmt
libstd-a4a285076b042e1f.so:_RNvXsu_NtNtNtCsc9UXYxZytPG_4core3fmt3num3imptNtB9_8UpperExp3fmt
libstd-a4a285076b042e1f.so:_RNvXsv_NtCsc9UXYxZytPG_4core4charNtB5_11ToLowercaseNtNtNtNtB7_4iter6traits12double_ended19DoubleEndedIterator15advance_back_by
libstd-a4a285076b042e1f.so:_RNvXsv_NtCsc9UXYxZytPG_4core4charNtB5_11ToLowercaseNtNtNtNtB7_4iter6traits12double_ended19DoubleEndedIterator9next_back
libstd-a4a285076b042e1f.so:_RNvXsv_NtNtCsc9UXYxZytPG_4core3fmt3numlNtB7_8LowerHex3fmt
libstd-a4a285076b042e1f.so:_RNvXsv_NtNtCskIlJ6Bf8u3b_5alloc3ffi5c_strNtB5_15IntoStringErrorNtNtCsc9UXYxZytPG_4core3fmt7Display3fmt
libstd-a4a285076b042e1f.so:_RNvXsv_NtNtNtCsc9UXYxZytPG_4core3fmt3num3implNtB9_8LowerExp3fmt
libstd-a4a285076b042e1f.so:_RNvXsw_NtCsc6rNrONHOw_3std2fsNtB5_7ReadDirNtNtNtNtCsc9UXYxZytPG_4core4iter6traits8iterator8Iterator4next
libstd-a4a285076b042e1f.so:_RNvXsw_NtNtCsc9UXYxZytPG_4core3fmt3nummNtB7_8UpperHex3fmt
libstd-a4a285076b042e1f.so:_RNvXsw_NtNtCskIlJ6Bf8u3b_5alloc3ffi5c_strNtNtNtCsc9UXYxZytPG_4core3ffi5c_str4CStrNtNtB9_6borrow7ToOwned10clone_into
libstd-a4a285076b042e1f.so:_RNvXsw_NtNtCskIlJ6Bf8u3b_5alloc3ffi5c_strNtNtNtCsc9UXYxZytPG_4core3ffi5c_str4CStrNtNtB9_6borrow7ToOwned8to_owned
libstd-a4a285076b042e1f.so:_RNvXsw_NtNtNtCsc9UXYxZytPG_4core3fmt3num3impmNtB9_8LowerExp3fmt
libstd-a4a285076b042e1f.so:_RNvXsx_NtCsc6rNrONHOw_3std7processNtB5_5StdioNtNtCsc9UXYxZytPG_4core3fmt5Debug3fmt
libstd-a4a285076b042e1f.so:_RNvXsx_NtNtCsc9UXYxZytPG_4core3fmt3numlNtB7_8UpperHex3fmt
libstd-a4a285076b042e1f.so:_RNvXsx_NtNtCskIlJ6Bf8u3b_5alloc3ffi5c_strNtB5_7CStringINtNtCsc9UXYxZytPG_4core7convert4FromRNtNtNtBV_3ffi5c_str4CStrE4from
libstd-a4a285076b042e1f.so:_RNvXsx_NtNtNtCsc9UXYxZytPG_4core3fmt3num3implNtB9_8UpperExp3fmt
libstd-a4a285076b042e1f.so:_RNvXsy_NtCsc6rNrONHOw_3std2fsNtB5_8DirEntryNtNtCsc9UXYxZytPG_4core3fmt5Debug3fmt
libstd-a4a285076b042e1f.so:_RNvXsy_NtNtCsc9UXYxZytPG_4core3fmt3numyNtB7_6Binary3fmt
libstd-a4a285076b042e1f.so:_RNvXsy_NtNtNtCsc6rNrONHOw_3std2os2fd5ownedNtNtNtBb_2io4pipe10PipeReaderNtB5_4AsFd5as_fd
libstd-a4a285076b042e1f.so:_RNvXsy_NtNtNtCsc9UXYxZytPG_4core3fmt3num3impmNtB9_8UpperExp3fmt
libstd-a4a285076b042e1f.so:_RNvXsz_NtNtCsc9UXYxZytPG_4core3fmt3numxNtB7_6Binary3fmt
libstd-a4a285076b042e1f.so:_RNvXsz_NtNtNtCsc9UXYxZytPG_4core3fmt3num3impiNtB9_8LowerExp3fmt
libstd-a4a285076b042e1f.so:_RNvYINtCs46PeV0vGECM_14rustc_demangle21SizeLimitedFmtAdapterQNtNtCsc9UXYxZytPG_4core3fmt9FormatterENtBZ_5Write10write_charB5_
libstd-a4a285076b042e1f.so:_RNvYINtCs46PeV0vGECM_14rustc_demangle21SizeLimitedFmtAdapterQNtNtCsc9UXYxZytPG_4core3fmt9FormatterENtBZ_5Write9write_fmtB5_
libstd-a4a285076b042e1f.so:_RNvYINtNtNtCsc9UXYxZytPG_4core5slice4iter4ItertENtNtNtNtB9_4iter8adapters3zip27TrustedRandomAccessNoCoerce4sizeCsloXJXCvFm1O_11miniz_oxide
libstd-a4a285076b042e1f.so:_RNvYINtNtNtCsc9UXYxZytPG_4core5slice4iter7IterMutmENtNtNtNtB9_4iter8adapters3zip27TrustedRandomAccessNoCoerce4sizeCsloXJXCvFm1O_11miniz_oxide
libstd-a4a285076b042e1f.so:rust_eh_personality
libstd-a4a285076b042e1f.so:rust_metadata_std_2461f68d081dbe2
